
build/wideband.elf:     file format elf32-littlearm


Disassembly of section .isr_vector:

00000000 <__isr_vector>:
   0:	20030000 	andcs	r0, r3, r0
   4:	00000bb9 			; <UNDEFINED> instruction: 0x00000bb9
   8:	00000be9 	andeq	r0, r0, r9, ror #23
   c:	00000bed 	andeq	r0, r0, sp, ror #23
  10:	00000bf1 	strdeq	r0, [r0], -r1
  14:	00000bf5 	strdeq	r0, [r0], -r5
  18:	00000bf9 	strdeq	r0, [r0], -r9
	...
  2c:	00000bfd 	strdeq	r0, [r0], -sp
  30:	00000c01 	andeq	r0, r0, r1, lsl #24
  34:	00000000 	andeq	r0, r0, r0
  38:	00000c05 	andeq	r0, r0, r5, lsl #24
  3c:	00000c09 	andeq	r0, r0, r9, lsl #24
  40:	00000c0d 	andeq	r0, r0, sp, lsl #24
  44:	00000c0d 	andeq	r0, r0, sp, lsl #24
  48:	00000c0d 	andeq	r0, r0, sp, lsl #24
  4c:	00000c0d 	andeq	r0, r0, sp, lsl #24
  50:	00000c0d 	andeq	r0, r0, sp, lsl #24
  54:	00000c0d 	andeq	r0, r0, sp, lsl #24
  58:	00000c0d 	andeq	r0, r0, sp, lsl #24
  5c:	00000c0d 	andeq	r0, r0, sp, lsl #24
  60:	00000c0d 	andeq	r0, r0, sp, lsl #24
  64:	00000c0d 	andeq	r0, r0, sp, lsl #24
  68:	00000c0d 	andeq	r0, r0, sp, lsl #24
  6c:	00000c0d 	andeq	r0, r0, sp, lsl #24
  70:	00000c0d 	andeq	r0, r0, sp, lsl #24
  74:	00000c0d 	andeq	r0, r0, sp, lsl #24
  78:	00000c0d 	andeq	r0, r0, sp, lsl #24
  7c:	00000c0d 	andeq	r0, r0, sp, lsl #24
  80:	00000c0d 	andeq	r0, r0, sp, lsl #24
  84:	00000c0d 	andeq	r0, r0, sp, lsl #24
  88:	00000c0d 	andeq	r0, r0, sp, lsl #24
  8c:	00000c0d 	andeq	r0, r0, sp, lsl #24
  90:	00000c0d 	andeq	r0, r0, sp, lsl #24
  94:	00000c0d 	andeq	r0, r0, sp, lsl #24
  98:	00000c0d 	andeq	r0, r0, sp, lsl #24
  9c:	00000c0d 	andeq	r0, r0, sp, lsl #24
  a0:	00000c0d 	andeq	r0, r0, sp, lsl #24
  a4:	00000c0d 	andeq	r0, r0, sp, lsl #24
  a8:	00000c0d 	andeq	r0, r0, sp, lsl #24
  ac:	00000c0d 	andeq	r0, r0, sp, lsl #24
  b0:	00000c0d 	andeq	r0, r0, sp, lsl #24
  b4:	00000c0d 	andeq	r0, r0, sp, lsl #24
  b8:	00000c0d 	andeq	r0, r0, sp, lsl #24
  bc:	00000c0d 	andeq	r0, r0, sp, lsl #24
  c0:	00000c0d 	andeq	r0, r0, sp, lsl #24
  c4:	00000c0d 	andeq	r0, r0, sp, lsl #24
  c8:	00000c0d 	andeq	r0, r0, sp, lsl #24
  cc:	00000c0d 	andeq	r0, r0, sp, lsl #24
  d0:	00000c0d 	andeq	r0, r0, sp, lsl #24
  d4:	00000c0d 	andeq	r0, r0, sp, lsl #24
  d8:	00000c0d 	andeq	r0, r0, sp, lsl #24
  dc:	00000c0d 	andeq	r0, r0, sp, lsl #24
  e0:	00000c0d 	andeq	r0, r0, sp, lsl #24
  e4:	00000c0d 	andeq	r0, r0, sp, lsl #24
  e8:	00000839 	andeq	r0, r0, r9, lsr r8
  ec:	00000c0d 	andeq	r0, r0, sp, lsl #24
  f0:	00000c0d 	andeq	r0, r0, sp, lsl #24
  f4:	00000c0d 	andeq	r0, r0, sp, lsl #24
  f8:	00000c0d 	andeq	r0, r0, sp, lsl #24
  fc:	00000c0d 	andeq	r0, r0, sp, lsl #24
 100:	000007c5 	andeq	r0, r0, r5, asr #15
 104:	000007e5 	andeq	r0, r0, r5, ror #15
 108:	00000c0d 	andeq	r0, r0, sp, lsl #24
 10c:	00000c0d 	andeq	r0, r0, sp, lsl #24
 110:	00000c0d 	andeq	r0, r0, sp, lsl #24
 114:	00000c0d 	andeq	r0, r0, sp, lsl #24
 118:	00000c0d 	andeq	r0, r0, sp, lsl #24
 11c:	00000c0d 	andeq	r0, r0, sp, lsl #24
 120:	00000c0d 	andeq	r0, r0, sp, lsl #24
 124:	00000c0d 	andeq	r0, r0, sp, lsl #24
 128:	00000c0d 	andeq	r0, r0, sp, lsl #24
 12c:	00000c0d 	andeq	r0, r0, sp, lsl #24
 130:	00000c0d 	andeq	r0, r0, sp, lsl #24
 134:	00000c0d 	andeq	r0, r0, sp, lsl #24
 138:	00000c0d 	andeq	r0, r0, sp, lsl #24
 13c:	00000c0d 	andeq	r0, r0, sp, lsl #24
 140:	00000c0d 	andeq	r0, r0, sp, lsl #24
 144:	00000c0d 	andeq	r0, r0, sp, lsl #24
 148:	00000c0d 	andeq	r0, r0, sp, lsl #24
 14c:	00000c0d 	andeq	r0, r0, sp, lsl #24
 150:	00000c0d 	andeq	r0, r0, sp, lsl #24
 154:	00000c0d 	andeq	r0, r0, sp, lsl #24
 158:	00000c0d 	andeq	r0, r0, sp, lsl #24
 15c:	00000c0d 	andeq	r0, r0, sp, lsl #24
 160:	00000c0d 	andeq	r0, r0, sp, lsl #24
 164:	00000b8d 	andeq	r0, r0, sp, lsl #23
 168:	00000c0d 	andeq	r0, r0, sp, lsl #24
 16c:	00000c0d 	andeq	r0, r0, sp, lsl #24
 170:	00000c0d 	andeq	r0, r0, sp, lsl #24
 174:	00000c0d 	andeq	r0, r0, sp, lsl #24
 178:	00000c0d 	andeq	r0, r0, sp, lsl #24
 17c:	00000c0d 	andeq	r0, r0, sp, lsl #24
 180:	00000c0d 	andeq	r0, r0, sp, lsl #24
 184:	00000c0d 	andeq	r0, r0, sp, lsl #24
 188:	00000c0d 	andeq	r0, r0, sp, lsl #24
 18c:	00000c0d 	andeq	r0, r0, sp, lsl #24
 190:	00000c0d 	andeq	r0, r0, sp, lsl #24
 194:	00000c0d 	andeq	r0, r0, sp, lsl #24

Disassembly of section .flash_protect:

00000400 <kinetis_flash_config>:
 400:	ffffffff 			; <UNDEFINED> instruction: 0xffffffff
 404:	ffffffff 			; <UNDEFINED> instruction: 0xffffffff
 408:	ffffffff 			; <UNDEFINED> instruction: 0xffffffff
 40c:	fffffffe 			; <UNDEFINED> instruction: 0xfffffffe

Disassembly of section .text:

00000410 <__do_global_dtors_aux>:
     410:	4b06      	ldr	r3, [pc, #24]	; (42c <__do_global_dtors_aux+0x1c>)
     412:	781a      	ldrb	r2, [r3, #0]
     414:	b510      	push	{r4, lr}
     416:	461c      	mov	r4, r3
     418:	b932      	cbnz	r2, 428 <__do_global_dtors_aux+0x18>
     41a:	4b05      	ldr	r3, [pc, #20]	; (430 <__do_global_dtors_aux+0x20>)
     41c:	b113      	cbz	r3, 424 <__do_global_dtors_aux+0x14>
     41e:	4805      	ldr	r0, [pc, #20]	; (434 <__do_global_dtors_aux+0x24>)
     420:	f3af 8000 	nop.w
     424:	2301      	movs	r3, #1
     426:	7023      	strb	r3, [r4, #0]
     428:	bd10      	pop	{r4, pc}
     42a:	bf00      	nop
     42c:	1fff0208 	svcne	0x00ff0208
     430:	00000000 	andeq	r0, r0, r0
     434:	000025ac 	andeq	r2, r0, ip, lsr #11

00000438 <frame_dummy>:
     438:	4b07      	ldr	r3, [pc, #28]	; (458 <frame_dummy+0x20>)
     43a:	b510      	push	{r4, lr}
     43c:	b11b      	cbz	r3, 446 <frame_dummy+0xe>
     43e:	4907      	ldr	r1, [pc, #28]	; (45c <frame_dummy+0x24>)
     440:	4807      	ldr	r0, [pc, #28]	; (460 <frame_dummy+0x28>)
     442:	f3af 8000 	nop.w
     446:	4807      	ldr	r0, [pc, #28]	; (464 <frame_dummy+0x2c>)
     448:	6803      	ldr	r3, [r0, #0]
     44a:	b123      	cbz	r3, 456 <frame_dummy+0x1e>
     44c:	4b06      	ldr	r3, [pc, #24]	; (468 <frame_dummy+0x30>)
     44e:	b113      	cbz	r3, 456 <frame_dummy+0x1e>
     450:	e8bd 4010 	ldmia.w	sp!, {r4, lr}
     454:	4718      	bx	r3
     456:	bd10      	pop	{r4, pc}
     458:	00000000 	andeq	r0, r0, r0
     45c:	1fff020c 	svcne	0x00ff020c
     460:	000025ac 	andeq	r2, r0, ip, lsr #11
     464:	1fff0208 	svcne	0x00ff0208
     468:	00000000 	andeq	r0, r0, r0

0000046c <_mainCRTStartup>:
     46c:	4b13      	ldr	r3, [pc, #76]	; (4bc <_mainCRTStartup+0x50>)
     46e:	2b00      	cmp	r3, #0
     470:	bf08      	it	eq
     472:	4b11      	ldreq	r3, [pc, #68]	; (4b8 <_mainCRTStartup+0x4c>)
     474:	469d      	mov	sp, r3
     476:	f5a3 3a80 	sub.w	sl, r3, #65536	; 0x10000
     47a:	2100      	movs	r1, #0
     47c:	468b      	mov	fp, r1
     47e:	460f      	mov	r7, r1
     480:	4811      	ldr	r0, [pc, #68]	; (4c8 <_mainCRTStartup+0x5c>)
     482:	4a12      	ldr	r2, [pc, #72]	; (4cc <_mainCRTStartup+0x60>)
     484:	1a12      	subs	r2, r2, r0
     486:	f001 fb3b 	bl	1b00 <memset>
     48a:	4b0d      	ldr	r3, [pc, #52]	; (4c0 <_mainCRTStartup+0x54>)
     48c:	2b00      	cmp	r3, #0
     48e:	d000      	beq.n	492 <_mainCRTStartup+0x26>
     490:	4798      	blx	r3
     492:	4b0c      	ldr	r3, [pc, #48]	; (4c4 <_mainCRTStartup+0x58>)
     494:	2b00      	cmp	r3, #0
     496:	d000      	beq.n	49a <_mainCRTStartup+0x2e>
     498:	4798      	blx	r3
     49a:	2000      	movs	r0, #0
     49c:	2100      	movs	r1, #0
     49e:	0004      	movs	r4, r0
     4a0:	000d      	movs	r5, r1
     4a2:	480b      	ldr	r0, [pc, #44]	; (4d0 <_mainCRTStartup+0x64>)
     4a4:	f001 fac8 	bl	1a38 <atexit>
     4a8:	f001 faf4 	bl	1a94 <__libc_init_array>
     4ac:	0020      	movs	r0, r4
     4ae:	0029      	movs	r1, r5
     4b0:	f000 fa2e 	bl	910 <main>
     4b4:	f001 fac6 	bl	1a44 <exit>
     4b8:	00080000 	andeq	r0, r8, r0
     4bc:	20030000 	andcs	r0, r3, r0
	...
     4c8:	1fff0208 	svcne	0x00ff0208
     4cc:	1fff0394 	svcne	0x00ff0394
     4d0:	00001a6d 	andeq	r1, r0, sp, ror #20

000004d4 <SystemInit>:
     4d4:	4b34      	ldr	r3, [pc, #208]	; (5a8 <SystemInit+0xd4>)
     4d6:	f24c 5220 	movw	r2, #50464	; 0xc520
     4da:	81da      	strh	r2, [r3, #14]
     4dc:	f64d 1228 	movw	r2, #55592	; 0xd928
     4e0:	81da      	strh	r2, [r3, #14]
     4e2:	f44f 72e9 	mov.w	r2, #466	; 0x1d2
     4e6:	801a      	strh	r2, [r3, #0]
     4e8:	f503 332c 	add.w	r3, r3, #176128	; 0x2b000
     4ec:	f241 0138 	movw	r1, #4152	; 0x1038
     4f0:	789a      	ldrb	r2, [r3, #2]
     4f2:	0710      	lsls	r0, r2, #28
     4f4:	bf42      	ittt	mi
     4f6:	789a      	ldrbmi	r2, [r3, #2]
     4f8:	f042 0208 	orrmi.w	r2, r2, #8
     4fc:	709a      	strbmi	r2, [r3, #2]
     4fe:	4b2b      	ldr	r3, [pc, #172]	; (5ac <SystemInit+0xd8>)
     500:	585a      	ldr	r2, [r3, r1]
     502:	f442 7200 	orr.w	r2, r2, #512	; 0x200
     506:	505a      	str	r2, [r3, r1]
     508:	f241 0244 	movw	r2, #4164	; 0x1044
     50c:	f04f 7192 	mov.w	r1, #19136512	; 0x1240000
     510:	5099      	str	r1, [r3, r2]
     512:	f241 0104 	movw	r1, #4100	; 0x1004
     516:	585a      	ldr	r2, [r3, r1]
     518:	f442 3280 	orr.w	r2, r2, #65536	; 0x10000
     51c:	505a      	str	r2, [r3, r1]
     51e:	681a      	ldr	r2, [r3, #0]
     520:	f442 2240 	orr.w	r2, r2, #786432	; 0xc0000
     524:	601a      	str	r2, [r3, #0]
     526:	4a22      	ldr	r2, [pc, #136]	; (5b0 <SystemInit+0xdc>)
     528:	6c93      	ldr	r3, [r2, #72]	; 0x48
     52a:	f023 7380 	bic.w	r3, r3, #16777216	; 0x1000000
     52e:	f423 63e0 	bic.w	r3, r3, #1792	; 0x700
     532:	6493      	str	r3, [r2, #72]	; 0x48
     534:	4b1f      	ldr	r3, [pc, #124]	; (5b4 <SystemInit+0xe0>)
     536:	2220      	movs	r2, #32
     538:	705a      	strb	r2, [r3, #1]
     53a:	4a1f      	ldr	r2, [pc, #124]	; (5b8 <SystemInit+0xe4>)
     53c:	2180      	movs	r1, #128	; 0x80
     53e:	7011      	strb	r1, [r2, #0]
     540:	7b1a      	ldrb	r2, [r3, #12]
     542:	f002 02fc 	and.w	r2, r2, #252	; 0xfc
     546:	731a      	strb	r2, [r3, #12]
     548:	22ba      	movs	r2, #186	; 0xba
     54a:	701a      	strb	r2, [r3, #0]
     54c:	78da      	ldrb	r2, [r3, #3]
     54e:	f002 021f 	and.w	r2, r2, #31
     552:	70da      	strb	r2, [r3, #3]
     554:	2213      	movs	r2, #19
     556:	711a      	strb	r2, [r3, #4]
     558:	2218      	movs	r2, #24
     55a:	715a      	strb	r2, [r3, #5]
     55c:	799a      	ldrb	r2, [r3, #6]
     55e:	06d1      	lsls	r1, r2, #27
     560:	d4fc      	bmi.n	55c <SystemInit+0x88>
     562:	7999      	ldrb	r1, [r3, #6]
     564:	4a13      	ldr	r2, [pc, #76]	; (5b4 <SystemInit+0xe0>)
     566:	f001 010c 	and.w	r1, r1, #12
     56a:	2908      	cmp	r1, #8
     56c:	d1f9      	bne.n	562 <SystemInit+0x8e>
     56e:	2358      	movs	r3, #88	; 0x58
     570:	7153      	strb	r3, [r2, #5]
     572:	7993      	ldrb	r3, [r2, #6]
     574:	490f      	ldr	r1, [pc, #60]	; (5b4 <SystemInit+0xe0>)
     576:	f003 030c 	and.w	r3, r3, #12
     57a:	2b08      	cmp	r3, #8
     57c:	d1f9      	bne.n	572 <SystemInit+0x9e>
     57e:	798a      	ldrb	r2, [r1, #6]
     580:	4b0c      	ldr	r3, [pc, #48]	; (5b4 <SystemInit+0xe0>)
     582:	0652      	lsls	r2, r2, #25
     584:	d5fb      	bpl.n	57e <SystemInit+0xaa>
     586:	222a      	movs	r2, #42	; 0x2a
     588:	701a      	strb	r2, [r3, #0]
     58a:	799a      	ldrb	r2, [r3, #6]
     58c:	f002 020c 	and.w	r2, r2, #12
     590:	2a0c      	cmp	r2, #12
     592:	d1fa      	bne.n	58a <SystemInit+0xb6>
     594:	4905      	ldr	r1, [pc, #20]	; (5ac <SystemInit+0xd8>)
     596:	f241 0248 	movw	r2, #4168	; 0x1048
     59a:	588b      	ldr	r3, [r1, r2]
     59c:	f023 030f 	bic.w	r3, r3, #15
     5a0:	f043 0309 	orr.w	r3, r3, #9
     5a4:	508b      	str	r3, [r1, r2]
     5a6:	4770      	bx	lr
     5a8:	40052000 	andmi	r2, r5, r0
     5ac:	40047000 	andmi	r7, r4, r0
     5b0:	40049000 	andmi	r9, r4, r0
     5b4:	40064000 	andmi	r4, r6, r0
     5b8:	40065000 	andmi	r5, r6, r0

000005bc <PIDInitialize>:
     5bc:	b570      	push	{r4, r5, r6, lr}
     5be:	4604      	mov	r4, r0
     5c0:	4608      	mov	r0, r1
     5c2:	f04f 4189 	mov.w	r1, #1149239296	; 0x44800000
     5c6:	461e      	mov	r6, r3
     5c8:	4615      	mov	r5, r2
     5ca:	f001 f849 	bl	1660 <__aeabi_fmul>
     5ce:	f001 fa0d 	bl	19ec <__aeabi_f2iz>
     5d2:	f000 fff1 	bl	15b8 <__aeabi_i2f>
     5d6:	f04f 4189 	mov.w	r1, #1149239296	; 0x44800000
     5da:	6020      	str	r0, [r4, #0]
     5dc:	4630      	mov	r0, r6
     5de:	f001 f83f 	bl	1660 <__aeabi_fmul>
     5e2:	f001 fa03 	bl	19ec <__aeabi_f2iz>
     5e6:	f000 ffe7 	bl	15b8 <__aeabi_i2f>
     5ea:	f04f 4189 	mov.w	r1, #1149239296	; 0x44800000
     5ee:	60a0      	str	r0, [r4, #8]
     5f0:	4628      	mov	r0, r5
     5f2:	f001 f835 	bl	1660 <__aeabi_fmul>
     5f6:	f001 f9f9 	bl	19ec <__aeabi_f2iz>
     5fa:	f000 ffdd 	bl	15b8 <__aeabi_i2f>
     5fe:	9b04      	ldr	r3, [sp, #16]
     600:	60e3      	str	r3, [r4, #12]
     602:	9b05      	ldr	r3, [sp, #20]
     604:	6123      	str	r3, [r4, #16]
     606:	9b06      	ldr	r3, [sp, #24]
     608:	6163      	str	r3, [r4, #20]
     60a:	9b08      	ldr	r3, [sp, #32]
     60c:	61a3      	str	r3, [r4, #24]
     60e:	9b07      	ldr	r3, [sp, #28]
     610:	61e3      	str	r3, [r4, #28]
     612:	9b09      	ldr	r3, [sp, #36]	; 0x24
     614:	6223      	str	r3, [r4, #32]
     616:	2300      	movs	r3, #0
     618:	6060      	str	r0, [r4, #4]
     61a:	6263      	str	r3, [r4, #36]	; 0x24
     61c:	62a3      	str	r3, [r4, #40]	; 0x28
     61e:	62e3      	str	r3, [r4, #44]	; 0x2c
     620:	6323      	str	r3, [r4, #48]	; 0x30
     622:	2000      	movs	r0, #0
     624:	bd70      	pop	{r4, r5, r6, pc}

00000626 <PIDUpdate>:
     626:	e92d 41f0 	stmdb	sp!, {r4, r5, r6, r7, r8, lr}
     62a:	6905      	ldr	r5, [r0, #16]
     62c:	4604      	mov	r4, r0
     62e:	4628      	mov	r0, r5
     630:	460e      	mov	r6, r1
     632:	f001 f9b3 	bl	199c <__aeabi_fcmplt>
     636:	b930      	cbnz	r0, 646 <PIDUpdate+0x20>
     638:	6965      	ldr	r5, [r4, #20]
     63a:	4630      	mov	r0, r6
     63c:	4629      	mov	r1, r5
     63e:	f001 f9ad 	bl	199c <__aeabi_fcmplt>
     642:	b900      	cbnz	r0, 646 <PIDUpdate+0x20>
     644:	4635      	mov	r5, r6
     646:	4629      	mov	r1, r5
     648:	68e0      	ldr	r0, [r4, #12]
     64a:	f000 feff 	bl	144c <__aeabi_fsub>
     64e:	6a65      	ldr	r5, [r4, #36]	; 0x24
     650:	62a5      	str	r5, [r4, #40]	; 0x28
     652:	4606      	mov	r6, r0
     654:	2100      	movs	r1, #0
     656:	4628      	mov	r0, r5
     658:	f000 fefa 	bl	1450 <__addsf3>
     65c:	62e5      	str	r5, [r4, #44]	; 0x2c
     65e:	4601      	mov	r1, r0
     660:	4628      	mov	r0, r5
     662:	f000 fef5 	bl	1450 <__addsf3>
     666:	4629      	mov	r1, r5
     668:	6325      	str	r5, [r4, #48]	; 0x30
     66a:	f000 fef1 	bl	1450 <__addsf3>
     66e:	6a21      	ldr	r1, [r4, #32]
     670:	f000 fff6 	bl	1660 <__aeabi_fmul>
     674:	6266      	str	r6, [r4, #36]	; 0x24
     676:	4607      	mov	r7, r0
     678:	6821      	ldr	r1, [r4, #0]
     67a:	4630      	mov	r0, r6
     67c:	f000 fff0 	bl	1660 <__aeabi_fmul>
     680:	4629      	mov	r1, r5
     682:	4680      	mov	r8, r0
     684:	4630      	mov	r0, r6
     686:	f000 fee1 	bl	144c <__aeabi_fsub>
     68a:	6861      	ldr	r1, [r4, #4]
     68c:	f000 ffe8 	bl	1660 <__aeabi_fmul>
     690:	4641      	mov	r1, r8
     692:	f000 fedd 	bl	1450 <__addsf3>
     696:	68a1      	ldr	r1, [r4, #8]
     698:	4605      	mov	r5, r0
     69a:	4638      	mov	r0, r7
     69c:	f000 ffe0 	bl	1660 <__aeabi_fmul>
     6a0:	4629      	mov	r1, r5
     6a2:	f000 fed5 	bl	1450 <__addsf3>
     6a6:	69a6      	ldr	r6, [r4, #24]
     6a8:	4631      	mov	r1, r6
     6aa:	4605      	mov	r5, r0
     6ac:	f001 f994 	bl	19d8 <__aeabi_fcmpgt>
     6b0:	b938      	cbnz	r0, 6c2 <PIDUpdate+0x9c>
     6b2:	69e4      	ldr	r4, [r4, #28]
     6b4:	4628      	mov	r0, r5
     6b6:	4621      	mov	r1, r4
     6b8:	f001 f970 	bl	199c <__aeabi_fcmplt>
     6bc:	b110      	cbz	r0, 6c4 <PIDUpdate+0x9e>
     6be:	4625      	mov	r5, r4
     6c0:	e000      	b.n	6c4 <PIDUpdate+0x9e>
     6c2:	4635      	mov	r5, r6
     6c4:	4628      	mov	r0, r5
     6c6:	e8bd 81f0 	ldmia.w	sp!, {r4, r5, r6, r7, r8, pc}

000006ca <PIDSetGoal>:
     6ca:	e92d 41f0 	stmdb	sp!, {r4, r5, r6, r7, r8, lr}
     6ce:	4604      	mov	r4, r0
     6d0:	460f      	mov	r7, r1
     6d2:	60e1      	str	r1, [r4, #12]
     6d4:	6905      	ldr	r5, [r0, #16]
     6d6:	4611      	mov	r1, r2
     6d8:	4628      	mov	r0, r5
     6da:	4616      	mov	r6, r2
     6dc:	f001 f95e 	bl	199c <__aeabi_fcmplt>
     6e0:	b930      	cbnz	r0, 6f0 <PIDSetGoal+0x26>
     6e2:	6965      	ldr	r5, [r4, #20]
     6e4:	4630      	mov	r0, r6
     6e6:	4629      	mov	r1, r5
     6e8:	f001 f958 	bl	199c <__aeabi_fcmplt>
     6ec:	b900      	cbnz	r0, 6f0 <PIDSetGoal+0x26>
     6ee:	4635      	mov	r5, r6
     6f0:	4629      	mov	r1, r5
     6f2:	4638      	mov	r0, r7
     6f4:	f000 feaa 	bl	144c <__aeabi_fsub>
     6f8:	6a65      	ldr	r5, [r4, #36]	; 0x24
     6fa:	62a5      	str	r5, [r4, #40]	; 0x28
     6fc:	4606      	mov	r6, r0
     6fe:	2100      	movs	r1, #0
     700:	4628      	mov	r0, r5
     702:	f000 fea5 	bl	1450 <__addsf3>
     706:	62e5      	str	r5, [r4, #44]	; 0x2c
     708:	4601      	mov	r1, r0
     70a:	4628      	mov	r0, r5
     70c:	f000 fea0 	bl	1450 <__addsf3>
     710:	4629      	mov	r1, r5
     712:	6325      	str	r5, [r4, #48]	; 0x30
     714:	f000 fe9c 	bl	1450 <__addsf3>
     718:	6a21      	ldr	r1, [r4, #32]
     71a:	f000 ffa1 	bl	1660 <__aeabi_fmul>
     71e:	6266      	str	r6, [r4, #36]	; 0x24
     720:	4607      	mov	r7, r0
     722:	6821      	ldr	r1, [r4, #0]
     724:	4630      	mov	r0, r6
     726:	f000 ff9b 	bl	1660 <__aeabi_fmul>
     72a:	4629      	mov	r1, r5
     72c:	4680      	mov	r8, r0
     72e:	4630      	mov	r0, r6
     730:	f000 fe8c 	bl	144c <__aeabi_fsub>
     734:	6861      	ldr	r1, [r4, #4]
     736:	f000 ff93 	bl	1660 <__aeabi_fmul>
     73a:	4641      	mov	r1, r8
     73c:	f000 fe88 	bl	1450 <__addsf3>
     740:	68a1      	ldr	r1, [r4, #8]
     742:	4605      	mov	r5, r0
     744:	4638      	mov	r0, r7
     746:	f000 ff8b 	bl	1660 <__aeabi_fmul>
     74a:	4629      	mov	r1, r5
     74c:	f000 fe80 	bl	1450 <__addsf3>
     750:	69a6      	ldr	r6, [r4, #24]
     752:	4631      	mov	r1, r6
     754:	4605      	mov	r5, r0
     756:	f001 f93f 	bl	19d8 <__aeabi_fcmpgt>
     75a:	b938      	cbnz	r0, 76c <PIDSetGoal+0xa2>
     75c:	69e4      	ldr	r4, [r4, #28]
     75e:	4628      	mov	r0, r5
     760:	4621      	mov	r1, r4
     762:	f001 f91b 	bl	199c <__aeabi_fcmplt>
     766:	b110      	cbz	r0, 76e <PIDSetGoal+0xa4>
     768:	4625      	mov	r5, r4
     76a:	e000      	b.n	76e <PIDSetGoal+0xa4>
     76c:	4635      	mov	r5, r6
     76e:	4628      	mov	r0, r5
     770:	e8bd 81f0 	ldmia.w	sp!, {r4, r5, r6, r7, r8, pc}

00000774 <startPIT0>:
     774:	4b0f      	ldr	r3, [pc, #60]	; (7b4 <startPIT0+0x40>)
     776:	f241 023c 	movw	r2, #4156	; 0x103c
     77a:	6018      	str	r0, [r3, #0]
     77c:	480e      	ldr	r0, [pc, #56]	; (7b8 <startPIT0+0x44>)
     77e:	5883      	ldr	r3, [r0, r2]
     780:	f443 0300 	orr.w	r3, r3, #8388608	; 0x800000
     784:	5083      	str	r3, [r0, r2]
     786:	4b0d      	ldr	r3, [pc, #52]	; (7bc <startPIT0+0x48>)
     788:	2200      	movs	r2, #0
     78a:	601a      	str	r2, [r3, #0]
     78c:	2201      	movs	r2, #1
     78e:	f8c3 1100 	str.w	r1, [r3, #256]	; 0x100
     792:	f8c3 210c 	str.w	r2, [r3, #268]	; 0x10c
     796:	2202      	movs	r2, #2
     798:	f8c3 2108 	str.w	r2, [r3, #264]	; 0x108
     79c:	f8d3 2108 	ldr.w	r2, [r3, #264]	; 0x108
     7a0:	f042 0201 	orr.w	r2, r2, #1
     7a4:	f8c3 2108 	str.w	r2, [r3, #264]	; 0x108
     7a8:	4b05      	ldr	r3, [pc, #20]	; (7c0 <startPIT0+0x4c>)
     7aa:	f44f 3280 	mov.w	r2, #65536	; 0x10000
     7ae:	605a      	str	r2, [r3, #4]
     7b0:	b662      	cpsie	i
     7b2:	4770      	bx	lr
     7b4:	1fff02c8 	svcne	0x00ff02c8
     7b8:	40047000 	andmi	r7, r4, r0
     7bc:	40037000 	andmi	r7, r3, r0
     7c0:	e000e100 	and	lr, r0, r0, lsl #2

000007c4 <PIT0_IRQHandler>:
     7c4:	b508      	push	{r3, lr}
     7c6:	b672      	cpsid	i
     7c8:	4b04      	ldr	r3, [pc, #16]	; (7dc <PIT0_IRQHandler+0x18>)
     7ca:	2201      	movs	r2, #1
     7cc:	f8c3 210c 	str.w	r2, [r3, #268]	; 0x10c
     7d0:	4b03      	ldr	r3, [pc, #12]	; (7e0 <PIT0_IRQHandler+0x1c>)
     7d2:	681b      	ldr	r3, [r3, #0]
     7d4:	4798      	blx	r3
     7d6:	b662      	cpsie	i
     7d8:	bd08      	pop	{r3, pc}
     7da:	bf00      	nop
     7dc:	40037000 	andmi	r7, r3, r0
     7e0:	1fff02c8 	svcne	0x00ff02c8

000007e4 <PIT1_IRQHandler>:
     7e4:	b508      	push	{r3, lr}
     7e6:	b672      	cpsid	i
     7e8:	4b04      	ldr	r3, [pc, #16]	; (7fc <PIT1_IRQHandler+0x18>)
     7ea:	2201      	movs	r2, #1
     7ec:	f8c3 211c 	str.w	r2, [r3, #284]	; 0x11c
     7f0:	4b03      	ldr	r3, [pc, #12]	; (800 <PIT1_IRQHandler+0x1c>)
     7f2:	681b      	ldr	r3, [r3, #0]
     7f4:	4798      	blx	r3
     7f6:	b662      	cpsie	i
     7f8:	bd08      	pop	{r3, pc}
     7fa:	bf00      	nop
     7fc:	40037000 	andmi	r7, r3, r0
     800:	1fff02c8 	svcne	0x00ff02c8

00000804 <SetDutyCycle2>:
     804:	4b08      	ldr	r3, [pc, #32]	; (828 <SetDutyCycle2+0x24>)
     806:	4a09      	ldr	r2, [pc, #36]	; (82c <SetDutyCycle2+0x28>)
     808:	6819      	ldr	r1, [r3, #0]
     80a:	4b09      	ldr	r3, [pc, #36]	; (830 <SetDutyCycle2+0x2c>)
     80c:	681b      	ldr	r3, [r3, #0]
     80e:	fbb3 f3f1 	udiv	r3, r3, r1
     812:	4358      	muls	r0, r3
     814:	2364      	movs	r3, #100	; 0x64
     816:	fbb0 f0f3 	udiv	r0, r0, r3
     81a:	b280      	uxth	r0, r0
     81c:	6210      	str	r0, [r2, #32]
     81e:	4b05      	ldr	r3, [pc, #20]	; (834 <SetDutyCycle2+0x30>)
     820:	fbb3 f3f1 	udiv	r3, r3, r1
     824:	6093      	str	r3, [r2, #8]
     826:	4770      	bx	lr
     828:	1fff0228 	svcne	0x00ff0228
     82c:	40038000 	andmi	r8, r3, r0
     830:	1fff0198 	svcne	0x00ff0198
     834:	01389680 	teqeq	r8, r0, lsl #13

00000838 <FTM0_IRQHandler>:
     838:	4a06      	ldr	r2, [pc, #24]	; (854 <FTM0_IRQHandler+0x1c>)
     83a:	6813      	ldr	r3, [r2, #0]
     83c:	f023 0380 	bic.w	r3, r3, #128	; 0x80
     840:	6013      	str	r3, [r2, #0]
     842:	4b05      	ldr	r3, [pc, #20]	; (858 <FTM0_IRQHandler+0x20>)
     844:	681a      	ldr	r2, [r3, #0]
     846:	2afe      	cmp	r2, #254	; 0xfe
     848:	bf9e      	ittt	ls
     84a:	681a      	ldrls	r2, [r3, #0]
     84c:	3201      	addls	r2, #1
     84e:	601a      	strls	r2, [r3, #0]
     850:	4770      	bx	lr
     852:	bf00      	nop
     854:	40038000 	andmi	r8, r3, r0
     858:	1fff0224 	svcne	0x00ff0224
     85c:	00000000 	andeq	r0, r0, r0

00000860 <updatePIDs>:
     860:	b538      	push	{r3, r4, r5, lr}
     862:	4b23      	ldr	r3, [pc, #140]	; (8f0 <updatePIDs+0x90>)
     864:	881c      	ldrh	r4, [r3, #0]
     866:	8898      	ldrh	r0, [r3, #4]
     868:	b200      	sxth	r0, r0
     86a:	f000 fea5 	bl	15b8 <__aeabi_i2f>
     86e:	f000 fb33 	bl	ed8 <__aeabi_f2d>
     872:	a31d      	add	r3, pc, #116	; (adr r3, 8e8 <updatePIDs+0x88>)
     874:	e9d3 2300 	ldrd	r2, r3, [r3]
     878:	f000 fb82 	bl	f80 <__aeabi_dmul>
     87c:	2200      	movs	r2, #0
     87e:	4b1d      	ldr	r3, [pc, #116]	; (8f4 <updatePIDs+0x94>)
     880:	f000 fca8 	bl	11d4 <__aeabi_ddiv>
     884:	f000 fd8e 	bl	13a4 <__aeabi_d2f>
     888:	4b1b      	ldr	r3, [pc, #108]	; (8f8 <updatePIDs+0x98>)
     88a:	4601      	mov	r1, r0
     88c:	6018      	str	r0, [r3, #0]
     88e:	481b      	ldr	r0, [pc, #108]	; (8fc <updatePIDs+0x9c>)
     890:	f7ff fec9 	bl	626 <PIDUpdate>
     894:	f001 f8aa 	bl	19ec <__aeabi_f2iz>
     898:	f000 fe8e 	bl	15b8 <__aeabi_i2f>
     89c:	4b18      	ldr	r3, [pc, #96]	; (900 <updatePIDs+0xa0>)
     89e:	b2a4      	uxth	r4, r4
     8a0:	6018      	str	r0, [r3, #0]
     8a2:	4605      	mov	r5, r0
     8a4:	b220      	sxth	r0, r4
     8a6:	f000 fe87 	bl	15b8 <__aeabi_i2f>
     8aa:	f000 fb15 	bl	ed8 <__aeabi_f2d>
     8ae:	a30e      	add	r3, pc, #56	; (adr r3, 8e8 <updatePIDs+0x88>)
     8b0:	e9d3 2300 	ldrd	r2, r3, [r3]
     8b4:	f000 fb64 	bl	f80 <__aeabi_dmul>
     8b8:	2200      	movs	r2, #0
     8ba:	4b0e      	ldr	r3, [pc, #56]	; (8f4 <updatePIDs+0x94>)
     8bc:	f000 fc8a 	bl	11d4 <__aeabi_ddiv>
     8c0:	f000 fd70 	bl	13a4 <__aeabi_d2f>
     8c4:	4b0f      	ldr	r3, [pc, #60]	; (904 <updatePIDs+0xa4>)
     8c6:	4601      	mov	r1, r0
     8c8:	6018      	str	r0, [r3, #0]
     8ca:	462a      	mov	r2, r5
     8cc:	480e      	ldr	r0, [pc, #56]	; (908 <updatePIDs+0xa8>)
     8ce:	f7ff fefc 	bl	6ca <PIDSetGoal>
     8d2:	f001 f88b 	bl	19ec <__aeabi_f2iz>
     8d6:	4b0d      	ldr	r3, [pc, #52]	; (90c <updatePIDs+0xac>)
     8d8:	6018      	str	r0, [r3, #0]
     8da:	e8bd 4038 	ldmia.w	sp!, {r3, r4, r5, lr}
     8de:	f7ff bf91 	b.w	804 <SetDutyCycle2>
     8e2:	bf00      	nop
     8e4:	f3af 8000 	nop.w
     8e8:	66666666 	strbtvs	r6, [r6], -r6, ror #12
     8ec:	400a6666 	andmi	r6, sl, r6, ror #12
     8f0:	1fff0380 	svcne	0x00ff0380
     8f4:	40320000 	eorsmi	r0, r2, r0
     8f8:	1fff02d0 	svcne	0x00ff02d0
     8fc:	1fff034c 	svcne	0x00ff034c
     900:	1fff030c 	svcne	0x00ff030c
     904:	1fff0348 	svcne	0x00ff0348
     908:	1fff02d4 	svcne	0x00ff02d4
     90c:	1fff0344 	svcne	0x00ff0344

00000910 <main>:
     910:	e92d 4ff0 	stmdb	sp!, {r4, r5, r6, r7, r8, r9, sl, fp, lr}
     914:	f8df a1cc 	ldr.w	sl, [pc, #460]	; ae4 <main+0x1d4>
     918:	4d5a      	ldr	r5, [pc, #360]	; (a84 <main+0x174>)
     91a:	4c5b      	ldr	r4, [pc, #364]	; (a88 <main+0x178>)
     91c:	f8df 81c8 	ldr.w	r8, [pc, #456]	; ae8 <main+0x1d8>
     920:	f8df b1c8 	ldr.w	fp, [pc, #456]	; aec <main+0x1dc>
     924:	f241 0938 	movw	r9, #4152	; 0x1038
     928:	f44f 7780 	mov.w	r7, #256	; 0x100
     92c:	f85a 3009 	ldr.w	r3, [sl, r9]
     930:	f443 5310 	orr.w	r3, r3, #9216	; 0x2400
     934:	f84a 3009 	str.w	r3, [sl, r9]
     938:	696b      	ldr	r3, [r5, #20]
     93a:	f443 03c0 	orr.w	r3, r3, #6291456	; 0x600000
     93e:	616b      	str	r3, [r5, #20]
     940:	6963      	ldr	r3, [r4, #20]
     942:	f043 6380 	orr.w	r3, r3, #67108864	; 0x4000000
     946:	6163      	str	r3, [r4, #20]
     948:	4b50      	ldr	r3, [pc, #320]	; (a8c <main+0x17c>)
     94a:	f8c8 7058 	str.w	r7, [r8, #88]	; 0x58
     94e:	f8c8 7054 	str.w	r7, [r8, #84]	; 0x54
     952:	669f      	str	r7, [r3, #104]	; 0x68
     954:	696b      	ldr	r3, [r5, #20]
     956:	f443 03c0 	orr.w	r3, r3, #6291456	; 0x600000
     95a:	616b      	str	r3, [r5, #20]
     95c:	6963      	ldr	r3, [r4, #20]
     95e:	f043 6380 	orr.w	r3, r3, #67108864	; 0x4000000
     962:	6163      	str	r3, [r4, #20]
     964:	68a3      	ldr	r3, [r4, #8]
     966:	f043 6380 	orr.w	r3, r3, #67108864	; 0x4000000
     96a:	60a3      	str	r3, [r4, #8]
     96c:	686b      	ldr	r3, [r5, #4]
     96e:	f443 1300 	orr.w	r3, r3, #2097152	; 0x200000
     972:	f2ad 4d0c 	subw	sp, sp, #1036	; 0x40c
     976:	606b      	str	r3, [r5, #4]
     978:	f000 f8ba 	bl	af0 <ADC1_INIT>
     97c:	4b44      	ldr	r3, [pc, #272]	; (a90 <main+0x180>)
     97e:	4a45      	ldr	r2, [pc, #276]	; (a94 <main+0x184>)
     980:	681b      	ldr	r3, [r3, #0]
     982:	4945      	ldr	r1, [pc, #276]	; (a98 <main+0x188>)
     984:	4618      	mov	r0, r3
     986:	428b      	cmp	r3, r1
     988:	bf08      	it	eq
     98a:	4610      	moveq	r0, r2
     98c:	4b43      	ldr	r3, [pc, #268]	; (a9c <main+0x18c>)
     98e:	9305      	str	r3, [sp, #20]
     990:	4b43      	ldr	r3, [pc, #268]	; (aa0 <main+0x190>)
     992:	9304      	str	r3, [sp, #16]
     994:	4b43      	ldr	r3, [pc, #268]	; (aa4 <main+0x194>)
     996:	9302      	str	r3, [sp, #8]
     998:	4b43      	ldr	r3, [pc, #268]	; (aa8 <main+0x198>)
     99a:	9301      	str	r3, [sp, #4]
     99c:	2600      	movs	r6, #0
     99e:	4b43      	ldr	r3, [pc, #268]	; (aac <main+0x19c>)
     9a0:	9007      	str	r0, [sp, #28]
     9a2:	4632      	mov	r2, r6
     9a4:	9603      	str	r6, [sp, #12]
     9a6:	9300      	str	r3, [sp, #0]
     9a8:	f04f 517c 	mov.w	r1, #1056964608	; 0x3f000000
     9ac:	465b      	mov	r3, fp
     9ae:	4840      	ldr	r0, [pc, #256]	; (ab0 <main+0x1a0>)
     9b0:	f7ff fe04 	bl	5bc <PIDInitialize>
     9b4:	4b39      	ldr	r3, [pc, #228]	; (a9c <main+0x18c>)
     9b6:	9305      	str	r3, [sp, #20]
     9b8:	4b3e      	ldr	r3, [pc, #248]	; (ab4 <main+0x1a4>)
     9ba:	9303      	str	r3, [sp, #12]
     9bc:	f04f 537e 	mov.w	r3, #1065353216	; 0x3f800000
     9c0:	9302      	str	r3, [sp, #8]
     9c2:	4b3d      	ldr	r3, [pc, #244]	; (ab8 <main+0x1a8>)
     9c4:	9601      	str	r6, [sp, #4]
     9c6:	4632      	mov	r2, r6
     9c8:	9300      	str	r3, [sp, #0]
     9ca:	f04f 517c 	mov.w	r1, #1056964608	; 0x3f000000
     9ce:	4633      	mov	r3, r6
     9d0:	f8cd b010 	str.w	fp, [sp, #16]
     9d4:	4839      	ldr	r0, [pc, #228]	; (abc <main+0x1ac>)
     9d6:	f7ff fdf1 	bl	5bc <PIDInitialize>
     9da:	4b30      	ldr	r3, [pc, #192]	; (a9c <main+0x18c>)
     9dc:	9305      	str	r3, [sp, #20]
     9de:	4b30      	ldr	r3, [pc, #192]	; (aa0 <main+0x190>)
     9e0:	9304      	str	r3, [sp, #16]
     9e2:	4b34      	ldr	r3, [pc, #208]	; (ab4 <main+0x1a4>)
     9e4:	9603      	str	r6, [sp, #12]
     9e6:	4632      	mov	r2, r6
     9e8:	9301      	str	r3, [sp, #4]
     9ea:	9600      	str	r6, [sp, #0]
     9ec:	4633      	mov	r3, r6
     9ee:	4934      	ldr	r1, [pc, #208]	; (ac0 <main+0x1b0>)
     9f0:	f8cd b008 	str.w	fp, [sp, #8]
     9f4:	4833      	ldr	r0, [pc, #204]	; (ac4 <main+0x1b4>)
     9f6:	f7ff fde1 	bl	5bc <PIDInitialize>
     9fa:	4a33      	ldr	r2, [pc, #204]	; (ac8 <main+0x1b8>)
     9fc:	4833      	ldr	r0, [pc, #204]	; (acc <main+0x1bc>)
     9fe:	2300      	movs	r3, #0
     a00:	6013      	str	r3, [r2, #0]
     a02:	4a33      	ldr	r2, [pc, #204]	; (ad0 <main+0x1c0>)
     a04:	6016      	str	r6, [r2, #0]
     a06:	4a33      	ldr	r2, [pc, #204]	; (ad4 <main+0x1c4>)
     a08:	4e33      	ldr	r6, [pc, #204]	; (ad8 <main+0x1c8>)
     a0a:	6013      	str	r3, [r2, #0]
     a0c:	6033      	str	r3, [r6, #0]
     a0e:	f44f 717a 	mov.w	r1, #1000	; 0x3e8
     a12:	9b07      	ldr	r3, [sp, #28]
     a14:	fb93 f1f1 	sdiv	r1, r3, r1
     a18:	f7ff feac 	bl	774 <startPIT0>
     a1c:	f85a 3009 	ldr.w	r3, [sl, r9]
     a20:	f443 5310 	orr.w	r3, r3, #9216	; 0x2400
     a24:	f84a 3009 	str.w	r3, [sl, r9]
     a28:	696b      	ldr	r3, [r5, #20]
     a2a:	f443 03c0 	orr.w	r3, r3, #6291456	; 0x600000
     a2e:	616b      	str	r3, [r5, #20]
     a30:	6963      	ldr	r3, [r4, #20]
     a32:	f043 6380 	orr.w	r3, r3, #67108864	; 0x4000000
     a36:	6163      	str	r3, [r4, #20]
     a38:	4b14      	ldr	r3, [pc, #80]	; (a8c <main+0x17c>)
     a3a:	f8c8 7058 	str.w	r7, [r8, #88]	; 0x58
     a3e:	f8c8 7054 	str.w	r7, [r8, #84]	; 0x54
     a42:	669f      	str	r7, [r3, #104]	; 0x68
     a44:	696b      	ldr	r3, [r5, #20]
     a46:	4f25      	ldr	r7, [pc, #148]	; (adc <main+0x1cc>)
     a48:	f443 03c0 	orr.w	r3, r3, #6291456	; 0x600000
     a4c:	616b      	str	r3, [r5, #20]
     a4e:	6963      	ldr	r3, [r4, #20]
     a50:	f043 6380 	orr.w	r3, r3, #67108864	; 0x4000000
     a54:	6163      	str	r3, [r4, #20]
     a56:	6838      	ldr	r0, [r7, #0]
     a58:	f000 fa3e 	bl	ed8 <__aeabi_f2d>
     a5c:	460b      	mov	r3, r1
     a5e:	4602      	mov	r2, r0
     a60:	e9cd 2302 	strd	r2, r3, [sp, #8]
     a64:	6831      	ldr	r1, [r6, #0]
     a66:	9100      	str	r1, [sp, #0]
     a68:	a808      	add	r0, sp, #32
     a6a:	491d      	ldr	r1, [pc, #116]	; (ae0 <main+0x1d0>)
     a6c:	f001 f8fa 	bl	1c64 <siprintf>
     a70:	68eb      	ldr	r3, [r5, #12]
     a72:	f443 0380 	orr.w	r3, r3, #4194304	; 0x400000
     a76:	60eb      	str	r3, [r5, #12]
     a78:	6863      	ldr	r3, [r4, #4]
     a7a:	f043 6380 	orr.w	r3, r3, #67108864	; 0x4000000
     a7e:	6063      	str	r3, [r4, #4]
     a80:	e7e9      	b.n	a56 <main+0x146>
     a82:	bf00      	nop
     a84:	400ff040 	andmi	pc, pc, r0, asr #32
     a88:	400ff100 	andmi	pc, pc, r0, lsl #2
     a8c:	4004d000 	andmi	sp, r4, r0
     a90:	1fff0198 	svcne	0x00ff0198
     a94:	03938700 	orrseq	r8, r3, #0, 14
     a98:	07270e00 	streq	r0, [r7, -r0, lsl #28]!
     a9c:	3a83126f 	bcc	fe0c5460 <__StackTop+0xde095460>
     aa0:	42c80000 	sbcmi	r0, r8, #0
     aa4:	42200000 	eormi	r0, r0, #0
     aa8:	42f00000 	rscsmi	r0, r0, #0
     aac:	42a00000 	adcmi	r0, r0, #0
     ab0:	1fff0310 	svcne	0x00ff0310
     ab4:	bc23d70a 	stclt	7, cr13, [r3], #-40	; 0xffffffd8
     ab8:	3ee66666 	cdpcc	6, 14, cr6, cr6, cr6, {3}
     abc:	1fff034c 	svcne	0x00ff034c
     ac0:	3dcccccd 	stclcc	12, cr12, [ip, #820]	; 0x334
     ac4:	1fff02d4 	svcne	0x00ff02d4
     ac8:	1fff0308 	svcne	0x00ff0308
     acc:	00000861 	andeq	r0, r0, r1, ror #16
     ad0:	1fff0348 	svcne	0x00ff0348
     ad4:	1fff0388 	svcne	0x00ff0388
     ad8:	1fff0344 	svcne	0x00ff0344
     adc:	1fff02d0 	svcne	0x00ff02d0
     ae0:	00002510 	andeq	r2, r0, r0, lsl r5
     ae4:	40047000 	andmi	r7, r4, r0
     ae8:	4004a000 	andmi	sl, r4, r0
     aec:	3c23d70a 	stccc	7, cr13, [r3], #-40	; 0xffffffd8

00000af0 <ADC1_INIT>:
     af0:	b510      	push	{r4, lr}
     af2:	f241 0230 	movw	r2, #4144	; 0x1030
     af6:	4920      	ldr	r1, [pc, #128]	; (b78 <ADC1_INIT+0x88>)
     af8:	4820      	ldr	r0, [pc, #128]	; (b7c <ADC1_INIT+0x8c>)
     afa:	588b      	ldr	r3, [r1, r2]
     afc:	f043 6300 	orr.w	r3, r3, #134217728	; 0x8000000
     b00:	508b      	str	r3, [r1, r2]
     b02:	2300      	movs	r3, #0
     b04:	6003      	str	r3, [r0, #0]
     b06:	4b1e      	ldr	r3, [pc, #120]	; (b80 <ADC1_INIT+0x90>)
     b08:	226c      	movs	r2, #108	; 0x6c
     b0a:	609a      	str	r2, [r3, #8]
     b0c:	2280      	movs	r2, #128	; 0x80
     b0e:	625a      	str	r2, [r3, #36]	; 0x24
     b10:	461a      	mov	r2, r3
     b12:	6a54      	ldr	r4, [r2, #36]	; 0x24
     b14:	4b1a      	ldr	r3, [pc, #104]	; (b80 <ADC1_INIT+0x90>)
     b16:	f014 0480 	ands.w	r4, r4, #128	; 0x80
     b1a:	d1fa      	bne.n	b12 <ADC1_INIT+0x22>
     b1c:	6cd9      	ldr	r1, [r3, #76]	; 0x4c
     b1e:	6c9a      	ldr	r2, [r3, #72]	; 0x48
     b20:	440a      	add	r2, r1
     b22:	6c59      	ldr	r1, [r3, #68]	; 0x44
     b24:	440a      	add	r2, r1
     b26:	6c19      	ldr	r1, [r3, #64]	; 0x40
     b28:	440a      	add	r2, r1
     b2a:	6bd9      	ldr	r1, [r3, #60]	; 0x3c
     b2c:	440a      	add	r2, r1
     b2e:	6b99      	ldr	r1, [r3, #56]	; 0x38
     b30:	440a      	add	r2, r1
     b32:	0852      	lsrs	r2, r2, #1
     b34:	f442 4200 	orr.w	r2, r2, #32768	; 0x8000
     b38:	62da      	str	r2, [r3, #44]	; 0x2c
     b3a:	6ed9      	ldr	r1, [r3, #108]	; 0x6c
     b3c:	6e9a      	ldr	r2, [r3, #104]	; 0x68
     b3e:	440a      	add	r2, r1
     b40:	6e59      	ldr	r1, [r3, #100]	; 0x64
     b42:	440a      	add	r2, r1
     b44:	6e19      	ldr	r1, [r3, #96]	; 0x60
     b46:	440a      	add	r2, r1
     b48:	6dd9      	ldr	r1, [r3, #92]	; 0x5c
     b4a:	440a      	add	r2, r1
     b4c:	6d99      	ldr	r1, [r3, #88]	; 0x58
     b4e:	440a      	add	r2, r1
     b50:	0852      	lsrs	r2, r2, #1
     b52:	f442 4200 	orr.w	r2, r2, #32768	; 0x8000
     b56:	631a      	str	r2, [r3, #48]	; 0x30
     b58:	6a1a      	ldr	r2, [r3, #32]
     b5a:	490a      	ldr	r1, [pc, #40]	; (b84 <ADC1_INIT+0x94>)
     b5c:	f042 0240 	orr.w	r2, r2, #64	; 0x40
     b60:	621a      	str	r2, [r3, #32]
     b62:	6004      	str	r4, [r0, #0]
     b64:	6802      	ldr	r2, [r0, #0]
     b66:	5c8a      	ldrb	r2, [r1, r2]
     b68:	601a      	str	r2, [r3, #0]
     b6a:	4b07      	ldr	r3, [pc, #28]	; (b88 <ADC1_INIT+0x98>)
     b6c:	f44f 7200 	mov.w	r2, #512	; 0x200
     b70:	609a      	str	r2, [r3, #8]
     b72:	b662      	cpsie	i
     b74:	bd10      	pop	{r4, pc}
     b76:	bf00      	nop
     b78:	40047000 	andmi	r7, r4, r0
     b7c:	1fff038c 	svcne	0x00ff038c
     b80:	400bb000 	andmi	fp, fp, r0
     b84:	0000256b 	andeq	r2, r0, fp, ror #10
     b88:	e000e100 	and	lr, r0, r0, lsl #2

00000b8c <ADC1_IRQHandler>:
     b8c:	b672      	cpsid	i
     b8e:	4b07      	ldr	r3, [pc, #28]	; (bac <ADC1_IRQHandler+0x20>)
     b90:	681a      	ldr	r2, [r3, #0]
     b92:	2a04      	cmp	r2, #4
     b94:	dc02      	bgt.n	b9c <ADC1_IRQHandler+0x10>
     b96:	681a      	ldr	r2, [r3, #0]
     b98:	2a00      	cmp	r2, #0
     b9a:	da06      	bge.n	baa <ADC1_IRQHandler+0x1e>
     b9c:	2200      	movs	r2, #0
     b9e:	601a      	str	r2, [r3, #0]
     ba0:	681b      	ldr	r3, [r3, #0]
     ba2:	4a03      	ldr	r2, [pc, #12]	; (bb0 <ADC1_IRQHandler+0x24>)
     ba4:	5cd2      	ldrb	r2, [r2, r3]
     ba6:	4b03      	ldr	r3, [pc, #12]	; (bb4 <ADC1_IRQHandler+0x28>)
     ba8:	601a      	str	r2, [r3, #0]
     baa:	4770      	bx	lr
     bac:	1fff038c 	svcne	0x00ff038c
     bb0:	0000256b 	andeq	r2, r0, fp, ror #10
     bb4:	400bb000 	andmi	fp, fp, r0

00000bb8 <Reset_Handler>:
     bb8:	4906      	ldr	r1, [pc, #24]	; (bd4 <Reset_Handler+0x1c>)
     bba:	4a07      	ldr	r2, [pc, #28]	; (bd8 <Reset_Handler+0x20>)
     bbc:	4b07      	ldr	r3, [pc, #28]	; (bdc <Reset_Handler+0x24>)
     bbe:	1a9b      	subs	r3, r3, r2
     bc0:	dd03      	ble.n	bca <Reset_Handler+0x12>
     bc2:	3b04      	subs	r3, #4
     bc4:	58c8      	ldr	r0, [r1, r3]
     bc6:	50d0      	str	r0, [r2, r3]
     bc8:	dcfb      	bgt.n	bc2 <Reset_Handler+0xa>
     bca:	4805      	ldr	r0, [pc, #20]	; (be0 <Reset_Handler+0x28>)
     bcc:	4780      	blx	r0
     bce:	4805      	ldr	r0, [pc, #20]	; (be4 <Reset_Handler+0x2c>)
     bd0:	4700      	bx	r0
     bd2:	25b80000 	ldrcs	r0, [r8, #0]!
     bd6:	01980000 	orrseq	r0, r8, r0
     bda:	02081fff 	andeq	r1, r8, #1020	; 0x3fc
     bde:	04d51fff 	ldrbeq	r1, [r5], #4095	; 0xfff
     be2:	046d0000 	strbteq	r0, [sp], #-0
	...

00000be8 <NMI_Handler>:
     be8:	e7fe      	b.n	be8 <NMI_Handler>
     bea:	bf00      	nop

00000bec <HardFault_Handler>:
     bec:	e7fe      	b.n	bec <HardFault_Handler>
     bee:	bf00      	nop

00000bf0 <MemManage_Handler>:
     bf0:	e7fe      	b.n	bf0 <MemManage_Handler>
     bf2:	bf00      	nop

00000bf4 <BusFault_Handler>:
     bf4:	e7fe      	b.n	bf4 <BusFault_Handler>
     bf6:	bf00      	nop

00000bf8 <UsageFault_Handler>:
     bf8:	e7fe      	b.n	bf8 <UsageFault_Handler>
     bfa:	bf00      	nop

00000bfc <SVC_Handler>:
     bfc:	e7fe      	b.n	bfc <SVC_Handler>
     bfe:	bf00      	nop

00000c00 <DebugMon_Handler>:
     c00:	e7fe      	b.n	c00 <DebugMon_Handler>
     c02:	bf00      	nop

00000c04 <PendSV_Handler>:
     c04:	e7fe      	b.n	c04 <PendSV_Handler>
     c06:	bf00      	nop

00000c08 <SysTick_Handler>:
     c08:	e7fe      	b.n	c08 <SysTick_Handler>
     c0a:	bf00      	nop

00000c0c <ADC0_IRQHandler>:
     c0c:	e7fe      	b.n	c0c <ADC0_IRQHandler>
     c0e:	bf00      	nop

00000c10 <__aeabi_drsub>:
     c10:	f081 4100 	eor.w	r1, r1, #2147483648	; 0x80000000
     c14:	e002      	b.n	c1c <__adddf3>
     c16:	bf00      	nop

00000c18 <__aeabi_dsub>:
     c18:	f083 4300 	eor.w	r3, r3, #2147483648	; 0x80000000

00000c1c <__adddf3>:
     c1c:	b530      	push	{r4, r5, lr}
     c1e:	ea4f 0441 	mov.w	r4, r1, lsl #1
     c22:	ea4f 0543 	mov.w	r5, r3, lsl #1
     c26:	ea94 0f05 	teq	r4, r5
     c2a:	bf08      	it	eq
     c2c:	ea90 0f02 	teqeq	r0, r2
     c30:	bf1f      	itttt	ne
     c32:	ea54 0c00 	orrsne.w	ip, r4, r0
     c36:	ea55 0c02 	orrsne.w	ip, r5, r2
     c3a:	ea7f 5c64 	mvnsne.w	ip, r4, asr #21
     c3e:	ea7f 5c65 	mvnsne.w	ip, r5, asr #21
     c42:	f000 80e2 	beq.w	e0a <__adddf3+0x1ee>
     c46:	ea4f 5454 	mov.w	r4, r4, lsr #21
     c4a:	ebd4 5555 	rsbs	r5, r4, r5, lsr #21
     c4e:	bfb8      	it	lt
     c50:	426d      	neglt	r5, r5
     c52:	dd0c      	ble.n	c6e <__adddf3+0x52>
     c54:	442c      	add	r4, r5
     c56:	ea80 0202 	eor.w	r2, r0, r2
     c5a:	ea81 0303 	eor.w	r3, r1, r3
     c5e:	ea82 0000 	eor.w	r0, r2, r0
     c62:	ea83 0101 	eor.w	r1, r3, r1
     c66:	ea80 0202 	eor.w	r2, r0, r2
     c6a:	ea81 0303 	eor.w	r3, r1, r3
     c6e:	2d36      	cmp	r5, #54	; 0x36
     c70:	bf88      	it	hi
     c72:	bd30      	pophi	{r4, r5, pc}
     c74:	f011 4f00 	tst.w	r1, #2147483648	; 0x80000000
     c78:	ea4f 3101 	mov.w	r1, r1, lsl #12
     c7c:	f44f 1c80 	mov.w	ip, #1048576	; 0x100000
     c80:	ea4c 3111 	orr.w	r1, ip, r1, lsr #12
     c84:	d002      	beq.n	c8c <__adddf3+0x70>
     c86:	4240      	negs	r0, r0
     c88:	eb61 0141 	sbc.w	r1, r1, r1, lsl #1
     c8c:	f013 4f00 	tst.w	r3, #2147483648	; 0x80000000
     c90:	ea4f 3303 	mov.w	r3, r3, lsl #12
     c94:	ea4c 3313 	orr.w	r3, ip, r3, lsr #12
     c98:	d002      	beq.n	ca0 <__adddf3+0x84>
     c9a:	4252      	negs	r2, r2
     c9c:	eb63 0343 	sbc.w	r3, r3, r3, lsl #1
     ca0:	ea94 0f05 	teq	r4, r5
     ca4:	f000 80a7 	beq.w	df6 <__adddf3+0x1da>
     ca8:	f1a4 0401 	sub.w	r4, r4, #1
     cac:	f1d5 0e20 	rsbs	lr, r5, #32
     cb0:	db0d      	blt.n	cce <__adddf3+0xb2>
     cb2:	fa02 fc0e 	lsl.w	ip, r2, lr
     cb6:	fa22 f205 	lsr.w	r2, r2, r5
     cba:	1880      	adds	r0, r0, r2
     cbc:	f141 0100 	adc.w	r1, r1, #0
     cc0:	fa03 f20e 	lsl.w	r2, r3, lr
     cc4:	1880      	adds	r0, r0, r2
     cc6:	fa43 f305 	asr.w	r3, r3, r5
     cca:	4159      	adcs	r1, r3
     ccc:	e00e      	b.n	cec <__adddf3+0xd0>
     cce:	f1a5 0520 	sub.w	r5, r5, #32
     cd2:	f10e 0e20 	add.w	lr, lr, #32
     cd6:	2a01      	cmp	r2, #1
     cd8:	fa03 fc0e 	lsl.w	ip, r3, lr
     cdc:	bf28      	it	cs
     cde:	f04c 0c02 	orrcs.w	ip, ip, #2
     ce2:	fa43 f305 	asr.w	r3, r3, r5
     ce6:	18c0      	adds	r0, r0, r3
     ce8:	eb51 71e3 	adcs.w	r1, r1, r3, asr #31
     cec:	f001 4500 	and.w	r5, r1, #2147483648	; 0x80000000
     cf0:	d507      	bpl.n	d02 <__adddf3+0xe6>
     cf2:	f04f 0e00 	mov.w	lr, #0
     cf6:	f1dc 0c00 	rsbs	ip, ip, #0
     cfa:	eb7e 0000 	sbcs.w	r0, lr, r0
     cfe:	eb6e 0101 	sbc.w	r1, lr, r1
     d02:	f5b1 1f80 	cmp.w	r1, #1048576	; 0x100000
     d06:	d31b      	bcc.n	d40 <__adddf3+0x124>
     d08:	f5b1 1f00 	cmp.w	r1, #2097152	; 0x200000
     d0c:	d30c      	bcc.n	d28 <__adddf3+0x10c>
     d0e:	0849      	lsrs	r1, r1, #1
     d10:	ea5f 0030 	movs.w	r0, r0, rrx
     d14:	ea4f 0c3c 	mov.w	ip, ip, rrx
     d18:	f104 0401 	add.w	r4, r4, #1
     d1c:	ea4f 5244 	mov.w	r2, r4, lsl #21
     d20:	f512 0f80 	cmn.w	r2, #4194304	; 0x400000
     d24:	f080 809a 	bcs.w	e5c <__adddf3+0x240>
     d28:	f1bc 4f00 	cmp.w	ip, #2147483648	; 0x80000000
     d2c:	bf08      	it	eq
     d2e:	ea5f 0c50 	movseq.w	ip, r0, lsr #1
     d32:	f150 0000 	adcs.w	r0, r0, #0
     d36:	eb41 5104 	adc.w	r1, r1, r4, lsl #20
     d3a:	ea41 0105 	orr.w	r1, r1, r5
     d3e:	bd30      	pop	{r4, r5, pc}
     d40:	ea5f 0c4c 	movs.w	ip, ip, lsl #1
     d44:	4140      	adcs	r0, r0
     d46:	eb41 0101 	adc.w	r1, r1, r1
     d4a:	f411 1f80 	tst.w	r1, #1048576	; 0x100000
     d4e:	f1a4 0401 	sub.w	r4, r4, #1
     d52:	d1e9      	bne.n	d28 <__adddf3+0x10c>
     d54:	f091 0f00 	teq	r1, #0
     d58:	bf04      	itt	eq
     d5a:	4601      	moveq	r1, r0
     d5c:	2000      	moveq	r0, #0
     d5e:	fab1 f381 	clz	r3, r1
     d62:	bf08      	it	eq
     d64:	3320      	addeq	r3, #32
     d66:	f1a3 030b 	sub.w	r3, r3, #11
     d6a:	f1b3 0220 	subs.w	r2, r3, #32
     d6e:	da0c      	bge.n	d8a <__adddf3+0x16e>
     d70:	320c      	adds	r2, #12
     d72:	dd08      	ble.n	d86 <__adddf3+0x16a>
     d74:	f102 0c14 	add.w	ip, r2, #20
     d78:	f1c2 020c 	rsb	r2, r2, #12
     d7c:	fa01 f00c 	lsl.w	r0, r1, ip
     d80:	fa21 f102 	lsr.w	r1, r1, r2
     d84:	e00c      	b.n	da0 <__adddf3+0x184>
     d86:	f102 0214 	add.w	r2, r2, #20
     d8a:	bfd8      	it	le
     d8c:	f1c2 0c20 	rsble	ip, r2, #32
     d90:	fa01 f102 	lsl.w	r1, r1, r2
     d94:	fa20 fc0c 	lsr.w	ip, r0, ip
     d98:	bfdc      	itt	le
     d9a:	ea41 010c 	orrle.w	r1, r1, ip
     d9e:	4090      	lslle	r0, r2
     da0:	1ae4      	subs	r4, r4, r3
     da2:	bfa2      	ittt	ge
     da4:	eb01 5104 	addge.w	r1, r1, r4, lsl #20
     da8:	4329      	orrge	r1, r5
     daa:	bd30      	popge	{r4, r5, pc}
     dac:	ea6f 0404 	mvn.w	r4, r4
     db0:	3c1f      	subs	r4, #31
     db2:	da1c      	bge.n	dee <__adddf3+0x1d2>
     db4:	340c      	adds	r4, #12
     db6:	dc0e      	bgt.n	dd6 <__adddf3+0x1ba>
     db8:	f104 0414 	add.w	r4, r4, #20
     dbc:	f1c4 0220 	rsb	r2, r4, #32
     dc0:	fa20 f004 	lsr.w	r0, r0, r4
     dc4:	fa01 f302 	lsl.w	r3, r1, r2
     dc8:	ea40 0003 	orr.w	r0, r0, r3
     dcc:	fa21 f304 	lsr.w	r3, r1, r4
     dd0:	ea45 0103 	orr.w	r1, r5, r3
     dd4:	bd30      	pop	{r4, r5, pc}
     dd6:	f1c4 040c 	rsb	r4, r4, #12
     dda:	f1c4 0220 	rsb	r2, r4, #32
     dde:	fa20 f002 	lsr.w	r0, r0, r2
     de2:	fa01 f304 	lsl.w	r3, r1, r4
     de6:	ea40 0003 	orr.w	r0, r0, r3
     dea:	4629      	mov	r1, r5
     dec:	bd30      	pop	{r4, r5, pc}
     dee:	fa21 f004 	lsr.w	r0, r1, r4
     df2:	4629      	mov	r1, r5
     df4:	bd30      	pop	{r4, r5, pc}
     df6:	f094 0f00 	teq	r4, #0
     dfa:	f483 1380 	eor.w	r3, r3, #1048576	; 0x100000
     dfe:	bf06      	itte	eq
     e00:	f481 1180 	eoreq.w	r1, r1, #1048576	; 0x100000
     e04:	3401      	addeq	r4, #1
     e06:	3d01      	subne	r5, #1
     e08:	e74e      	b.n	ca8 <__adddf3+0x8c>
     e0a:	ea7f 5c64 	mvns.w	ip, r4, asr #21
     e0e:	bf18      	it	ne
     e10:	ea7f 5c65 	mvnsne.w	ip, r5, asr #21
     e14:	d029      	beq.n	e6a <__adddf3+0x24e>
     e16:	ea94 0f05 	teq	r4, r5
     e1a:	bf08      	it	eq
     e1c:	ea90 0f02 	teqeq	r0, r2
     e20:	d005      	beq.n	e2e <__adddf3+0x212>
     e22:	ea54 0c00 	orrs.w	ip, r4, r0
     e26:	bf04      	itt	eq
     e28:	4619      	moveq	r1, r3
     e2a:	4610      	moveq	r0, r2
     e2c:	bd30      	pop	{r4, r5, pc}
     e2e:	ea91 0f03 	teq	r1, r3
     e32:	bf1e      	ittt	ne
     e34:	2100      	movne	r1, #0
     e36:	2000      	movne	r0, #0
     e38:	bd30      	popne	{r4, r5, pc}
     e3a:	ea5f 5c54 	movs.w	ip, r4, lsr #21
     e3e:	d105      	bne.n	e4c <__adddf3+0x230>
     e40:	0040      	lsls	r0, r0, #1
     e42:	4149      	adcs	r1, r1
     e44:	bf28      	it	cs
     e46:	f041 4100 	orrcs.w	r1, r1, #2147483648	; 0x80000000
     e4a:	bd30      	pop	{r4, r5, pc}
     e4c:	f514 0480 	adds.w	r4, r4, #4194304	; 0x400000
     e50:	bf3c      	itt	cc
     e52:	f501 1180 	addcc.w	r1, r1, #1048576	; 0x100000
     e56:	bd30      	popcc	{r4, r5, pc}
     e58:	f001 4500 	and.w	r5, r1, #2147483648	; 0x80000000
     e5c:	f045 41fe 	orr.w	r1, r5, #2130706432	; 0x7f000000
     e60:	f441 0170 	orr.w	r1, r1, #15728640	; 0xf00000
     e64:	f04f 0000 	mov.w	r0, #0
     e68:	bd30      	pop	{r4, r5, pc}
     e6a:	ea7f 5c64 	mvns.w	ip, r4, asr #21
     e6e:	bf1a      	itte	ne
     e70:	4619      	movne	r1, r3
     e72:	4610      	movne	r0, r2
     e74:	ea7f 5c65 	mvnseq.w	ip, r5, asr #21
     e78:	bf1c      	itt	ne
     e7a:	460b      	movne	r3, r1
     e7c:	4602      	movne	r2, r0
     e7e:	ea50 3401 	orrs.w	r4, r0, r1, lsl #12
     e82:	bf06      	itte	eq
     e84:	ea52 3503 	orrseq.w	r5, r2, r3, lsl #12
     e88:	ea91 0f03 	teqeq	r1, r3
     e8c:	f441 2100 	orrne.w	r1, r1, #524288	; 0x80000
     e90:	bd30      	pop	{r4, r5, pc}
     e92:	bf00      	nop

00000e94 <__aeabi_ui2d>:
     e94:	f090 0f00 	teq	r0, #0
     e98:	bf04      	itt	eq
     e9a:	2100      	moveq	r1, #0
     e9c:	4770      	bxeq	lr
     e9e:	b530      	push	{r4, r5, lr}
     ea0:	f44f 6480 	mov.w	r4, #1024	; 0x400
     ea4:	f104 0432 	add.w	r4, r4, #50	; 0x32
     ea8:	f04f 0500 	mov.w	r5, #0
     eac:	f04f 0100 	mov.w	r1, #0
     eb0:	e750      	b.n	d54 <__adddf3+0x138>
     eb2:	bf00      	nop

00000eb4 <__aeabi_i2d>:
     eb4:	f090 0f00 	teq	r0, #0
     eb8:	bf04      	itt	eq
     eba:	2100      	moveq	r1, #0
     ebc:	4770      	bxeq	lr
     ebe:	b530      	push	{r4, r5, lr}
     ec0:	f44f 6480 	mov.w	r4, #1024	; 0x400
     ec4:	f104 0432 	add.w	r4, r4, #50	; 0x32
     ec8:	f010 4500 	ands.w	r5, r0, #2147483648	; 0x80000000
     ecc:	bf48      	it	mi
     ece:	4240      	negmi	r0, r0
     ed0:	f04f 0100 	mov.w	r1, #0
     ed4:	e73e      	b.n	d54 <__adddf3+0x138>
     ed6:	bf00      	nop

00000ed8 <__aeabi_f2d>:
     ed8:	0042      	lsls	r2, r0, #1
     eda:	ea4f 01e2 	mov.w	r1, r2, asr #3
     ede:	ea4f 0131 	mov.w	r1, r1, rrx
     ee2:	ea4f 7002 	mov.w	r0, r2, lsl #28
     ee6:	bf1f      	itttt	ne
     ee8:	f012 437f 	andsne.w	r3, r2, #4278190080	; 0xff000000
     eec:	f093 4f7f 	teqne	r3, #4278190080	; 0xff000000
     ef0:	f081 5160 	eorne.w	r1, r1, #939524096	; 0x38000000
     ef4:	4770      	bxne	lr
     ef6:	f092 0f00 	teq	r2, #0
     efa:	bf14      	ite	ne
     efc:	f093 4f7f 	teqne	r3, #4278190080	; 0xff000000
     f00:	4770      	bxeq	lr
     f02:	b530      	push	{r4, r5, lr}
     f04:	f44f 7460 	mov.w	r4, #896	; 0x380
     f08:	f001 4500 	and.w	r5, r1, #2147483648	; 0x80000000
     f0c:	f021 4100 	bic.w	r1, r1, #2147483648	; 0x80000000
     f10:	e720      	b.n	d54 <__adddf3+0x138>
     f12:	bf00      	nop

00000f14 <__aeabi_ul2d>:
     f14:	ea50 0201 	orrs.w	r2, r0, r1
     f18:	bf08      	it	eq
     f1a:	4770      	bxeq	lr
     f1c:	b530      	push	{r4, r5, lr}
     f1e:	f04f 0500 	mov.w	r5, #0
     f22:	e00a      	b.n	f3a <__aeabi_l2d+0x16>

00000f24 <__aeabi_l2d>:
     f24:	ea50 0201 	orrs.w	r2, r0, r1
     f28:	bf08      	it	eq
     f2a:	4770      	bxeq	lr
     f2c:	b530      	push	{r4, r5, lr}
     f2e:	f011 4500 	ands.w	r5, r1, #2147483648	; 0x80000000
     f32:	d502      	bpl.n	f3a <__aeabi_l2d+0x16>
     f34:	4240      	negs	r0, r0
     f36:	eb61 0141 	sbc.w	r1, r1, r1, lsl #1
     f3a:	f44f 6480 	mov.w	r4, #1024	; 0x400
     f3e:	f104 0432 	add.w	r4, r4, #50	; 0x32
     f42:	ea5f 5c91 	movs.w	ip, r1, lsr #22
     f46:	f43f aedc 	beq.w	d02 <__adddf3+0xe6>
     f4a:	f04f 0203 	mov.w	r2, #3
     f4e:	ea5f 0cdc 	movs.w	ip, ip, lsr #3
     f52:	bf18      	it	ne
     f54:	3203      	addne	r2, #3
     f56:	ea5f 0cdc 	movs.w	ip, ip, lsr #3
     f5a:	bf18      	it	ne
     f5c:	3203      	addne	r2, #3
     f5e:	eb02 02dc 	add.w	r2, r2, ip, lsr #3
     f62:	f1c2 0320 	rsb	r3, r2, #32
     f66:	fa00 fc03 	lsl.w	ip, r0, r3
     f6a:	fa20 f002 	lsr.w	r0, r0, r2
     f6e:	fa01 fe03 	lsl.w	lr, r1, r3
     f72:	ea40 000e 	orr.w	r0, r0, lr
     f76:	fa21 f102 	lsr.w	r1, r1, r2
     f7a:	4414      	add	r4, r2
     f7c:	e6c1      	b.n	d02 <__adddf3+0xe6>
     f7e:	bf00      	nop

00000f80 <__aeabi_dmul>:
     f80:	b570      	push	{r4, r5, r6, lr}
     f82:	f04f 0cff 	mov.w	ip, #255	; 0xff
     f86:	f44c 6ce0 	orr.w	ip, ip, #1792	; 0x700
     f8a:	ea1c 5411 	ands.w	r4, ip, r1, lsr #20
     f8e:	bf1d      	ittte	ne
     f90:	ea1c 5513 	andsne.w	r5, ip, r3, lsr #20
     f94:	ea94 0f0c 	teqne	r4, ip
     f98:	ea95 0f0c 	teqne	r5, ip
     f9c:	f000 f8de 	bleq	115c <__aeabi_dmul+0x1dc>
     fa0:	442c      	add	r4, r5
     fa2:	ea81 0603 	eor.w	r6, r1, r3
     fa6:	ea21 514c 	bic.w	r1, r1, ip, lsl #21
     faa:	ea23 534c 	bic.w	r3, r3, ip, lsl #21
     fae:	ea50 3501 	orrs.w	r5, r0, r1, lsl #12
     fb2:	bf18      	it	ne
     fb4:	ea52 3503 	orrsne.w	r5, r2, r3, lsl #12
     fb8:	f441 1180 	orr.w	r1, r1, #1048576	; 0x100000
     fbc:	f443 1380 	orr.w	r3, r3, #1048576	; 0x100000
     fc0:	d038      	beq.n	1034 <__aeabi_dmul+0xb4>
     fc2:	fba0 ce02 	umull	ip, lr, r0, r2
     fc6:	f04f 0500 	mov.w	r5, #0
     fca:	fbe1 e502 	umlal	lr, r5, r1, r2
     fce:	f006 4200 	and.w	r2, r6, #2147483648	; 0x80000000
     fd2:	fbe0 e503 	umlal	lr, r5, r0, r3
     fd6:	f04f 0600 	mov.w	r6, #0
     fda:	fbe1 5603 	umlal	r5, r6, r1, r3
     fde:	f09c 0f00 	teq	ip, #0
     fe2:	bf18      	it	ne
     fe4:	f04e 0e01 	orrne.w	lr, lr, #1
     fe8:	f1a4 04ff 	sub.w	r4, r4, #255	; 0xff
     fec:	f5b6 7f00 	cmp.w	r6, #512	; 0x200
     ff0:	f564 7440 	sbc.w	r4, r4, #768	; 0x300
     ff4:	d204      	bcs.n	1000 <__aeabi_dmul+0x80>
     ff6:	ea5f 0e4e 	movs.w	lr, lr, lsl #1
     ffa:	416d      	adcs	r5, r5
     ffc:	eb46 0606 	adc.w	r6, r6, r6
    1000:	ea42 21c6 	orr.w	r1, r2, r6, lsl #11
    1004:	ea41 5155 	orr.w	r1, r1, r5, lsr #21
    1008:	ea4f 20c5 	mov.w	r0, r5, lsl #11
    100c:	ea40 505e 	orr.w	r0, r0, lr, lsr #21
    1010:	ea4f 2ece 	mov.w	lr, lr, lsl #11
    1014:	f1b4 0cfd 	subs.w	ip, r4, #253	; 0xfd
    1018:	bf88      	it	hi
    101a:	f5bc 6fe0 	cmphi.w	ip, #1792	; 0x700
    101e:	d81e      	bhi.n	105e <__aeabi_dmul+0xde>
    1020:	f1be 4f00 	cmp.w	lr, #2147483648	; 0x80000000
    1024:	bf08      	it	eq
    1026:	ea5f 0e50 	movseq.w	lr, r0, lsr #1
    102a:	f150 0000 	adcs.w	r0, r0, #0
    102e:	eb41 5104 	adc.w	r1, r1, r4, lsl #20
    1032:	bd70      	pop	{r4, r5, r6, pc}
    1034:	f006 4600 	and.w	r6, r6, #2147483648	; 0x80000000
    1038:	ea46 0101 	orr.w	r1, r6, r1
    103c:	ea40 0002 	orr.w	r0, r0, r2
    1040:	ea81 0103 	eor.w	r1, r1, r3
    1044:	ebb4 045c 	subs.w	r4, r4, ip, lsr #1
    1048:	bfc2      	ittt	gt
    104a:	ebd4 050c 	rsbsgt	r5, r4, ip
    104e:	ea41 5104 	orrgt.w	r1, r1, r4, lsl #20
    1052:	bd70      	popgt	{r4, r5, r6, pc}
    1054:	f441 1180 	orr.w	r1, r1, #1048576	; 0x100000
    1058:	f04f 0e00 	mov.w	lr, #0
    105c:	3c01      	subs	r4, #1
    105e:	f300 80ab 	bgt.w	11b8 <__aeabi_dmul+0x238>
    1062:	f114 0f36 	cmn.w	r4, #54	; 0x36
    1066:	bfde      	ittt	le
    1068:	2000      	movle	r0, #0
    106a:	f001 4100 	andle.w	r1, r1, #2147483648	; 0x80000000
    106e:	bd70      	pople	{r4, r5, r6, pc}
    1070:	f1c4 0400 	rsb	r4, r4, #0
    1074:	3c20      	subs	r4, #32
    1076:	da35      	bge.n	10e4 <__aeabi_dmul+0x164>
    1078:	340c      	adds	r4, #12
    107a:	dc1b      	bgt.n	10b4 <__aeabi_dmul+0x134>
    107c:	f104 0414 	add.w	r4, r4, #20
    1080:	f1c4 0520 	rsb	r5, r4, #32
    1084:	fa00 f305 	lsl.w	r3, r0, r5
    1088:	fa20 f004 	lsr.w	r0, r0, r4
    108c:	fa01 f205 	lsl.w	r2, r1, r5
    1090:	ea40 0002 	orr.w	r0, r0, r2
    1094:	f001 4200 	and.w	r2, r1, #2147483648	; 0x80000000
    1098:	f021 4100 	bic.w	r1, r1, #2147483648	; 0x80000000
    109c:	eb10 70d3 	adds.w	r0, r0, r3, lsr #31
    10a0:	fa21 f604 	lsr.w	r6, r1, r4
    10a4:	eb42 0106 	adc.w	r1, r2, r6
    10a8:	ea5e 0e43 	orrs.w	lr, lr, r3, lsl #1
    10ac:	bf08      	it	eq
    10ae:	ea20 70d3 	biceq.w	r0, r0, r3, lsr #31
    10b2:	bd70      	pop	{r4, r5, r6, pc}
    10b4:	f1c4 040c 	rsb	r4, r4, #12
    10b8:	f1c4 0520 	rsb	r5, r4, #32
    10bc:	fa00 f304 	lsl.w	r3, r0, r4
    10c0:	fa20 f005 	lsr.w	r0, r0, r5
    10c4:	fa01 f204 	lsl.w	r2, r1, r4
    10c8:	ea40 0002 	orr.w	r0, r0, r2
    10cc:	f001 4100 	and.w	r1, r1, #2147483648	; 0x80000000
    10d0:	eb10 70d3 	adds.w	r0, r0, r3, lsr #31
    10d4:	f141 0100 	adc.w	r1, r1, #0
    10d8:	ea5e 0e43 	orrs.w	lr, lr, r3, lsl #1
    10dc:	bf08      	it	eq
    10de:	ea20 70d3 	biceq.w	r0, r0, r3, lsr #31
    10e2:	bd70      	pop	{r4, r5, r6, pc}
    10e4:	f1c4 0520 	rsb	r5, r4, #32
    10e8:	fa00 f205 	lsl.w	r2, r0, r5
    10ec:	ea4e 0e02 	orr.w	lr, lr, r2
    10f0:	fa20 f304 	lsr.w	r3, r0, r4
    10f4:	fa01 f205 	lsl.w	r2, r1, r5
    10f8:	ea43 0302 	orr.w	r3, r3, r2
    10fc:	fa21 f004 	lsr.w	r0, r1, r4
    1100:	f001 4100 	and.w	r1, r1, #2147483648	; 0x80000000
    1104:	fa21 f204 	lsr.w	r2, r1, r4
    1108:	ea20 0002 	bic.w	r0, r0, r2
    110c:	eb00 70d3 	add.w	r0, r0, r3, lsr #31
    1110:	ea5e 0e43 	orrs.w	lr, lr, r3, lsl #1
    1114:	bf08      	it	eq
    1116:	ea20 70d3 	biceq.w	r0, r0, r3, lsr #31
    111a:	bd70      	pop	{r4, r5, r6, pc}
    111c:	f094 0f00 	teq	r4, #0
    1120:	d10f      	bne.n	1142 <__aeabi_dmul+0x1c2>
    1122:	f001 4600 	and.w	r6, r1, #2147483648	; 0x80000000
    1126:	0040      	lsls	r0, r0, #1
    1128:	eb41 0101 	adc.w	r1, r1, r1
    112c:	f411 1f80 	tst.w	r1, #1048576	; 0x100000
    1130:	bf08      	it	eq
    1132:	3c01      	subeq	r4, #1
    1134:	d0f7      	beq.n	1126 <__aeabi_dmul+0x1a6>
    1136:	ea41 0106 	orr.w	r1, r1, r6
    113a:	f095 0f00 	teq	r5, #0
    113e:	bf18      	it	ne
    1140:	4770      	bxne	lr
    1142:	f003 4600 	and.w	r6, r3, #2147483648	; 0x80000000
    1146:	0052      	lsls	r2, r2, #1
    1148:	eb43 0303 	adc.w	r3, r3, r3
    114c:	f413 1f80 	tst.w	r3, #1048576	; 0x100000
    1150:	bf08      	it	eq
    1152:	3d01      	subeq	r5, #1
    1154:	d0f7      	beq.n	1146 <__aeabi_dmul+0x1c6>
    1156:	ea43 0306 	orr.w	r3, r3, r6
    115a:	4770      	bx	lr
    115c:	ea94 0f0c 	teq	r4, ip
    1160:	ea0c 5513 	and.w	r5, ip, r3, lsr #20
    1164:	bf18      	it	ne
    1166:	ea95 0f0c 	teqne	r5, ip
    116a:	d00c      	beq.n	1186 <__aeabi_dmul+0x206>
    116c:	ea50 0641 	orrs.w	r6, r0, r1, lsl #1
    1170:	bf18      	it	ne
    1172:	ea52 0643 	orrsne.w	r6, r2, r3, lsl #1
    1176:	d1d1      	bne.n	111c <__aeabi_dmul+0x19c>
    1178:	ea81 0103 	eor.w	r1, r1, r3
    117c:	f001 4100 	and.w	r1, r1, #2147483648	; 0x80000000
    1180:	f04f 0000 	mov.w	r0, #0
    1184:	bd70      	pop	{r4, r5, r6, pc}
    1186:	ea50 0641 	orrs.w	r6, r0, r1, lsl #1
    118a:	bf06      	itte	eq
    118c:	4610      	moveq	r0, r2
    118e:	4619      	moveq	r1, r3
    1190:	ea52 0643 	orrsne.w	r6, r2, r3, lsl #1
    1194:	d019      	beq.n	11ca <__aeabi_dmul+0x24a>
    1196:	ea94 0f0c 	teq	r4, ip
    119a:	d102      	bne.n	11a2 <__aeabi_dmul+0x222>
    119c:	ea50 3601 	orrs.w	r6, r0, r1, lsl #12
    11a0:	d113      	bne.n	11ca <__aeabi_dmul+0x24a>
    11a2:	ea95 0f0c 	teq	r5, ip
    11a6:	d105      	bne.n	11b4 <__aeabi_dmul+0x234>
    11a8:	ea52 3603 	orrs.w	r6, r2, r3, lsl #12
    11ac:	bf1c      	itt	ne
    11ae:	4610      	movne	r0, r2
    11b0:	4619      	movne	r1, r3
    11b2:	d10a      	bne.n	11ca <__aeabi_dmul+0x24a>
    11b4:	ea81 0103 	eor.w	r1, r1, r3
    11b8:	f001 4100 	and.w	r1, r1, #2147483648	; 0x80000000
    11bc:	f041 41fe 	orr.w	r1, r1, #2130706432	; 0x7f000000
    11c0:	f441 0170 	orr.w	r1, r1, #15728640	; 0xf00000
    11c4:	f04f 0000 	mov.w	r0, #0
    11c8:	bd70      	pop	{r4, r5, r6, pc}
    11ca:	f041 41fe 	orr.w	r1, r1, #2130706432	; 0x7f000000
    11ce:	f441 0178 	orr.w	r1, r1, #16252928	; 0xf80000
    11d2:	bd70      	pop	{r4, r5, r6, pc}

000011d4 <__aeabi_ddiv>:
    11d4:	b570      	push	{r4, r5, r6, lr}
    11d6:	f04f 0cff 	mov.w	ip, #255	; 0xff
    11da:	f44c 6ce0 	orr.w	ip, ip, #1792	; 0x700
    11de:	ea1c 5411 	ands.w	r4, ip, r1, lsr #20
    11e2:	bf1d      	ittte	ne
    11e4:	ea1c 5513 	andsne.w	r5, ip, r3, lsr #20
    11e8:	ea94 0f0c 	teqne	r4, ip
    11ec:	ea95 0f0c 	teqne	r5, ip
    11f0:	f000 f8a7 	bleq	1342 <__aeabi_ddiv+0x16e>
    11f4:	eba4 0405 	sub.w	r4, r4, r5
    11f8:	ea81 0e03 	eor.w	lr, r1, r3
    11fc:	ea52 3503 	orrs.w	r5, r2, r3, lsl #12
    1200:	ea4f 3101 	mov.w	r1, r1, lsl #12
    1204:	f000 8088 	beq.w	1318 <__aeabi_ddiv+0x144>
    1208:	ea4f 3303 	mov.w	r3, r3, lsl #12
    120c:	f04f 5580 	mov.w	r5, #268435456	; 0x10000000
    1210:	ea45 1313 	orr.w	r3, r5, r3, lsr #4
    1214:	ea43 6312 	orr.w	r3, r3, r2, lsr #24
    1218:	ea4f 2202 	mov.w	r2, r2, lsl #8
    121c:	ea45 1511 	orr.w	r5, r5, r1, lsr #4
    1220:	ea45 6510 	orr.w	r5, r5, r0, lsr #24
    1224:	ea4f 2600 	mov.w	r6, r0, lsl #8
    1228:	f00e 4100 	and.w	r1, lr, #2147483648	; 0x80000000
    122c:	429d      	cmp	r5, r3
    122e:	bf08      	it	eq
    1230:	4296      	cmpeq	r6, r2
    1232:	f144 04fd 	adc.w	r4, r4, #253	; 0xfd
    1236:	f504 7440 	add.w	r4, r4, #768	; 0x300
    123a:	d202      	bcs.n	1242 <__aeabi_ddiv+0x6e>
    123c:	085b      	lsrs	r3, r3, #1
    123e:	ea4f 0232 	mov.w	r2, r2, rrx
    1242:	1ab6      	subs	r6, r6, r2
    1244:	eb65 0503 	sbc.w	r5, r5, r3
    1248:	085b      	lsrs	r3, r3, #1
    124a:	ea4f 0232 	mov.w	r2, r2, rrx
    124e:	f44f 1080 	mov.w	r0, #1048576	; 0x100000
    1252:	f44f 2c00 	mov.w	ip, #524288	; 0x80000
    1256:	ebb6 0e02 	subs.w	lr, r6, r2
    125a:	eb75 0e03 	sbcs.w	lr, r5, r3
    125e:	bf22      	ittt	cs
    1260:	1ab6      	subcs	r6, r6, r2
    1262:	4675      	movcs	r5, lr
    1264:	ea40 000c 	orrcs.w	r0, r0, ip
    1268:	085b      	lsrs	r3, r3, #1
    126a:	ea4f 0232 	mov.w	r2, r2, rrx
    126e:	ebb6 0e02 	subs.w	lr, r6, r2
    1272:	eb75 0e03 	sbcs.w	lr, r5, r3
    1276:	bf22      	ittt	cs
    1278:	1ab6      	subcs	r6, r6, r2
    127a:	4675      	movcs	r5, lr
    127c:	ea40 005c 	orrcs.w	r0, r0, ip, lsr #1
    1280:	085b      	lsrs	r3, r3, #1
    1282:	ea4f 0232 	mov.w	r2, r2, rrx
    1286:	ebb6 0e02 	subs.w	lr, r6, r2
    128a:	eb75 0e03 	sbcs.w	lr, r5, r3
    128e:	bf22      	ittt	cs
    1290:	1ab6      	subcs	r6, r6, r2
    1292:	4675      	movcs	r5, lr
    1294:	ea40 009c 	orrcs.w	r0, r0, ip, lsr #2
    1298:	085b      	lsrs	r3, r3, #1
    129a:	ea4f 0232 	mov.w	r2, r2, rrx
    129e:	ebb6 0e02 	subs.w	lr, r6, r2
    12a2:	eb75 0e03 	sbcs.w	lr, r5, r3
    12a6:	bf22      	ittt	cs
    12a8:	1ab6      	subcs	r6, r6, r2
    12aa:	4675      	movcs	r5, lr
    12ac:	ea40 00dc 	orrcs.w	r0, r0, ip, lsr #3
    12b0:	ea55 0e06 	orrs.w	lr, r5, r6
    12b4:	d018      	beq.n	12e8 <__aeabi_ddiv+0x114>
    12b6:	ea4f 1505 	mov.w	r5, r5, lsl #4
    12ba:	ea45 7516 	orr.w	r5, r5, r6, lsr #28
    12be:	ea4f 1606 	mov.w	r6, r6, lsl #4
    12c2:	ea4f 03c3 	mov.w	r3, r3, lsl #3
    12c6:	ea43 7352 	orr.w	r3, r3, r2, lsr #29
    12ca:	ea4f 02c2 	mov.w	r2, r2, lsl #3
    12ce:	ea5f 1c1c 	movs.w	ip, ip, lsr #4
    12d2:	d1c0      	bne.n	1256 <__aeabi_ddiv+0x82>
    12d4:	f411 1f80 	tst.w	r1, #1048576	; 0x100000
    12d8:	d10b      	bne.n	12f2 <__aeabi_ddiv+0x11e>
    12da:	ea41 0100 	orr.w	r1, r1, r0
    12de:	f04f 0000 	mov.w	r0, #0
    12e2:	f04f 4c00 	mov.w	ip, #2147483648	; 0x80000000
    12e6:	e7b6      	b.n	1256 <__aeabi_ddiv+0x82>
    12e8:	f411 1f80 	tst.w	r1, #1048576	; 0x100000
    12ec:	bf04      	itt	eq
    12ee:	4301      	orreq	r1, r0
    12f0:	2000      	moveq	r0, #0
    12f2:	f1b4 0cfd 	subs.w	ip, r4, #253	; 0xfd
    12f6:	bf88      	it	hi
    12f8:	f5bc 6fe0 	cmphi.w	ip, #1792	; 0x700
    12fc:	f63f aeaf 	bhi.w	105e <__aeabi_dmul+0xde>
    1300:	ebb5 0c03 	subs.w	ip, r5, r3
    1304:	bf04      	itt	eq
    1306:	ebb6 0c02 	subseq.w	ip, r6, r2
    130a:	ea5f 0c50 	movseq.w	ip, r0, lsr #1
    130e:	f150 0000 	adcs.w	r0, r0, #0
    1312:	eb41 5104 	adc.w	r1, r1, r4, lsl #20
    1316:	bd70      	pop	{r4, r5, r6, pc}
    1318:	f00e 4e00 	and.w	lr, lr, #2147483648	; 0x80000000
    131c:	ea4e 3111 	orr.w	r1, lr, r1, lsr #12
    1320:	eb14 045c 	adds.w	r4, r4, ip, lsr #1
    1324:	bfc2      	ittt	gt
    1326:	ebd4 050c 	rsbsgt	r5, r4, ip
    132a:	ea41 5104 	orrgt.w	r1, r1, r4, lsl #20
    132e:	bd70      	popgt	{r4, r5, r6, pc}
    1330:	f441 1180 	orr.w	r1, r1, #1048576	; 0x100000
    1334:	f04f 0e00 	mov.w	lr, #0
    1338:	3c01      	subs	r4, #1
    133a:	e690      	b.n	105e <__aeabi_dmul+0xde>
    133c:	ea45 0e06 	orr.w	lr, r5, r6
    1340:	e68d      	b.n	105e <__aeabi_dmul+0xde>
    1342:	ea0c 5513 	and.w	r5, ip, r3, lsr #20
    1346:	ea94 0f0c 	teq	r4, ip
    134a:	bf08      	it	eq
    134c:	ea95 0f0c 	teqeq	r5, ip
    1350:	f43f af3b 	beq.w	11ca <__aeabi_dmul+0x24a>
    1354:	ea94 0f0c 	teq	r4, ip
    1358:	d10a      	bne.n	1370 <__aeabi_ddiv+0x19c>
    135a:	ea50 3401 	orrs.w	r4, r0, r1, lsl #12
    135e:	f47f af34 	bne.w	11ca <__aeabi_dmul+0x24a>
    1362:	ea95 0f0c 	teq	r5, ip
    1366:	f47f af25 	bne.w	11b4 <__aeabi_dmul+0x234>
    136a:	4610      	mov	r0, r2
    136c:	4619      	mov	r1, r3
    136e:	e72c      	b.n	11ca <__aeabi_dmul+0x24a>
    1370:	ea95 0f0c 	teq	r5, ip
    1374:	d106      	bne.n	1384 <__aeabi_ddiv+0x1b0>
    1376:	ea52 3503 	orrs.w	r5, r2, r3, lsl #12
    137a:	f43f aefd 	beq.w	1178 <__aeabi_dmul+0x1f8>
    137e:	4610      	mov	r0, r2
    1380:	4619      	mov	r1, r3
    1382:	e722      	b.n	11ca <__aeabi_dmul+0x24a>
    1384:	ea50 0641 	orrs.w	r6, r0, r1, lsl #1
    1388:	bf18      	it	ne
    138a:	ea52 0643 	orrsne.w	r6, r2, r3, lsl #1
    138e:	f47f aec5 	bne.w	111c <__aeabi_dmul+0x19c>
    1392:	ea50 0441 	orrs.w	r4, r0, r1, lsl #1
    1396:	f47f af0d 	bne.w	11b4 <__aeabi_dmul+0x234>
    139a:	ea52 0543 	orrs.w	r5, r2, r3, lsl #1
    139e:	f47f aeeb 	bne.w	1178 <__aeabi_dmul+0x1f8>
    13a2:	e712      	b.n	11ca <__aeabi_dmul+0x24a>

000013a4 <__aeabi_d2f>:
    13a4:	ea4f 0241 	mov.w	r2, r1, lsl #1
    13a8:	f1b2 43e0 	subs.w	r3, r2, #1879048192	; 0x70000000
    13ac:	bf24      	itt	cs
    13ae:	f5b3 1c00 	subscs.w	ip, r3, #2097152	; 0x200000
    13b2:	f1dc 5cfe 	rsbscs	ip, ip, #532676608	; 0x1fc00000
    13b6:	d90d      	bls.n	13d4 <__aeabi_d2f+0x30>
    13b8:	f001 4c00 	and.w	ip, r1, #2147483648	; 0x80000000
    13bc:	ea4f 02c0 	mov.w	r2, r0, lsl #3
    13c0:	ea4c 7050 	orr.w	r0, ip, r0, lsr #29
    13c4:	f1b2 4f00 	cmp.w	r2, #2147483648	; 0x80000000
    13c8:	eb40 0083 	adc.w	r0, r0, r3, lsl #2
    13cc:	bf08      	it	eq
    13ce:	f020 0001 	biceq.w	r0, r0, #1
    13d2:	4770      	bx	lr
    13d4:	f011 4f80 	tst.w	r1, #1073741824	; 0x40000000
    13d8:	d121      	bne.n	141e <__aeabi_d2f+0x7a>
    13da:	f113 7238 	adds.w	r2, r3, #48234496	; 0x2e00000
    13de:	bfbc      	itt	lt
    13e0:	f001 4000 	andlt.w	r0, r1, #2147483648	; 0x80000000
    13e4:	4770      	bxlt	lr
    13e6:	f441 1180 	orr.w	r1, r1, #1048576	; 0x100000
    13ea:	ea4f 5252 	mov.w	r2, r2, lsr #21
    13ee:	f1c2 0218 	rsb	r2, r2, #24
    13f2:	f1c2 0c20 	rsb	ip, r2, #32
    13f6:	fa10 f30c 	lsls.w	r3, r0, ip
    13fa:	fa20 f002 	lsr.w	r0, r0, r2
    13fe:	bf18      	it	ne
    1400:	f040 0001 	orrne.w	r0, r0, #1
    1404:	ea4f 23c1 	mov.w	r3, r1, lsl #11
    1408:	ea4f 23d3 	mov.w	r3, r3, lsr #11
    140c:	fa03 fc0c 	lsl.w	ip, r3, ip
    1410:	ea40 000c 	orr.w	r0, r0, ip
    1414:	fa23 f302 	lsr.w	r3, r3, r2
    1418:	ea4f 0343 	mov.w	r3, r3, lsl #1
    141c:	e7cc      	b.n	13b8 <__aeabi_d2f+0x14>
    141e:	ea7f 5362 	mvns.w	r3, r2, asr #21
    1422:	d107      	bne.n	1434 <__aeabi_d2f+0x90>
    1424:	ea50 3301 	orrs.w	r3, r0, r1, lsl #12
    1428:	bf1e      	ittt	ne
    142a:	f04f 40fe 	movne.w	r0, #2130706432	; 0x7f000000
    142e:	f440 0040 	orrne.w	r0, r0, #12582912	; 0xc00000
    1432:	4770      	bxne	lr
    1434:	f001 4000 	and.w	r0, r1, #2147483648	; 0x80000000
    1438:	f040 40fe 	orr.w	r0, r0, #2130706432	; 0x7f000000
    143c:	f440 0000 	orr.w	r0, r0, #8388608	; 0x800000
    1440:	4770      	bx	lr
    1442:	bf00      	nop

00001444 <__aeabi_frsub>:
    1444:	f080 4000 	eor.w	r0, r0, #2147483648	; 0x80000000
    1448:	e002      	b.n	1450 <__addsf3>
    144a:	bf00      	nop

0000144c <__aeabi_fsub>:
    144c:	f081 4100 	eor.w	r1, r1, #2147483648	; 0x80000000

00001450 <__addsf3>:
    1450:	0042      	lsls	r2, r0, #1
    1452:	bf1f      	itttt	ne
    1454:	ea5f 0341 	movsne.w	r3, r1, lsl #1
    1458:	ea92 0f03 	teqne	r2, r3
    145c:	ea7f 6c22 	mvnsne.w	ip, r2, asr #24
    1460:	ea7f 6c23 	mvnsne.w	ip, r3, asr #24
    1464:	d06a      	beq.n	153c <__addsf3+0xec>
    1466:	ea4f 6212 	mov.w	r2, r2, lsr #24
    146a:	ebd2 6313 	rsbs	r3, r2, r3, lsr #24
    146e:	bfc1      	itttt	gt
    1470:	18d2      	addgt	r2, r2, r3
    1472:	4041      	eorgt	r1, r0
    1474:	4048      	eorgt	r0, r1
    1476:	4041      	eorgt	r1, r0
    1478:	bfb8      	it	lt
    147a:	425b      	neglt	r3, r3
    147c:	2b19      	cmp	r3, #25
    147e:	bf88      	it	hi
    1480:	4770      	bxhi	lr
    1482:	f010 4f00 	tst.w	r0, #2147483648	; 0x80000000
    1486:	f440 0000 	orr.w	r0, r0, #8388608	; 0x800000
    148a:	f020 407f 	bic.w	r0, r0, #4278190080	; 0xff000000
    148e:	bf18      	it	ne
    1490:	4240      	negne	r0, r0
    1492:	f011 4f00 	tst.w	r1, #2147483648	; 0x80000000
    1496:	f441 0100 	orr.w	r1, r1, #8388608	; 0x800000
    149a:	f021 417f 	bic.w	r1, r1, #4278190080	; 0xff000000
    149e:	bf18      	it	ne
    14a0:	4249      	negne	r1, r1
    14a2:	ea92 0f03 	teq	r2, r3
    14a6:	d03f      	beq.n	1528 <__addsf3+0xd8>
    14a8:	f1a2 0201 	sub.w	r2, r2, #1
    14ac:	fa41 fc03 	asr.w	ip, r1, r3
    14b0:	eb10 000c 	adds.w	r0, r0, ip
    14b4:	f1c3 0320 	rsb	r3, r3, #32
    14b8:	fa01 f103 	lsl.w	r1, r1, r3
    14bc:	f000 4300 	and.w	r3, r0, #2147483648	; 0x80000000
    14c0:	d502      	bpl.n	14c8 <__addsf3+0x78>
    14c2:	4249      	negs	r1, r1
    14c4:	eb60 0040 	sbc.w	r0, r0, r0, lsl #1
    14c8:	f5b0 0f00 	cmp.w	r0, #8388608	; 0x800000
    14cc:	d313      	bcc.n	14f6 <__addsf3+0xa6>
    14ce:	f1b0 7f80 	cmp.w	r0, #16777216	; 0x1000000
    14d2:	d306      	bcc.n	14e2 <__addsf3+0x92>
    14d4:	0840      	lsrs	r0, r0, #1
    14d6:	ea4f 0131 	mov.w	r1, r1, rrx
    14da:	f102 0201 	add.w	r2, r2, #1
    14de:	2afe      	cmp	r2, #254	; 0xfe
    14e0:	d251      	bcs.n	1586 <__addsf3+0x136>
    14e2:	f1b1 4f00 	cmp.w	r1, #2147483648	; 0x80000000
    14e6:	eb40 50c2 	adc.w	r0, r0, r2, lsl #23
    14ea:	bf08      	it	eq
    14ec:	f020 0001 	biceq.w	r0, r0, #1
    14f0:	ea40 0003 	orr.w	r0, r0, r3
    14f4:	4770      	bx	lr
    14f6:	0049      	lsls	r1, r1, #1
    14f8:	eb40 0000 	adc.w	r0, r0, r0
    14fc:	f410 0f00 	tst.w	r0, #8388608	; 0x800000
    1500:	f1a2 0201 	sub.w	r2, r2, #1
    1504:	d1ed      	bne.n	14e2 <__addsf3+0x92>
    1506:	fab0 fc80 	clz	ip, r0
    150a:	f1ac 0c08 	sub.w	ip, ip, #8
    150e:	ebb2 020c 	subs.w	r2, r2, ip
    1512:	fa00 f00c 	lsl.w	r0, r0, ip
    1516:	bfaa      	itet	ge
    1518:	eb00 50c2 	addge.w	r0, r0, r2, lsl #23
    151c:	4252      	neglt	r2, r2
    151e:	4318      	orrge	r0, r3
    1520:	bfbc      	itt	lt
    1522:	40d0      	lsrlt	r0, r2
    1524:	4318      	orrlt	r0, r3
    1526:	4770      	bx	lr
    1528:	f092 0f00 	teq	r2, #0
    152c:	f481 0100 	eor.w	r1, r1, #8388608	; 0x800000
    1530:	bf06      	itte	eq
    1532:	f480 0000 	eoreq.w	r0, r0, #8388608	; 0x800000
    1536:	3201      	addeq	r2, #1
    1538:	3b01      	subne	r3, #1
    153a:	e7b5      	b.n	14a8 <__addsf3+0x58>
    153c:	ea4f 0341 	mov.w	r3, r1, lsl #1
    1540:	ea7f 6c22 	mvns.w	ip, r2, asr #24
    1544:	bf18      	it	ne
    1546:	ea7f 6c23 	mvnsne.w	ip, r3, asr #24
    154a:	d021      	beq.n	1590 <__addsf3+0x140>
    154c:	ea92 0f03 	teq	r2, r3
    1550:	d004      	beq.n	155c <__addsf3+0x10c>
    1552:	f092 0f00 	teq	r2, #0
    1556:	bf08      	it	eq
    1558:	4608      	moveq	r0, r1
    155a:	4770      	bx	lr
    155c:	ea90 0f01 	teq	r0, r1
    1560:	bf1c      	itt	ne
    1562:	2000      	movne	r0, #0
    1564:	4770      	bxne	lr
    1566:	f012 4f7f 	tst.w	r2, #4278190080	; 0xff000000
    156a:	d104      	bne.n	1576 <__addsf3+0x126>
    156c:	0040      	lsls	r0, r0, #1
    156e:	bf28      	it	cs
    1570:	f040 4000 	orrcs.w	r0, r0, #2147483648	; 0x80000000
    1574:	4770      	bx	lr
    1576:	f112 7200 	adds.w	r2, r2, #33554432	; 0x2000000
    157a:	bf3c      	itt	cc
    157c:	f500 0000 	addcc.w	r0, r0, #8388608	; 0x800000
    1580:	4770      	bxcc	lr
    1582:	f000 4300 	and.w	r3, r0, #2147483648	; 0x80000000
    1586:	f043 40fe 	orr.w	r0, r3, #2130706432	; 0x7f000000
    158a:	f440 0000 	orr.w	r0, r0, #8388608	; 0x800000
    158e:	4770      	bx	lr
    1590:	ea7f 6222 	mvns.w	r2, r2, asr #24
    1594:	bf16      	itet	ne
    1596:	4608      	movne	r0, r1
    1598:	ea7f 6323 	mvnseq.w	r3, r3, asr #24
    159c:	4601      	movne	r1, r0
    159e:	0242      	lsls	r2, r0, #9
    15a0:	bf06      	itte	eq
    15a2:	ea5f 2341 	movseq.w	r3, r1, lsl #9
    15a6:	ea90 0f01 	teqeq	r0, r1
    15aa:	f440 0080 	orrne.w	r0, r0, #4194304	; 0x400000
    15ae:	4770      	bx	lr

000015b0 <__aeabi_ui2f>:
    15b0:	f04f 0300 	mov.w	r3, #0
    15b4:	e004      	b.n	15c0 <__aeabi_i2f+0x8>
    15b6:	bf00      	nop

000015b8 <__aeabi_i2f>:
    15b8:	f010 4300 	ands.w	r3, r0, #2147483648	; 0x80000000
    15bc:	bf48      	it	mi
    15be:	4240      	negmi	r0, r0
    15c0:	ea5f 0c00 	movs.w	ip, r0
    15c4:	bf08      	it	eq
    15c6:	4770      	bxeq	lr
    15c8:	f043 4396 	orr.w	r3, r3, #1258291200	; 0x4b000000
    15cc:	4601      	mov	r1, r0
    15ce:	f04f 0000 	mov.w	r0, #0
    15d2:	e01c      	b.n	160e <__aeabi_l2f+0x2a>

000015d4 <__aeabi_ul2f>:
    15d4:	ea50 0201 	orrs.w	r2, r0, r1
    15d8:	bf08      	it	eq
    15da:	4770      	bxeq	lr
    15dc:	f04f 0300 	mov.w	r3, #0
    15e0:	e00a      	b.n	15f8 <__aeabi_l2f+0x14>
    15e2:	bf00      	nop

000015e4 <__aeabi_l2f>:
    15e4:	ea50 0201 	orrs.w	r2, r0, r1
    15e8:	bf08      	it	eq
    15ea:	4770      	bxeq	lr
    15ec:	f011 4300 	ands.w	r3, r1, #2147483648	; 0x80000000
    15f0:	d502      	bpl.n	15f8 <__aeabi_l2f+0x14>
    15f2:	4240      	negs	r0, r0
    15f4:	eb61 0141 	sbc.w	r1, r1, r1, lsl #1
    15f8:	ea5f 0c01 	movs.w	ip, r1
    15fc:	bf02      	ittt	eq
    15fe:	4684      	moveq	ip, r0
    1600:	4601      	moveq	r1, r0
    1602:	2000      	moveq	r0, #0
    1604:	f043 43b6 	orr.w	r3, r3, #1526726656	; 0x5b000000
    1608:	bf08      	it	eq
    160a:	f1a3 5380 	subeq.w	r3, r3, #268435456	; 0x10000000
    160e:	f5a3 0300 	sub.w	r3, r3, #8388608	; 0x800000
    1612:	fabc f28c 	clz	r2, ip
    1616:	3a08      	subs	r2, #8
    1618:	eba3 53c2 	sub.w	r3, r3, r2, lsl #23
    161c:	db10      	blt.n	1640 <__aeabi_l2f+0x5c>
    161e:	fa01 fc02 	lsl.w	ip, r1, r2
    1622:	4463      	add	r3, ip
    1624:	fa00 fc02 	lsl.w	ip, r0, r2
    1628:	f1c2 0220 	rsb	r2, r2, #32
    162c:	f1bc 4f00 	cmp.w	ip, #2147483648	; 0x80000000
    1630:	fa20 f202 	lsr.w	r2, r0, r2
    1634:	eb43 0002 	adc.w	r0, r3, r2
    1638:	bf08      	it	eq
    163a:	f020 0001 	biceq.w	r0, r0, #1
    163e:	4770      	bx	lr
    1640:	f102 0220 	add.w	r2, r2, #32
    1644:	fa01 fc02 	lsl.w	ip, r1, r2
    1648:	f1c2 0220 	rsb	r2, r2, #32
    164c:	ea50 004c 	orrs.w	r0, r0, ip, lsl #1
    1650:	fa21 f202 	lsr.w	r2, r1, r2
    1654:	eb43 0002 	adc.w	r0, r3, r2
    1658:	bf08      	it	eq
    165a:	ea20 70dc 	biceq.w	r0, r0, ip, lsr #31
    165e:	4770      	bx	lr

00001660 <__aeabi_fmul>:
    1660:	f04f 0cff 	mov.w	ip, #255	; 0xff
    1664:	ea1c 52d0 	ands.w	r2, ip, r0, lsr #23
    1668:	bf1e      	ittt	ne
    166a:	ea1c 53d1 	andsne.w	r3, ip, r1, lsr #23
    166e:	ea92 0f0c 	teqne	r2, ip
    1672:	ea93 0f0c 	teqne	r3, ip
    1676:	d06f      	beq.n	1758 <__aeabi_fmul+0xf8>
    1678:	441a      	add	r2, r3
    167a:	ea80 0c01 	eor.w	ip, r0, r1
    167e:	0240      	lsls	r0, r0, #9
    1680:	bf18      	it	ne
    1682:	ea5f 2141 	movsne.w	r1, r1, lsl #9
    1686:	d01e      	beq.n	16c6 <__aeabi_fmul+0x66>
    1688:	f04f 6300 	mov.w	r3, #134217728	; 0x8000000
    168c:	ea43 1050 	orr.w	r0, r3, r0, lsr #5
    1690:	ea43 1151 	orr.w	r1, r3, r1, lsr #5
    1694:	fba0 3101 	umull	r3, r1, r0, r1
    1698:	f00c 4000 	and.w	r0, ip, #2147483648	; 0x80000000
    169c:	f5b1 0f00 	cmp.w	r1, #8388608	; 0x800000
    16a0:	bf3e      	ittt	cc
    16a2:	0049      	lslcc	r1, r1, #1
    16a4:	ea41 71d3 	orrcc.w	r1, r1, r3, lsr #31
    16a8:	005b      	lslcc	r3, r3, #1
    16aa:	ea40 0001 	orr.w	r0, r0, r1
    16ae:	f162 027f 	sbc.w	r2, r2, #127	; 0x7f
    16b2:	2afd      	cmp	r2, #253	; 0xfd
    16b4:	d81d      	bhi.n	16f2 <__aeabi_fmul+0x92>
    16b6:	f1b3 4f00 	cmp.w	r3, #2147483648	; 0x80000000
    16ba:	eb40 50c2 	adc.w	r0, r0, r2, lsl #23
    16be:	bf08      	it	eq
    16c0:	f020 0001 	biceq.w	r0, r0, #1
    16c4:	4770      	bx	lr
    16c6:	f090 0f00 	teq	r0, #0
    16ca:	f00c 4c00 	and.w	ip, ip, #2147483648	; 0x80000000
    16ce:	bf08      	it	eq
    16d0:	0249      	lsleq	r1, r1, #9
    16d2:	ea4c 2050 	orr.w	r0, ip, r0, lsr #9
    16d6:	ea40 2051 	orr.w	r0, r0, r1, lsr #9
    16da:	3a7f      	subs	r2, #127	; 0x7f
    16dc:	bfc2      	ittt	gt
    16de:	f1d2 03ff 	rsbsgt	r3, r2, #255	; 0xff
    16e2:	ea40 50c2 	orrgt.w	r0, r0, r2, lsl #23
    16e6:	4770      	bxgt	lr
    16e8:	f440 0000 	orr.w	r0, r0, #8388608	; 0x800000
    16ec:	f04f 0300 	mov.w	r3, #0
    16f0:	3a01      	subs	r2, #1
    16f2:	dc5d      	bgt.n	17b0 <__aeabi_fmul+0x150>
    16f4:	f112 0f19 	cmn.w	r2, #25
    16f8:	bfdc      	itt	le
    16fa:	f000 4000 	andle.w	r0, r0, #2147483648	; 0x80000000
    16fe:	4770      	bxle	lr
    1700:	f1c2 0200 	rsb	r2, r2, #0
    1704:	0041      	lsls	r1, r0, #1
    1706:	fa21 f102 	lsr.w	r1, r1, r2
    170a:	f1c2 0220 	rsb	r2, r2, #32
    170e:	fa00 fc02 	lsl.w	ip, r0, r2
    1712:	ea5f 0031 	movs.w	r0, r1, rrx
    1716:	f140 0000 	adc.w	r0, r0, #0
    171a:	ea53 034c 	orrs.w	r3, r3, ip, lsl #1
    171e:	bf08      	it	eq
    1720:	ea20 70dc 	biceq.w	r0, r0, ip, lsr #31
    1724:	4770      	bx	lr
    1726:	f092 0f00 	teq	r2, #0
    172a:	f000 4c00 	and.w	ip, r0, #2147483648	; 0x80000000
    172e:	bf02      	ittt	eq
    1730:	0040      	lsleq	r0, r0, #1
    1732:	f410 0f00 	tsteq.w	r0, #8388608	; 0x800000
    1736:	3a01      	subeq	r2, #1
    1738:	d0f9      	beq.n	172e <__aeabi_fmul+0xce>
    173a:	ea40 000c 	orr.w	r0, r0, ip
    173e:	f093 0f00 	teq	r3, #0
    1742:	f001 4c00 	and.w	ip, r1, #2147483648	; 0x80000000
    1746:	bf02      	ittt	eq
    1748:	0049      	lsleq	r1, r1, #1
    174a:	f411 0f00 	tsteq.w	r1, #8388608	; 0x800000
    174e:	3b01      	subeq	r3, #1
    1750:	d0f9      	beq.n	1746 <__aeabi_fmul+0xe6>
    1752:	ea41 010c 	orr.w	r1, r1, ip
    1756:	e78f      	b.n	1678 <__aeabi_fmul+0x18>
    1758:	ea0c 53d1 	and.w	r3, ip, r1, lsr #23
    175c:	ea92 0f0c 	teq	r2, ip
    1760:	bf18      	it	ne
    1762:	ea93 0f0c 	teqne	r3, ip
    1766:	d00a      	beq.n	177e <__aeabi_fmul+0x11e>
    1768:	f030 4c00 	bics.w	ip, r0, #2147483648	; 0x80000000
    176c:	bf18      	it	ne
    176e:	f031 4c00 	bicsne.w	ip, r1, #2147483648	; 0x80000000
    1772:	d1d8      	bne.n	1726 <__aeabi_fmul+0xc6>
    1774:	ea80 0001 	eor.w	r0, r0, r1
    1778:	f000 4000 	and.w	r0, r0, #2147483648	; 0x80000000
    177c:	4770      	bx	lr
    177e:	f090 0f00 	teq	r0, #0
    1782:	bf17      	itett	ne
    1784:	f090 4f00 	teqne	r0, #2147483648	; 0x80000000
    1788:	4608      	moveq	r0, r1
    178a:	f091 0f00 	teqne	r1, #0
    178e:	f091 4f00 	teqne	r1, #2147483648	; 0x80000000
    1792:	d014      	beq.n	17be <__aeabi_fmul+0x15e>
    1794:	ea92 0f0c 	teq	r2, ip
    1798:	d101      	bne.n	179e <__aeabi_fmul+0x13e>
    179a:	0242      	lsls	r2, r0, #9
    179c:	d10f      	bne.n	17be <__aeabi_fmul+0x15e>
    179e:	ea93 0f0c 	teq	r3, ip
    17a2:	d103      	bne.n	17ac <__aeabi_fmul+0x14c>
    17a4:	024b      	lsls	r3, r1, #9
    17a6:	bf18      	it	ne
    17a8:	4608      	movne	r0, r1
    17aa:	d108      	bne.n	17be <__aeabi_fmul+0x15e>
    17ac:	ea80 0001 	eor.w	r0, r0, r1
    17b0:	f000 4000 	and.w	r0, r0, #2147483648	; 0x80000000
    17b4:	f040 40fe 	orr.w	r0, r0, #2130706432	; 0x7f000000
    17b8:	f440 0000 	orr.w	r0, r0, #8388608	; 0x800000
    17bc:	4770      	bx	lr
    17be:	f040 40fe 	orr.w	r0, r0, #2130706432	; 0x7f000000
    17c2:	f440 0040 	orr.w	r0, r0, #12582912	; 0xc00000
    17c6:	4770      	bx	lr

000017c8 <__aeabi_fdiv>:
    17c8:	f04f 0cff 	mov.w	ip, #255	; 0xff
    17cc:	ea1c 52d0 	ands.w	r2, ip, r0, lsr #23
    17d0:	bf1e      	ittt	ne
    17d2:	ea1c 53d1 	andsne.w	r3, ip, r1, lsr #23
    17d6:	ea92 0f0c 	teqne	r2, ip
    17da:	ea93 0f0c 	teqne	r3, ip
    17de:	d069      	beq.n	18b4 <__aeabi_fdiv+0xec>
    17e0:	eba2 0203 	sub.w	r2, r2, r3
    17e4:	ea80 0c01 	eor.w	ip, r0, r1
    17e8:	0249      	lsls	r1, r1, #9
    17ea:	ea4f 2040 	mov.w	r0, r0, lsl #9
    17ee:	d037      	beq.n	1860 <__aeabi_fdiv+0x98>
    17f0:	f04f 5380 	mov.w	r3, #268435456	; 0x10000000
    17f4:	ea43 1111 	orr.w	r1, r3, r1, lsr #4
    17f8:	ea43 1310 	orr.w	r3, r3, r0, lsr #4
    17fc:	f00c 4000 	and.w	r0, ip, #2147483648	; 0x80000000
    1800:	428b      	cmp	r3, r1
    1802:	bf38      	it	cc
    1804:	005b      	lslcc	r3, r3, #1
    1806:	f142 027d 	adc.w	r2, r2, #125	; 0x7d
    180a:	f44f 0c00 	mov.w	ip, #8388608	; 0x800000
    180e:	428b      	cmp	r3, r1
    1810:	bf24      	itt	cs
    1812:	1a5b      	subcs	r3, r3, r1
    1814:	ea40 000c 	orrcs.w	r0, r0, ip
    1818:	ebb3 0f51 	cmp.w	r3, r1, lsr #1
    181c:	bf24      	itt	cs
    181e:	eba3 0351 	subcs.w	r3, r3, r1, lsr #1
    1822:	ea40 005c 	orrcs.w	r0, r0, ip, lsr #1
    1826:	ebb3 0f91 	cmp.w	r3, r1, lsr #2
    182a:	bf24      	itt	cs
    182c:	eba3 0391 	subcs.w	r3, r3, r1, lsr #2
    1830:	ea40 009c 	orrcs.w	r0, r0, ip, lsr #2
    1834:	ebb3 0fd1 	cmp.w	r3, r1, lsr #3
    1838:	bf24      	itt	cs
    183a:	eba3 03d1 	subcs.w	r3, r3, r1, lsr #3
    183e:	ea40 00dc 	orrcs.w	r0, r0, ip, lsr #3
    1842:	011b      	lsls	r3, r3, #4
    1844:	bf18      	it	ne
    1846:	ea5f 1c1c 	movsne.w	ip, ip, lsr #4
    184a:	d1e0      	bne.n	180e <__aeabi_fdiv+0x46>
    184c:	2afd      	cmp	r2, #253	; 0xfd
    184e:	f63f af50 	bhi.w	16f2 <__aeabi_fmul+0x92>
    1852:	428b      	cmp	r3, r1
    1854:	eb40 50c2 	adc.w	r0, r0, r2, lsl #23
    1858:	bf08      	it	eq
    185a:	f020 0001 	biceq.w	r0, r0, #1
    185e:	4770      	bx	lr
    1860:	f00c 4c00 	and.w	ip, ip, #2147483648	; 0x80000000
    1864:	ea4c 2050 	orr.w	r0, ip, r0, lsr #9
    1868:	327f      	adds	r2, #127	; 0x7f
    186a:	bfc2      	ittt	gt
    186c:	f1d2 03ff 	rsbsgt	r3, r2, #255	; 0xff
    1870:	ea40 50c2 	orrgt.w	r0, r0, r2, lsl #23
    1874:	4770      	bxgt	lr
    1876:	f440 0000 	orr.w	r0, r0, #8388608	; 0x800000
    187a:	f04f 0300 	mov.w	r3, #0
    187e:	3a01      	subs	r2, #1
    1880:	e737      	b.n	16f2 <__aeabi_fmul+0x92>
    1882:	f092 0f00 	teq	r2, #0
    1886:	f000 4c00 	and.w	ip, r0, #2147483648	; 0x80000000
    188a:	bf02      	ittt	eq
    188c:	0040      	lsleq	r0, r0, #1
    188e:	f410 0f00 	tsteq.w	r0, #8388608	; 0x800000
    1892:	3a01      	subeq	r2, #1
    1894:	d0f9      	beq.n	188a <__aeabi_fdiv+0xc2>
    1896:	ea40 000c 	orr.w	r0, r0, ip
    189a:	f093 0f00 	teq	r3, #0
    189e:	f001 4c00 	and.w	ip, r1, #2147483648	; 0x80000000
    18a2:	bf02      	ittt	eq
    18a4:	0049      	lsleq	r1, r1, #1
    18a6:	f411 0f00 	tsteq.w	r1, #8388608	; 0x800000
    18aa:	3b01      	subeq	r3, #1
    18ac:	d0f9      	beq.n	18a2 <__aeabi_fdiv+0xda>
    18ae:	ea41 010c 	orr.w	r1, r1, ip
    18b2:	e795      	b.n	17e0 <__aeabi_fdiv+0x18>
    18b4:	ea0c 53d1 	and.w	r3, ip, r1, lsr #23
    18b8:	ea92 0f0c 	teq	r2, ip
    18bc:	d108      	bne.n	18d0 <__aeabi_fdiv+0x108>
    18be:	0242      	lsls	r2, r0, #9
    18c0:	f47f af7d 	bne.w	17be <__aeabi_fmul+0x15e>
    18c4:	ea93 0f0c 	teq	r3, ip
    18c8:	f47f af70 	bne.w	17ac <__aeabi_fmul+0x14c>
    18cc:	4608      	mov	r0, r1
    18ce:	e776      	b.n	17be <__aeabi_fmul+0x15e>
    18d0:	ea93 0f0c 	teq	r3, ip
    18d4:	d104      	bne.n	18e0 <__aeabi_fdiv+0x118>
    18d6:	024b      	lsls	r3, r1, #9
    18d8:	f43f af4c 	beq.w	1774 <__aeabi_fmul+0x114>
    18dc:	4608      	mov	r0, r1
    18de:	e76e      	b.n	17be <__aeabi_fmul+0x15e>
    18e0:	f030 4c00 	bics.w	ip, r0, #2147483648	; 0x80000000
    18e4:	bf18      	it	ne
    18e6:	f031 4c00 	bicsne.w	ip, r1, #2147483648	; 0x80000000
    18ea:	d1ca      	bne.n	1882 <__aeabi_fdiv+0xba>
    18ec:	f030 4200 	bics.w	r2, r0, #2147483648	; 0x80000000
    18f0:	f47f af5c 	bne.w	17ac <__aeabi_fmul+0x14c>
    18f4:	f031 4300 	bics.w	r3, r1, #2147483648	; 0x80000000
    18f8:	f47f af3c 	bne.w	1774 <__aeabi_fmul+0x114>
    18fc:	e75f      	b.n	17be <__aeabi_fmul+0x15e>
    18fe:	bf00      	nop

00001900 <__gesf2>:
    1900:	f04f 3cff 	mov.w	ip, #4294967295	; 0xffffffff
    1904:	e006      	b.n	1914 <__cmpsf2+0x4>
    1906:	bf00      	nop

00001908 <__lesf2>:
    1908:	f04f 0c01 	mov.w	ip, #1
    190c:	e002      	b.n	1914 <__cmpsf2+0x4>
    190e:	bf00      	nop

00001910 <__cmpsf2>:
    1910:	f04f 0c01 	mov.w	ip, #1
    1914:	f84d cd04 	str.w	ip, [sp, #-4]!
    1918:	ea4f 0240 	mov.w	r2, r0, lsl #1
    191c:	ea4f 0341 	mov.w	r3, r1, lsl #1
    1920:	ea7f 6c22 	mvns.w	ip, r2, asr #24
    1924:	bf18      	it	ne
    1926:	ea7f 6c23 	mvnsne.w	ip, r3, asr #24
    192a:	d011      	beq.n	1950 <__cmpsf2+0x40>
    192c:	b001      	add	sp, #4
    192e:	ea52 0c53 	orrs.w	ip, r2, r3, lsr #1
    1932:	bf18      	it	ne
    1934:	ea90 0f01 	teqne	r0, r1
    1938:	bf58      	it	pl
    193a:	ebb2 0003 	subspl.w	r0, r2, r3
    193e:	bf88      	it	hi
    1940:	17c8      	asrhi	r0, r1, #31
    1942:	bf38      	it	cc
    1944:	ea6f 70e1 	mvncc.w	r0, r1, asr #31
    1948:	bf18      	it	ne
    194a:	f040 0001 	orrne.w	r0, r0, #1
    194e:	4770      	bx	lr
    1950:	ea7f 6c22 	mvns.w	ip, r2, asr #24
    1954:	d102      	bne.n	195c <__cmpsf2+0x4c>
    1956:	ea5f 2c40 	movs.w	ip, r0, lsl #9
    195a:	d105      	bne.n	1968 <__cmpsf2+0x58>
    195c:	ea7f 6c23 	mvns.w	ip, r3, asr #24
    1960:	d1e4      	bne.n	192c <__cmpsf2+0x1c>
    1962:	ea5f 2c41 	movs.w	ip, r1, lsl #9
    1966:	d0e1      	beq.n	192c <__cmpsf2+0x1c>
    1968:	f85d 0b04 	ldr.w	r0, [sp], #4
    196c:	4770      	bx	lr
    196e:	bf00      	nop

00001970 <__aeabi_cfrcmple>:
    1970:	4684      	mov	ip, r0
    1972:	4608      	mov	r0, r1
    1974:	4661      	mov	r1, ip
    1976:	e7ff      	b.n	1978 <__aeabi_cfcmpeq>

00001978 <__aeabi_cfcmpeq>:
    1978:	b50f      	push	{r0, r1, r2, r3, lr}
    197a:	f7ff ffc9 	bl	1910 <__cmpsf2>
    197e:	2800      	cmp	r0, #0
    1980:	bf48      	it	mi
    1982:	f110 0f00 	cmnmi.w	r0, #0
    1986:	bd0f      	pop	{r0, r1, r2, r3, pc}

00001988 <__aeabi_fcmpeq>:
    1988:	f84d ed08 	str.w	lr, [sp, #-8]!
    198c:	f7ff fff4 	bl	1978 <__aeabi_cfcmpeq>
    1990:	bf0c      	ite	eq
    1992:	2001      	moveq	r0, #1
    1994:	2000      	movne	r0, #0
    1996:	f85d fb08 	ldr.w	pc, [sp], #8
    199a:	bf00      	nop

0000199c <__aeabi_fcmplt>:
    199c:	f84d ed08 	str.w	lr, [sp, #-8]!
    19a0:	f7ff ffea 	bl	1978 <__aeabi_cfcmpeq>
    19a4:	bf34      	ite	cc
    19a6:	2001      	movcc	r0, #1
    19a8:	2000      	movcs	r0, #0
    19aa:	f85d fb08 	ldr.w	pc, [sp], #8
    19ae:	bf00      	nop

000019b0 <__aeabi_fcmple>:
    19b0:	f84d ed08 	str.w	lr, [sp, #-8]!
    19b4:	f7ff ffe0 	bl	1978 <__aeabi_cfcmpeq>
    19b8:	bf94      	ite	ls
    19ba:	2001      	movls	r0, #1
    19bc:	2000      	movhi	r0, #0
    19be:	f85d fb08 	ldr.w	pc, [sp], #8
    19c2:	bf00      	nop

000019c4 <__aeabi_fcmpge>:
    19c4:	f84d ed08 	str.w	lr, [sp, #-8]!
    19c8:	f7ff ffd2 	bl	1970 <__aeabi_cfrcmple>
    19cc:	bf94      	ite	ls
    19ce:	2001      	movls	r0, #1
    19d0:	2000      	movhi	r0, #0
    19d2:	f85d fb08 	ldr.w	pc, [sp], #8
    19d6:	bf00      	nop

000019d8 <__aeabi_fcmpgt>:
    19d8:	f84d ed08 	str.w	lr, [sp, #-8]!
    19dc:	f7ff ffc8 	bl	1970 <__aeabi_cfrcmple>
    19e0:	bf34      	ite	cc
    19e2:	2001      	movcc	r0, #1
    19e4:	2000      	movcs	r0, #0
    19e6:	f85d fb08 	ldr.w	pc, [sp], #8
    19ea:	bf00      	nop

000019ec <__aeabi_f2iz>:
    19ec:	ea4f 0240 	mov.w	r2, r0, lsl #1
    19f0:	f1b2 4ffe 	cmp.w	r2, #2130706432	; 0x7f000000
    19f4:	d30f      	bcc.n	1a16 <__aeabi_f2iz+0x2a>
    19f6:	f04f 039e 	mov.w	r3, #158	; 0x9e
    19fa:	ebb3 6212 	subs.w	r2, r3, r2, lsr #24
    19fe:	d90d      	bls.n	1a1c <__aeabi_f2iz+0x30>
    1a00:	ea4f 2300 	mov.w	r3, r0, lsl #8
    1a04:	f043 4300 	orr.w	r3, r3, #2147483648	; 0x80000000
    1a08:	f010 4f00 	tst.w	r0, #2147483648	; 0x80000000
    1a0c:	fa23 f002 	lsr.w	r0, r3, r2
    1a10:	bf18      	it	ne
    1a12:	4240      	negne	r0, r0
    1a14:	4770      	bx	lr
    1a16:	f04f 0000 	mov.w	r0, #0
    1a1a:	4770      	bx	lr
    1a1c:	f112 0f61 	cmn.w	r2, #97	; 0x61
    1a20:	d101      	bne.n	1a26 <__aeabi_f2iz+0x3a>
    1a22:	0242      	lsls	r2, r0, #9
    1a24:	d105      	bne.n	1a32 <__aeabi_f2iz+0x46>
    1a26:	f010 4000 	ands.w	r0, r0, #2147483648	; 0x80000000
    1a2a:	bf08      	it	eq
    1a2c:	f06f 4000 	mvneq.w	r0, #2147483648	; 0x80000000
    1a30:	4770      	bx	lr
    1a32:	f04f 0000 	mov.w	r0, #0
    1a36:	4770      	bx	lr

00001a38 <atexit>:
    1a38:	2300      	movs	r3, #0
    1a3a:	4601      	mov	r1, r0
    1a3c:	461a      	mov	r2, r3
    1a3e:	4618      	mov	r0, r3
    1a40:	f000 b934 	b.w	1cac <__register_exitproc>

00001a44 <exit>:
    1a44:	b508      	push	{r3, lr}
    1a46:	4b07      	ldr	r3, [pc, #28]	; (1a64 <exit+0x20>)
    1a48:	4604      	mov	r4, r0
    1a4a:	b113      	cbz	r3, 1a52 <exit+0xe>
    1a4c:	2100      	movs	r1, #0
    1a4e:	f000 f989 	bl	1d64 <__call_exitprocs>
    1a52:	4b05      	ldr	r3, [pc, #20]	; (1a68 <exit+0x24>)
    1a54:	6818      	ldr	r0, [r3, #0]
    1a56:	6a83      	ldr	r3, [r0, #40]	; 0x28
    1a58:	b103      	cbz	r3, 1a5c <exit+0x18>
    1a5a:	4798      	blx	r3
    1a5c:	4620      	mov	r0, r4
    1a5e:	f000 fd49 	bl	24f4 <_exit>
    1a62:	bf00      	nop
    1a64:	00001d65 	andeq	r1, r0, r5, ror #26
    1a68:	00002574 	andeq	r2, r0, r4, ror r5

00001a6c <__libc_fini_array>:
    1a6c:	b538      	push	{r3, r4, r5, lr}
    1a6e:	4b07      	ldr	r3, [pc, #28]	; (1a8c <__libc_fini_array+0x20>)
    1a70:	4c07      	ldr	r4, [pc, #28]	; (1a90 <__libc_fini_array+0x24>)
    1a72:	1ae4      	subs	r4, r4, r3
    1a74:	10a4      	asrs	r4, r4, #2
    1a76:	461d      	mov	r5, r3
    1a78:	b124      	cbz	r4, 1a84 <__libc_fini_array+0x18>
    1a7a:	3c01      	subs	r4, #1
    1a7c:	f855 3024 	ldr.w	r3, [r5, r4, lsl #2]
    1a80:	4798      	blx	r3
    1a82:	e7f9      	b.n	1a78 <__libc_fini_array+0xc>
    1a84:	e8bd 4038 	ldmia.w	sp!, {r3, r4, r5, lr}
    1a88:	f000 bd3c 	b.w	2504 <_fini>
    1a8c:	1fff0204 	svcne	0x00ff0204
    1a90:	1fff0208 	svcne	0x00ff0208

00001a94 <__libc_init_array>:
    1a94:	b570      	push	{r4, r5, r6, lr}
    1a96:	4b0e      	ldr	r3, [pc, #56]	; (1ad0 <__libc_init_array+0x3c>)
    1a98:	4c0e      	ldr	r4, [pc, #56]	; (1ad4 <__libc_init_array+0x40>)
    1a9a:	1ae4      	subs	r4, r4, r3
    1a9c:	10a4      	asrs	r4, r4, #2
    1a9e:	2500      	movs	r5, #0
    1aa0:	461e      	mov	r6, r3
    1aa2:	42a5      	cmp	r5, r4
    1aa4:	d004      	beq.n	1ab0 <__libc_init_array+0x1c>
    1aa6:	f856 3025 	ldr.w	r3, [r6, r5, lsl #2]
    1aaa:	4798      	blx	r3
    1aac:	3501      	adds	r5, #1
    1aae:	e7f8      	b.n	1aa2 <__libc_init_array+0xe>
    1ab0:	f000 fd22 	bl	24f8 <_init>
    1ab4:	4c08      	ldr	r4, [pc, #32]	; (1ad8 <__libc_init_array+0x44>)
    1ab6:	4b09      	ldr	r3, [pc, #36]	; (1adc <__libc_init_array+0x48>)
    1ab8:	1ae4      	subs	r4, r4, r3
    1aba:	10a4      	asrs	r4, r4, #2
    1abc:	2500      	movs	r5, #0
    1abe:	461e      	mov	r6, r3
    1ac0:	42a5      	cmp	r5, r4
    1ac2:	d004      	beq.n	1ace <__libc_init_array+0x3a>
    1ac4:	f856 3025 	ldr.w	r3, [r6, r5, lsl #2]
    1ac8:	4798      	blx	r3
    1aca:	3501      	adds	r5, #1
    1acc:	e7f8      	b.n	1ac0 <__libc_init_array+0x2c>
    1ace:	bd70      	pop	{r4, r5, r6, pc}
    1ad0:	1fff0200 	svcne	0x00ff0200
    1ad4:	1fff0200 	svcne	0x00ff0200
    1ad8:	1fff0204 	svcne	0x00ff0204
    1adc:	1fff0200 	svcne	0x00ff0200

00001ae0 <malloc>:
    1ae0:	4b02      	ldr	r3, [pc, #8]	; (1aec <malloc+0xc>)
    1ae2:	4601      	mov	r1, r0
    1ae4:	6818      	ldr	r0, [r3, #0]
    1ae6:	f000 b859 	b.w	1b9c <_malloc_r>
    1aea:	bf00      	nop
    1aec:	1fff01fc 	svcne	0x00ff01fc

00001af0 <free>:
    1af0:	4b02      	ldr	r3, [pc, #8]	; (1afc <free+0xc>)
    1af2:	4601      	mov	r1, r0
    1af4:	6818      	ldr	r0, [r3, #0]
    1af6:	f000 b80b 	b.w	1b10 <_free_r>
    1afa:	bf00      	nop
    1afc:	1fff01fc 	svcne	0x00ff01fc

00001b00 <memset>:
    1b00:	4402      	add	r2, r0
    1b02:	4603      	mov	r3, r0
    1b04:	4293      	cmp	r3, r2
    1b06:	d002      	beq.n	1b0e <memset+0xe>
    1b08:	f803 1b01 	strb.w	r1, [r3], #1
    1b0c:	e7fa      	b.n	1b04 <memset+0x4>
    1b0e:	4770      	bx	lr

00001b10 <_free_r>:
    1b10:	b530      	push	{r4, r5, lr}
    1b12:	2900      	cmp	r1, #0
    1b14:	d03e      	beq.n	1b94 <_free_r+0x84>
    1b16:	f851 2c04 	ldr.w	r2, [r1, #-4]
    1b1a:	1f0b      	subs	r3, r1, #4
    1b1c:	491e      	ldr	r1, [pc, #120]	; (1b98 <_free_r+0x88>)
    1b1e:	2a00      	cmp	r2, #0
    1b20:	bfb8      	it	lt
    1b22:	189b      	addlt	r3, r3, r2
    1b24:	680a      	ldr	r2, [r1, #0]
    1b26:	460c      	mov	r4, r1
    1b28:	b912      	cbnz	r2, 1b30 <_free_r+0x20>
    1b2a:	605a      	str	r2, [r3, #4]
    1b2c:	600b      	str	r3, [r1, #0]
    1b2e:	bd30      	pop	{r4, r5, pc}
    1b30:	429a      	cmp	r2, r3
    1b32:	d90e      	bls.n	1b52 <_free_r+0x42>
    1b34:	6819      	ldr	r1, [r3, #0]
    1b36:	1858      	adds	r0, r3, r1
    1b38:	4282      	cmp	r2, r0
    1b3a:	bf04      	itt	eq
    1b3c:	6810      	ldreq	r0, [r2, #0]
    1b3e:	6852      	ldreq	r2, [r2, #4]
    1b40:	605a      	str	r2, [r3, #4]
    1b42:	bf04      	itt	eq
    1b44:	1809      	addeq	r1, r1, r0
    1b46:	6019      	streq	r1, [r3, #0]
    1b48:	6023      	str	r3, [r4, #0]
    1b4a:	bd30      	pop	{r4, r5, pc}
    1b4c:	4299      	cmp	r1, r3
    1b4e:	d803      	bhi.n	1b58 <_free_r+0x48>
    1b50:	460a      	mov	r2, r1
    1b52:	6851      	ldr	r1, [r2, #4]
    1b54:	2900      	cmp	r1, #0
    1b56:	d1f9      	bne.n	1b4c <_free_r+0x3c>
    1b58:	6814      	ldr	r4, [r2, #0]
    1b5a:	1915      	adds	r5, r2, r4
    1b5c:	429d      	cmp	r5, r3
    1b5e:	d10a      	bne.n	1b76 <_free_r+0x66>
    1b60:	681b      	ldr	r3, [r3, #0]
    1b62:	4423      	add	r3, r4
    1b64:	18d0      	adds	r0, r2, r3
    1b66:	4281      	cmp	r1, r0
    1b68:	6013      	str	r3, [r2, #0]
    1b6a:	d113      	bne.n	1b94 <_free_r+0x84>
    1b6c:	6808      	ldr	r0, [r1, #0]
    1b6e:	4403      	add	r3, r0
    1b70:	6013      	str	r3, [r2, #0]
    1b72:	684b      	ldr	r3, [r1, #4]
    1b74:	e00d      	b.n	1b92 <_free_r+0x82>
    1b76:	d902      	bls.n	1b7e <_free_r+0x6e>
    1b78:	230c      	movs	r3, #12
    1b7a:	6003      	str	r3, [r0, #0]
    1b7c:	bd30      	pop	{r4, r5, pc}
    1b7e:	6818      	ldr	r0, [r3, #0]
    1b80:	181c      	adds	r4, r3, r0
    1b82:	42a1      	cmp	r1, r4
    1b84:	bf04      	itt	eq
    1b86:	680c      	ldreq	r4, [r1, #0]
    1b88:	6849      	ldreq	r1, [r1, #4]
    1b8a:	6059      	str	r1, [r3, #4]
    1b8c:	bf04      	itt	eq
    1b8e:	1900      	addeq	r0, r0, r4
    1b90:	6018      	streq	r0, [r3, #0]
    1b92:	6053      	str	r3, [r2, #4]
    1b94:	bd30      	pop	{r4, r5, pc}
    1b96:	bf00      	nop
    1b98:	1fff0230 	svcne	0x00ff0230

00001b9c <_malloc_r>:
    1b9c:	b570      	push	{r4, r5, r6, lr}
    1b9e:	1ccd      	adds	r5, r1, #3
    1ba0:	f025 0503 	bic.w	r5, r5, #3
    1ba4:	3508      	adds	r5, #8
    1ba6:	2d0c      	cmp	r5, #12
    1ba8:	bf38      	it	cc
    1baa:	250c      	movcc	r5, #12
    1bac:	2d00      	cmp	r5, #0
    1bae:	4606      	mov	r6, r0
    1bb0:	da03      	bge.n	1bba <_malloc_r+0x1e>
    1bb2:	230c      	movs	r3, #12
    1bb4:	6033      	str	r3, [r6, #0]
    1bb6:	2000      	movs	r0, #0
    1bb8:	bd70      	pop	{r4, r5, r6, pc}
    1bba:	42a9      	cmp	r1, r5
    1bbc:	d8f9      	bhi.n	1bb2 <_malloc_r+0x16>
    1bbe:	4b1f      	ldr	r3, [pc, #124]	; (1c3c <_malloc_r+0xa0>)
    1bc0:	681c      	ldr	r4, [r3, #0]
    1bc2:	461a      	mov	r2, r3
    1bc4:	4621      	mov	r1, r4
    1bc6:	b1a1      	cbz	r1, 1bf2 <_malloc_r+0x56>
    1bc8:	680b      	ldr	r3, [r1, #0]
    1bca:	1b5b      	subs	r3, r3, r5
    1bcc:	d40e      	bmi.n	1bec <_malloc_r+0x50>
    1bce:	2b0b      	cmp	r3, #11
    1bd0:	d903      	bls.n	1bda <_malloc_r+0x3e>
    1bd2:	600b      	str	r3, [r1, #0]
    1bd4:	18cc      	adds	r4, r1, r3
    1bd6:	50cd      	str	r5, [r1, r3]
    1bd8:	e01e      	b.n	1c18 <_malloc_r+0x7c>
    1bda:	428c      	cmp	r4, r1
    1bdc:	bf0d      	iteet	eq
    1bde:	6863      	ldreq	r3, [r4, #4]
    1be0:	684b      	ldrne	r3, [r1, #4]
    1be2:	6063      	strne	r3, [r4, #4]
    1be4:	6013      	streq	r3, [r2, #0]
    1be6:	bf18      	it	ne
    1be8:	460c      	movne	r4, r1
    1bea:	e015      	b.n	1c18 <_malloc_r+0x7c>
    1bec:	460c      	mov	r4, r1
    1bee:	6849      	ldr	r1, [r1, #4]
    1bf0:	e7e9      	b.n	1bc6 <_malloc_r+0x2a>
    1bf2:	4c13      	ldr	r4, [pc, #76]	; (1c40 <_malloc_r+0xa4>)
    1bf4:	6823      	ldr	r3, [r4, #0]
    1bf6:	b91b      	cbnz	r3, 1c00 <_malloc_r+0x64>
    1bf8:	4630      	mov	r0, r6
    1bfa:	f000 f823 	bl	1c44 <_sbrk_r>
    1bfe:	6020      	str	r0, [r4, #0]
    1c00:	4629      	mov	r1, r5
    1c02:	4630      	mov	r0, r6
    1c04:	f000 f81e 	bl	1c44 <_sbrk_r>
    1c08:	1c43      	adds	r3, r0, #1
    1c0a:	d0d2      	beq.n	1bb2 <_malloc_r+0x16>
    1c0c:	1cc4      	adds	r4, r0, #3
    1c0e:	f024 0403 	bic.w	r4, r4, #3
    1c12:	42a0      	cmp	r0, r4
    1c14:	d10a      	bne.n	1c2c <_malloc_r+0x90>
    1c16:	6025      	str	r5, [r4, #0]
    1c18:	f104 000b 	add.w	r0, r4, #11
    1c1c:	1d23      	adds	r3, r4, #4
    1c1e:	f020 0007 	bic.w	r0, r0, #7
    1c22:	1ac3      	subs	r3, r0, r3
    1c24:	d009      	beq.n	1c3a <_malloc_r+0x9e>
    1c26:	425a      	negs	r2, r3
    1c28:	50e2      	str	r2, [r4, r3]
    1c2a:	bd70      	pop	{r4, r5, r6, pc}
    1c2c:	1a21      	subs	r1, r4, r0
    1c2e:	4630      	mov	r0, r6
    1c30:	f000 f808 	bl	1c44 <_sbrk_r>
    1c34:	3001      	adds	r0, #1
    1c36:	d1ee      	bne.n	1c16 <_malloc_r+0x7a>
    1c38:	e7bb      	b.n	1bb2 <_malloc_r+0x16>
    1c3a:	bd70      	pop	{r4, r5, r6, pc}
    1c3c:	1fff0230 	svcne	0x00ff0230
    1c40:	1fff022c 	svcne	0x00ff022c

00001c44 <_sbrk_r>:
    1c44:	b538      	push	{r3, r4, r5, lr}
    1c46:	4c06      	ldr	r4, [pc, #24]	; (1c60 <_sbrk_r+0x1c>)
    1c48:	2300      	movs	r3, #0
    1c4a:	4605      	mov	r5, r0
    1c4c:	4608      	mov	r0, r1
    1c4e:	6023      	str	r3, [r4, #0]
    1c50:	f000 fc42 	bl	24d8 <_sbrk>
    1c54:	1c43      	adds	r3, r0, #1
    1c56:	d102      	bne.n	1c5e <_sbrk_r+0x1a>
    1c58:	6823      	ldr	r3, [r4, #0]
    1c5a:	b103      	cbz	r3, 1c5e <_sbrk_r+0x1a>
    1c5c:	602b      	str	r3, [r5, #0]
    1c5e:	bd38      	pop	{r3, r4, r5, pc}
    1c60:	1fff0390 	svcne	0x00ff0390

00001c64 <siprintf>:
    1c64:	b40e      	push	{r1, r2, r3}
    1c66:	b500      	push	{lr}
    1c68:	b09c      	sub	sp, #112	; 0x70
    1c6a:	f44f 7102 	mov.w	r1, #520	; 0x208
    1c6e:	ab1d      	add	r3, sp, #116	; 0x74
    1c70:	f8ad 1014 	strh.w	r1, [sp, #20]
    1c74:	9002      	str	r0, [sp, #8]
    1c76:	9006      	str	r0, [sp, #24]
    1c78:	f06f 4100 	mvn.w	r1, #2147483648	; 0x80000000
    1c7c:	480a      	ldr	r0, [pc, #40]	; (1ca8 <siprintf+0x44>)
    1c7e:	9104      	str	r1, [sp, #16]
    1c80:	9107      	str	r1, [sp, #28]
    1c82:	f64f 71ff 	movw	r1, #65535	; 0xffff
    1c86:	f853 2b04 	ldr.w	r2, [r3], #4
    1c8a:	f8ad 1016 	strh.w	r1, [sp, #22]
    1c8e:	6800      	ldr	r0, [r0, #0]
    1c90:	9301      	str	r3, [sp, #4]
    1c92:	a902      	add	r1, sp, #8
    1c94:	f000 f92a 	bl	1eec <_svfiprintf_r>
    1c98:	9b02      	ldr	r3, [sp, #8]
    1c9a:	2200      	movs	r2, #0
    1c9c:	701a      	strb	r2, [r3, #0]
    1c9e:	b01c      	add	sp, #112	; 0x70
    1ca0:	f85d eb04 	ldr.w	lr, [sp], #4
    1ca4:	b003      	add	sp, #12
    1ca6:	4770      	bx	lr
    1ca8:	1fff01fc 	svcne	0x00ff01fc

00001cac <__register_exitproc>:
    1cac:	e92d 43f8 	stmdb	sp!, {r3, r4, r5, r6, r7, r8, r9, lr}
    1cb0:	4d29      	ldr	r5, [pc, #164]	; (1d58 <__register_exitproc+0xac>)
    1cb2:	682c      	ldr	r4, [r5, #0]
    1cb4:	4606      	mov	r6, r0
    1cb6:	460f      	mov	r7, r1
    1cb8:	4691      	mov	r9, r2
    1cba:	4698      	mov	r8, r3
    1cbc:	b90c      	cbnz	r4, 1cc2 <__register_exitproc+0x16>
    1cbe:	4c27      	ldr	r4, [pc, #156]	; (1d5c <__register_exitproc+0xb0>)
    1cc0:	602c      	str	r4, [r5, #0]
    1cc2:	6863      	ldr	r3, [r4, #4]
    1cc4:	2b1f      	cmp	r3, #31
    1cc6:	dd14      	ble.n	1cf2 <__register_exitproc+0x46>
    1cc8:	4b25      	ldr	r3, [pc, #148]	; (1d60 <__register_exitproc+0xb4>)
    1cca:	b91b      	cbnz	r3, 1cd4 <__register_exitproc+0x28>
    1ccc:	f04f 30ff 	mov.w	r0, #4294967295	; 0xffffffff
    1cd0:	e8bd 83f8 	ldmia.w	sp!, {r3, r4, r5, r6, r7, r8, r9, pc}
    1cd4:	208c      	movs	r0, #140	; 0x8c
    1cd6:	f7ff ff03 	bl	1ae0 <malloc>
    1cda:	4604      	mov	r4, r0
    1cdc:	2800      	cmp	r0, #0
    1cde:	d0f5      	beq.n	1ccc <__register_exitproc+0x20>
    1ce0:	2300      	movs	r3, #0
    1ce2:	682a      	ldr	r2, [r5, #0]
    1ce4:	6002      	str	r2, [r0, #0]
    1ce6:	6043      	str	r3, [r0, #4]
    1ce8:	6028      	str	r0, [r5, #0]
    1cea:	f8c0 3088 	str.w	r3, [r0, #136]	; 0x88
    1cee:	b34e      	cbz	r6, 1d44 <__register_exitproc+0x98>
    1cf0:	e006      	b.n	1d00 <__register_exitproc+0x54>
    1cf2:	b33e      	cbz	r6, 1d44 <__register_exitproc+0x98>
    1cf4:	f8d4 0088 	ldr.w	r0, [r4, #136]	; 0x88
    1cf8:	b978      	cbnz	r0, 1d1a <__register_exitproc+0x6e>
    1cfa:	4b19      	ldr	r3, [pc, #100]	; (1d60 <__register_exitproc+0xb4>)
    1cfc:	2b00      	cmp	r3, #0
    1cfe:	d0e5      	beq.n	1ccc <__register_exitproc+0x20>
    1d00:	f44f 7084 	mov.w	r0, #264	; 0x108
    1d04:	f7ff feec 	bl	1ae0 <malloc>
    1d08:	2800      	cmp	r0, #0
    1d0a:	d0df      	beq.n	1ccc <__register_exitproc+0x20>
    1d0c:	2300      	movs	r3, #0
    1d0e:	f8c0 3100 	str.w	r3, [r0, #256]	; 0x100
    1d12:	f8c0 3104 	str.w	r3, [r0, #260]	; 0x104
    1d16:	f8c4 0088 	str.w	r0, [r4, #136]	; 0x88
    1d1a:	6862      	ldr	r2, [r4, #4]
    1d1c:	f840 9022 	str.w	r9, [r0, r2, lsl #2]
    1d20:	2301      	movs	r3, #1
    1d22:	4093      	lsls	r3, r2
    1d24:	eb00 0182 	add.w	r1, r0, r2, lsl #2
    1d28:	f8d0 2100 	ldr.w	r2, [r0, #256]	; 0x100
    1d2c:	431a      	orrs	r2, r3
    1d2e:	2e02      	cmp	r6, #2
    1d30:	f8c0 2100 	str.w	r2, [r0, #256]	; 0x100
    1d34:	f8c1 8080 	str.w	r8, [r1, #128]	; 0x80
    1d38:	bf02      	ittt	eq
    1d3a:	f8d0 2104 	ldreq.w	r2, [r0, #260]	; 0x104
    1d3e:	4313      	orreq	r3, r2
    1d40:	f8c0 3104 	streq.w	r3, [r0, #260]	; 0x104
    1d44:	6863      	ldr	r3, [r4, #4]
    1d46:	1c5a      	adds	r2, r3, #1
    1d48:	3302      	adds	r3, #2
    1d4a:	6062      	str	r2, [r4, #4]
    1d4c:	2000      	movs	r0, #0
    1d4e:	f844 7023 	str.w	r7, [r4, r3, lsl #2]
    1d52:	e8bd 83f8 	ldmia.w	sp!, {r3, r4, r5, r6, r7, r8, r9, pc}
    1d56:	bf00      	nop
    1d58:	1fff02c0 	svcne	0x00ff02c0
    1d5c:	1fff0234 	svcne	0x00ff0234
    1d60:	00001ae1 	andeq	r1, r0, r1, ror #21

00001d64 <__call_exitprocs>:
    1d64:	e92d 4ff7 	stmdb	sp!, {r0, r1, r2, r4, r5, r6, r7, r8, r9, sl, fp, lr}
    1d68:	4689      	mov	r9, r1
    1d6a:	9001      	str	r0, [sp, #4]
    1d6c:	4b30      	ldr	r3, [pc, #192]	; (1e30 <__call_exitprocs+0xcc>)
    1d6e:	681c      	ldr	r4, [r3, #0]
    1d70:	4698      	mov	r8, r3
    1d72:	f04f 0b01 	mov.w	fp, #1
    1d76:	2c00      	cmp	r4, #0
    1d78:	d056      	beq.n	1e28 <__call_exitprocs+0xc4>
    1d7a:	6865      	ldr	r5, [r4, #4]
    1d7c:	f8d4 6088 	ldr.w	r6, [r4, #136]	; 0x88
    1d80:	1e6f      	subs	r7, r5, #1
    1d82:	00ad      	lsls	r5, r5, #2
    1d84:	eb06 0a05 	add.w	sl, r6, r5
    1d88:	3504      	adds	r5, #4
    1d8a:	4425      	add	r5, r4
    1d8c:	2f00      	cmp	r7, #0
    1d8e:	db36      	blt.n	1dfe <__call_exitprocs+0x9a>
    1d90:	f1b9 0f00 	cmp.w	r9, #0
    1d94:	d009      	beq.n	1daa <__call_exitprocs+0x46>
    1d96:	b926      	cbnz	r6, 1da2 <__call_exitprocs+0x3e>
    1d98:	3f01      	subs	r7, #1
    1d9a:	f1aa 0a04 	sub.w	sl, sl, #4
    1d9e:	3d04      	subs	r5, #4
    1da0:	e7f4      	b.n	1d8c <__call_exitprocs+0x28>
    1da2:	f8da 207c 	ldr.w	r2, [sl, #124]	; 0x7c
    1da6:	4591      	cmp	r9, r2
    1da8:	d1f6      	bne.n	1d98 <__call_exitprocs+0x34>
    1daa:	6861      	ldr	r1, [r4, #4]
    1dac:	682a      	ldr	r2, [r5, #0]
    1dae:	3901      	subs	r1, #1
    1db0:	428f      	cmp	r7, r1
    1db2:	bf16      	itet	ne
    1db4:	2300      	movne	r3, #0
    1db6:	6067      	streq	r7, [r4, #4]
    1db8:	602b      	strne	r3, [r5, #0]
    1dba:	2a00      	cmp	r2, #0
    1dbc:	d0ec      	beq.n	1d98 <__call_exitprocs+0x34>
    1dbe:	6863      	ldr	r3, [r4, #4]
    1dc0:	9300      	str	r3, [sp, #0]
    1dc2:	b12e      	cbz	r6, 1dd0 <__call_exitprocs+0x6c>
    1dc4:	f8d6 0100 	ldr.w	r0, [r6, #256]	; 0x100
    1dc8:	fa0b f107 	lsl.w	r1, fp, r7
    1dcc:	4201      	tst	r1, r0
    1dce:	d101      	bne.n	1dd4 <__call_exitprocs+0x70>
    1dd0:	4790      	blx	r2
    1dd2:	e00b      	b.n	1dec <__call_exitprocs+0x88>
    1dd4:	f8d6 0104 	ldr.w	r0, [r6, #260]	; 0x104
    1dd8:	4201      	tst	r1, r0
    1dda:	d104      	bne.n	1de6 <__call_exitprocs+0x82>
    1ddc:	f85a 1c04 	ldr.w	r1, [sl, #-4]
    1de0:	9801      	ldr	r0, [sp, #4]
    1de2:	4790      	blx	r2
    1de4:	e002      	b.n	1dec <__call_exitprocs+0x88>
    1de6:	f85a 0c04 	ldr.w	r0, [sl, #-4]
    1dea:	4790      	blx	r2
    1dec:	6862      	ldr	r2, [r4, #4]
    1dee:	9b00      	ldr	r3, [sp, #0]
    1df0:	4293      	cmp	r3, r2
    1df2:	d1bb      	bne.n	1d6c <__call_exitprocs+0x8>
    1df4:	f8d8 2000 	ldr.w	r2, [r8]
    1df8:	4294      	cmp	r4, r2
    1dfa:	d0cd      	beq.n	1d98 <__call_exitprocs+0x34>
    1dfc:	e7b6      	b.n	1d6c <__call_exitprocs+0x8>
    1dfe:	4b0d      	ldr	r3, [pc, #52]	; (1e34 <__call_exitprocs+0xd0>)
    1e00:	b193      	cbz	r3, 1e28 <__call_exitprocs+0xc4>
    1e02:	6862      	ldr	r2, [r4, #4]
    1e04:	6823      	ldr	r3, [r4, #0]
    1e06:	b962      	cbnz	r2, 1e22 <__call_exitprocs+0xbe>
    1e08:	b15b      	cbz	r3, 1e22 <__call_exitprocs+0xbe>
    1e0a:	f8c8 3000 	str.w	r3, [r8]
    1e0e:	b116      	cbz	r6, 1e16 <__call_exitprocs+0xb2>
    1e10:	4630      	mov	r0, r6
    1e12:	f7ff fe6d 	bl	1af0 <free>
    1e16:	4620      	mov	r0, r4
    1e18:	f7ff fe6a 	bl	1af0 <free>
    1e1c:	f8d8 4000 	ldr.w	r4, [r8]
    1e20:	e7a9      	b.n	1d76 <__call_exitprocs+0x12>
    1e22:	46a0      	mov	r8, r4
    1e24:	461c      	mov	r4, r3
    1e26:	e7a6      	b.n	1d76 <__call_exitprocs+0x12>
    1e28:	b003      	add	sp, #12
    1e2a:	e8bd 8ff0 	ldmia.w	sp!, {r4, r5, r6, r7, r8, r9, sl, fp, pc}
    1e2e:	bf00      	nop
    1e30:	1fff02c0 	svcne	0x00ff02c0
    1e34:	00001af1 	strdeq	r1, [r0], -r1	; <UNPREDICTABLE>

00001e38 <__ssputs_r>:
    1e38:	e92d 47f0 	stmdb	sp!, {r4, r5, r6, r7, r8, r9, sl, lr}
    1e3c:	688e      	ldr	r6, [r1, #8]
    1e3e:	429e      	cmp	r6, r3
    1e40:	4682      	mov	sl, r0
    1e42:	460c      	mov	r4, r1
    1e44:	4691      	mov	r9, r2
    1e46:	4698      	mov	r8, r3
    1e48:	d83e      	bhi.n	1ec8 <__ssputs_r+0x90>
    1e4a:	898a      	ldrh	r2, [r1, #12]
    1e4c:	f412 6f90 	tst.w	r2, #1152	; 0x480
    1e50:	d03a      	beq.n	1ec8 <__ssputs_r+0x90>
    1e52:	6825      	ldr	r5, [r4, #0]
    1e54:	6909      	ldr	r1, [r1, #16]
    1e56:	1a6f      	subs	r7, r5, r1
    1e58:	6965      	ldr	r5, [r4, #20]
    1e5a:	2302      	movs	r3, #2
    1e5c:	eb05 0545 	add.w	r5, r5, r5, lsl #1
    1e60:	fb95 f5f3 	sdiv	r5, r5, r3
    1e64:	1c7b      	adds	r3, r7, #1
    1e66:	4443      	add	r3, r8
    1e68:	429d      	cmp	r5, r3
    1e6a:	bf38      	it	cc
    1e6c:	461d      	movcc	r5, r3
    1e6e:	0553      	lsls	r3, r2, #21
    1e70:	d50f      	bpl.n	1e92 <__ssputs_r+0x5a>
    1e72:	4629      	mov	r1, r5
    1e74:	f7ff fe92 	bl	1b9c <_malloc_r>
    1e78:	4606      	mov	r6, r0
    1e7a:	b198      	cbz	r0, 1ea4 <__ssputs_r+0x6c>
    1e7c:	463a      	mov	r2, r7
    1e7e:	6921      	ldr	r1, [r4, #16]
    1e80:	f000 fad3 	bl	242a <memcpy>
    1e84:	89a3      	ldrh	r3, [r4, #12]
    1e86:	f423 6390 	bic.w	r3, r3, #1152	; 0x480
    1e8a:	f043 0380 	orr.w	r3, r3, #128	; 0x80
    1e8e:	81a3      	strh	r3, [r4, #12]
    1e90:	e013      	b.n	1eba <__ssputs_r+0x82>
    1e92:	462a      	mov	r2, r5
    1e94:	f000 faef 	bl	2476 <_realloc_r>
    1e98:	4606      	mov	r6, r0
    1e9a:	b970      	cbnz	r0, 1eba <__ssputs_r+0x82>
    1e9c:	6921      	ldr	r1, [r4, #16]
    1e9e:	4650      	mov	r0, sl
    1ea0:	f7ff fe36 	bl	1b10 <_free_r>
    1ea4:	230c      	movs	r3, #12
    1ea6:	f8ca 3000 	str.w	r3, [sl]
    1eaa:	89a3      	ldrh	r3, [r4, #12]
    1eac:	f043 0340 	orr.w	r3, r3, #64	; 0x40
    1eb0:	81a3      	strh	r3, [r4, #12]
    1eb2:	f04f 30ff 	mov.w	r0, #4294967295	; 0xffffffff
    1eb6:	e8bd 87f0 	ldmia.w	sp!, {r4, r5, r6, r7, r8, r9, sl, pc}
    1eba:	6126      	str	r6, [r4, #16]
    1ebc:	6165      	str	r5, [r4, #20]
    1ebe:	443e      	add	r6, r7
    1ec0:	1bed      	subs	r5, r5, r7
    1ec2:	6026      	str	r6, [r4, #0]
    1ec4:	60a5      	str	r5, [r4, #8]
    1ec6:	4646      	mov	r6, r8
    1ec8:	4546      	cmp	r6, r8
    1eca:	bf28      	it	cs
    1ecc:	4646      	movcs	r6, r8
    1ece:	4632      	mov	r2, r6
    1ed0:	4649      	mov	r1, r9
    1ed2:	6820      	ldr	r0, [r4, #0]
    1ed4:	f000 fab4 	bl	2440 <memmove>
    1ed8:	68a3      	ldr	r3, [r4, #8]
    1eda:	1b9b      	subs	r3, r3, r6
    1edc:	60a3      	str	r3, [r4, #8]
    1ede:	6823      	ldr	r3, [r4, #0]
    1ee0:	441e      	add	r6, r3
    1ee2:	6026      	str	r6, [r4, #0]
    1ee4:	2000      	movs	r0, #0
    1ee6:	e8bd 87f0 	ldmia.w	sp!, {r4, r5, r6, r7, r8, r9, sl, pc}
	...

00001eec <_svfiprintf_r>:
    1eec:	e92d 4ff0 	stmdb	sp!, {r4, r5, r6, r7, r8, r9, sl, fp, lr}
    1ef0:	b09d      	sub	sp, #116	; 0x74
    1ef2:	4680      	mov	r8, r0
    1ef4:	9303      	str	r3, [sp, #12]
    1ef6:	898b      	ldrh	r3, [r1, #12]
    1ef8:	061c      	lsls	r4, r3, #24
    1efa:	460d      	mov	r5, r1
    1efc:	4616      	mov	r6, r2
    1efe:	d50d      	bpl.n	1f1c <_svfiprintf_r+0x30>
    1f00:	690b      	ldr	r3, [r1, #16]
    1f02:	b95b      	cbnz	r3, 1f1c <_svfiprintf_r+0x30>
    1f04:	2140      	movs	r1, #64	; 0x40
    1f06:	f7ff fe49 	bl	1b9c <_malloc_r>
    1f0a:	6028      	str	r0, [r5, #0]
    1f0c:	6128      	str	r0, [r5, #16]
    1f0e:	b918      	cbnz	r0, 1f18 <_svfiprintf_r+0x2c>
    1f10:	230c      	movs	r3, #12
    1f12:	f8c8 3000 	str.w	r3, [r8]
    1f16:	e0cd      	b.n	20b4 <_svfiprintf_r+0x1c8>
    1f18:	2340      	movs	r3, #64	; 0x40
    1f1a:	616b      	str	r3, [r5, #20]
    1f1c:	2300      	movs	r3, #0
    1f1e:	9309      	str	r3, [sp, #36]	; 0x24
    1f20:	2320      	movs	r3, #32
    1f22:	f88d 3029 	strb.w	r3, [sp, #41]	; 0x29
    1f26:	f8df b19c 	ldr.w	fp, [pc, #412]	; 20c4 <_svfiprintf_r+0x1d8>
    1f2a:	2330      	movs	r3, #48	; 0x30
    1f2c:	f88d 302a 	strb.w	r3, [sp, #42]	; 0x2a
    1f30:	4637      	mov	r7, r6
    1f32:	463c      	mov	r4, r7
    1f34:	f814 3b01 	ldrb.w	r3, [r4], #1
    1f38:	b91b      	cbnz	r3, 1f42 <_svfiprintf_r+0x56>
    1f3a:	ebb7 0906 	subs.w	r9, r7, r6
    1f3e:	d010      	beq.n	1f62 <_svfiprintf_r+0x76>
    1f40:	e003      	b.n	1f4a <_svfiprintf_r+0x5e>
    1f42:	2b25      	cmp	r3, #37	; 0x25
    1f44:	d0f9      	beq.n	1f3a <_svfiprintf_r+0x4e>
    1f46:	4627      	mov	r7, r4
    1f48:	e7f3      	b.n	1f32 <_svfiprintf_r+0x46>
    1f4a:	464b      	mov	r3, r9
    1f4c:	4632      	mov	r2, r6
    1f4e:	4629      	mov	r1, r5
    1f50:	4640      	mov	r0, r8
    1f52:	f7ff ff71 	bl	1e38 <__ssputs_r>
    1f56:	3001      	adds	r0, #1
    1f58:	f000 80a7 	beq.w	20aa <_svfiprintf_r+0x1be>
    1f5c:	9b09      	ldr	r3, [sp, #36]	; 0x24
    1f5e:	444b      	add	r3, r9
    1f60:	9309      	str	r3, [sp, #36]	; 0x24
    1f62:	783b      	ldrb	r3, [r7, #0]
    1f64:	2b00      	cmp	r3, #0
    1f66:	f000 80a0 	beq.w	20aa <_svfiprintf_r+0x1be>
    1f6a:	2300      	movs	r3, #0
    1f6c:	f04f 32ff 	mov.w	r2, #4294967295	; 0xffffffff
    1f70:	9304      	str	r3, [sp, #16]
    1f72:	9307      	str	r3, [sp, #28]
    1f74:	9205      	str	r2, [sp, #20]
    1f76:	9306      	str	r3, [sp, #24]
    1f78:	f88d 3053 	strb.w	r3, [sp, #83]	; 0x53
    1f7c:	931a      	str	r3, [sp, #104]	; 0x68
    1f7e:	2601      	movs	r6, #1
    1f80:	2205      	movs	r2, #5
    1f82:	7821      	ldrb	r1, [r4, #0]
    1f84:	484e      	ldr	r0, [pc, #312]	; (20c0 <_svfiprintf_r+0x1d4>)
    1f86:	f000 fa41 	bl	240c <memchr>
    1f8a:	1c67      	adds	r7, r4, #1
    1f8c:	9b04      	ldr	r3, [sp, #16]
    1f8e:	b138      	cbz	r0, 1fa0 <_svfiprintf_r+0xb4>
    1f90:	4a4b      	ldr	r2, [pc, #300]	; (20c0 <_svfiprintf_r+0x1d4>)
    1f92:	1a80      	subs	r0, r0, r2
    1f94:	fa06 f000 	lsl.w	r0, r6, r0
    1f98:	4318      	orrs	r0, r3
    1f9a:	9004      	str	r0, [sp, #16]
    1f9c:	463c      	mov	r4, r7
    1f9e:	e7ef      	b.n	1f80 <_svfiprintf_r+0x94>
    1fa0:	06d9      	lsls	r1, r3, #27
    1fa2:	bf44      	itt	mi
    1fa4:	2220      	movmi	r2, #32
    1fa6:	f88d 2053 	strbmi.w	r2, [sp, #83]	; 0x53
    1faa:	071a      	lsls	r2, r3, #28
    1fac:	bf44      	itt	mi
    1fae:	222b      	movmi	r2, #43	; 0x2b
    1fb0:	f88d 2053 	strbmi.w	r2, [sp, #83]	; 0x53
    1fb4:	7822      	ldrb	r2, [r4, #0]
    1fb6:	2a2a      	cmp	r2, #42	; 0x2a
    1fb8:	d003      	beq.n	1fc2 <_svfiprintf_r+0xd6>
    1fba:	9a07      	ldr	r2, [sp, #28]
    1fbc:	2100      	movs	r1, #0
    1fbe:	200a      	movs	r0, #10
    1fc0:	e00b      	b.n	1fda <_svfiprintf_r+0xee>
    1fc2:	9a03      	ldr	r2, [sp, #12]
    1fc4:	1d11      	adds	r1, r2, #4
    1fc6:	6812      	ldr	r2, [r2, #0]
    1fc8:	9103      	str	r1, [sp, #12]
    1fca:	2a00      	cmp	r2, #0
    1fcc:	da10      	bge.n	1ff0 <_svfiprintf_r+0x104>
    1fce:	4252      	negs	r2, r2
    1fd0:	f043 0002 	orr.w	r0, r3, #2
    1fd4:	9207      	str	r2, [sp, #28]
    1fd6:	9004      	str	r0, [sp, #16]
    1fd8:	e00b      	b.n	1ff2 <_svfiprintf_r+0x106>
    1fda:	4627      	mov	r7, r4
    1fdc:	3401      	adds	r4, #1
    1fde:	783b      	ldrb	r3, [r7, #0]
    1fe0:	3b30      	subs	r3, #48	; 0x30
    1fe2:	2b09      	cmp	r3, #9
    1fe4:	d803      	bhi.n	1fee <_svfiprintf_r+0x102>
    1fe6:	fb00 3202 	mla	r2, r0, r2, r3
    1fea:	2101      	movs	r1, #1
    1fec:	e7f5      	b.n	1fda <_svfiprintf_r+0xee>
    1fee:	b101      	cbz	r1, 1ff2 <_svfiprintf_r+0x106>
    1ff0:	9207      	str	r2, [sp, #28]
    1ff2:	783b      	ldrb	r3, [r7, #0]
    1ff4:	2b2e      	cmp	r3, #46	; 0x2e
    1ff6:	d11e      	bne.n	2036 <_svfiprintf_r+0x14a>
    1ff8:	787b      	ldrb	r3, [r7, #1]
    1ffa:	2b2a      	cmp	r3, #42	; 0x2a
    1ffc:	d10a      	bne.n	2014 <_svfiprintf_r+0x128>
    1ffe:	9b03      	ldr	r3, [sp, #12]
    2000:	1d1a      	adds	r2, r3, #4
    2002:	681b      	ldr	r3, [r3, #0]
    2004:	9203      	str	r2, [sp, #12]
    2006:	2b00      	cmp	r3, #0
    2008:	bfb8      	it	lt
    200a:	f04f 33ff 	movlt.w	r3, #4294967295	; 0xffffffff
    200e:	3702      	adds	r7, #2
    2010:	9305      	str	r3, [sp, #20]
    2012:	e010      	b.n	2036 <_svfiprintf_r+0x14a>
    2014:	2300      	movs	r3, #0
    2016:	9305      	str	r3, [sp, #20]
    2018:	1c78      	adds	r0, r7, #1
    201a:	4619      	mov	r1, r3
    201c:	240a      	movs	r4, #10
    201e:	4607      	mov	r7, r0
    2020:	3001      	adds	r0, #1
    2022:	783a      	ldrb	r2, [r7, #0]
    2024:	3a30      	subs	r2, #48	; 0x30
    2026:	2a09      	cmp	r2, #9
    2028:	d803      	bhi.n	2032 <_svfiprintf_r+0x146>
    202a:	fb04 2101 	mla	r1, r4, r1, r2
    202e:	2301      	movs	r3, #1
    2030:	e7f5      	b.n	201e <_svfiprintf_r+0x132>
    2032:	b103      	cbz	r3, 2036 <_svfiprintf_r+0x14a>
    2034:	9105      	str	r1, [sp, #20]
    2036:	2203      	movs	r2, #3
    2038:	7839      	ldrb	r1, [r7, #0]
    203a:	4822      	ldr	r0, [pc, #136]	; (20c4 <_svfiprintf_r+0x1d8>)
    203c:	f000 f9e6 	bl	240c <memchr>
    2040:	b140      	cbz	r0, 2054 <_svfiprintf_r+0x168>
    2042:	2340      	movs	r3, #64	; 0x40
    2044:	ebcb 0000 	rsb	r0, fp, r0
    2048:	fa03 f000 	lsl.w	r0, r3, r0
    204c:	9b04      	ldr	r3, [sp, #16]
    204e:	4318      	orrs	r0, r3
    2050:	9004      	str	r0, [sp, #16]
    2052:	3701      	adds	r7, #1
    2054:	7839      	ldrb	r1, [r7, #0]
    2056:	481c      	ldr	r0, [pc, #112]	; (20c8 <_svfiprintf_r+0x1dc>)
    2058:	f88d 1028 	strb.w	r1, [sp, #40]	; 0x28
    205c:	2206      	movs	r2, #6
    205e:	1c7e      	adds	r6, r7, #1
    2060:	f000 f9d4 	bl	240c <memchr>
    2064:	b188      	cbz	r0, 208a <_svfiprintf_r+0x19e>
    2066:	4b19      	ldr	r3, [pc, #100]	; (20cc <_svfiprintf_r+0x1e0>)
    2068:	b933      	cbnz	r3, 2078 <_svfiprintf_r+0x18c>
    206a:	9b03      	ldr	r3, [sp, #12]
    206c:	3307      	adds	r3, #7
    206e:	f023 0307 	bic.w	r3, r3, #7
    2072:	3308      	adds	r3, #8
    2074:	9303      	str	r3, [sp, #12]
    2076:	e014      	b.n	20a2 <_svfiprintf_r+0x1b6>
    2078:	ab03      	add	r3, sp, #12
    207a:	9300      	str	r3, [sp, #0]
    207c:	462a      	mov	r2, r5
    207e:	4b14      	ldr	r3, [pc, #80]	; (20d0 <_svfiprintf_r+0x1e4>)
    2080:	a904      	add	r1, sp, #16
    2082:	4640      	mov	r0, r8
    2084:	f3af 8000 	nop.w
    2088:	e007      	b.n	209a <_svfiprintf_r+0x1ae>
    208a:	ab03      	add	r3, sp, #12
    208c:	9300      	str	r3, [sp, #0]
    208e:	462a      	mov	r2, r5
    2090:	4b0f      	ldr	r3, [pc, #60]	; (20d0 <_svfiprintf_r+0x1e4>)
    2092:	a904      	add	r1, sp, #16
    2094:	4640      	mov	r0, r8
    2096:	f000 f893 	bl	21c0 <_printf_i>
    209a:	f1b0 3fff 	cmp.w	r0, #4294967295	; 0xffffffff
    209e:	4682      	mov	sl, r0
    20a0:	d003      	beq.n	20aa <_svfiprintf_r+0x1be>
    20a2:	9b09      	ldr	r3, [sp, #36]	; 0x24
    20a4:	4453      	add	r3, sl
    20a6:	9309      	str	r3, [sp, #36]	; 0x24
    20a8:	e742      	b.n	1f30 <_svfiprintf_r+0x44>
    20aa:	89ab      	ldrh	r3, [r5, #12]
    20ac:	065b      	lsls	r3, r3, #25
    20ae:	d401      	bmi.n	20b4 <_svfiprintf_r+0x1c8>
    20b0:	9809      	ldr	r0, [sp, #36]	; 0x24
    20b2:	e001      	b.n	20b8 <_svfiprintf_r+0x1cc>
    20b4:	f04f 30ff 	mov.w	r0, #4294967295	; 0xffffffff
    20b8:	b01d      	add	sp, #116	; 0x74
    20ba:	e8bd 8ff0 	ldmia.w	sp!, {r4, r5, r6, r7, r8, r9, sl, fp, pc}
    20be:	bf00      	nop
    20c0:	00002578 	andeq	r2, r0, r8, ror r5
    20c4:	0000257e 	andeq	r2, r0, lr, ror r5
    20c8:	00002582 	andeq	r2, r0, r2, lsl #11
    20cc:	00000000 	andeq	r0, r0, r0
    20d0:	00001e39 	andeq	r1, r0, r9, lsr lr

000020d4 <_printf_common>:
    20d4:	e92d 47f0 	stmdb	sp!, {r4, r5, r6, r7, r8, r9, sl, lr}
    20d8:	4691      	mov	r9, r2
    20da:	461f      	mov	r7, r3
    20dc:	690a      	ldr	r2, [r1, #16]
    20de:	688b      	ldr	r3, [r1, #8]
    20e0:	f8dd 8020 	ldr.w	r8, [sp, #32]
    20e4:	4293      	cmp	r3, r2
    20e6:	bfb8      	it	lt
    20e8:	4613      	movlt	r3, r2
    20ea:	f8c9 3000 	str.w	r3, [r9]
    20ee:	f891 2043 	ldrb.w	r2, [r1, #67]	; 0x43
    20f2:	4606      	mov	r6, r0
    20f4:	460c      	mov	r4, r1
    20f6:	b112      	cbz	r2, 20fe <_printf_common+0x2a>
    20f8:	3301      	adds	r3, #1
    20fa:	f8c9 3000 	str.w	r3, [r9]
    20fe:	6823      	ldr	r3, [r4, #0]
    2100:	0699      	lsls	r1, r3, #26
    2102:	bf42      	ittt	mi
    2104:	f8d9 3000 	ldrmi.w	r3, [r9]
    2108:	3302      	addmi	r3, #2
    210a:	f8c9 3000 	strmi.w	r3, [r9]
    210e:	6825      	ldr	r5, [r4, #0]
    2110:	f015 0506 	ands.w	r5, r5, #6
    2114:	d110      	bne.n	2138 <_printf_common+0x64>
    2116:	f104 0a19 	add.w	sl, r4, #25
    211a:	e007      	b.n	212c <_printf_common+0x58>
    211c:	2301      	movs	r3, #1
    211e:	4652      	mov	r2, sl
    2120:	4639      	mov	r1, r7
    2122:	4630      	mov	r0, r6
    2124:	47c0      	blx	r8
    2126:	3001      	adds	r0, #1
    2128:	d01a      	beq.n	2160 <_printf_common+0x8c>
    212a:	3501      	adds	r5, #1
    212c:	68e3      	ldr	r3, [r4, #12]
    212e:	f8d9 2000 	ldr.w	r2, [r9]
    2132:	1a9b      	subs	r3, r3, r2
    2134:	429d      	cmp	r5, r3
    2136:	dbf1      	blt.n	211c <_printf_common+0x48>
    2138:	f894 3043 	ldrb.w	r3, [r4, #67]	; 0x43
    213c:	6822      	ldr	r2, [r4, #0]
    213e:	3300      	adds	r3, #0
    2140:	bf18      	it	ne
    2142:	2301      	movne	r3, #1
    2144:	0692      	lsls	r2, r2, #26
    2146:	d50f      	bpl.n	2168 <_printf_common+0x94>
    2148:	18e1      	adds	r1, r4, r3
    214a:	1c5a      	adds	r2, r3, #1
    214c:	2030      	movs	r0, #48	; 0x30
    214e:	f881 0043 	strb.w	r0, [r1, #67]	; 0x43
    2152:	4422      	add	r2, r4
    2154:	f894 1045 	ldrb.w	r1, [r4, #69]	; 0x45
    2158:	f882 1043 	strb.w	r1, [r2, #67]	; 0x43
    215c:	3302      	adds	r3, #2
    215e:	e003      	b.n	2168 <_printf_common+0x94>
    2160:	f04f 30ff 	mov.w	r0, #4294967295	; 0xffffffff
    2164:	e8bd 87f0 	ldmia.w	sp!, {r4, r5, r6, r7, r8, r9, sl, pc}
    2168:	f104 0243 	add.w	r2, r4, #67	; 0x43
    216c:	4639      	mov	r1, r7
    216e:	4630      	mov	r0, r6
    2170:	47c0      	blx	r8
    2172:	3001      	adds	r0, #1
    2174:	d0f4      	beq.n	2160 <_printf_common+0x8c>
    2176:	6822      	ldr	r2, [r4, #0]
    2178:	f8d9 5000 	ldr.w	r5, [r9]
    217c:	68e3      	ldr	r3, [r4, #12]
    217e:	f002 0206 	and.w	r2, r2, #6
    2182:	2a04      	cmp	r2, #4
    2184:	bf08      	it	eq
    2186:	1b5d      	subeq	r5, r3, r5
    2188:	6922      	ldr	r2, [r4, #16]
    218a:	68a3      	ldr	r3, [r4, #8]
    218c:	bf0c      	ite	eq
    218e:	ea25 75e5 	biceq.w	r5, r5, r5, asr #31
    2192:	2500      	movne	r5, #0
    2194:	4293      	cmp	r3, r2
    2196:	bfc4      	itt	gt
    2198:	1a9b      	subgt	r3, r3, r2
    219a:	18ed      	addgt	r5, r5, r3
    219c:	f04f 0900 	mov.w	r9, #0
    21a0:	341a      	adds	r4, #26
    21a2:	454d      	cmp	r5, r9
    21a4:	d009      	beq.n	21ba <_printf_common+0xe6>
    21a6:	2301      	movs	r3, #1
    21a8:	4622      	mov	r2, r4
    21aa:	4639      	mov	r1, r7
    21ac:	4630      	mov	r0, r6
    21ae:	47c0      	blx	r8
    21b0:	3001      	adds	r0, #1
    21b2:	d0d5      	beq.n	2160 <_printf_common+0x8c>
    21b4:	f109 0901 	add.w	r9, r9, #1
    21b8:	e7f3      	b.n	21a2 <_printf_common+0xce>
    21ba:	2000      	movs	r0, #0
    21bc:	e8bd 87f0 	ldmia.w	sp!, {r4, r5, r6, r7, r8, r9, sl, pc}

000021c0 <_printf_i>:
    21c0:	e92d 43f0 	stmdb	sp!, {r4, r5, r6, r7, r8, r9, lr}
    21c4:	4617      	mov	r7, r2
    21c6:	7e0a      	ldrb	r2, [r1, #24]
    21c8:	b085      	sub	sp, #20
    21ca:	2a6e      	cmp	r2, #110	; 0x6e
    21cc:	4698      	mov	r8, r3
    21ce:	4606      	mov	r6, r0
    21d0:	460c      	mov	r4, r1
    21d2:	9b0c      	ldr	r3, [sp, #48]	; 0x30
    21d4:	f101 0e43 	add.w	lr, r1, #67	; 0x43
    21d8:	f000 80ae 	beq.w	2338 <_printf_i+0x178>
    21dc:	d811      	bhi.n	2202 <_printf_i+0x42>
    21de:	2a63      	cmp	r2, #99	; 0x63
    21e0:	d022      	beq.n	2228 <_printf_i+0x68>
    21e2:	d809      	bhi.n	21f8 <_printf_i+0x38>
    21e4:	2a00      	cmp	r2, #0
    21e6:	f000 80bb 	beq.w	2360 <_printf_i+0x1a0>
    21ea:	2a58      	cmp	r2, #88	; 0x58
    21ec:	f040 80ca 	bne.w	2384 <_printf_i+0x1c4>
    21f0:	f881 2045 	strb.w	r2, [r1, #69]	; 0x45
    21f4:	4983      	ldr	r1, [pc, #524]	; (2404 <_printf_i+0x244>)
    21f6:	e055      	b.n	22a4 <_printf_i+0xe4>
    21f8:	2a64      	cmp	r2, #100	; 0x64
    21fa:	d01e      	beq.n	223a <_printf_i+0x7a>
    21fc:	2a69      	cmp	r2, #105	; 0x69
    21fe:	d01c      	beq.n	223a <_printf_i+0x7a>
    2200:	e0c0      	b.n	2384 <_printf_i+0x1c4>
    2202:	2a73      	cmp	r2, #115	; 0x73
    2204:	f000 80b0 	beq.w	2368 <_printf_i+0x1a8>
    2208:	d809      	bhi.n	221e <_printf_i+0x5e>
    220a:	2a6f      	cmp	r2, #111	; 0x6f
    220c:	d02e      	beq.n	226c <_printf_i+0xac>
    220e:	2a70      	cmp	r2, #112	; 0x70
    2210:	f040 80b8 	bne.w	2384 <_printf_i+0x1c4>
    2214:	680a      	ldr	r2, [r1, #0]
    2216:	f042 0220 	orr.w	r2, r2, #32
    221a:	600a      	str	r2, [r1, #0]
    221c:	e03e      	b.n	229c <_printf_i+0xdc>
    221e:	2a75      	cmp	r2, #117	; 0x75
    2220:	d024      	beq.n	226c <_printf_i+0xac>
    2222:	2a78      	cmp	r2, #120	; 0x78
    2224:	d03a      	beq.n	229c <_printf_i+0xdc>
    2226:	e0ad      	b.n	2384 <_printf_i+0x1c4>
    2228:	681a      	ldr	r2, [r3, #0]
    222a:	f101 0542 	add.w	r5, r1, #66	; 0x42
    222e:	1d11      	adds	r1, r2, #4
    2230:	6019      	str	r1, [r3, #0]
    2232:	6813      	ldr	r3, [r2, #0]
    2234:	f884 3042 	strb.w	r3, [r4, #66]	; 0x42
    2238:	e0a8      	b.n	238c <_printf_i+0x1cc>
    223a:	6821      	ldr	r1, [r4, #0]
    223c:	681a      	ldr	r2, [r3, #0]
    223e:	f011 0f80 	tst.w	r1, #128	; 0x80
    2242:	d002      	beq.n	224a <_printf_i+0x8a>
    2244:	1d11      	adds	r1, r2, #4
    2246:	6019      	str	r1, [r3, #0]
    2248:	e008      	b.n	225c <_printf_i+0x9c>
    224a:	f011 0f40 	tst.w	r1, #64	; 0x40
    224e:	f102 0104 	add.w	r1, r2, #4
    2252:	6019      	str	r1, [r3, #0]
    2254:	d002      	beq.n	225c <_printf_i+0x9c>
    2256:	f9b2 3000 	ldrsh.w	r3, [r2]
    225a:	e000      	b.n	225e <_printf_i+0x9e>
    225c:	6813      	ldr	r3, [r2, #0]
    225e:	2b00      	cmp	r3, #0
    2260:	da3c      	bge.n	22dc <_printf_i+0x11c>
    2262:	222d      	movs	r2, #45	; 0x2d
    2264:	425b      	negs	r3, r3
    2266:	f884 2043 	strb.w	r2, [r4, #67]	; 0x43
    226a:	e037      	b.n	22dc <_printf_i+0x11c>
    226c:	6821      	ldr	r1, [r4, #0]
    226e:	681a      	ldr	r2, [r3, #0]
    2270:	f011 0f80 	tst.w	r1, #128	; 0x80
    2274:	d002      	beq.n	227c <_printf_i+0xbc>
    2276:	1d11      	adds	r1, r2, #4
    2278:	6019      	str	r1, [r3, #0]
    227a:	e007      	b.n	228c <_printf_i+0xcc>
    227c:	f011 0f40 	tst.w	r1, #64	; 0x40
    2280:	f102 0104 	add.w	r1, r2, #4
    2284:	6019      	str	r1, [r3, #0]
    2286:	d001      	beq.n	228c <_printf_i+0xcc>
    2288:	8813      	ldrh	r3, [r2, #0]
    228a:	e000      	b.n	228e <_printf_i+0xce>
    228c:	6813      	ldr	r3, [r2, #0]
    228e:	7e22      	ldrb	r2, [r4, #24]
    2290:	495c      	ldr	r1, [pc, #368]	; (2404 <_printf_i+0x244>)
    2292:	2a6f      	cmp	r2, #111	; 0x6f
    2294:	bf14      	ite	ne
    2296:	220a      	movne	r2, #10
    2298:	2208      	moveq	r2, #8
    229a:	e01b      	b.n	22d4 <_printf_i+0x114>
    229c:	2278      	movs	r2, #120	; 0x78
    229e:	495a      	ldr	r1, [pc, #360]	; (2408 <_printf_i+0x248>)
    22a0:	f884 2045 	strb.w	r2, [r4, #69]	; 0x45
    22a4:	6822      	ldr	r2, [r4, #0]
    22a6:	6818      	ldr	r0, [r3, #0]
    22a8:	f012 0f80 	tst.w	r2, #128	; 0x80
    22ac:	f100 0504 	add.w	r5, r0, #4
    22b0:	601d      	str	r5, [r3, #0]
    22b2:	d103      	bne.n	22bc <_printf_i+0xfc>
    22b4:	0655      	lsls	r5, r2, #25
    22b6:	d501      	bpl.n	22bc <_printf_i+0xfc>
    22b8:	8803      	ldrh	r3, [r0, #0]
    22ba:	e000      	b.n	22be <_printf_i+0xfe>
    22bc:	6803      	ldr	r3, [r0, #0]
    22be:	07d0      	lsls	r0, r2, #31
    22c0:	bf44      	itt	mi
    22c2:	f042 0220 	orrmi.w	r2, r2, #32
    22c6:	6022      	strmi	r2, [r4, #0]
    22c8:	b91b      	cbnz	r3, 22d2 <_printf_i+0x112>
    22ca:	6822      	ldr	r2, [r4, #0]
    22cc:	f022 0220 	bic.w	r2, r2, #32
    22d0:	6022      	str	r2, [r4, #0]
    22d2:	2210      	movs	r2, #16
    22d4:	2000      	movs	r0, #0
    22d6:	f884 0043 	strb.w	r0, [r4, #67]	; 0x43
    22da:	e001      	b.n	22e0 <_printf_i+0x120>
    22dc:	4949      	ldr	r1, [pc, #292]	; (2404 <_printf_i+0x244>)
    22de:	220a      	movs	r2, #10
    22e0:	6865      	ldr	r5, [r4, #4]
    22e2:	60a5      	str	r5, [r4, #8]
    22e4:	2d00      	cmp	r5, #0
    22e6:	db08      	blt.n	22fa <_printf_i+0x13a>
    22e8:	6820      	ldr	r0, [r4, #0]
    22ea:	f020 0004 	bic.w	r0, r0, #4
    22ee:	6020      	str	r0, [r4, #0]
    22f0:	b92b      	cbnz	r3, 22fe <_printf_i+0x13e>
    22f2:	2d00      	cmp	r5, #0
    22f4:	d17d      	bne.n	23f2 <_printf_i+0x232>
    22f6:	4675      	mov	r5, lr
    22f8:	e00c      	b.n	2314 <_printf_i+0x154>
    22fa:	2b00      	cmp	r3, #0
    22fc:	d079      	beq.n	23f2 <_printf_i+0x232>
    22fe:	4675      	mov	r5, lr
    2300:	fbb3 f0f2 	udiv	r0, r3, r2
    2304:	fb02 3310 	mls	r3, r2, r0, r3
    2308:	5ccb      	ldrb	r3, [r1, r3]
    230a:	f805 3d01 	strb.w	r3, [r5, #-1]!
    230e:	4603      	mov	r3, r0
    2310:	2800      	cmp	r0, #0
    2312:	d1f5      	bne.n	2300 <_printf_i+0x140>
    2314:	2a08      	cmp	r2, #8
    2316:	d10b      	bne.n	2330 <_printf_i+0x170>
    2318:	6823      	ldr	r3, [r4, #0]
    231a:	07da      	lsls	r2, r3, #31
    231c:	d508      	bpl.n	2330 <_printf_i+0x170>
    231e:	6923      	ldr	r3, [r4, #16]
    2320:	6862      	ldr	r2, [r4, #4]
    2322:	429a      	cmp	r2, r3
    2324:	bfde      	ittt	le
    2326:	2330      	movle	r3, #48	; 0x30
    2328:	f805 3c01 	strble.w	r3, [r5, #-1]
    232c:	f105 35ff 	addle.w	r5, r5, #4294967295	; 0xffffffff
    2330:	ebc5 030e 	rsb	r3, r5, lr
    2334:	6123      	str	r3, [r4, #16]
    2336:	e02e      	b.n	2396 <_printf_i+0x1d6>
    2338:	6808      	ldr	r0, [r1, #0]
    233a:	681a      	ldr	r2, [r3, #0]
    233c:	6949      	ldr	r1, [r1, #20]
    233e:	f010 0f80 	tst.w	r0, #128	; 0x80
    2342:	d003      	beq.n	234c <_printf_i+0x18c>
    2344:	1d10      	adds	r0, r2, #4
    2346:	6018      	str	r0, [r3, #0]
    2348:	6813      	ldr	r3, [r2, #0]
    234a:	e008      	b.n	235e <_printf_i+0x19e>
    234c:	f010 0f40 	tst.w	r0, #64	; 0x40
    2350:	f102 0004 	add.w	r0, r2, #4
    2354:	6018      	str	r0, [r3, #0]
    2356:	6813      	ldr	r3, [r2, #0]
    2358:	d001      	beq.n	235e <_printf_i+0x19e>
    235a:	8019      	strh	r1, [r3, #0]
    235c:	e000      	b.n	2360 <_printf_i+0x1a0>
    235e:	6019      	str	r1, [r3, #0]
    2360:	2300      	movs	r3, #0
    2362:	6123      	str	r3, [r4, #16]
    2364:	4675      	mov	r5, lr
    2366:	e016      	b.n	2396 <_printf_i+0x1d6>
    2368:	681a      	ldr	r2, [r3, #0]
    236a:	1d11      	adds	r1, r2, #4
    236c:	6019      	str	r1, [r3, #0]
    236e:	6815      	ldr	r5, [r2, #0]
    2370:	6862      	ldr	r2, [r4, #4]
    2372:	2100      	movs	r1, #0
    2374:	4628      	mov	r0, r5
    2376:	f000 f849 	bl	240c <memchr>
    237a:	b108      	cbz	r0, 2380 <_printf_i+0x1c0>
    237c:	1b40      	subs	r0, r0, r5
    237e:	6060      	str	r0, [r4, #4]
    2380:	6863      	ldr	r3, [r4, #4]
    2382:	e004      	b.n	238e <_printf_i+0x1ce>
    2384:	f104 0542 	add.w	r5, r4, #66	; 0x42
    2388:	f884 2042 	strb.w	r2, [r4, #66]	; 0x42
    238c:	2301      	movs	r3, #1
    238e:	6123      	str	r3, [r4, #16]
    2390:	2300      	movs	r3, #0
    2392:	f884 3043 	strb.w	r3, [r4, #67]	; 0x43
    2396:	f8cd 8000 	str.w	r8, [sp]
    239a:	463b      	mov	r3, r7
    239c:	aa03      	add	r2, sp, #12
    239e:	4621      	mov	r1, r4
    23a0:	4630      	mov	r0, r6
    23a2:	f7ff fe97 	bl	20d4 <_printf_common>
    23a6:	3001      	adds	r0, #1
    23a8:	d102      	bne.n	23b0 <_printf_i+0x1f0>
    23aa:	f04f 30ff 	mov.w	r0, #4294967295	; 0xffffffff
    23ae:	e026      	b.n	23fe <_printf_i+0x23e>
    23b0:	6923      	ldr	r3, [r4, #16]
    23b2:	462a      	mov	r2, r5
    23b4:	4639      	mov	r1, r7
    23b6:	4630      	mov	r0, r6
    23b8:	47c0      	blx	r8
    23ba:	3001      	adds	r0, #1
    23bc:	d0f5      	beq.n	23aa <_printf_i+0x1ea>
    23be:	6823      	ldr	r3, [r4, #0]
    23c0:	079b      	lsls	r3, r3, #30
    23c2:	d510      	bpl.n	23e6 <_printf_i+0x226>
    23c4:	2500      	movs	r5, #0
    23c6:	f104 0919 	add.w	r9, r4, #25
    23ca:	e007      	b.n	23dc <_printf_i+0x21c>
    23cc:	2301      	movs	r3, #1
    23ce:	464a      	mov	r2, r9
    23d0:	4639      	mov	r1, r7
    23d2:	4630      	mov	r0, r6
    23d4:	47c0      	blx	r8
    23d6:	3001      	adds	r0, #1
    23d8:	d0e7      	beq.n	23aa <_printf_i+0x1ea>
    23da:	3501      	adds	r5, #1
    23dc:	68e3      	ldr	r3, [r4, #12]
    23de:	9a03      	ldr	r2, [sp, #12]
    23e0:	1a9b      	subs	r3, r3, r2
    23e2:	429d      	cmp	r5, r3
    23e4:	dbf2      	blt.n	23cc <_printf_i+0x20c>
    23e6:	68e0      	ldr	r0, [r4, #12]
    23e8:	9b03      	ldr	r3, [sp, #12]
    23ea:	4298      	cmp	r0, r3
    23ec:	bfb8      	it	lt
    23ee:	4618      	movlt	r0, r3
    23f0:	e005      	b.n	23fe <_printf_i+0x23e>
    23f2:	780b      	ldrb	r3, [r1, #0]
    23f4:	f884 3042 	strb.w	r3, [r4, #66]	; 0x42
    23f8:	f104 0542 	add.w	r5, r4, #66	; 0x42
    23fc:	e78a      	b.n	2314 <_printf_i+0x154>
    23fe:	b005      	add	sp, #20
    2400:	e8bd 83f0 	ldmia.w	sp!, {r4, r5, r6, r7, r8, r9, pc}
    2404:	00002589 	andeq	r2, r0, r9, lsl #11
    2408:	0000259a 	muleq	r0, sl, r5

0000240c <memchr>:
    240c:	b510      	push	{r4, lr}
    240e:	b2c9      	uxtb	r1, r1
    2410:	4402      	add	r2, r0
    2412:	4290      	cmp	r0, r2
    2414:	4603      	mov	r3, r0
    2416:	d006      	beq.n	2426 <memchr+0x1a>
    2418:	781c      	ldrb	r4, [r3, #0]
    241a:	428c      	cmp	r4, r1
    241c:	f100 0001 	add.w	r0, r0, #1
    2420:	d1f7      	bne.n	2412 <memchr+0x6>
    2422:	4618      	mov	r0, r3
    2424:	bd10      	pop	{r4, pc}
    2426:	2000      	movs	r0, #0
    2428:	bd10      	pop	{r4, pc}

0000242a <memcpy>:
    242a:	b510      	push	{r4, lr}
    242c:	1e43      	subs	r3, r0, #1
    242e:	440a      	add	r2, r1
    2430:	4291      	cmp	r1, r2
    2432:	d004      	beq.n	243e <memcpy+0x14>
    2434:	f811 4b01 	ldrb.w	r4, [r1], #1
    2438:	f803 4f01 	strb.w	r4, [r3, #1]!
    243c:	e7f8      	b.n	2430 <memcpy+0x6>
    243e:	bd10      	pop	{r4, pc}

00002440 <memmove>:
    2440:	4288      	cmp	r0, r1
    2442:	b510      	push	{r4, lr}
    2444:	eb01 0302 	add.w	r3, r1, r2
    2448:	d801      	bhi.n	244e <memmove+0xe>
    244a:	1e42      	subs	r2, r0, #1
    244c:	e00b      	b.n	2466 <memmove+0x26>
    244e:	4298      	cmp	r0, r3
    2450:	d2fb      	bcs.n	244a <memmove+0xa>
    2452:	1881      	adds	r1, r0, r2
    2454:	1ad2      	subs	r2, r2, r3
    2456:	42d3      	cmn	r3, r2
    2458:	d004      	beq.n	2464 <memmove+0x24>
    245a:	f813 4d01 	ldrb.w	r4, [r3, #-1]!
    245e:	f801 4d01 	strb.w	r4, [r1, #-1]!
    2462:	e7f8      	b.n	2456 <memmove+0x16>
    2464:	bd10      	pop	{r4, pc}
    2466:	4299      	cmp	r1, r3
    2468:	d004      	beq.n	2474 <memmove+0x34>
    246a:	f811 4b01 	ldrb.w	r4, [r1], #1
    246e:	f802 4f01 	strb.w	r4, [r2, #1]!
    2472:	e7f8      	b.n	2466 <memmove+0x26>
    2474:	bd10      	pop	{r4, pc}

00002476 <_realloc_r>:
    2476:	b5f8      	push	{r3, r4, r5, r6, r7, lr}
    2478:	4607      	mov	r7, r0
    247a:	4615      	mov	r5, r2
    247c:	460e      	mov	r6, r1
    247e:	b921      	cbnz	r1, 248a <_realloc_r+0x14>
    2480:	4611      	mov	r1, r2
    2482:	e8bd 40f8 	ldmia.w	sp!, {r3, r4, r5, r6, r7, lr}
    2486:	f7ff bb89 	b.w	1b9c <_malloc_r>
    248a:	b91a      	cbnz	r2, 2494 <_realloc_r+0x1e>
    248c:	f7ff fb40 	bl	1b10 <_free_r>
    2490:	4628      	mov	r0, r5
    2492:	bdf8      	pop	{r3, r4, r5, r6, r7, pc}
    2494:	f000 f815 	bl	24c2 <_malloc_usable_size_r>
    2498:	4285      	cmp	r5, r0
    249a:	d90e      	bls.n	24ba <_realloc_r+0x44>
    249c:	4629      	mov	r1, r5
    249e:	4638      	mov	r0, r7
    24a0:	f7ff fb7c 	bl	1b9c <_malloc_r>
    24a4:	4604      	mov	r4, r0
    24a6:	b150      	cbz	r0, 24be <_realloc_r+0x48>
    24a8:	4631      	mov	r1, r6
    24aa:	462a      	mov	r2, r5
    24ac:	f7ff ffbd 	bl	242a <memcpy>
    24b0:	4631      	mov	r1, r6
    24b2:	4638      	mov	r0, r7
    24b4:	f7ff fb2c 	bl	1b10 <_free_r>
    24b8:	e001      	b.n	24be <_realloc_r+0x48>
    24ba:	4630      	mov	r0, r6
    24bc:	bdf8      	pop	{r3, r4, r5, r6, r7, pc}
    24be:	4620      	mov	r0, r4
    24c0:	bdf8      	pop	{r3, r4, r5, r6, r7, pc}

000024c2 <_malloc_usable_size_r>:
    24c2:	f851 0c04 	ldr.w	r0, [r1, #-4]
    24c6:	2800      	cmp	r0, #0
    24c8:	bfbe      	ittt	lt
    24ca:	1809      	addlt	r1, r1, r0
    24cc:	f851 3c04 	ldrlt.w	r3, [r1, #-4]
    24d0:	18c0      	addlt	r0, r0, r3
    24d2:	3804      	subs	r0, #4
    24d4:	4770      	bx	lr
	...

000024d8 <_sbrk>:
    24d8:	4a04      	ldr	r2, [pc, #16]	; (24ec <_sbrk+0x14>)
    24da:	4905      	ldr	r1, [pc, #20]	; (24f0 <_sbrk+0x18>)
    24dc:	6813      	ldr	r3, [r2, #0]
    24de:	2b00      	cmp	r3, #0
    24e0:	bf08      	it	eq
    24e2:	460b      	moveq	r3, r1
    24e4:	4418      	add	r0, r3
    24e6:	6010      	str	r0, [r2, #0]
    24e8:	4618      	mov	r0, r3
    24ea:	4770      	bx	lr
    24ec:	1fff02c4 	svcne	0x00ff02c4
    24f0:	1fff0398 	svcne	0x00ff0398

000024f4 <_exit>:
    24f4:	e7fe      	b.n	24f4 <_exit>
    24f6:	bf00      	nop

000024f8 <_init>:
    24f8:	b5f8      	push	{r3, r4, r5, r6, r7, lr}
    24fa:	bf00      	nop
    24fc:	bcf8      	pop	{r3, r4, r5, r6, r7}
    24fe:	bc08      	pop	{r3}
    2500:	469e      	mov	lr, r3
    2502:	4770      	bx	lr

00002504 <_fini>:
    2504:	b5f8      	push	{r3, r4, r5, r6, r7, lr}
    2506:	bf00      	nop
    2508:	bcf8      	pop	{r3, r4, r5, r6, r7}
    250a:	bc08      	pop	{r3}
    250c:	469e      	mov	lr, r3
    250e:	4770      	bx	lr
    2510:	7361654d 	cmnvc	r1, #322961408	; 0x13400000
    2514:	64657275 	strbtvs	r7, [r5], #-629	; 0xfffffd8b
    2518:	72654e20 	rsbvc	r4, r5, #32, 28	; 0x200
    251c:	2074736e 	rsbscs	r7, r4, lr, ror #6
    2520:	7074754f 	rsbsvc	r7, r4, pc, asr #10
    2524:	56207475 			; <UNDEFINED> instruction: 0x56207475
    2528:	61746c6f 	cmnvs	r4, pc, ror #24
    252c:	203a6567 	eorscs	r6, sl, r7, ror #10
    2530:	20096625 	andcs	r6, r9, r5, lsr #12
    2534:	706d7550 	rsbvc	r7, sp, r0, asr r5
    2538:	72727543 	rsbsvc	r7, r2, #281018368	; 0x10c00000
    253c:	20746e65 	rsbscs	r6, r4, r5, ror #28
    2540:	79747544 	ldmdbvc	r4!, {r2, r6, r8, sl, ip, sp, lr}^
    2544:	63794320 	cmnvs	r9, #32, 6	; 0x80000000
    2548:	2520656c 	strcs	r6, [r0, #-1388]!	; 0xfffffa94
    254c:	50200975 	eorpl	r0, r0, r5, ror r9
    2550:	20706d75 	rsbscs	r6, r0, r5, ror sp
    2554:	72727543 	rsbsvc	r7, r2, #281018368	; 0x10c00000
    2558:	20746e65 	rsbscs	r6, r4, r5, ror #28
    255c:	7361654d 	cmnvc	r1, #322961408	; 0x13400000
    2560:	64657275 	strbtvs	r7, [r5], #-629	; 0xfffffd8b
    2564:	6625203a 			; <UNDEFINED> instruction: 0x6625203a
    2568:	60000a0d 	andvs	r0, r0, sp, lsl #20

0000256b <ADC1SourceBytes>:
    256b:	4f4e6360 	svcmi	0x004e6360
    256f:	00000043 	andeq	r0, r0, r3, asr #32
	...

00002574 <_global_impure_ptr>:
    2574:	1fff019c 	svcne	0x00ff019c
    2578:	2b302d23 	blcs	c0da0c <__exidx_end+0xc0b454>
    257c:	6c680020 	stclvs	0, cr0, [r8], #-128	; 0xffffff80
    2580:	6665004c 	strbtvs	r0, [r5], -ip, asr #32
    2584:	47464567 	strbmi	r4, [r6, -r7, ror #10]
    2588:	32313000 	eorscc	r3, r1, #0
    258c:	36353433 			; <UNDEFINED> instruction: 0x36353433
    2590:	41393837 	teqmi	r9, r7, lsr r8
    2594:	45444342 	strbmi	r4, [r4, #-834]	; 0xfffffcbe
    2598:	31300046 	teqcc	r0, r6, asr #32
    259c:	35343332 	ldrcc	r3, [r4, #-818]!	; 0xfffffcce
    25a0:	39383736 	ldmdbcc	r8!, {r1, r2, r4, r5, r8, r9, sl, ip, sp}
    25a4:	64636261 	strbtvs	r6, [r3], #-609	; 0xfffffd9f
    25a8:	00006665 	andeq	r6, r0, r5, ror #12

000025ac <__EH_FRAME_BEGIN__>:
    25ac:	00000000 	andeq	r0, r0, r0

Disassembly of section .ARM.exidx:

000025b0 <__exidx_end-0x8>:
    25b0:	7fffdebc 	svcvc	0x00ffdebc
    25b4:	00000001 	andeq	r0, r0, r1

Disassembly of section .data:

1fff0198 <SystemCoreClock>:
1fff0198:	07270e00 	streq	r0, [r7, -r0, lsl #28]!

1fff019c <impure_data>:
	...
1fff01bc:	0000256f 	andeq	r2, r0, pc, ror #10
	...

1fff01fc <_impure_ptr>:
1fff01fc:	1fff019c 	svcne	0x00ff019c

1fff0200 <__frame_dummy_init_array_entry>:
1fff0200:	00000439 	andeq	r0, r0, r9, lsr r4

1fff0204 <__do_global_dtors_aux_fini_array_entry>:
1fff0204:	00000411 	andeq	r0, r0, r1, lsl r4

Disassembly of section .bss:

1fff0208 <__bss_start__>:
1fff0208:	00000000 	andeq	r0, r0, r0

1fff020c <object.8363>:
	...

1fff0224 <PWMTick>:
1fff0224:	00000000 	andeq	r0, r0, r0

1fff0228 <chan2Freq>:
1fff0228:	00000000 	andeq	r0, r0, r0

1fff022c <__malloc_sbrk_start>:
1fff022c:	00000000 	andeq	r0, r0, r0

1fff0230 <__malloc_free_list>:
1fff0230:	00000000 	andeq	r0, r0, r0

1fff0234 <_global_atexit0>:
	...

1fff02c0 <_global_atexit>:
1fff02c0:	00000000 	andeq	r0, r0, r0

1fff02c4 <heap_end.4167>:
1fff02c4:	00000000 	andeq	r0, r0, r0

1fff02c8 <PITData>:
	...

1fff02d0 <nernstVoltage>:
1fff02d0:	00000000 	andeq	r0, r0, r0

1fff02d4 <pumpCurrentPID>:
	...

1fff0308 <nernstR>:
1fff0308:	00000000 	andeq	r0, r0, r0

1fff030c <pumpCurrentDesired>:
1fff030c:	00000000 	andeq	r0, r0, r0

1fff0310 <heaterPID>:
	...

1fff0344 <pumpCurrentDutyCycle>:
1fff0344:	00000000 	andeq	r0, r0, r0

1fff0348 <pumpCurrentMeasured>:
1fff0348:	00000000 	andeq	r0, r0, r0

1fff034c <nernstVoltagePID>:
	...

1fff0380 <ADC1Results>:
	...

1fff0388 <heaterDutyCycle>:
1fff0388:	00000000 	andeq	r0, r0, r0

1fff038c <ADC1ResultIndex>:
1fff038c:	00000000 	andeq	r0, r0, r0

1fff0390 <errno>:
1fff0390:	00000000 	andeq	r0, r0, r0

Disassembly of section .heap:

1fff0398 <__HeapBase>:
	...

Disassembly of section .stack_dummy:

1fff0398 <.stack_dummy>:
	...

Disassembly of section .ARM.attributes:

00000000 <.ARM.attributes>:
   0:	00002941 	andeq	r2, r0, r1, asr #18
   4:	61656100 	cmnvs	r5, r0, lsl #2
   8:	01006962 	tsteq	r0, r2, ror #18
   c:	0000001f 	andeq	r0, r0, pc, lsl r0
  10:	2d453705 	stclcs	7, cr3, [r5, #-20]	; 0xffffffec
  14:	0d06004d 	stceq	0, cr0, [r6, #-308]	; 0xfffffecc
  18:	02094d07 	andeq	r4, r9, #448	; 0x1c0
  1c:	01140412 	tsteq	r4, r2, lsl r4
  20:	03170115 	tsteq	r7, #1073741829	; 0x40000005
  24:	011a0118 	tsteq	sl, r8, lsl r1
  28:	Address 0x0000000000000028 is out of bounds.


Disassembly of section .comment:

00000000 <.comment>:
   0:	3a434347 	bcc	10d0d24 <__exidx_end+0x10ce76c>
   4:	72412820 	subvc	r2, r1, #32, 16	; 0x200000
   8:	52206863 	eorpl	r6, r0, #6488064	; 0x630000
   c:	736f7065 	cmnvc	pc, #101	; 0x65
  10:	726f7469 	rsbvc	r7, pc, #1761607680	; 0x69000000
  14:	35202979 	strcc	r2, [r0, #-2425]!	; 0xfffff687
  18:	302e322e 	eorcc	r3, lr, lr, lsr #4
	...

Disassembly of section .debug_info:

00000000 <.debug_info>:
       0:	000005a9 	andeq	r0, r0, r9, lsr #11
       4:	00000004 	andeq	r0, r0, r4
       8:	01040000 	mrseq	r0, (UNDEF: 4)
       c:	000000bc 	strheq	r0, [r0], -ip
      10:	00001a0c 	andeq	r1, r0, ip, lsl #20
      14:	0001d700 	andeq	sp, r1, r0, lsl #14
	...
      24:	06010200 	streq	r0, [r1], -r0, lsl #4
      28:	0000021b 	andeq	r0, r0, fp, lsl r2
      2c:	00034903 	andeq	r4, r3, r3, lsl #18
      30:	371d0200 	ldrcc	r0, [sp, -r0, lsl #4]
      34:	02000000 	andeq	r0, r0, #0
      38:	02190801 	andseq	r0, r9, #65536	; 0x10000
      3c:	02020000 	andeq	r0, r2, #0
      40:	0000a605 	andeq	sl, r0, r5, lsl #12
      44:	00960300 	addseq	r0, r6, r0, lsl #6
      48:	2b020000 	blcs	80050 <__exidx_end+0x7da98>
      4c:	00000050 	andeq	r0, r0, r0, asr r0
      50:	6e070202 	cdpvs	2, 0, cr0, cr7, cr2, {0}
      54:	03000002 	movweq	r0, #2
      58:	000002fe 	strdeq	r0, [r0], -lr
      5c:	00623f02 	rsbeq	r3, r2, r2, lsl #30
      60:	04020000 	streq	r0, [r2], #-0
      64:	00019705 	andeq	r9, r1, r5, lsl #14
      68:	007a0300 	rsbseq	r0, sl, r0, lsl #6
      6c:	41020000 	mrsmi	r0, (UNDEF: 2)
      70:	00000074 	andeq	r0, r0, r4, ror r0
      74:	31070402 	tstcc	r7, r2, lsl #8
      78:	02000002 	andeq	r0, r0, #2
      7c:	01920508 	orrseq	r0, r2, r8, lsl #10
      80:	08020000 	stmdaeq	r2, {}	; <UNPREDICTABLE>
      84:	00022c07 	andeq	r2, r2, r7, lsl #24
      88:	05040400 	streq	r0, [r4, #-1024]	; 0xfffffc00
      8c:	00746e69 	rsbseq	r6, r4, r9, ror #28
      90:	36070402 	strcc	r0, [r7], -r2, lsl #8
      94:	03000002 	movweq	r0, #2
      98:	0000034b 	andeq	r0, r0, fp, asr #6
      9c:	002c1403 	eoreq	r1, ip, r3, lsl #8
      a0:	98030000 	stmdals	r3, {}	; <UNPREDICTABLE>
      a4:	03000000 	movweq	r0, #0
      a8:	0000451a 	andeq	r4, r0, sl, lsl r5
      ac:	03000300 	movweq	r0, #768	; 0x300
      b0:	1f030000 	svcne	0x00030000
      b4:	00000057 	andeq	r0, r0, r7, asr r0
      b8:	00007c03 	andeq	r7, r0, r3, lsl #24
      bc:	69200300 	stmdbvs	r0!, {r8, r9}
      c0:	02000000 	andeq	r0, r0, #0
      c4:	00550704 	subseq	r0, r5, r4, lsl #14
      c8:	b8050000 	stmdalt	r5, {}	; <UNPREDICTABLE>
      cc:	06000000 	streq	r0, [r0], -r0
      d0:	000000ca 	andeq	r0, r0, sl, asr #1
      d4:	00009705 	andeq	r9, r0, r5, lsl #14
      d8:	00a20500 	adceq	r0, r2, r0, lsl #10
      dc:	97070000 	strls	r0, [r7, -r0]
      e0:	ee000000 	cdp	0, 0, cr0, cr0, cr0, {0}
      e4:	08000000 	stmdaeq	r0, {}	; <UNPREDICTABLE>
      e8:	000000c3 	andeq	r0, r0, r3, asr #1
      ec:	97070003 	strls	r0, [r7, -r3]
      f0:	fe000000 	cdp2	0, 0, cr0, cr0, cr0, {0}
      f4:	08000000 	stmdaeq	r0, {}	; <UNPREDICTABLE>
      f8:	000000c3 	andeq	r0, r0, r3, asr #1
      fc:	9707001b 	smladls	r7, fp, r0, r0
     100:	0e000000 	cdpeq	0, 0, cr0, cr0, cr0, {0}
     104:	08000001 	stmdaeq	r0, {r0}
     108:	000000c3 	andeq	r0, r0, r3, asr #1
     10c:	97070007 	strls	r0, [r7, -r7]
     110:	1e000000 	cdpne	0, 0, cr0, cr0, cr0, {0}
     114:	08000001 	stmdaeq	r0, {r0}
     118:	000000c3 	andeq	r0, r0, r3, asr #1
     11c:	d4060017 	strle	r0, [r6], #-23	; 0xffffffe9
     120:	09000000 	stmdbeq	r0, {}	; <UNPREDICTABLE>
     124:	1ef6040f 	cdpne	4, 15, cr0, cr6, cr15, {0}
     128:	000001e4 	andeq	r0, r0, r4, ror #3
     12c:	0031430a 	eorseq	r4, r1, sl, lsl #6
     130:	d41ef704 	ldrle	pc, [lr], #-1796	; 0xfffff8fc
     134:	00000000 	andeq	r0, r0, r0
     138:	0032430a 	eorseq	r4, r2, sl, lsl #6
     13c:	d41ef804 	ldrle	pc, [lr], #-2052	; 0xfffff7fc
     140:	01000000 	mrseq	r0, (UNDEF: 0)
     144:	0033430a 	eorseq	r4, r3, sl, lsl #6
     148:	d41ef904 	ldrle	pc, [lr], #-2308	; 0xfffff6fc
     14c:	02000000 	andeq	r0, r0, #0
     150:	0034430a 	eorseq	r4, r4, sl, lsl #6
     154:	d41efa04 	ldrle	pc, [lr], #-2564	; 0xfffff5fc
     158:	03000000 	movweq	r0, #0
     15c:	0035430a 	eorseq	r4, r5, sl, lsl #6
     160:	d41efb04 	ldrle	pc, [lr], #-2820	; 0xfffff4fc
     164:	04000000 	streq	r0, [r0], #-0
     168:	0036430a 	eorseq	r4, r6, sl, lsl #6
     16c:	d41efc04 	ldrle	pc, [lr], #-3076	; 0xfffff3fc
     170:	05000000 	streq	r0, [r0, #-0]
     174:	0400530a 	streq	r5, [r0], #-778	; 0xfffffcf6
     178:	00d41efd 	ldrsheq	r1, [r4], #237	; 0xed
     17c:	0b060000 	bleq	180184 <__exidx_end+0x17dbcc>
     180:	000002d2 	ldrdeq	r0, [r0], -r2
     184:	e41efe04 	ldr	pc, [lr], #-3588	; 0xfffff1fc
     188:	07000001 	streq	r0, [r0, -r1]
     18c:	0043530a 	subeq	r5, r3, sl, lsl #6
     190:	d41eff04 	ldrle	pc, [lr], #-3844	; 0xfffff0fc
     194:	08000000 	stmdaeq	r0, {}	; <UNPREDICTABLE>
     198:	0002dd0b 	andeq	sp, r2, fp, lsl #26
     19c:	1f000400 	svcne	0x00000400
     1a0:	000001e4 	andeq	r0, r0, r4, ror #3
     1a4:	004f0b09 	subeq	r0, pc, r9, lsl #22
     1a8:	01040000 	mrseq	r0, (UNDEF: 4)
     1ac:	0000d41f 	andeq	sp, r0, pc, lsl r4
     1b0:	080b0a00 	stmdaeq	fp, {r9, fp}
     1b4:	04000003 	streq	r0, [r0], #-3
     1b8:	00d41f02 	sbcseq	r1, r4, r2, lsl #30
     1bc:	0a0b0000 	beq	2c01c4 <__exidx_end+0x2bdc0c>
     1c0:	04003743 	streq	r3, [r0], #-1859	; 0xfffff8bd
     1c4:	00d41f03 	sbcseq	r1, r4, r3, lsl #30
     1c8:	0a0c0000 	beq	3001d0 <__exidx_end+0x2fdc18>
     1cc:	04003843 	streq	r3, [r0], #-2115	; 0xfffff7bd
     1d0:	00d41f04 	sbcseq	r1, r4, r4, lsl #30
     1d4:	0a0d0000 	beq	3401dc <__exidx_end+0x33dc24>
     1d8:	04003943 	streq	r3, [r0], #-2371	; 0xfffff6bd
     1dc:	011e1f05 	tsteq	lr, r5, lsl #30
     1e0:	000e0000 	andeq	r0, lr, r0
     1e4:	00009707 	andeq	r9, r0, r7, lsl #14
     1e8:	0001f400 	andeq	pc, r1, r0, lsl #8
     1ec:	00c30800 	sbceq	r0, r3, r0, lsl #16
     1f0:	00000000 	andeq	r0, r0, r0
     1f4:	0002890c 	andeq	r8, r2, ip, lsl #18
     1f8:	1f060400 	svcne	0x00060400
     1fc:	00000123 	andeq	r0, r0, r3, lsr #2
     200:	88040109 	stmdahi	r4, {r0, r3, r8}
     204:	00021622 	andeq	r1, r2, r2, lsr #12
     208:	52430a00 	subpl	r0, r3, #0, 20
     20c:	22890400 	addcs	r0, r9, #0, 8
     210:	000000d4 	ldrdeq	r0, [r0], -r4
     214:	ae0c0000 	cdpge	0, 0, cr0, cr12, cr0, {0}
     218:	04000002 	streq	r0, [r0], #-2
     21c:	0200228a 	andeq	r2, r0, #-1610612728	; 0xa0000008
     220:	03090000 	movweq	r0, #36864	; 0x9000
     224:	53244504 	teqpl	r4, #4, 10	; 0x1000000
     228:	0b000002 	bleq	238 <Heap_Size+0x138>
     22c:	00000250 	andeq	r0, r0, r0, asr r2
     230:	d4244604 	strtle	r4, [r4], #-1540	; 0xfffff9fc
     234:	00000000 	andeq	r0, r0, r0
     238:	0002570b 	andeq	r5, r2, fp, lsl #14
     23c:	24470400 	strbcs	r0, [r7], #-1024	; 0xfffffc00
     240:	000000d4 	ldrdeq	r0, [r0], -r4
     244:	00740b01 	rsbseq	r0, r4, r1, lsl #22
     248:	48040000 	stmdami	r4, {}	; <UNPREDICTABLE>
     24c:	0000d424 	andeq	sp, r0, r4, lsr #8
     250:	0c000200 	sfmeq	f0, 4, [r0], {-0}
     254:	0000031f 	andeq	r0, r0, pc, lsl r3
     258:	22244904 	eorcs	r4, r4, #4, 18	; 0x10000
     25c:	09000002 	stmdbeq	r0, {r1}
     260:	24ba04cc 	ldrtcs	r0, [sl], #1228	; 0x4cc
     264:	000002de 	ldrdeq	r0, [r0], -lr
     268:	5243500a 	subpl	r5, r3, #10
     26c:	24bb0400 	ldrtcs	r0, [fp], #1024	; 0x400
     270:	000002ee 	andeq	r0, r0, lr, ror #5
     274:	02430b00 	subeq	r0, r3, #0, 22
     278:	bc040000 	stclt	0, cr0, [r4], {-0}
     27c:	0000ca24 	andeq	ip, r0, r4, lsr #20
     280:	fd0b8000 	stc2	0, cr8, [fp, #-0]
     284:	04000001 	streq	r0, [r0], #-1
     288:	00ca24bd 	strheq	r2, [sl], #77	; 0x4d
     28c:	0b840000 	bleq	fe100294 <__StackTop+0xde0d0294>
     290:	000002d2 	ldrdeq	r0, [r0], -r2
     294:	0e24be04 	cdpeq	14, 2, cr11, cr4, cr4, {0}
     298:	88000001 	stmdahi	r0, {r0}
     29c:	0002270b 	andeq	r2, r2, fp, lsl #14
     2a0:	24bf0400 	ldrtcs	r0, [pc], #1024	; 2a8 <Heap_Size+0x1a8>
     2a4:	000000ca 	andeq	r0, r0, sl, asr #1
     2a8:	02dd0ba0 	sbcseq	r0, sp, #160, 22	; 0x28000
     2ac:	c0040000 	andgt	r0, r4, r0
     2b0:	0000ee24 	andeq	lr, r0, r4, lsr #28
     2b4:	3a0ba400 	bcc	2e92bc <__exidx_end+0x2e6d04>
     2b8:	04000003 	streq	r0, [r0], #-3
     2bc:	00ca24c1 	sbceq	r2, sl, r1, asr #9
     2c0:	0bc00000 	bleq	ff0002c8 <__StackTop+0xdefd02c8>
     2c4:	0000025e 	andeq	r0, r0, lr, asr r2
     2c8:	ca24c204 	bgt	930ae0 <__exidx_end+0x92e528>
     2cc:	c4000000 	strgt	r0, [r0], #-0
     2d0:	0002c70b 	andeq	ip, r2, fp, lsl #14
     2d4:	24c30400 	strbcs	r0, [r3], #1024	; 0x400
     2d8:	000000ca 	andeq	r0, r0, sl, asr #1
     2dc:	b80700c8 	stmdalt	r7, {r3, r6, r7}
     2e0:	ee000000 	cdp	0, 0, cr0, cr0, cr0, {0}
     2e4:	08000002 	stmdaeq	r0, {r1}
     2e8:	000000c3 	andeq	r0, r0, r3, asr #1
     2ec:	de05001f 	mcrle	0, 0, r0, cr5, cr15, {0}
     2f0:	0c000002 	stceq	0, cr0, [r0], {2}
     2f4:	0000033f 	andeq	r0, r0, pc, lsr r3
     2f8:	5f24c404 	svcpl	0x0024c404
     2fc:	0d000002 	stceq	0, cr0, [r0, #-8]
     300:	ce041064 	cdpgt	0, 0, cr1, cr4, cr4, {3}
     304:	0004732a 	andeq	r7, r4, sl, lsr #6
     308:	02920b00 	addseq	r0, r2, #0, 22
     30c:	cf040000 	svcgt	0x00040000
     310:	0000ca2a 	andeq	ip, r0, sl, lsr #20
     314:	460b0000 	strmi	r0, [fp], -r0
     318:	04000000 	streq	r0, [r0], #-0
     31c:	00ca2ad0 	ldrdeq	r2, [sl], #160	; 0xa0
     320:	0b040000 	bleq	100328 <__exidx_end+0xfdd70>
     324:	000002d2 	ldrdeq	r0, [r0], -r2
     328:	732ad104 	teqvc	sl, #4, 2
     32c:	08000004 	stmdaeq	r0, {r2}
     330:	0002a80e 	andeq	sl, r2, lr, lsl #16
     334:	2ad20400 	bcs	ff48133c <__StackTop+0xdf45133c>
     338:	000000ca 	andeq	r0, r0, sl, asr #1
     33c:	dd0e1004 	stcle	0, cr1, [lr, #-16]
     340:	04000002 	streq	r0, [r0], #-2
     344:	00de2ad3 	ldrsbeq	r2, [lr], #163	; 0xa3
     348:	10080000 	andne	r0, r8, r0
     34c:	0003530e 	andeq	r5, r3, lr, lsl #6
     350:	2ad40400 	bcs	ff501358 <__StackTop+0xdf4d1358>
     354:	000000ca 	andeq	r0, r0, sl, asr #1
     358:	000e100c 	andeq	r1, lr, ip
     35c:	04000000 	streq	r0, [r0], #-0
     360:	00ca2ad5 	ldrdeq	r2, [sl], #165	; 0xa5
     364:	10100000 	andsne	r0, r0, r0
     368:	0002e80e 	andeq	lr, r2, lr, lsl #16
     36c:	2ad60400 	bcs	ff581374 <__StackTop+0xdf551374>
     370:	000000de 	ldrdeq	r0, [r0], -lr
     374:	030e1014 	movweq	r1, #57364	; 0xe014
     378:	04000002 	streq	r0, [r0], #-2
     37c:	00ca2ad7 	ldrdeq	r2, [sl], #167	; 0xa7
     380:	10180000 	andsne	r0, r8, r0
     384:	0002f30e 	andeq	pc, r2, lr, lsl #6
     388:	2ad80400 	bcs	ff601390 <__StackTop+0xdf5d1390>
     38c:	000000fe 	strdeq	r0, [r0], -lr
     390:	410e101c 	tstmi	lr, ip, lsl r0
     394:	04000000 	streq	r0, [r0], #-0
     398:	00cf2ad9 	ldrdeq	r2, [pc], #169	; <UNPREDICTABLE>
     39c:	10240000 	eorne	r0, r4, r0
     3a0:	0001a70e 	andeq	sl, r1, lr, lsl #14
     3a4:	2ada0400 	bcs	ff6813ac <__StackTop+0xdf6513ac>
     3a8:	000000ca 	andeq	r0, r0, sl, asr #1
     3ac:	ad0e1028 	stcge	0, cr1, [lr, #-160]	; 0xffffff60
     3b0:	04000001 	streq	r0, [r0], #-1
     3b4:	00ca2adb 	ldrdeq	r2, [sl], #171	; 0xab
     3b8:	102c0000 	eorne	r0, ip, r0
     3bc:	0001b30e 	andeq	fp, r1, lr, lsl #6
     3c0:	2adc0400 	bcs	ff7013c8 <__StackTop+0xdf6d13c8>
     3c4:	000000ca 	andeq	r0, r0, sl, asr #1
     3c8:	b90e1030 	stmdblt	lr, {r4, r5, ip}
     3cc:	04000001 	streq	r0, [r0], #-1
     3d0:	00ca2add 	ldrdeq	r2, [sl], #173	; 0xad
     3d4:	10340000 	eorsne	r0, r4, r0
     3d8:	0001bf0e 	andeq	fp, r1, lr, lsl #30
     3dc:	2ade0400 	bcs	ff7813e4 <__StackTop+0xdf7513e4>
     3e0:	000000ca 	andeq	r0, r0, sl, asr #1
     3e4:	c50e1038 	strgt	r1, [lr, #-56]	; 0xffffffc8
     3e8:	04000001 	streq	r0, [r0], #-1
     3ec:	00ca2adf 	ldrdeq	r2, [sl], #175	; 0xaf
     3f0:	103c0000 	eorsne	r0, ip, r0
     3f4:	0001cb0e 	andeq	ip, r1, lr, lsl #22
     3f8:	2ae00400 	bcs	ff801400 <__StackTop+0xdf7d1400>
     3fc:	000000ca 	andeq	r0, r0, sl, asr #1
     400:	090e1040 	stmdbeq	lr, {r6, ip}
     404:	04000002 	streq	r0, [r0], #-2
     408:	00ca2ae1 	sbceq	r2, sl, r1, ror #21
     40c:	10440000 	subne	r0, r4, r0
     410:	0002110e 	andeq	r1, r2, lr, lsl #2
     414:	2ae20400 	bcs	ff88141c <__StackTop+0xdf85141c>
     418:	000000ca 	andeq	r0, r0, sl, asr #1
     41c:	060e1048 	streq	r1, [lr], -r8, asr #32
     420:	04000000 	streq	r0, [r0], #-0
     424:	00ca2ae3 	sbceq	r2, sl, r3, ror #21
     428:	104c0000 	subne	r0, ip, r0
     42c:	00000c0e 	andeq	r0, r0, lr, lsl #24
     430:	2ae40400 	bcs	ff901438 <__StackTop+0xdf8d1438>
     434:	000000cf 	andeq	r0, r0, pc, asr #1
     438:	a10e1050 	qaddge	r1, r0, lr
     43c:	04000000 	streq	r0, [r0], #-0
     440:	00cf2ae5 	sbceq	r2, pc, r5, ror #21
     444:	10540000 	subsne	r0, r4, r0
     448:	0001d10e 	andeq	sp, r1, lr, lsl #2
     44c:	2ae60400 	bcs	ff981454 <__StackTop+0xdf951454>
     450:	000000cf 	andeq	r0, r0, pc, asr #1
     454:	cc0e1058 	stcgt	0, cr1, [lr], {88}	; 0x58
     458:	04000002 	streq	r0, [r0], #-2
     45c:	00cf2ae7 	sbceq	r2, pc, r7, ror #21
     460:	105c0000 	subsne	r0, ip, r0
     464:	0000b00e 	andeq	fp, r0, lr
     468:	2ae80400 	bcs	ffa01470 <__StackTop+0xdf9d1470>
     46c:	000000cf 	andeq	r0, r0, pc, asr #1
     470:	07001060 	streq	r1, [r0, -r0, rrx]
     474:	00000097 	muleq	r0, r7, r0
     478:	00000484 	andeq	r0, r0, r4, lsl #9
     47c:	0000c30f 	andeq	ip, r0, pc, lsl #6
     480:	000ffb00 	andeq	pc, pc, r0, lsl #22
     484:	00008d0c 	andeq	r8, r0, ip, lsl #26
     488:	2ae90400 	bcs	ffa41490 <__StackTop+0xdfa11490>
     48c:	000002ff 	strdeq	r0, [r0], -pc	; <UNPREDICTABLE>
     490:	8d041809 	stchi	8, cr1, [r4, #-36]	; 0xffffffdc
     494:	00053633 	andeq	r3, r5, r3, lsr r6
     498:	018a0b00 	orreq	r0, sl, r0, lsl #22
     49c:	8e040000 	cdphi	0, 0, cr0, cr4, cr0, {0}
     4a0:	0000d933 	andeq	sp, r0, r3, lsr r9
     4a4:	bf0b0000 	svclt	0x000b0000
     4a8:	04000002 	streq	r0, [r0], #-2
     4ac:	00d9338f 	sbcseq	r3, r9, pc, lsl #7
     4b0:	0b020000 	bleq	804b8 <__exidx_end+0x7df00>
     4b4:	000000b5 	strheq	r0, [r0], -r5
     4b8:	d9339004 	ldmdble	r3!, {r2, ip, pc}
     4bc:	04000000 	streq	r0, [r0], #-0
     4c0:	0001830b 	andeq	r8, r1, fp, lsl #6
     4c4:	33910400 	orrscc	r0, r1, #0, 8
     4c8:	000000d9 	ldrdeq	r0, [r0], -r9
     4cc:	031a0b06 	tsteq	sl, #6144	; 0x1800
     4d0:	92040000 	andls	r0, r4, #0
     4d4:	0000d933 	andeq	sp, r0, r3, lsr r9
     4d8:	280b0800 	stmdacs	fp, {fp}
     4dc:	04000003 	streq	r0, [r0], #-3
     4e0:	00d93393 	smullseq	r3, r9, r3, r3
     4e4:	0b0a0000 	bleq	2804ec <__exidx_end+0x27df34>
     4e8:	000002b7 			; <UNDEFINED> instruction: 0x000002b7
     4ec:	d9339404 	ldmdble	r3!, {r2, sl, ip, pc}
     4f0:	0c000000 	stceq	0, cr0, [r0], {-0}
     4f4:	0001a00b 	andeq	sl, r1, fp
     4f8:	33950400 	orrscc	r0, r5, #0, 8
     4fc:	000000d9 	ldrdeq	r0, [r0], -r9
     500:	00850b0e 	addeq	r0, r5, lr, lsl #22
     504:	96040000 	strls	r0, [r4], -r0
     508:	0000d933 	andeq	sp, r0, r3, lsr r9
     50c:	120b1000 	andne	r1, fp, #0
     510:	04000000 	streq	r0, [r0], #-0
     514:	00d93397 	smullseq	r3, r9, r7, r3
     518:	0b120000 	bleq	480520 <__exidx_end+0x47df68>
     51c:	00000249 	andeq	r0, r0, r9, asr #4
     520:	d9339804 	ldmdble	r3!, {r2, fp, ip, pc}
     524:	14000000 	strne	r0, [r0], #-0
     528:	00003b0b 	andeq	r3, r0, fp, lsl #22
     52c:	33990400 	orrscc	r0, r9, #0, 8
     530:	000000d9 	ldrdeq	r0, [r0], -r9
     534:	f30c0016 	vqadd.u8	d0, d12, d6
     538:	04000001 	streq	r0, [r0], #-1
     53c:	0490339a 	ldreq	r3, [r0], #922	; 0x39a
     540:	63100000 	tstvs	r0, #0
     544:	01000002 	tsteq	r0, r2
     548:	0004d481 	andeq	sp, r4, r1, lsl #9
     54c:	0000e800 	andeq	lr, r0, r0, lsl #16
     550:	119c0100 	orrsne	r0, ip, r0, lsl #2
     554:	0000005e 	andeq	r0, r0, lr, asr r0
     558:	00015801 	andeq	r5, r1, r1, lsl #16
     55c:	28000000 	stmdacs	r0, {}	; <UNPREDICTABLE>
     560:	01000001 	tsteq	r0, r1
     564:	00058a9c 	muleq	r5, ip, sl
     568:	030e1200 	movweq	r1, #57856	; 0xe200
     56c:	59010000 	stmdbpl	r1, {}	; <UNPREDICTABLE>
     570:	0000b801 	andeq	fp, r0, r1, lsl #16
     574:	00000000 	andeq	r0, r0, r0
     578:	02811200 	addeq	r1, r1, #0, 4
     57c:	5a010000 	bpl	40584 <__exidx_end+0x3dfcc>
     580:	00009701 	andeq	r9, r0, r1, lsl #14
     584:	00005500 	andeq	r5, r0, r0, lsl #10
     588:	2d130000 	ldccs	0, cr0, [r3, #-0]
     58c:	05000003 	streq	r0, [r0, #-3]
     590:	059606a7 	ldreq	r0, [r6, #1703]	; 0x6a7
     594:	ad050000 	stcge	0, cr0, [r5, #-0]
     598:	14000000 	strne	r0, [r0], #-0
     59c:	00000298 	muleq	r0, r8, r2
     5a0:	00b87b01 	adcseq	r7, r8, r1, lsl #22
     5a4:	03050000 	movweq	r0, #20480	; 0x5000
     5a8:	1fff0198 	svcne	0x00ff0198
     5ac:	00029000 	andeq	r9, r2, r0
     5b0:	17000400 	strne	r0, [r0, -r0, lsl #8]
     5b4:	04000001 	streq	r0, [r0], #-1
     5b8:	0000bc01 	andeq	fp, r0, r1, lsl #24
     5bc:	03f70c00 	mvnseq	r0, #0, 24
     5c0:	01d70000 	bicseq	r0, r7, r0
     5c4:	00180000 	andseq	r0, r8, r0
     5c8:	00000000 	andeq	r0, r0, r0
     5cc:	014b0000 	mrseq	r0, (UNDEF: 75)
     5d0:	04020000 	streq	r0, [r2], #-0
     5d4:	0003fd04 	andeq	pc, r3, r4, lsl #26
     5d8:	03ae0300 			; <UNDEFINED> instruction: 0x03ae0300
     5dc:	01340000 	teqeq	r4, r0
     5e0:	0000ae1a 	andeq	sl, r0, sl, lsl lr
     5e4:	706b0400 	rsbvc	r0, fp, r0, lsl #8
     5e8:	251b0100 	ldrcs	r0, [fp, #-256]	; 0xffffff00
     5ec:	00000000 	andeq	r0, r0, r0
     5f0:	00646b04 	rsbeq	r6, r4, r4, lsl #22
     5f4:	00251c01 	eoreq	r1, r5, r1, lsl #24
     5f8:	04040000 	streq	r0, [r4], #-0
     5fc:	0100696b 	tsteq	r0, fp, ror #18
     600:	0000251d 	andeq	r2, r0, sp, lsl r5
     604:	e2050800 	and	r0, r5, #0, 16
     608:	01000003 	tsteq	r0, r3
     60c:	0000251e 	andeq	r2, r0, lr, lsl r5
     610:	bc050c00 	stclt	12, cr0, [r5], {-0}
     614:	01000003 	tsteq	r0, r3
     618:	0000251f 	andeq	r2, r0, pc, lsl r5
     61c:	72051000 	andvc	r1, r5, #0
     620:	01000003 	tsteq	r0, r3
     624:	00002520 	andeq	r2, r0, r0, lsr #10
     628:	95051400 	strls	r1, [r5, #-1024]	; 0xfffffc00
     62c:	01000003 	tsteq	r0, r3
     630:	00002521 	andeq	r2, r0, r1, lsr #10
     634:	e7051800 	str	r1, [r5, -r0, lsl #16]
     638:	01000003 	tsteq	r0, r3
     63c:	00002522 	andeq	r2, r0, r2, lsr #10
     640:	c6051c00 	strgt	r1, [r5], -r0, lsl #24
     644:	01000003 	tsteq	r0, r3
     648:	00002523 	andeq	r2, r0, r3, lsr #10
     64c:	d9052000 	stmdble	r5, {sp}
     650:	01000003 	tsteq	r0, r3
     654:	0000ae24 	andeq	sl, r0, r4, lsr #28
     658:	06002400 	streq	r2, [r0], -r0, lsl #8
     65c:	00000025 	andeq	r0, r0, r5, lsr #32
     660:	000000be 	strheq	r0, [r0], -lr
     664:	0000be07 	andeq	fp, r0, r7, lsl #28
     668:	02000300 	andeq	r0, r0, #0, 6
     66c:	00550704 	subseq	r0, r5, r4, lsl #14
     670:	a0080000 	andge	r0, r8, r0
     674:	01000003 	tsteq	r0, r3
     678:	00017935 	andeq	r7, r1, r5, lsr r9
     67c:	0005bc00 	andeq	fp, r5, r0, lsl #24
     680:	00006a00 	andeq	r6, r0, r0, lsl #20
     684:	799c0100 	ldmibvc	ip, {r8}
     688:	09000001 	stmdbeq	r0, {r0}
     68c:	0000037b 	andeq	r0, r0, fp, ror r3
     690:	01803501 	orreq	r3, r0, r1, lsl #10
     694:	007f0000 	rsbseq	r0, pc, r0
     698:	6b0a0000 	blvs	2806a0 <__exidx_end+0x27e0e8>
     69c:	35010070 	strcc	r0, [r1, #-112]	; 0xffffff90
     6a0:	00000025 	andeq	r0, r0, r5, lsr #32
     6a4:	0000009d 	muleq	r0, sp, r0
     6a8:	00646b0a 	rsbeq	r6, r4, sl, lsl #22
     6ac:	00253501 	eoreq	r3, r5, r1, lsl #10
     6b0:	00cb0000 	sbceq	r0, fp, r0
     6b4:	6b0a0000 	blvs	2806bc <__exidx_end+0x27e104>
     6b8:	36010069 	strcc	r0, [r1], -r9, rrx
     6bc:	00000025 	andeq	r0, r0, r5, lsr #32
     6c0:	000000e9 	andeq	r0, r0, r9, ror #1
     6c4:	0003e20b 	andeq	lr, r3, fp, lsl #4
     6c8:	25360100 	ldrcs	r0, [r6, #-256]!	; 0xffffff00
     6cc:	02000000 	andeq	r0, r0, #0
     6d0:	bc0b0091 	stclt	0, cr0, [fp], {145}	; 0x91
     6d4:	01000003 	tsteq	r0, r3
     6d8:	00002536 	andeq	r2, r0, r6, lsr r5
     6dc:	04910200 	ldreq	r0, [r1], #512	; 0x200
     6e0:	0003720b 	andeq	r7, r3, fp, lsl #4
     6e4:	25360100 	ldrcs	r0, [r6, #-256]!	; 0xffffff00
     6e8:	02000000 	andeq	r0, r0, #0
     6ec:	e70b0891 			; <UNDEFINED> instruction: 0xe70b0891
     6f0:	01000003 	tsteq	r0, r3
     6f4:	00002537 	andeq	r2, r0, r7, lsr r5
     6f8:	0c910200 	lfmeq	f0, 4, [r1], {0}
     6fc:	0003950b 	andeq	r9, r3, fp, lsl #10
     700:	25370100 	ldrcs	r0, [r7, #-256]!	; 0xffffff00
     704:	02000000 	andeq	r0, r0, #0
     708:	c60b1091 			; <UNDEFINED> instruction: 0xc60b1091
     70c:	01000003 	tsteq	r0, r3
     710:	00002538 	andeq	r2, r0, r8, lsr r5
     714:	14910200 	ldrne	r0, [r1], #512	; 0x200
     718:	0100690c 	tsteq	r0, ip, lsl #18
     71c:	00017939 	andeq	r7, r1, r9, lsr r9
     720:	00010700 	andeq	r0, r1, r0, lsl #14
     724:	040d0000 	streq	r0, [sp], #-0
     728:	746e6905 	strbtvc	r6, [lr], #-2309	; 0xfffff6fb
     72c:	2c040e00 	stccs	14, cr0, [r4], {-0}
     730:	08000000 	stmdaeq	r0, {}	; <UNPREDICTABLE>
     734:	00000362 	andeq	r0, r0, r2, ror #6
     738:	00257e01 	eoreq	r7, r5, r1, lsl #28
     73c:	06260000 	strteq	r0, [r6], -r0
     740:	00a40000 	adceq	r0, r4, r0
     744:	9c010000 	stcls	0, cr0, [r1], {-0}
     748:	00000207 	andeq	r0, r0, r7, lsl #4
     74c:	00037b09 	andeq	r7, r3, r9, lsl #22
     750:	807e0100 	rsbshi	r0, lr, r0, lsl #2
     754:	4b000001 	blmi	760 <PIDSetGoal+0x96>
     758:	09000001 	stmdbeq	r0, {r0}
     75c:	0000036c 	andeq	r0, r0, ip, ror #6
     760:	00257e01 	eoreq	r7, r5, r1, lsl #28
     764:	01900000 	orrseq	r0, r0, r0
     768:	030f0000 	movweq	r0, #61440	; 0xf000
     76c:	01000004 	tsteq	r0, r4
     770:	0000257f 	andeq	r2, r0, pc, ror r5
     774:	0001b900 	andeq	fp, r1, r0, lsl #18
     778:	00690c00 	rsbeq	r0, r9, r0, lsl #24
     77c:	01798001 	cmneq	r9, r1
     780:	01d70000 	bicseq	r0, r7, r0
     784:	8e0f0000 	cdphi	0, 0, cr0, cr15, cr0, {0}
     788:	01000003 	tsteq	r0, r3
     78c:	00002581 	andeq	r2, r0, r1, lsl #11
     790:	00020f00 	andeq	r0, r2, r0, lsl #30
     794:	03f10f00 	mvnseq	r0, #0, 30
     798:	82010000 	andhi	r0, r1, #0
     79c:	00000025 	andeq	r0, r0, r5, lsr #32
     7a0:	00000264 	andeq	r0, r0, r4, ror #4
     7a4:	0003590f 	andeq	r5, r3, pc, lsl #18
     7a8:	25830100 	strcs	r0, [r3, #256]	; 0x100
     7ac:	90000000 	andls	r0, r0, r0
     7b0:	00000002 	andeq	r0, r0, r2
     7b4:	00038310 	andeq	r8, r3, r0, lsl r3
     7b8:	25a10100 	strcs	r0, [r1, #256]!	; 0x100
     7bc:	ca000000 	bgt	7c4 <PIT0_IRQHandler>
     7c0:	aa000006 	bge	7e0 <PIT0_IRQHandler+0x1c>
     7c4:	01000000 	mrseq	r0, (UNDEF: 0)
     7c8:	037b099c 	cmneq	fp, #156, 18	; 0x270000
     7cc:	a1010000 	mrsge	r0, (UNDEF: 1)
     7d0:	00000180 	andeq	r0, r0, r0, lsl #3
     7d4:	000002ea 	andeq	r0, r0, sl, ror #5
     7d8:	0003e209 	andeq	lr, r3, r9, lsl #4
     7dc:	25a10100 	strcs	r0, [r1, #256]!	; 0x100
     7e0:	2f000000 	svccs	0x00000000
     7e4:	09000003 	stmdbeq	r0, {r0, r1}
     7e8:	0000036c 	andeq	r0, r0, ip, ror #6
     7ec:	0025a101 	eoreq	sl, r5, r1, lsl #2
     7f0:	035d0000 	cmpeq	sp, #0
     7f4:	030f0000 	movweq	r0, #61440	; 0xf000
     7f8:	01000004 	tsteq	r0, r4
     7fc:	000025a2 	andeq	r2, r0, r2, lsr #11
     800:	00038600 	andeq	r8, r3, r0, lsl #12
     804:	00690c00 	rsbeq	r0, r9, r0, lsl #24
     808:	0179a301 	cmneq	r9, r1, lsl #6
     80c:	03a40000 			; <UNDEFINED> instruction: 0x03a40000
     810:	8e0f0000 	cdphi	0, 0, cr0, cr15, cr0, {0}
     814:	01000003 	tsteq	r0, r3
     818:	000025a4 	andeq	r2, r0, r4, lsr #11
     81c:	0003dc00 	andeq	sp, r3, r0, lsl #24
     820:	03f10f00 	mvnseq	r0, #0, 30
     824:	a5010000 	strge	r0, [r1, #-0]
     828:	00000025 	andeq	r0, r0, r5, lsr #32
     82c:	00000431 	andeq	r0, r0, r1, lsr r4
     830:	0003590f 	andeq	r5, r3, pc, lsl #18
     834:	25a60100 	strcs	r0, [r6, #256]!	; 0x100
     838:	5d000000 	stcpl	0, cr0, [r0, #-0]
     83c:	00000004 	andeq	r0, r0, r4
     840:	00085700 	andeq	r5, r8, r0, lsl #14
     844:	0a000400 	beq	184c <__aeabi_fdiv+0x84>
     848:	04000002 	streq	r0, [r0], #-2
     84c:	0000bc01 	andeq	fp, r0, r1, lsl #24
     850:	08b30c00 	ldmeq	r3!, {sl, fp}
     854:	01d70000 	bicseq	r0, r7, r0
     858:	00380000 	eorseq	r0, r8, r0
     85c:	00000000 	andeq	r0, r0, r0
     860:	01fe0000 	mvnseq	r0, r0
     864:	01020000 	mrseq	r0, (UNDEF: 2)
     868:	00021b06 	andeq	r1, r2, r6, lsl #22
     86c:	03490300 	movteq	r0, #37632	; 0x9300
     870:	1d040000 	stcne	0, cr0, [r4, #-0]
     874:	00000037 	andeq	r0, r0, r7, lsr r0
     878:	19080102 	stmdbne	r8, {r1, r8}
     87c:	02000002 	andeq	r0, r0, #2
     880:	00a60502 	adceq	r0, r6, r2, lsl #10
     884:	02020000 	andeq	r0, r2, #0
     888:	00026e07 	andeq	r6, r2, r7, lsl #28
     88c:	02fe0300 	rscseq	r0, lr, #0, 6
     890:	3f040000 	svccc	0x00040000
     894:	00000057 	andeq	r0, r0, r7, asr r0
     898:	97050402 	strls	r0, [r5, -r2, lsl #8]
     89c:	03000001 	movweq	r0, #1
     8a0:	0000007a 	andeq	r0, r0, sl, ror r0
     8a4:	00694104 	rsbeq	r4, r9, r4, lsl #2
     8a8:	04020000 	streq	r0, [r2], #-0
     8ac:	00023107 	andeq	r3, r2, r7, lsl #2
     8b0:	05080200 	streq	r0, [r8, #-512]	; 0xfffffe00
     8b4:	00000192 	muleq	r0, r2, r1
     8b8:	2c070802 	stccs	8, cr0, [r7], {2}
     8bc:	04000002 	streq	r0, [r0], #-2
     8c0:	6e690504 	cdpvs	5, 6, cr0, cr9, cr4, {0}
     8c4:	04020074 	streq	r0, [r2], #-116	; 0xffffff8c
     8c8:	00023607 	andeq	r3, r2, r7, lsl #12
     8cc:	034b0300 	movteq	r0, #45824	; 0xb300
     8d0:	14050000 	strne	r0, [r5], #-0
     8d4:	0000002c 	andeq	r0, r0, ip, lsr #32
     8d8:	00030003 	andeq	r0, r3, r3
     8dc:	4c1f0500 	cfldr32mi	mvfx0, [pc], {-0}
     8e0:	03000000 	movweq	r0, #0
     8e4:	0000007c 	andeq	r0, r0, ip, ror r0
     8e8:	005e2005 	subseq	r2, lr, r5
     8ec:	8b050000 	blhi	1408f4 <__exidx_end+0x13e33c>
     8f0:	01000006 	tsteq	r0, r6
     8f4:	00000025 	andeq	r0, r0, r5, lsr #32
     8f8:	02f87906 	rscseq	r7, r8, #98304	; 0x18000
     8fc:	04060000 	streq	r0, [r6], #-0
     900:	72000009 	andvc	r0, r0, #9
     904:	00054f06 	andeq	r4, r5, r6, lsl #30
     908:	17067300 	strne	r7, [r6, -r0, lsl #6]
     90c:	74000006 	strvc	r0, [r0], #-6
     910:	00056806 	andeq	r6, r5, r6, lsl #16
     914:	a3067500 	movwge	r7, #25856	; 0x6500
     918:	76000008 	strvc	r0, [r0], -r8
     91c:	00066c06 	andeq	r6, r6, r6, lsl #24
     920:	bf067b00 	svclt	0x00067b00
     924:	7c000009 	stcvc	0, cr0, [r0], {9}
     928:	00089706 	andeq	r9, r8, r6, lsl #14
     92c:	f2067e00 	vceq.f32	d7, d6, d0
     930:	7f000006 	svcvc	0x00000006
     934:	00077307 	andeq	r7, r7, r7, lsl #6
     938:	88070000 	stmdahi	r7, {}	; <UNPREDICTABLE>
     93c:	01000005 	tsteq	r0, r5
     940:	0008f107 	andeq	pc, r8, r7, lsl #2
     944:	fd070200 	stc2	2, cr0, [r7, #-0]
     948:	03000004 	movweq	r0, #4
     94c:	0005ef07 	andeq	lr, r5, r7, lsl #30
     950:	e8070400 	stmda	r7, {sl}
     954:	05000006 	streq	r0, [r0, #-6]
     958:	00098f07 	andeq	r8, r9, r7, lsl #30
     95c:	09070600 	stmdbeq	r7, {r9, sl}
     960:	07000004 	streq	r0, [r0, -r4]
     964:	0004b107 	andeq	fp, r4, r7, lsl #2
     968:	87070800 	strhi	r0, [r7, -r0, lsl #16]
     96c:	09000007 	stmdbeq	r0, {r0, r1, r2}
     970:	00068507 	andeq	r8, r6, r7, lsl #10
     974:	53070a00 	movwpl	r0, #31232	; 0x7a00
     978:	0b000007 	bleq	99c <main+0x8c>
     97c:	0009d107 	andeq	sp, r9, r7, lsl #2
     980:	4a070c00 	bmi	1c3988 <__exidx_end+0x1c13d0>
     984:	0d000004 	stceq	0, cr0, [r0, #-16]
     988:	0004dd07 	andeq	sp, r4, r7, lsl #26
     98c:	f9070e00 			; <UNDEFINED> instruction: 0xf9070e00
     990:	0f000007 	svceq	0x00000007
     994:	00092507 	andeq	r2, r9, r7, lsl #10
     998:	fb071000 	blx	1c49a2 <__exidx_end+0x1c23ea>
     99c:	11000008 	tstne	r0, r8
     9a0:	00093407 	andeq	r3, r9, r7, lsl #8
     9a4:	af071200 	svcge	0x00071200
     9a8:	13000006 	movwne	r0, #6
     9ac:	00070b07 	andeq	r0, r7, r7, lsl #22
     9b0:	ac071400 	cfstrsge	mvf1, [r7], {-0}
     9b4:	15000009 	strne	r0, [r0, #-9]
     9b8:	00048907 	andeq	r8, r4, r7, lsl #18
     9bc:	2c071600 	stccs	6, cr1, [r7], {-0}
     9c0:	17000005 	strne	r0, [r0, -r5]
     9c4:	0007b507 	andeq	fp, r7, r7, lsl #10
     9c8:	5d071800 	stcpl	8, cr1, [r7, #-0]
     9cc:	19000008 	stmdbne	r0, {r3}
     9d0:	0005ad07 	andeq	sl, r5, r7, lsl #26
     9d4:	9a071a00 	bls	1c71dc <__exidx_end+0x1c4c24>
     9d8:	1b000006 	blne	9f8 <main+0xe8>
     9dc:	00095907 	andeq	r5, r9, r7, lsl #18
     9e0:	18071c00 	stmdane	r7, {sl, fp, ip}
     9e4:	1d000009 	stcne	0, cr0, [r0, #-36]	; 0xffffffdc
     9e8:	00098007 	andeq	r8, r9, r7
     9ec:	dc071e00 	stcle	14, cr1, [r7], {-0}
     9f0:	1f000009 	svcne	0x00000009
     9f4:	0005d107 	andeq	sp, r5, r7, lsl #2
     9f8:	3c072000 	stccc	0, cr2, [r7], {-0}
     9fc:	21000006 	tstcs	r0, r6
     a00:	0005e007 	andeq	lr, r5, r7
     a04:	6c072200 	sfmvs	f2, 4, [r7], {-0}
     a08:	23000008 	movwcs	r0, #8
     a0c:	0005f907 	andeq	pc, r5, r7, lsl #18
     a10:	55072400 	strpl	r2, [r7, #-1024]	; 0xfffffc00
     a14:	25000004 	strcs	r0, [r0, #-4]
     a18:	00060807 	andeq	r0, r6, r7, lsl #16
     a1c:	7d072600 	stcvc	6, cr2, [r7, #-0]
     a20:	27000007 	strcs	r0, [r0, -r7]
     a24:	0006de07 	andeq	sp, r6, r7, lsl #28
     a28:	bf072800 	svclt	0x00072800
     a2c:	29000007 	stmdbcs	r0, {r0, r1, r2}
     a30:	0004e807 	andeq	lr, r4, r7, lsl #16
     a34:	99072a00 	stmdbls	r7, {r9, fp, sp}
     a38:	2b000009 	blcs	a64 <main+0x154>
     a3c:	0008bf07 	andeq	fp, r8, r7, lsl #30
     a40:	d4072c00 	strle	r2, [r7], #-3072	; 0xfffff400
     a44:	2d000004 	stccs	0, cr0, [r0, #-16]
     a48:	00081907 	andeq	r1, r8, r7, lsl #18
     a4c:	5b072e00 	blpl	1cc254 <__exidx_end+0x1c9c9c>
     a50:	2f000006 	svccs	0x00000006
     a54:	0005c707 	andeq	ip, r5, r7, lsl #14
     a58:	18073000 	stmdane	r7, {ip, sp}
     a5c:	31000004 	tstcc	r0, r4
     a60:	00097007 	andeq	r7, r9, r7
     a64:	ed073200 	sfm	f3, 4, [r7, #-0]
     a68:	33000009 	movwcc	r0, #9
     a6c:	00055e07 	andeq	r5, r5, r7, lsl #28
     a70:	74073400 	strvc	r3, [r7], #-1024	; 0xfffffc00
     a74:	35000004 	strcc	r0, [r0, #-4]
     a78:	0006ff07 	andeq	pc, r6, r7, lsl #30
     a7c:	3a073600 	bcc	1ce284 <__exidx_end+0x1cbccc>
     a80:	37000004 	strcc	r0, [r0, -r4]
     a84:	00069007 	andeq	r9, r6, r7
     a88:	04073800 	streq	r3, [r7], #-2048	; 0xfffff800
     a8c:	39000008 	stmdbcc	r0, {r3}
     a90:	00067807 	andeq	r7, r6, r7, lsl #16
     a94:	a4073a00 	strge	r3, [r7], #-2560	; 0xfffff600
     a98:	3b000006 	blcc	ab8 <main+0x1a8>
     a9c:	00076807 	andeq	r6, r7, r7, lsl #16
     aa0:	17073c00 	strne	r3, [r7, -r0, lsl #24]
     aa4:	3d000008 	stccc	0, cr0, [r0, #-32]	; 0xffffffe0
     aa8:	00047e07 	andeq	r7, r4, r7, lsl #28
     aac:	f2073e00 	vceq.f32	d3, d7, d0
     ab0:	3f000004 	svccc	0x00000004
     ab4:	00042c07 	andeq	r2, r4, r7, lsl #24
     ab8:	5e074000 	cdppl	0, 0, cr4, cr7, cr0, {0}
     abc:	41000007 	tstmi	r0, r7
     ac0:	0006cd07 	andeq	ip, r6, r7, lsl #26
     ac4:	2d074200 	sfmcs	f4, 4, [r7, #-0]
     ac8:	43000006 	movwmi	r0, #6
     acc:	00072a07 	andeq	r2, r7, r7, lsl #20
     ad0:	c5074400 	strgt	r4, [r7, #-1024]	; 0xfffffc00
     ad4:	45000004 	strmi	r0, [r0, #-4]
     ad8:	00080d07 	andeq	r0, r8, r7, lsl #26
     adc:	c3074600 	movwgt	r4, #30208	; 0x7600
     ae0:	47000006 	strmi	r0, [r0, -r6]
     ae4:	00042207 	andeq	r2, r4, r7, lsl #4
     ae8:	96074800 	strls	r4, [r7], -r0, lsl #16
     aec:	49000007 	stmdbmi	r0, {r0, r1, r2}
     af0:	0004bb07 	andeq	fp, r4, r7, lsl #22
     af4:	c9074a00 	stmdbgt	r7, {r9, fp, lr}
     af8:	4b000008 	blmi	b20 <ADC1_INIT+0x30>
     afc:	00071807 	andeq	r1, r7, r7, lsl #16
     b00:	17074c00 	strne	r4, [r7, -r0, lsl #24]
     b04:	4d000005 	stcmi	0, cr0, [r0, #-20]	; 0xffffffec
     b08:	00049707 	andeq	r9, r4, r7, lsl #14
     b0c:	44074e00 	strmi	r4, [r7], #-3584	; 0xfffff200
     b10:	4f000009 	svcmi	0x00000009
     b14:	00059207 	andeq	r9, r5, r7, lsl #4
     b18:	b5075000 	strlt	r5, [r7, #-0]
     b1c:	51000009 	tstpl	r0, r9
     b20:	00053a07 	andeq	r3, r5, r7, lsl #20
     b24:	3b075200 	blcc	1d532c <__exidx_end+0x1d2d74>
     b28:	53000007 	movwpl	r0, #7
     b2c:	00057607 	andeq	r7, r5, r7, lsl #12
     b30:	07075400 	streq	r5, [r7, -r0, lsl #8]
     b34:	55000005 	strpl	r0, [r0, #-5]
     b38:	08870300 	stmeq	r7, {r8, r9}
     b3c:	dc060000 	stcle	0, cr0, [r6], {-0}
     b40:	000000ad 	andeq	r0, r0, sp, lsr #1
     b44:	020e0408 	andeq	r0, lr, #8, 8	; 0x8000000
     b48:	03bf0150 			; <UNDEFINED> instruction: 0x03bf0150
     b4c:	27090000 	strcs	r0, [r9, -r0]
     b50:	02000005 	andeq	r0, r0, #5
     b54:	03d60152 	bicseq	r0, r6, #-2147483628	; 0x80000014
     b58:	09000000 	stmdbeq	r0, {}	; <UNPREDICTABLE>
     b5c:	000007c9 	andeq	r0, r0, r9, asr #15
     b60:	db015302 	blle	55770 <__exidx_end+0x531b8>
     b64:	20000003 	andcs	r0, r0, r3
     b68:	00079109 	andeq	r9, r7, r9, lsl #2
     b6c:	01540200 	cmpeq	r4, r0, lsl #4
     b70:	000003eb 	andeq	r0, r0, fp, ror #7
     b74:	09a30980 	stmibeq	r3!, {r7, r8, fp}
     b78:	55020000 	strpl	r0, [r2, #-0]
     b7c:	0003db01 	andeq	sp, r3, r1, lsl #22
     b80:	ac0aa000 	stcge	0, cr10, [sl], {-0}
     b84:	02000004 	andeq	r0, r0, #4
     b88:	03f00156 	mvnseq	r0, #-2147483627	; 0x80000015
     b8c:	01000000 	mrseq	r0, (UNDEF: 0)
     b90:	0007d30a 	andeq	sp, r7, sl, lsl #6
     b94:	01570200 	cmpeq	r7, r0, lsl #4
     b98:	000003db 	ldrdeq	r0, [r0], -fp
     b9c:	130a0120 	movwne	r0, #41248	; 0xa120
     ba0:	02000004 	andeq	r0, r0, #4
     ba4:	03f50158 	mvnseq	r0, #88, 2
     ba8:	01800000 	orreq	r0, r0, r0
     bac:	00087d0a 	andeq	r7, r8, sl, lsl #26
     bb0:	01590200 	cmpeq	r9, r0, lsl #4
     bb4:	000003db 	ldrdeq	r0, [r0], -fp
     bb8:	4e0a01a0 	adfmi<illegal precision>p	f0, f2, f0
     bbc:	02000007 	andeq	r0, r0, #7
     bc0:	03fa015a 	mvnseq	r0, #-2147483626	; 0x80000016
     bc4:	02000000 	andeq	r0, r0, #0
     bc8:	0007dd0a 	andeq	sp, r7, sl, lsl #26
     bcc:	015b0200 	cmpeq	fp, r0, lsl #4
     bd0:	000003ff 	strdeq	r0, [r0], -pc	; <UNPREDICTABLE>
     bd4:	490b0220 	stmdbmi	fp, {r5, r9}
     bd8:	5c020050 	stcpl	0, cr0, [r2], {80}	; 0x50
     bdc:	00041f01 	andeq	r1, r4, r1, lsl #30
     be0:	0a030000 	beq	c0be8 <__exidx_end+0xbe630>
     be4:	000007e7 	andeq	r0, r0, r7, ror #15
     be8:	24015d02 	strcs	r5, [r1], #-3330	; 0xfffff2fe
     bec:	f0000004 			; <UNDEFINED> instruction: 0xf0000004
     bf0:	04350a03 	ldrteq	r0, [r5], #-2563	; 0xfffff5fd
     bf4:	5e020000 	cdppl	0, 0, cr0, cr2, cr0, {0}
     bf8:	00043501 	andeq	r3, r4, r1, lsl #10
     bfc:	000e0000 	andeq	r0, lr, r0
     c00:	0000a20c 	andeq	sl, r0, ip, lsl #4
     c04:	0003cf00 	andeq	ip, r3, r0, lsl #30
     c08:	03cf0d00 	biceq	r0, pc, #0, 26
     c0c:	00070000 	andeq	r0, r7, r0
     c10:	55070402 	strpl	r0, [r7, #-1026]	; 0xfffffbfe
     c14:	0e000000 	cdpeq	0, 0, cr0, cr0, cr0, {0}
     c18:	000003bf 			; <UNDEFINED> instruction: 0x000003bf
     c1c:	0000a20c 	andeq	sl, r0, ip, lsl #4
     c20:	0003eb00 	andeq	lr, r3, r0, lsl #22
     c24:	03cf0d00 	biceq	r0, pc, #0, 26
     c28:	00170000 	andseq	r0, r7, r0
     c2c:	0003bf0e 	andeq	fp, r3, lr, lsl #30
     c30:	03bf0e00 			; <UNDEFINED> instruction: 0x03bf0e00
     c34:	bf0e0000 	svclt	0x000e0000
     c38:	0e000003 	cdpeq	0, 0, cr0, cr0, cr3, {0}
     c3c:	000003bf 			; <UNDEFINED> instruction: 0x000003bf
     c40:	0000a20c 	andeq	sl, r0, ip, lsl #4
     c44:	00040f00 	andeq	r0, r4, r0, lsl #30
     c48:	03cf0d00 	biceq	r0, pc, #0, 26
     c4c:	00370000 	eorseq	r0, r7, r0
     c50:	00008c0c 	andeq	r8, r0, ip, lsl #24
     c54:	00041f00 	andeq	r1, r4, r0, lsl #30
     c58:	03cf0d00 	biceq	r0, pc, #0, 26
     c5c:	00ef0000 	rsceq	r0, pc, r0
     c60:	00040f0e 	andeq	r0, r4, lr, lsl #30
     c64:	00a20c00 	adceq	r0, r2, r0, lsl #24
     c68:	04350000 	ldrteq	r0, [r5], #-0
     c6c:	cf0f0000 	svcgt	0x000f0000
     c70:	83000003 	movwhi	r0, #3
     c74:	a20e0002 	andge	r0, lr, #2
     c78:	10000000 	andne	r0, r0, r0
     c7c:	00000832 	andeq	r0, r0, r2, lsr r8
     c80:	03015f02 	movweq	r5, #7938	; 0x1f02
     c84:	11000003 	tstne	r0, r3
     c88:	00000435 	andeq	r0, r0, r5, lsr r4
     c8c:	00008c0c 	andeq	r8, r0, ip, lsl #24
     c90:	00045b00 	andeq	r5, r4, r0, lsl #22
     c94:	03cf0d00 	biceq	r0, pc, #0, 26
     c98:	00030000 	andeq	r0, r3, r0
     c9c:	00008c0c 	andeq	r8, r0, ip, lsl #24
     ca0:	00046b00 	andeq	r6, r4, r0, lsl #22
     ca4:	03cf0d00 	biceq	r0, pc, #0, 26
     ca8:	00fb0000 	rscseq	r0, fp, r0
     cac:	00008c0c 	andeq	r8, r0, ip, lsl #24
     cb0:	00047b00 	andeq	r7, r4, r0, lsl #22
     cb4:	03cf0d00 	biceq	r0, pc, #0, 26
     cb8:	00070000 	andeq	r0, r7, r0
     cbc:	c0061012 	andgt	r1, r6, r2, lsl r0
     cc0:	0004b923 	andeq	fp, r4, r3, lsr #18
     cc4:	097a0900 	ldmdbeq	sl!, {r8, fp}^
     cc8:	c1060000 	mrsgt	r0, (UNDEF: 6)
     ccc:	00043523 	andeq	r3, r4, r3, lsr #10
     cd0:	35090000 	strcc	r0, [r9, #-0]
     cd4:	06000005 	streq	r0, [r0], -r5
     cd8:	044623c2 	strbeq	r2, [r6], #-962	; 0xfffffc3e
     cdc:	09040000 	stmdbeq	r4, {}	; <UNPREDICTABLE>
     ce0:	00000aa8 	andeq	r0, r0, r8, lsr #21
     ce4:	3523c306 	strcc	ip, [r3, #-774]!	; 0xfffffcfa
     ce8:	08000004 	stmdaeq	r0, {r2}
     cec:	00086709 	andeq	r6, r8, r9, lsl #14
     cf0:	23c40600 	biccs	r0, r4, #0, 12
     cf4:	00000435 	andeq	r0, r0, r5, lsr r4
     cf8:	4008000c 	andmi	r0, r8, ip
     cfc:	23bd0601 			; <UNDEFINED> instruction: 0x23bd0601
     d00:	000004ec 	andeq	r0, r0, ip, ror #9
     d04:	52434d13 	subpl	r4, r3, #1216	; 0x4c0
     d08:	23be0600 			; <UNDEFINED> instruction: 0x23be0600
     d0c:	00000435 	andeq	r0, r0, r5, lsr r4
     d10:	02d20900 	sbcseq	r0, r2, #0, 18
     d14:	bf060000 	svclt	0x00060000
     d18:	00045b23 	andeq	r5, r4, r3, lsr #22
     d1c:	f10a0400 			; <UNDEFINED> instruction: 0xf10a0400
     d20:	06000007 	streq	r0, [r0], -r7
     d24:	04ec23c5 	strbteq	r2, [ip], #965	; 0x3c5
     d28:	01000000 	mrseq	r0, (UNDEF: 0)
     d2c:	047b0c00 	ldrbteq	r0, [fp], #-3072	; 0xfffff400
     d30:	04fc0000 	ldrbteq	r0, [ip], #0
     d34:	cf0d0000 	svcgt	0x000d0000
     d38:	03000003 	movweq	r0, #3
     d3c:	05a41000 	streq	r1, [r4, #0]!
     d40:	c6060000 	strgt	r0, [r6], -r0
     d44:	0004b923 	andeq	fp, r4, r3, lsr #18
     d48:	10640800 	rsbne	r0, r4, r0, lsl #16
     d4c:	7c2ace06 	stcvc	14, cr12, [sl], #-24	; 0xffffffe8
     d50:	09000006 	stmdbeq	r0, {r1, r2}
     d54:	00000292 	muleq	r0, r2, r2
     d58:	352acf06 	strcc	ip, [sl, #-3846]!	; 0xfffff0fa
     d5c:	00000004 	andeq	r0, r0, r4
     d60:	00004609 	andeq	r4, r0, r9, lsl #12
     d64:	2ad00600 	bcs	ff40256c <__StackTop+0xdf3d256c>
     d68:	00000435 	andeq	r0, r0, r5, lsr r4
     d6c:	02d20904 	sbcseq	r0, r2, #4, 18	; 0x10000
     d70:	d1060000 	mrsle	r0, (UNDEF: 6)
     d74:	00067c2a 	andeq	r7, r6, sl, lsr #24
     d78:	a80a0800 	stmdage	sl, {fp}
     d7c:	06000002 	streq	r0, [r0], -r2
     d80:	04352ad2 	ldrteq	r2, [r5], #-2770	; 0xfffff52e
     d84:	10040000 	andne	r0, r4, r0
     d88:	0002dd0a 	andeq	sp, r2, sl, lsl #26
     d8c:	2ad30600 	bcs	ff4c2594 <__StackTop+0xdf492594>
     d90:	0000044b 	andeq	r0, r0, fp, asr #8
     d94:	530a1008 	movwpl	r1, #40968	; 0xa008
     d98:	06000003 	streq	r0, [r0], -r3
     d9c:	04352ad4 	ldrteq	r2, [r5], #-2772	; 0xfffff52c
     da0:	100c0000 	andne	r0, ip, r0
     da4:	0000000a 	andeq	r0, r0, sl
     da8:	2ad50600 	bcs	ff5425b0 <__StackTop+0xdf5125b0>
     dac:	00000435 	andeq	r0, r0, r5, lsr r4
     db0:	e80a1010 	stmda	sl, {r4, ip}
     db4:	06000002 	streq	r0, [r0], -r2
     db8:	044b2ad6 	strbeq	r2, [fp], #-2774	; 0xfffff52a
     dbc:	10140000 	andsne	r0, r4, r0
     dc0:	0002030a 	andeq	r0, r2, sl, lsl #6
     dc4:	2ad70600 	bcs	ff5c25cc <__StackTop+0xdf5925cc>
     dc8:	00000435 	andeq	r0, r0, r5, lsr r4
     dcc:	f30a1018 	vqadd.u8	d1, d10, d8
     dd0:	06000002 	streq	r0, [r0], -r2
     dd4:	046b2ad8 	strbteq	r2, [fp], #-2776	; 0xfffff528
     dd8:	101c0000 	andsne	r0, ip, r0
     ddc:	0000410a 	andeq	r4, r0, sl, lsl #2
     de0:	2ad90600 	bcs	ff6425e8 <__StackTop+0xdf6125e8>
     de4:	00000446 	andeq	r0, r0, r6, asr #8
     de8:	a70a1024 	strge	r1, [sl, -r4, lsr #32]
     dec:	06000001 	streq	r0, [r0], -r1
     df0:	04352ada 	ldrteq	r2, [r5], #-2778	; 0xfffff526
     df4:	10280000 	eorne	r0, r8, r0
     df8:	0001ad0a 	andeq	sl, r1, sl, lsl #26
     dfc:	2adb0600 	bcs	ff6c2604 <__StackTop+0xdf692604>
     e00:	00000435 	andeq	r0, r0, r5, lsr r4
     e04:	b30a102c 	movwlt	r1, #41004	; 0xa02c
     e08:	06000001 	streq	r0, [r0], -r1
     e0c:	04352adc 	ldrteq	r2, [r5], #-2780	; 0xfffff524
     e10:	10300000 	eorsne	r0, r0, r0
     e14:	0001b90a 	andeq	fp, r1, sl, lsl #18
     e18:	2add0600 	bcs	ff742620 <__StackTop+0xdf712620>
     e1c:	00000435 	andeq	r0, r0, r5, lsr r4
     e20:	bf0a1034 	svclt	0x000a1034
     e24:	06000001 	streq	r0, [r0], -r1
     e28:	04352ade 	ldrteq	r2, [r5], #-2782	; 0xfffff522
     e2c:	10380000 	eorsne	r0, r8, r0
     e30:	0001c50a 	andeq	ip, r1, sl, lsl #10
     e34:	2adf0600 	bcs	ff7c263c <__StackTop+0xdf79263c>
     e38:	00000435 	andeq	r0, r0, r5, lsr r4
     e3c:	cb0a103c 	blgt	284f34 <__exidx_end+0x28297c>
     e40:	06000001 	streq	r0, [r0], -r1
     e44:	04352ae0 	ldrteq	r2, [r5], #-2784	; 0xfffff520
     e48:	10400000 	subne	r0, r0, r0
     e4c:	0002090a 	andeq	r0, r2, sl, lsl #18
     e50:	2ae10600 	bcs	ff842658 <__StackTop+0xdf812658>
     e54:	00000435 	andeq	r0, r0, r5, lsr r4
     e58:	110a1044 	tstne	sl, r4, asr #32
     e5c:	06000002 	streq	r0, [r0], -r2
     e60:	04352ae2 	ldrteq	r2, [r5], #-2786	; 0xfffff51e
     e64:	10480000 	subne	r0, r8, r0
     e68:	0000060a 	andeq	r0, r0, sl, lsl #12
     e6c:	2ae30600 	bcs	ff8c2674 <__StackTop+0xdf892674>
     e70:	00000435 	andeq	r0, r0, r5, lsr r4
     e74:	0c0a104c 	stceq	0, cr1, [sl], {76}	; 0x4c
     e78:	06000000 	streq	r0, [r0], -r0
     e7c:	04462ae4 	strbeq	r2, [r6], #-2788	; 0xfffff51c
     e80:	10500000 	subsne	r0, r0, r0
     e84:	0000a10a 	andeq	sl, r0, sl, lsl #2
     e88:	2ae50600 	bcs	ff942690 <__StackTop+0xdf912690>
     e8c:	00000446 	andeq	r0, r0, r6, asr #8
     e90:	d10a1054 	qaddle	r1, r4, sl
     e94:	06000001 	streq	r0, [r0], -r1
     e98:	04462ae6 	strbeq	r2, [r6], #-2790	; 0xfffff51a
     e9c:	10580000 	subsne	r0, r8, r0
     ea0:	0002cc0a 	andeq	ip, r2, sl, lsl #24
     ea4:	2ae70600 	bcs	ff9c26ac <__StackTop+0xdf9926ac>
     ea8:	00000446 	andeq	r0, r0, r6, asr #8
     eac:	b00a105c 	andlt	r1, sl, ip, asr r0
     eb0:	06000000 	streq	r0, [r0], -r0
     eb4:	04462ae8 	strbeq	r2, [r6], #-2792	; 0xfffff518
     eb8:	10600000 	rsbne	r0, r0, r0
     ebc:	008c0c00 	addeq	r0, ip, r0, lsl #24
     ec0:	068d0000 	streq	r0, [sp], r0
     ec4:	cf0f0000 	svcgt	0x000f0000
     ec8:	fb000003 	blx	ede <__aeabi_f2d+0x6>
     ecc:	8d10000f 	ldchi	0, cr0, [r0, #-60]	; 0xffffffc4
     ed0:	06000000 	streq	r0, [r0], -r0
     ed4:	05082ae9 	streq	r2, [r8, #-2793]	; 0xfffff517
     ed8:	08140000 	ldmdaeq	r4, {}	; <UNPREDICTABLE>
     edc:	06ba0607 	ldrteq	r0, [sl], r7, lsl #12
     ee0:	3e150000 	cdpcc	0, 1, cr0, cr5, cr0, {0}
     ee4:	07000009 	streq	r0, [r0, -r9]
     ee8:	0006bb07 	andeq	fp, r6, r7, lsl #22
     eec:	91150000 	tstls	r5, r0
     ef0:	07000008 	streq	r0, [r0, -r8]
     ef4:	0006bb08 	andeq	fp, r6, r8, lsl #22
     ef8:	16000400 	strne	r0, [r0], -r0, lsl #8
     efc:	06ba0417 	ssateq	r0, #27, r7, lsl #8
     f00:	4d030000 	stcmi	0, cr0, [r3, #-0]
     f04:	07000006 	streq	r0, [r0, -r6]
     f08:	00069909 	andeq	r9, r6, r9, lsl #18
     f0c:	07a01800 	streq	r1, [r0, r0, lsl #16]!
     f10:	49030000 	stmdbmi	r3, {}	; <UNPREDICTABLE>
     f14:	4e190301 	cdpmi	3, 1, cr0, cr9, cr1, {0}
     f18:	02000008 	andeq	r0, r0, #8
     f1c:	ef0305bb 	svc	0x000305bb
     f20:	1a000006 	bne	f40 <__aeabi_l2d+0x1c>
     f24:	0000068b 	andeq	r0, r0, fp, lsl #13
     f28:	f805bb02 			; <UNDEFINED> instruction: 0xf805bb02
     f2c:	00000002 	andeq	r0, r0, r2
     f30:	00046618 	andeq	r6, r4, r8, lsl r6
     f34:	01540300 	cmpeq	r4, r0, lsl #6
     f38:	08e71b03 	stmiaeq	r7!, {r0, r1, r8, r9, fp, ip}^
     f3c:	07010000 	streq	r0, [r1, -r0]
     f40:	00000774 	andeq	r0, r0, r4, ror r7
     f44:	00000050 	andeq	r0, r0, r0, asr r0
     f48:	07539c01 	ldrbeq	r9, [r3, -r1, lsl #24]
     f4c:	3e1c0000 	cdpcc	0, 1, cr0, cr12, cr0, {0}
     f50:	01000009 	tsteq	r0, r9
     f54:	0006bb07 	andeq	fp, r6, r7, lsl #22
     f58:	0004b700 	andeq	fp, r4, r0, lsl #14
     f5c:	08b91d00 	ldmeq	r9!, {r8, sl, fp, ip}
     f60:	07010000 	streq	r0, [r1, -r0]
     f64:	0000007e 	andeq	r0, r0, lr, ror r0
     f68:	d51e5101 	ldrle	r5, [lr, #-257]	; 0xfffffeff
     f6c:	a8000006 	stmdage	r0, {r1, r2}
     f70:	08000007 	stmdaeq	r0, {r0, r1, r2}
     f74:	01000000 	mrseq	r0, (UNDEF: 0)
     f78:	00074312 	andeq	r4, r7, r2, lsl r3
     f7c:	06e21f00 	strbteq	r1, [r2], r0, lsl #30
     f80:	00300000 	eorseq	r0, r0, r0
     f84:	0006cc20 	andeq	ip, r6, r0, lsr #24
     f88:	0007b000 	andeq	fp, r7, r0
     f8c:	00001400 	andeq	r1, r0, r0, lsl #8
     f90:	00130100 	andseq	r0, r3, r0, lsl #2
     f94:	0009661b 	andeq	r6, r9, fp, lsl r6
     f98:	00150100 	andseq	r0, r5, r0, lsl #2
     f9c:	50000000 	andpl	r0, r0, r0
     fa0:	01000000 	mrseq	r0, (UNDEF: 0)
     fa4:	0007ae9c 	muleq	r7, ip, lr
     fa8:	08911c00 	ldmeq	r1, {sl, fp, ip}
     fac:	15010000 	strne	r0, [r1, #-0]
     fb0:	000006bb 			; <UNDEFINED> instruction: 0x000006bb
     fb4:	000004e7 	andeq	r0, r0, r7, ror #9
     fb8:	0008b91d 	andeq	fp, r8, sp, lsl r9
     fbc:	7e150100 	mufvcs	f0, f5, f0
     fc0:	01000000 	mrseq	r0, (UNDEF: 0)
     fc4:	06d51e51 			; <UNDEFINED> instruction: 0x06d51e51
     fc8:	00000000 	andeq	r0, r0, r0
     fcc:	00080000 	andeq	r0, r8, r0
     fd0:	21010000 	mrscs	r0, (UNDEF: 1)
     fd4:	0000079e 	muleq	r0, lr, r7
     fd8:	0006e21f 	andeq	lr, r6, pc, lsl r2
     fdc:	20003100 	andcs	r3, r0, r0, lsl #2
     fe0:	000006cc 	andeq	r0, r0, ip, asr #13
     fe4:	00000000 	andeq	r0, r0, r0
     fe8:	00000014 	andeq	r0, r0, r4, lsl r0
     fec:	21002201 	tstcs	r0, r1, lsl #4
     ff0:	0000083c 	andeq	r0, r0, ip, lsr r8
     ff4:	00002501 	andeq	r2, r0, r1, lsl #10
     ff8:	00100000 	andseq	r0, r0, r0
     ffc:	9c010000 	stcls	0, cr0, [r1], {-0}
    1000:	00084521 	andeq	r4, r8, r1, lsr #10
    1004:	00290100 	eoreq	r0, r9, r0, lsl #2
    1008:	10000000 	andne	r0, r0, r0
    100c:	01000000 	mrseq	r0, (UNDEF: 0)
    1010:	05b7229c 	ldreq	r2, [r7, #668]!	; 0x29c
    1014:	2d010000 	stccs	0, cr0, [r1, #-0]
    1018:	000007c4 	andeq	r0, r0, r4, asr #15
    101c:	00000020 	andeq	r0, r0, r0, lsr #32
    1020:	08049c01 	stmdaeq	r4, {r0, sl, fp, ip, pc}
    1024:	ef200000 	svc	0x00200000
    1028:	c6000006 	strgt	r0, [r0], -r6
    102c:	02000007 	andeq	r0, r0, #7
    1030:	01000000 	mrseq	r0, (UNDEF: 0)
    1034:	06cc202f 	strbeq	r2, [ip], pc, lsr #32
    1038:	07d60000 	ldrbeq	r0, [r6, r0]
    103c:	000e0000 	andeq	r0, lr, r0
    1040:	32010000 	andcc	r0, r1, #0
    1044:	08222200 	stmdaeq	r2!, {r9, sp}
    1048:	34010000 	strcc	r0, [r1], #-0
    104c:	000007e4 	andeq	r0, r0, r4, ror #15
    1050:	00000020 	andeq	r0, r0, r0, lsr #32
    1054:	08389c01 	ldmdaeq	r8!, {r0, sl, fp, ip, pc}
    1058:	ef200000 	svc	0x00200000
    105c:	e6000006 	str	r0, [r0], -r6
    1060:	02000007 	andeq	r0, r0, #7
    1064:	01000000 	mrseq	r0, (UNDEF: 0)
    1068:	06cc2036 			; <UNDEFINED> instruction: 0x06cc2036
    106c:	07f60000 	ldrbeq	r0, [r6, r0]!
    1070:	000e0000 	andeq	r0, lr, r0
    1074:	39010000 	stmdbcc	r1, {}	; <UNPREDICTABLE>
    1078:	032d2300 	teqeq	sp, #0, 6
    107c:	a7020000 	strge	r0, [r2, -r0]
    1080:	00084406 	andeq	r4, r8, r6, lsl #8
    1084:	00970e00 	addseq	r0, r7, r0, lsl #28
    1088:	ad240000 	stcge	0, cr0, [r4, #-0]
    108c:	01000007 	tsteq	r0, r7
    1090:	0006c106 	andeq	ip, r6, r6, lsl #2
    1094:	c8030500 	stmdagt	r3, {r8, sl}
    1098:	001fff02 	andseq	pc, pc, r2, lsl #30
    109c:	000005ac 	andeq	r0, r0, ip, lsr #11
    10a0:	03fe0004 	mvnseq	r0, #4
    10a4:	01040000 	mrseq	r0, (UNDEF: 4)
    10a8:	000000bc 	strheq	r0, [r0], -ip
    10ac:	000a100c 	andeq	r1, sl, ip
    10b0:	0001d700 	andeq	sp, r1, r0, lsl #14
    10b4:	00007000 	andeq	r7, r0, r0
    10b8:	00000000 	andeq	r0, r0, r0
    10bc:	00037e00 	andeq	r7, r3, r0, lsl #28
    10c0:	07040200 	streq	r0, [r4, -r0, lsl #4]
    10c4:	00000236 	andeq	r0, r0, r6, lsr r2
    10c8:	1b060102 	blne	1814d8 <__exidx_end+0x17ef20>
    10cc:	03000002 	movweq	r0, #2
    10d0:	00000349 	andeq	r0, r0, r9, asr #6
    10d4:	003e1d02 	eorseq	r1, lr, r2, lsl #26
    10d8:	01020000 	mrseq	r0, (UNDEF: 2)
    10dc:	00021908 	andeq	r1, r2, r8, lsl #18
    10e0:	05020200 	streq	r0, [r2, #-512]	; 0xfffffe00
    10e4:	000000a6 	andeq	r0, r0, r6, lsr #1
    10e8:	00009603 	andeq	r9, r0, r3, lsl #12
    10ec:	572b0200 	strpl	r0, [fp, -r0, lsl #4]!
    10f0:	02000000 	andeq	r0, r0, #0
    10f4:	026e0702 	rsbeq	r0, lr, #524288	; 0x80000
    10f8:	fe030000 	cdp2	0, 0, cr0, cr3, cr0, {0}
    10fc:	02000002 	andeq	r0, r0, #2
    1100:	0000693f 	andeq	r6, r0, pc, lsr r9
    1104:	05040200 	streq	r0, [r4, #-512]	; 0xfffffe00
    1108:	00000197 	muleq	r0, r7, r1
    110c:	00007a03 	andeq	r7, r0, r3, lsl #20
    1110:	7b410200 	blvc	1041918 <__exidx_end+0x103f360>
    1114:	02000000 	andeq	r0, r0, #0
    1118:	02310704 	eorseq	r0, r1, #4, 14	; 0x100000
    111c:	08020000 	stmdaeq	r2, {}	; <UNPREDICTABLE>
    1120:	00019205 	andeq	r9, r1, r5, lsl #4
    1124:	07080200 	streq	r0, [r8, -r0, lsl #4]
    1128:	0000022c 	andeq	r0, r0, ip, lsr #4
    112c:	69050404 	stmdbvs	r5, {r2, sl}
    1130:	0300746e 	movweq	r7, #1134	; 0x46e
    1134:	0000034b 	andeq	r0, r0, fp, asr #6
    1138:	00331403 	eorseq	r1, r3, r3, lsl #8
    113c:	98030000 	stmdals	r3, {}	; <UNPREDICTABLE>
    1140:	03000000 	movweq	r0, #0
    1144:	00004c1a 	andeq	r4, r0, sl, lsl ip
    1148:	03000300 	movweq	r0, #768	; 0x300
    114c:	1f030000 	svcne	0x00030000
    1150:	0000005e 	andeq	r0, r0, lr, asr r0
    1154:	00007c03 	andeq	r7, r0, r3, lsl #24
    1158:	70200300 	eorvc	r0, r0, r0, lsl #6
    115c:	02000000 	andeq	r0, r0, #0
    1160:	00550704 	subseq	r0, r5, r4, lsl #14
    1164:	b8050000 	stmdalt	r5, {}	; <UNPREDICTABLE>
    1168:	06000000 	streq	r0, [r0], -r0
    116c:	000000ca 	andeq	r0, r0, sl, asr #1
    1170:	00009707 	andeq	r9, r0, r7, lsl #14
    1174:	0000e400 	andeq	lr, r0, r0, lsl #8
    1178:	00c30800 	sbceq	r0, r3, r0, lsl #16
    117c:	00030000 	andeq	r0, r3, r0
    1180:	00009707 	andeq	r9, r0, r7, lsl #14
    1184:	0000f400 	andeq	pc, r0, r0, lsl #8
    1188:	00c30800 	sbceq	r0, r3, r0, lsl #16
    118c:	001b0000 	andseq	r0, fp, r0
    1190:	00009707 	andeq	r9, r0, r7, lsl #14
    1194:	00010400 	andeq	r0, r1, r0, lsl #8
    1198:	00c30800 	sbceq	r0, r3, r0, lsl #16
    119c:	00070000 	andeq	r0, r7, r0
    11a0:	00009707 	andeq	r9, r0, r7, lsl #14
    11a4:	00011400 	andeq	r1, r1, r0, lsl #8
    11a8:	00c30800 	sbceq	r0, r3, r0, lsl #16
    11ac:	00170000 	andseq	r0, r7, r0
    11b0:	a9040809 	stmdbge	r4, {r0, r3, fp}
    11b4:	00013817 	andeq	r3, r1, r7, lsl r8
    11b8:	0aa10a00 	beq	fe8439c0 <__StackTop+0xde8139c0>
    11bc:	aa040000 	bge	1011c4 <__exidx_end+0xfec0c>
    11c0:	0000ca17 	andeq	ip, r0, r7, lsl sl
    11c4:	430b0000 	movwmi	r0, #45056	; 0xb000
    11c8:	0400566e 	streq	r5, [r0], #-1646	; 0xfffff992
    11cc:	00ca17ab 	sbceq	r1, sl, fp, lsr #15
    11d0:	00040000 	andeq	r0, r4, r0
    11d4:	a5049c09 	strge	r9, [r4, #-3081]	; 0xfffff3f7
    11d8:	00027917 	andeq	r7, r2, r7, lsl r9
    11dc:	43530b00 	cmpmi	r3, #0, 22
    11e0:	17a60400 	strne	r0, [r6, r0, lsl #8]!
    11e4:	000000ca 	andeq	r0, r0, sl, asr #1
    11e8:	4e430b00 	vmlami.f64	d16, d3, d0
    11ec:	a7040054 	smlsdge	r4, r4, r0, r0
    11f0:	0000ca17 	andeq	ip, r0, r7, lsl sl
    11f4:	4d0b0400 	cfstrsmi	mvf0, [fp, #-0]
    11f8:	0400444f 	streq	r4, [r0], #-1103	; 0xfffffbb1
    11fc:	00ca17a8 	sbceq	r1, sl, r8, lsr #15
    1200:	0a080000 	beq	201208 <__exidx_end+0x1fec50>
    1204:	00000a98 	muleq	r0, r8, sl
    1208:	7917ac04 	ldmdbvc	r7, {r2, sl, fp, sp, pc}
    120c:	0c000002 	stceq	0, cr0, [r0], {2}
    1210:	000ab40a 	andeq	fp, sl, sl, lsl #8
    1214:	17ad0400 	strne	r0, [sp, r0, lsl #8]!
    1218:	000000ca 	andeq	r0, r0, sl, asr #1
    121c:	0ad70a4c 	beq	ff5c3b54 <__StackTop+0xdf593b54>
    1220:	ae040000 	cdpge	0, 0, cr0, cr4, cr0, {0}
    1224:	0000ca17 	andeq	ip, r0, r7, lsl sl
    1228:	cb0a5000 	blgt	295230 <__exidx_end+0x292c78>
    122c:	0400000a 	streq	r0, [r0], #-10
    1230:	00ca17af 	sbceq	r1, sl, pc, lsr #15
    1234:	0a540000 	beq	150123c <__exidx_end+0x14fec84>
    1238:	00000ade 	ldrdeq	r0, [r0], -lr
    123c:	ca17b004 	bgt	5ed254 <__exidx_end+0x5eac9c>
    1240:	58000000 	stmdapl	r0, {}	; <UNPREDICTABLE>
    1244:	000a450a 	andeq	r4, sl, sl, lsl #10
    1248:	17b10400 	ldrne	r0, [r1, r0, lsl #8]!
    124c:	000000ca 	andeq	r0, r0, sl, asr #1
    1250:	0a7f0a5c 	beq	1fc3bc8 <__exidx_end+0x1fc1610>
    1254:	b2040000 	andlt	r0, r4, #0
    1258:	0000ca17 	andeq	ip, r0, r7, lsl sl
    125c:	6e0a6000 	cdpvs	0, 0, cr6, cr10, cr0, {0}
    1260:	0400000a 	streq	r0, [r0], #-10
    1264:	00ca17b3 	strheq	r1, [sl], #115	; 0x73
    1268:	0a640000 	beq	1901270 <__exidx_end+0x18fecb8>
    126c:	00000a65 	andeq	r0, r0, r5, ror #20
    1270:	ca17b404 	bgt	5ee288 <__exidx_end+0x5ebcd0>
    1274:	68000000 	stmdavs	r0, {}	; <UNPREDICTABLE>
    1278:	000a2f0a 	andeq	r2, sl, sl, lsl #30
    127c:	17b50400 	ldrne	r0, [r5, r0, lsl #8]!
    1280:	000000ca 	andeq	r0, r0, sl, asr #1
    1284:	4f500b6c 	svcmi	0x00500b6c
    1288:	b604004c 	strlt	r0, [r4], -ip, asr #32
    128c:	0000ca17 	andeq	ip, r0, r7, lsl sl
    1290:	460b7000 	strmi	r7, [fp], -r0
    1294:	0400534d 	streq	r5, [r0], #-845	; 0xfffffcb3
    1298:	00ca17b7 	strheq	r1, [sl], #119	; 0x77
    129c:	0a740000 	beq	1d012a4 <__exidx_end+0x1cfecec>
    12a0:	00000a87 	andeq	r0, r0, r7, lsl #21
    12a4:	ca17b804 	bgt	5ef2bc <__exidx_end+0x5ecd04>
    12a8:	78000000 	stmdavc	r0, {}	; <UNPREDICTABLE>
    12ac:	000aa60a 	andeq	sl, sl, sl, lsl #12
    12b0:	17b90400 	ldrne	r0, [r9, r0, lsl #8]!
    12b4:	000000ca 	andeq	r0, r0, sl, asr #1
    12b8:	0ad00a7c 	beq	ff403cb0 <__StackTop+0xdf3d3cb0>
    12bc:	ba040000 	blt	1012c4 <__exidx_end+0xfed0c>
    12c0:	0000ca17 	andeq	ip, r0, r7, lsl sl
    12c4:	fa0a8000 	blx	2a12cc <__exidx_end+0x29ed14>
    12c8:	04000009 	streq	r0, [r0], #-9
    12cc:	00ca17bb 	strheq	r1, [sl], #123	; 0x7b
    12d0:	0a840000 	beq	fe1012d8 <__StackTop+0xde0d12d8>
    12d4:	00000ac4 	andeq	r0, r0, r4, asr #21
    12d8:	ca17bc04 	bgt	5f02f0 <__exidx_end+0x5edd38>
    12dc:	88000000 	stmdahi	r0, {}	; <UNPREDICTABLE>
    12e0:	0009f70a 	andeq	pc, r9, sl, lsl #14
    12e4:	17bd0400 	ldrne	r0, [sp, r0, lsl #8]!
    12e8:	000000ca 	andeq	r0, r0, sl, asr #1
    12ec:	0a5d0a8c 	beq	1743d24 <__exidx_end+0x174176c>
    12f0:	be040000 	cdplt	0, 0, cr0, cr4, cr0, {0}
    12f4:	0000ca17 	andeq	ip, r0, r7, lsl sl
    12f8:	4d0a9000 	stcmi	0, cr9, [sl, #-0]
    12fc:	0400000a 	streq	r0, [r0], #-10
    1300:	00ca17bf 	strheq	r1, [sl], #127	; 0x7f
    1304:	0a940000 	beq	fe50130c <__StackTop+0xde4d130c>
    1308:	00000a55 	andeq	r0, r0, r5, asr sl
    130c:	ca17c004 	bgt	5f1324 <__exidx_end+0x5eed6c>
    1310:	98000000 	stmdals	r0, {}	; <UNPREDICTABLE>
    1314:	01140700 	tsteq	r4, r0, lsl #14
    1318:	02890000 	addeq	r0, r9, #0
    131c:	c3080000 	movwgt	r0, #32768	; 0x8000
    1320:	07000000 	streq	r0, [r0, -r0]
    1324:	09ff0c00 	ldmibeq	pc!, {sl, fp}^	; <UNPREDICTABLE>
    1328:	c1040000 	mrsgt	r0, (UNDEF: 4)
    132c:	00013817 	andeq	r3, r1, r7, lsl r8
    1330:	04cc0900 	strbeq	r0, [ip], #2304	; 0x900
    1334:	031424ba 	tsteq	r4, #-1174405120	; 0xba000000
    1338:	500b0000 	andpl	r0, fp, r0
    133c:	04005243 	streq	r5, [r0], #-579	; 0xfffffdbd
    1340:	032424bb 	teqeq	r4, #-1157627904	; 0xbb000000
    1344:	0a000000 	beq	134c <__aeabi_ddiv+0x178>
    1348:	00000243 	andeq	r0, r0, r3, asr #4
    134c:	ca24bc04 	bgt	930364 <__exidx_end+0x92ddac>
    1350:	80000000 	andhi	r0, r0, r0
    1354:	0001fd0a 	andeq	pc, r1, sl, lsl #26
    1358:	24bd0400 	ldrtcs	r0, [sp], #1024	; 0x400
    135c:	000000ca 	andeq	r0, r0, sl, asr #1
    1360:	02d20a84 	sbcseq	r0, r2, #132, 20	; 0x84000
    1364:	be040000 	cdplt	0, 0, cr0, cr4, cr0, {0}
    1368:	00010424 	andeq	r0, r1, r4, lsr #8
    136c:	270a8800 	strcs	r8, [sl, -r0, lsl #16]
    1370:	04000002 	streq	r0, [r0], #-2
    1374:	00ca24bf 	strheq	r2, [sl], #79	; 0x4f
    1378:	0aa00000 	beq	fe801380 <__StackTop+0xde7d1380>
    137c:	000002dd 	ldrdeq	r0, [r0], -sp
    1380:	e424c004 	strt	ip, [r4], #-4
    1384:	a4000000 	strge	r0, [r0], #-0
    1388:	00033a0a 	andeq	r3, r3, sl, lsl #20
    138c:	24c10400 	strbcs	r0, [r1], #1024	; 0x400
    1390:	000000ca 	andeq	r0, r0, sl, asr #1
    1394:	025e0ac0 	subseq	r0, lr, #192, 20	; 0xc0000
    1398:	c2040000 	andgt	r0, r4, #0
    139c:	0000ca24 	andeq	ip, r0, r4, lsr #20
    13a0:	c70ac400 	strgt	ip, [sl, -r0, lsl #8]
    13a4:	04000002 	streq	r0, [r0], #-2
    13a8:	00ca24c3 	sbceq	r2, sl, r3, asr #9
    13ac:	00c80000 	sbceq	r0, r8, r0
    13b0:	0000b807 	andeq	fp, r0, r7, lsl #16
    13b4:	00032400 	andeq	r2, r3, r0, lsl #8
    13b8:	00c30800 	sbceq	r0, r3, r0, lsl #16
    13bc:	001f0000 	andseq	r0, pc, r0
    13c0:	00031405 	andeq	r1, r3, r5, lsl #8
    13c4:	033f0c00 	teqeq	pc, #0, 24
    13c8:	c4040000 	strgt	r0, [r4], #-0
    13cc:	00029524 	andeq	r9, r2, r4, lsr #10
    13d0:	10640d00 	rsbne	r0, r4, r0, lsl #26
    13d4:	a92ace04 	stmdbge	sl!, {r2, r9, sl, fp, lr, pc}
    13d8:	0a000004 	beq	13f0 <__aeabi_d2f+0x4c>
    13dc:	00000292 	muleq	r0, r2, r2
    13e0:	ca2acf04 	bgt	ab4ff8 <__exidx_end+0xab2a40>
    13e4:	00000000 	andeq	r0, r0, r0
    13e8:	0000460a 	andeq	r4, r0, sl, lsl #12
    13ec:	2ad00400 	bcs	ff4023f4 <__StackTop+0xdf3d23f4>
    13f0:	000000ca 	andeq	r0, r0, sl, asr #1
    13f4:	02d20a04 	sbcseq	r0, r2, #4, 20	; 0x4000
    13f8:	d1040000 	mrsle	r0, (UNDEF: 4)
    13fc:	0004a92a 	andeq	sl, r4, sl, lsr #18
    1400:	a80e0800 	stmdage	lr, {fp}
    1404:	04000002 	streq	r0, [r0], #-2
    1408:	00ca2ad2 	ldrdeq	r2, [sl], #162	; 0xa2
    140c:	10040000 	andne	r0, r4, r0
    1410:	0002dd0e 	andeq	sp, r2, lr, lsl #26
    1414:	2ad30400 	bcs	ff4c241c <__StackTop+0xdf49241c>
    1418:	000000d4 	ldrdeq	r0, [r0], -r4
    141c:	530e1008 	movwpl	r1, #57352	; 0xe008
    1420:	04000003 	streq	r0, [r0], #-3
    1424:	00ca2ad4 	ldrdeq	r2, [sl], #164	; 0xa4
    1428:	100c0000 	andne	r0, ip, r0
    142c:	0000000e 	andeq	r0, r0, lr
    1430:	2ad50400 	bcs	ff542438 <__StackTop+0xdf512438>
    1434:	000000ca 	andeq	r0, r0, sl, asr #1
    1438:	e80e1010 	stmda	lr, {r4, ip}
    143c:	04000002 	streq	r0, [r0], #-2
    1440:	00d42ad6 	ldrsbeq	r2, [r4], #166	; 0xa6
    1444:	10140000 	andsne	r0, r4, r0
    1448:	0002030e 	andeq	r0, r2, lr, lsl #6
    144c:	2ad70400 	bcs	ff5c2454 <__StackTop+0xdf592454>
    1450:	000000ca 	andeq	r0, r0, sl, asr #1
    1454:	f30e1018 	vqadd.u8	d1, d14, d8
    1458:	04000002 	streq	r0, [r0], #-2
    145c:	00f42ad8 	ldrsbteq	r2, [r4], #168	; 0xa8
    1460:	101c0000 	andsne	r0, ip, r0
    1464:	0000410e 	andeq	r4, r0, lr, lsl #2
    1468:	2ad90400 	bcs	ff642470 <__StackTop+0xdf612470>
    146c:	000000cf 	andeq	r0, r0, pc, asr #1
    1470:	a70e1024 	strge	r1, [lr, -r4, lsr #32]
    1474:	04000001 	streq	r0, [r0], #-1
    1478:	00ca2ada 	ldrdeq	r2, [sl], #170	; 0xaa
    147c:	10280000 	eorne	r0, r8, r0
    1480:	0001ad0e 	andeq	sl, r1, lr, lsl #26
    1484:	2adb0400 	bcs	ff6c248c <__StackTop+0xdf69248c>
    1488:	000000ca 	andeq	r0, r0, sl, asr #1
    148c:	b30e102c 	movwlt	r1, #57388	; 0xe02c
    1490:	04000001 	streq	r0, [r0], #-1
    1494:	00ca2adc 	ldrdeq	r2, [sl], #172	; 0xac
    1498:	10300000 	eorsne	r0, r0, r0
    149c:	0001b90e 	andeq	fp, r1, lr, lsl #18
    14a0:	2add0400 	bcs	ff7424a8 <__StackTop+0xdf7124a8>
    14a4:	000000ca 	andeq	r0, r0, sl, asr #1
    14a8:	bf0e1034 	svclt	0x000e1034
    14ac:	04000001 	streq	r0, [r0], #-1
    14b0:	00ca2ade 	ldrdeq	r2, [sl], #174	; 0xae
    14b4:	10380000 	eorsne	r0, r8, r0
    14b8:	0001c50e 	andeq	ip, r1, lr, lsl #10
    14bc:	2adf0400 	bcs	ff7c24c4 <__StackTop+0xdf7924c4>
    14c0:	000000ca 	andeq	r0, r0, sl, asr #1
    14c4:	cb0e103c 	blgt	3855bc <__exidx_end+0x383004>
    14c8:	04000001 	streq	r0, [r0], #-1
    14cc:	00ca2ae0 	sbceq	r2, sl, r0, ror #21
    14d0:	10400000 	subne	r0, r0, r0
    14d4:	0002090e 	andeq	r0, r2, lr, lsl #18
    14d8:	2ae10400 	bcs	ff8424e0 <__StackTop+0xdf8124e0>
    14dc:	000000ca 	andeq	r0, r0, sl, asr #1
    14e0:	110e1044 	tstne	lr, r4, asr #32
    14e4:	04000002 	streq	r0, [r0], #-2
    14e8:	00ca2ae2 	sbceq	r2, sl, r2, ror #21
    14ec:	10480000 	subne	r0, r8, r0
    14f0:	0000060e 	andeq	r0, r0, lr, lsl #12
    14f4:	2ae30400 	bcs	ff8c24fc <__StackTop+0xdf8924fc>
    14f8:	000000ca 	andeq	r0, r0, sl, asr #1
    14fc:	0c0e104c 	stceq	0, cr1, [lr], {76}	; 0x4c
    1500:	04000000 	streq	r0, [r0], #-0
    1504:	00cf2ae4 	sbceq	r2, pc, r4, ror #21
    1508:	10500000 	subsne	r0, r0, r0
    150c:	0000a10e 	andeq	sl, r0, lr, lsl #2
    1510:	2ae50400 	bcs	ff942518 <__StackTop+0xdf912518>
    1514:	000000cf 	andeq	r0, r0, pc, asr #1
    1518:	d10e1054 	qaddle	r1, r4, lr
    151c:	04000001 	streq	r0, [r0], #-1
    1520:	00cf2ae6 	sbceq	r2, pc, r6, ror #21
    1524:	10580000 	subsne	r0, r8, r0
    1528:	0002cc0e 	andeq	ip, r2, lr, lsl #24
    152c:	2ae70400 	bcs	ff9c2534 <__StackTop+0xdf992534>
    1530:	000000cf 	andeq	r0, r0, pc, asr #1
    1534:	b00e105c 	andlt	r1, lr, ip, asr r0
    1538:	04000000 	streq	r0, [r0], #-0
    153c:	00cf2ae8 	sbceq	r2, pc, r8, ror #21
    1540:	10600000 	rsbne	r0, r0, r0
    1544:	00970700 	addseq	r0, r7, r0, lsl #14
    1548:	04ba0000 	ldrteq	r0, [sl], #0
    154c:	c30f0000 	movwgt	r0, #61440	; 0xf000
    1550:	fb000000 	blx	155a <__addsf3+0x10a>
    1554:	8d0c000f 	stchi	0, cr0, [ip, #-60]	; 0xffffffc4
    1558:	04000000 	streq	r0, [r0], #-0
    155c:	03352ae9 	teqeq	r5, #954368	; 0xe9000
    1560:	37100000 	ldrcc	r0, [r0, -r0]
    1564:	0100000a 	tsteq	r0, sl
    1568:	00080424 	andeq	r0, r8, r4, lsr #8
    156c:	00003400 	andeq	r3, r0, r0, lsl #8
    1570:	fa9c0100 	blx	fe701978 <__StackTop+0xde6d1978>
    1574:	11000004 	tstne	r0, r4
    1578:	00000bf0 	strdeq	r0, [r0], -r0	; <UNPREDICTABLE>
    157c:	00252401 	eoreq	r2, r5, r1, lsl #8
    1580:	05170000 	ldreq	r0, [r7, #-0]
    1584:	6d120000 	ldcvs	0, cr0, [r2, #-0]
    1588:	0100646f 	tsteq	r0, pc, ror #8
    158c:	0000a228 	andeq	sl, r0, r8, lsr #4
    1590:	00053800 	andeq	r3, r5, r0, lsl #16
    1594:	16100000 	ldrne	r0, [r0], -r0
    1598:	0100000a 	tsteq	r0, sl
    159c:	00000034 	andeq	r0, r0, r4, lsr r0
    15a0:	0000a400 	andeq	sl, r0, r0, lsl #8
    15a4:	4a9c0100 	bmi	fe7019ac <__StackTop+0xde6d19ac>
    15a8:	11000005 	tstne	r0, r5
    15ac:	00000aba 			; <UNDEFINED> instruction: 0x00000aba
    15b0:	00b83401 	adcseq	r3, r8, r1, lsl #8
    15b4:	05850000 	streq	r0, [r5]
    15b8:	69120000 	ldmdbvs	r2, {}	; <UNPREDICTABLE>
    15bc:	90360100 	eorsls	r0, r6, r0, lsl #2
    15c0:	b5000000 	strlt	r0, [r0, #-0]
    15c4:	13000005 	movwne	r0, #5
    15c8:	00000ae3 	andeq	r0, r0, r3, ror #21
    15cc:	00903701 	addseq	r3, r0, r1, lsl #14
    15d0:	05c80000 	strbeq	r0, [r8]
    15d4:	ae130000 	cdpge	0, 1, cr0, cr3, cr0, {0}
    15d8:	0100000a 	tsteq	r0, sl
    15dc:	00009038 	andeq	r9, r0, r8, lsr r0
    15e0:	0005fd00 	andeq	pc, r5, r0, lsl #26
    15e4:	1f140000 	svcne	0x00140000
    15e8:	0100000a 	tsteq	r0, sl
    15ec:	0008387c 	andeq	r3, r8, ip, ror r8
    15f0:	00002400 	andeq	r2, r0, r0, lsl #8
    15f4:	159c0100 	ldrne	r0, [ip, #256]	; 0x100
    15f8:	00000a08 	andeq	r0, r0, r8, lsl #20
    15fc:	056c1901 	strbeq	r1, [ip, #-2305]!	; 0xfffff6ff
    1600:	03050000 	movweq	r0, #20480	; 0x5000
    1604:	1fff0224 	svcne	0x00ff0224
    1608:	00002505 	andeq	r2, r0, r5, lsl #10
    160c:	0a761500 	beq	1d86a14 <__exidx_end+0x1d8445c>
    1610:	1a010000 	bne	41618 <__exidx_end+0x3f060>
    1614:	00000025 	andeq	r0, r0, r5, lsr #32
    1618:	00000305 	andeq	r0, r0, r5, lsl #6
    161c:	8e150000 	cdphi	0, 1, cr0, cr5, cr0, {0}
    1620:	0100000a 	tsteq	r0, sl
    1624:	0000251b 	andeq	r2, r0, fp, lsl r5
    1628:	28030500 	stmdacs	r3, {r8, sl}
    162c:	161fff02 	ldrne	pc, [pc], -r2, lsl #30
    1630:	0000032d 	andeq	r0, r0, sp, lsr #6
    1634:	9f06a705 	svcls	0x0006a705
    1638:	05000005 	streq	r0, [r0, #-5]
    163c:	000000ad 	andeq	r0, r0, sp, lsr #1
    1640:	00029817 	andeq	r9, r2, r7, lsl r8
    1644:	b8440600 	stmdalt	r4, {r9, sl}^
    1648:	00000000 	andeq	r0, r0, r0
    164c:	0000074c 	andeq	r0, r0, ip, asr #14
    1650:	05420004 	strbeq	r0, [r2, #-4]
    1654:	01040000 	mrseq	r0, (UNDEF: 4)
    1658:	000000bc 	strheq	r0, [r0], -ip
    165c:	000b910c 	andeq	r9, fp, ip, lsl #2
    1660:	0001d700 	andeq	sp, r1, r0, lsl #14
    1664:	00009000 	andeq	r9, r0, r0
    1668:	00000000 	andeq	r0, r0, r0
    166c:	0004a600 	andeq	sl, r4, r0, lsl #12
    1670:	04040200 	streq	r0, [r4], #-512	; 0xfffffe00
    1674:	000003fd 	strdeq	r0, [r0], -sp
    1678:	1b060102 	blne	181a88 <__exidx_end+0x17f4d0>
    167c:	03000002 	movweq	r0, #2
    1680:	00000349 	andeq	r0, r0, r9, asr #6
    1684:	003e1d02 	eorseq	r1, lr, r2, lsl #26
    1688:	01020000 	mrseq	r0, (UNDEF: 2)
    168c:	00021908 	andeq	r1, r2, r8, lsl #18
    1690:	0be00300 	bleq	ff802298 <__StackTop+0xdf7d2298>
    1694:	29020000 	stmdbcs	r2, {}	; <UNPREDICTABLE>
    1698:	00000050 	andeq	r0, r0, r0, asr r0
    169c:	a6050202 	strge	r0, [r5], -r2, lsl #4
    16a0:	02000000 	andeq	r0, r0, #0
    16a4:	026e0702 	rsbeq	r0, lr, #524288	; 0x80000
    16a8:	fe030000 	cdp2	0, 0, cr0, cr3, cr0, {0}
    16ac:	02000002 	andeq	r0, r0, #2
    16b0:	0000693f 	andeq	r6, r0, pc, lsr r9
    16b4:	05040200 	streq	r0, [r4, #-512]	; 0xfffffe00
    16b8:	00000197 	muleq	r0, r7, r1
    16bc:	00007a03 	andeq	r7, r0, r3, lsl #20
    16c0:	7b410200 	blvc	1041ec8 <__exidx_end+0x103f910>
    16c4:	02000000 	andeq	r0, r0, #0
    16c8:	02310704 	eorseq	r0, r1, #4, 14	; 0x100000
    16cc:	08020000 	stmdaeq	r2, {}	; <UNPREDICTABLE>
    16d0:	00019205 	andeq	r9, r1, r5, lsl #4
    16d4:	07080200 	streq	r0, [r8, -r0, lsl #4]
    16d8:	0000022c 	andeq	r0, r0, ip, lsr #4
    16dc:	69050404 	stmdbvs	r5, {r2, sl}
    16e0:	0200746e 	andeq	r7, r0, #1845493760	; 0x6e000000
    16e4:	02360704 	eorseq	r0, r6, #4, 14	; 0x100000
    16e8:	4b030000 	blmi	c16f0 <__exidx_end+0xbf138>
    16ec:	03000003 	movweq	r0, #3
    16f0:	00003314 	andeq	r3, r0, r4, lsl r3
    16f4:	0be20300 	bleq	ff8822fc <__StackTop+0xdf8522fc>
    16f8:	19030000 	stmdbne	r3, {}	; <UNPREDICTABLE>
    16fc:	00000045 	andeq	r0, r0, r5, asr #32
    1700:	00030003 	andeq	r0, r3, r3
    1704:	5e1f0300 	cdppl	3, 1, cr0, cr15, cr0, {0}
    1708:	03000000 	movweq	r0, #0
    170c:	0000007c 	andeq	r0, r0, ip, ror r0
    1710:	00702003 	rsbseq	r2, r0, r3
    1714:	04020000 	streq	r0, [r2], #-0
    1718:	00005507 	andeq	r5, r0, r7, lsl #10
    171c:	00bf0500 	adcseq	r0, pc, r0, lsl #10
    1720:	d1060000 	mrsle	r0, (UNDEF: 6)
    1724:	07000000 	streq	r0, [r0, -r0]
    1728:	0000009e 	muleq	r0, lr, r0
    172c:	000000eb 	andeq	r0, r0, fp, ror #1
    1730:	0000ca08 	andeq	ip, r0, r8, lsl #20
    1734:	07000300 	streq	r0, [r0, -r0, lsl #6]
    1738:	0000009e 	muleq	r0, lr, r0
    173c:	000000fb 	strdeq	r0, [r0], -fp
    1740:	0000ca08 	andeq	ip, r0, r8, lsl #20
    1744:	07001b00 	streq	r1, [r0, -r0, lsl #22]
    1748:	0000009e 	muleq	r0, lr, r0
    174c:	0000010b 	andeq	r0, r0, fp, lsl #2
    1750:	0000ca08 	andeq	ip, r0, r8, lsl #20
    1754:	07000700 	streq	r0, [r0, -r0, lsl #14]
    1758:	0000009e 	muleq	r0, lr, r0
    175c:	0000011b 	andeq	r0, r0, fp, lsl r1
    1760:	0000ca08 	andeq	ip, r0, r8, lsl #20
    1764:	09001700 	stmdbeq	r0, {r8, r9, sl, ip}
    1768:	1a590418 	bne	16427d0 <__exidx_end+0x1640218>
    176c:	00000173 	andeq	r0, r0, r3, ror r1
    1770:	000c170a 	andeq	r1, ip, sl, lsl #14
    1774:	1a5a0400 	bne	168277c <__exidx_end+0x16801c4>
    1778:	000000d1 	ldrdeq	r0, [r0], -r1
    177c:	0b280a00 	bleq	a03f84 <__exidx_end+0xa019cc>
    1780:	5b040000 	blpl	101788 <__exidx_end+0xff1d0>
    1784:	0000d11a 	andeq	sp, r0, sl, lsl r1
    1788:	eb0a0400 	bl	282790 <__exidx_end+0x2801d8>
    178c:	0400000a 	streq	r0, [r0], #-10
    1790:	00d11a5c 	sbcseq	r1, r1, ip, asr sl
    1794:	0a080000 	beq	20179c <__exidx_end+0x1ff1e4>
    1798:	00000af0 	strdeq	r0, [r0], -r0	; <UNPREDICTABLE>
    179c:	d11a5d04 	tstle	sl, r4, lsl #26
    17a0:	0c000000 	stceq	0, cr0, [r0], {-0}
    17a4:	000b3b0a 	andeq	r3, fp, sl, lsl #22
    17a8:	1a5e0400 	bne	17827b0 <__exidx_end+0x17801f8>
    17ac:	000000d6 	ldrdeq	r0, [r0], -r6
    17b0:	0c1c0a10 	ldceq	10, cr0, [ip], {16}
    17b4:	5f040000 	svcpl	0x00040000
    17b8:	0000d11a 	andeq	sp, r0, sl, lsl r1
    17bc:	0b001400 	bleq	67c4 <__exidx_end+0x420c>
    17c0:	00000b87 	andeq	r0, r0, r7, lsl #23
    17c4:	1b1a6004 	blne	6997dc <__exidx_end+0x697224>
    17c8:	09000001 	stmdbeq	r0, {r0}
    17cc:	24ba04cc 	ldrtcs	r0, [sl], #1228	; 0x4cc
    17d0:	000001fe 	strdeq	r0, [r0], -lr
    17d4:	5243500c 	subpl	r5, r3, #12
    17d8:	24bb0400 	ldrtcs	r0, [fp], #1024	; 0x400
    17dc:	0000020e 	andeq	r0, r0, lr, lsl #4
    17e0:	02430a00 	subeq	r0, r3, #0, 20
    17e4:	bc040000 	stclt	0, cr0, [r4], {-0}
    17e8:	0000d124 	andeq	sp, r0, r4, lsr #2
    17ec:	fd0a8000 	stc2	0, cr8, [sl, #-0]
    17f0:	04000001 	streq	r0, [r0], #-1
    17f4:	00d124bd 	ldrheq	r2, [r1], #77	; 0x4d
    17f8:	0a840000 	beq	fe101800 <__StackTop+0xde0d1800>
    17fc:	000002d2 	ldrdeq	r0, [r0], -r2
    1800:	0b24be04 	bleq	931018 <__exidx_end+0x92ea60>
    1804:	88000001 	stmdahi	r0, {r0}
    1808:	0002270a 	andeq	r2, r2, sl, lsl #14
    180c:	24bf0400 	ldrtcs	r0, [pc], #1024	; 1814 <__aeabi_fdiv+0x4c>
    1810:	000000d1 	ldrdeq	r0, [r0], -r1
    1814:	02dd0aa0 	sbcseq	r0, sp, #160, 20	; 0xa0000
    1818:	c0040000 	andgt	r0, r4, r0
    181c:	0000eb24 	andeq	lr, r0, r4, lsr #22
    1820:	3a0aa400 	bcc	2aa828 <__exidx_end+0x2a8270>
    1824:	04000003 	streq	r0, [r0], #-3
    1828:	00d124c1 	sbcseq	r2, r1, r1, asr #9
    182c:	0ac00000 	beq	ff001834 <__StackTop+0xdefd1834>
    1830:	0000025e 	andeq	r0, r0, lr, asr r2
    1834:	d124c204 	teqle	r4, r4, lsl #4
    1838:	c4000000 	strgt	r0, [r0], #-0
    183c:	0002c70a 	andeq	ip, r2, sl, lsl #14
    1840:	24c30400 	strbcs	r0, [r3], #1024	; 0x400
    1844:	000000d1 	ldrdeq	r0, [r0], -r1
    1848:	bf0700c8 	svclt	0x000700c8
    184c:	0e000000 	cdpeq	0, 0, cr0, cr0, cr0, {0}
    1850:	08000002 	stmdaeq	r0, {r1}
    1854:	000000ca 	andeq	r0, r0, sl, asr #1
    1858:	fe05001f 	mcr2	0, 0, r0, cr5, cr15, {0}
    185c:	0b000001 	bleq	1868 <__aeabi_fdiv+0xa0>
    1860:	0000033f 	andeq	r0, r0, pc, lsr r3
    1864:	7f24c404 	svcvc	0x0024c404
    1868:	0d000001 	stceq	0, cr0, [r0, #-4]
    186c:	ce041064 	cdpgt	0, 0, cr1, cr4, cr4, {3}
    1870:	0003932a 	andeq	r9, r3, sl, lsr #6
    1874:	02920a00 	addseq	r0, r2, #0, 20
    1878:	cf040000 	svcgt	0x00040000
    187c:	0000d12a 	andeq	sp, r0, sl, lsr #2
    1880:	460a0000 	strmi	r0, [sl], -r0
    1884:	04000000 	streq	r0, [r0], #-0
    1888:	00d12ad0 	ldrsbeq	r2, [r1], #160	; 0xa0
    188c:	0a040000 	beq	101894 <__exidx_end+0xff2dc>
    1890:	000002d2 	ldrdeq	r0, [r0], -r2
    1894:	932ad104 	teqls	sl, #4, 2
    1898:	08000003 	stmdaeq	r0, {r0, r1}
    189c:	0002a80e 	andeq	sl, r2, lr, lsl #16
    18a0:	2ad20400 	bcs	ff4828a8 <__StackTop+0xdf4528a8>
    18a4:	000000d1 	ldrdeq	r0, [r0], -r1
    18a8:	dd0e1004 	stcle	0, cr1, [lr, #-16]
    18ac:	04000002 	streq	r0, [r0], #-2
    18b0:	00db2ad3 	ldrsbeq	r2, [fp], #163	; 0xa3
    18b4:	10080000 	andne	r0, r8, r0
    18b8:	0003530e 	andeq	r5, r3, lr, lsl #6
    18bc:	2ad40400 	bcs	ff5028c4 <__StackTop+0xdf4d28c4>
    18c0:	000000d1 	ldrdeq	r0, [r0], -r1
    18c4:	000e100c 	andeq	r1, lr, ip
    18c8:	04000000 	streq	r0, [r0], #-0
    18cc:	00d12ad5 	ldrsbeq	r2, [r1], #165	; 0xa5
    18d0:	10100000 	andsne	r0, r0, r0
    18d4:	0002e80e 	andeq	lr, r2, lr, lsl #16
    18d8:	2ad60400 	bcs	ff5828e0 <__StackTop+0xdf5528e0>
    18dc:	000000db 	ldrdeq	r0, [r0], -fp
    18e0:	030e1014 	movweq	r1, #57364	; 0xe014
    18e4:	04000002 	streq	r0, [r0], #-2
    18e8:	00d12ad7 	ldrsbeq	r2, [r1], #167	; 0xa7
    18ec:	10180000 	andsne	r0, r8, r0
    18f0:	0002f30e 	andeq	pc, r2, lr, lsl #6
    18f4:	2ad80400 	bcs	ff6028fc <__StackTop+0xdf5d28fc>
    18f8:	000000fb 	strdeq	r0, [r0], -fp
    18fc:	410e101c 	tstmi	lr, ip, lsl r0
    1900:	04000000 	streq	r0, [r0], #-0
    1904:	00d62ad9 	ldrsbeq	r2, [r6], #169	; 0xa9
    1908:	10240000 	eorne	r0, r4, r0
    190c:	0001a70e 	andeq	sl, r1, lr, lsl #14
    1910:	2ada0400 	bcs	ff682918 <__StackTop+0xdf652918>
    1914:	000000d1 	ldrdeq	r0, [r0], -r1
    1918:	ad0e1028 	stcge	0, cr1, [lr, #-160]	; 0xffffff60
    191c:	04000001 	streq	r0, [r0], #-1
    1920:	00d12adb 	ldrsbeq	r2, [r1], #171	; 0xab
    1924:	102c0000 	eorne	r0, ip, r0
    1928:	0001b30e 	andeq	fp, r1, lr, lsl #6
    192c:	2adc0400 	bcs	ff702934 <__StackTop+0xdf6d2934>
    1930:	000000d1 	ldrdeq	r0, [r0], -r1
    1934:	b90e1030 	stmdblt	lr, {r4, r5, ip}
    1938:	04000001 	streq	r0, [r0], #-1
    193c:	00d12add 	ldrsbeq	r2, [r1], #173	; 0xad
    1940:	10340000 	eorsne	r0, r4, r0
    1944:	0001bf0e 	andeq	fp, r1, lr, lsl #30
    1948:	2ade0400 	bcs	ff782950 <__StackTop+0xdf752950>
    194c:	000000d1 	ldrdeq	r0, [r0], -r1
    1950:	c50e1038 	strgt	r1, [lr, #-56]	; 0xffffffc8
    1954:	04000001 	streq	r0, [r0], #-1
    1958:	00d12adf 	ldrsbeq	r2, [r1], #175	; 0xaf
    195c:	103c0000 	eorsne	r0, ip, r0
    1960:	0001cb0e 	andeq	ip, r1, lr, lsl #22
    1964:	2ae00400 	bcs	ff80296c <__StackTop+0xdf7d296c>
    1968:	000000d1 	ldrdeq	r0, [r0], -r1
    196c:	090e1040 	stmdbeq	lr, {r6, ip}
    1970:	04000002 	streq	r0, [r0], #-2
    1974:	00d12ae1 	sbcseq	r2, r1, r1, ror #21
    1978:	10440000 	subne	r0, r4, r0
    197c:	0002110e 	andeq	r1, r2, lr, lsl #2
    1980:	2ae20400 	bcs	ff882988 <__StackTop+0xdf852988>
    1984:	000000d1 	ldrdeq	r0, [r0], -r1
    1988:	060e1048 	streq	r1, [lr], -r8, asr #32
    198c:	04000000 	streq	r0, [r0], #-0
    1990:	00d12ae3 	sbcseq	r2, r1, r3, ror #21
    1994:	104c0000 	subne	r0, ip, r0
    1998:	00000c0e 	andeq	r0, r0, lr, lsl #24
    199c:	2ae40400 	bcs	ff9029a4 <__StackTop+0xdf8d29a4>
    19a0:	000000d6 	ldrdeq	r0, [r0], -r6
    19a4:	a10e1050 	qaddge	r1, r0, lr
    19a8:	04000000 	streq	r0, [r0], #-0
    19ac:	00d62ae5 	sbcseq	r2, r6, r5, ror #21
    19b0:	10540000 	subsne	r0, r4, r0
    19b4:	0001d10e 	andeq	sp, r1, lr, lsl #2
    19b8:	2ae60400 	bcs	ff9829c0 <__StackTop+0xdf9529c0>
    19bc:	000000d6 	ldrdeq	r0, [r0], -r6
    19c0:	cc0e1058 	stcgt	0, cr1, [lr], {88}	; 0x58
    19c4:	04000002 	streq	r0, [r0], #-2
    19c8:	00d62ae7 	sbcseq	r2, r6, r7, ror #21
    19cc:	105c0000 	subsne	r0, ip, r0
    19d0:	0000b00e 	andeq	fp, r0, lr
    19d4:	2ae80400 	bcs	ffa029dc <__StackTop+0xdf9d29dc>
    19d8:	000000d6 	ldrdeq	r0, [r0], -r6
    19dc:	07001060 	streq	r1, [r0, -r0, rrx]
    19e0:	0000009e 	muleq	r0, lr, r0
    19e4:	000003a4 	andeq	r0, r0, r4, lsr #7
    19e8:	0000ca0f 	andeq	ip, r0, pc, lsl #20
    19ec:	000ffb00 	andeq	pc, pc, r0, lsl #22
    19f0:	00008d0b 	andeq	r8, r0, fp, lsl #26
    19f4:	2ae90400 	bcs	ffa429fc <__StackTop+0xdfa129fc>
    19f8:	0000021f 	andeq	r0, r0, pc, lsl r2
    19fc:	0003ae10 	andeq	sl, r3, r0, lsl lr
    1a00:	1e053400 	cfcpysne	mvf3, mvf5
    1a04:	00000432 	andeq	r0, r0, r2, lsr r4
    1a08:	00706b11 	rsbseq	r6, r0, r1, lsl fp
    1a0c:	00251f05 	eoreq	r1, r5, r5, lsl #30
    1a10:	11000000 	mrsne	r0, (UNDEF: 0)
    1a14:	0500646b 	streq	r6, [r0, #-1131]	; 0xfffffb95
    1a18:	00002520 	andeq	r2, r0, r0, lsr #10
    1a1c:	6b110400 	blvs	442a24 <__exidx_end+0x44046c>
    1a20:	21050069 	tstcs	r5, r9, rrx
    1a24:	00000025 	andeq	r0, r0, r5, lsr #32
    1a28:	03e21208 	mvneq	r1, #8, 4	; 0x80000000
    1a2c:	22050000 	andcs	r0, r5, #0
    1a30:	00000025 	andeq	r0, r0, r5, lsr #32
    1a34:	03bc120c 			; <UNDEFINED> instruction: 0x03bc120c
    1a38:	23050000 	movwcs	r0, #20480	; 0x5000
    1a3c:	00000025 	andeq	r0, r0, r5, lsr #32
    1a40:	03721210 	cmneq	r2, #16, 4
    1a44:	24050000 	strcs	r0, [r5], #-0
    1a48:	00000025 	andeq	r0, r0, r5, lsr #32
    1a4c:	03951214 	orrseq	r1, r5, #20, 4	; 0x40000001
    1a50:	25050000 	strcs	r0, [r5, #-0]
    1a54:	00000025 	andeq	r0, r0, r5, lsr #32
    1a58:	03e71218 	mvneq	r1, #24, 4	; 0x80000001
    1a5c:	26050000 	strcs	r0, [r5], -r0
    1a60:	00000025 	andeq	r0, r0, r5, lsr #32
    1a64:	03c6121c 	biceq	r1, r6, #28, 4	; 0xc0000001
    1a68:	27050000 	strcs	r0, [r5, -r0]
    1a6c:	00000025 	andeq	r0, r0, r5, lsr #32
    1a70:	03d91220 	bicseq	r1, r9, #32, 4
    1a74:	28050000 	stmdacs	r5, {}	; <UNPREDICTABLE>
    1a78:	00000432 	andeq	r0, r0, r2, lsr r4
    1a7c:	25070024 	strcs	r0, [r7, #-36]	; 0xffffffdc
    1a80:	42000000 	andmi	r0, r0, #0
    1a84:	08000004 	stmdaeq	r0, {r2}
    1a88:	000000ca 	andeq	r0, r0, sl, asr #1
    1a8c:	01020003 	tsteq	r2, r3
    1a90:	00022208 	andeq	r2, r2, r8, lsl #4
    1a94:	0b981300 	bleq	fe60669c <__StackTop+0xde5d669c>
    1a98:	4a010000 	bmi	41aa0 <__exidx_end+0x3f4e8>
    1a9c:	00000860 	andeq	r0, r0, r0, ror #16
    1aa0:	000000b0 	strheq	r0, [r0], -r0	; <UNPREDICTABLE>
    1aa4:	04c89c01 	strbeq	r9, [r8], #3073	; 0xc01
    1aa8:	0b140000 	bleq	501ab0 <__exidx_end+0x4ff4f8>
    1aac:	0100000c 	tsteq	r0, ip
    1ab0:	0000904b 	andeq	r9, r0, fp, asr #32
    1ab4:	00061c00 	andeq	r1, r6, r0, lsl #24
    1ab8:	0bcd1500 	bleq	ff346ec0 <__StackTop+0xdf316ec0>
    1abc:	4c010000 	stcmi	0, cr0, [r1], {-0}
    1ac0:	00000090 	muleq	r0, r0, r0
    1ac4:	000a3716 	andeq	r3, sl, r6, lsl r7
    1ac8:	90510100 	subsls	r0, r1, r0, lsl #2
    1acc:	89000000 	stmdbhi	r0, {}	; <UNPREDICTABLE>
    1ad0:	17000004 	strne	r0, [r0, -r4]
    1ad4:	08941800 	ldmeq	r4, {fp, ip}
    1ad8:	07020000 	streq	r0, [r2, -r0]
    1adc:	04a00000 	strteq	r0, [r0], #0
    1ae0:	01190000 	tsteq	r9, r0
    1ae4:	4c030550 	cfstr32mi	mvfx0, [r3], {80}	; 0x50
    1ae8:	001fff03 	andseq	pc, pc, r3, lsl #30
    1aec:	0008d218 	andeq	sp, r8, r8, lsl r2
    1af0:	00070d00 	andeq	r0, r7, r0, lsl #26
    1af4:	0004be00 	andeq	fp, r4, r0, lsl #28
    1af8:	50011900 	andpl	r1, r1, r0, lsl #18
    1afc:	02d40305 	sbcseq	r0, r4, #335544320	; 0x14000000
    1b00:	01191fff 			; <UNDEFINED> instruction: 0x01191fff
    1b04:	05f50352 	ldrbeq	r0, [r5, #850]!	; 0x352
    1b08:	e21a0025 	ands	r0, sl, #37	; 0x25
    1b0c:	18000008 	stmdane	r0, {r3}
    1b10:	00000007 	andeq	r0, r0, r7
    1b14:	000b231b 	andeq	r2, fp, fp, lsl r3
    1b18:	901b0100 	andsls	r0, fp, r0, lsl #2
    1b1c:	10000000 	andne	r0, r0, r0
    1b20:	e0000009 	and	r0, r0, r9
    1b24:	01000001 	tsteq	r0, r1
    1b28:	0006059c 	muleq	r6, ip, r5
    1b2c:	0bc41400 	bleq	ff106b34 <__StackTop+0xdf0d6b34>
    1b30:	1c010000 	stcne	0, cr0, [r1], {-0}
    1b34:	00000090 	muleq	r0, r0, r0
    1b38:	00000651 	andeq	r0, r0, r1, asr r6
    1b3c:	6675621c 			; <UNDEFINED> instruction: 0x6675621c
    1b40:	051d0100 	ldreq	r0, [sp, #-256]	; 0xffffff00
    1b44:	03000006 	movweq	r0, #6
    1b48:	1477f091 	ldrbtne	pc, [r7], #-145	; 0xffffff6f	; <UNPREDICTABLE>
    1b4c:	00000bd7 	ldrdeq	r0, [r0], -r7
    1b50:	00901e01 	addseq	r1, r0, r1, lsl #28
    1b54:	068a0000 	streq	r0, [sl], r0
    1b58:	e7160000 	ldr	r0, [r6, -r0]
    1b5c:	01000008 	tsteq	r0, r8
    1b60:	0000903f 	andeq	r9, r0, pc, lsr r0
    1b64:	00051f00 	andeq	r1, r5, r0, lsl #30
    1b68:	1d001700 	stcne	7, cr1, [r0, #-0]
    1b6c:	0000097c 	andeq	r0, r0, ip, ror r9
    1b70:	00000723 	andeq	r0, r0, r3, lsr #14
    1b74:	0009b418 	andeq	fp, r9, r8, lsl r4
    1b78:	00072e00 	andeq	r2, r7, r0, lsl #28
    1b7c:	00055500 	andeq	r5, r5, r0, lsl #10
    1b80:	50011900 	andpl	r1, r1, r0, lsl #18
    1b84:	03100305 	tsteq	r0, #335544320	; 0x14000000
    1b88:	01191fff 			; <UNDEFINED> instruction: 0x01191fff
    1b8c:	06f50352 	usateq	r0, #21, r2, asr #6
    1b90:	53011925 	movwpl	r1, #6437	; 0x1925
    1b94:	250bf503 	strcs	pc, [fp, #-1283]	; 0xfffffafd
    1b98:	0c7d0219 	lfmeq	f0, 2, [sp], #-100	; 0xffffff9c
    1b9c:	2506f503 	strcs	pc, [r6, #-1283]	; 0xfffffafd
    1ba0:	09da1800 	ldmibeq	sl, {fp, ip}^
    1ba4:	072e0000 	streq	r0, [lr, -r0]!
    1ba8:	058a0000 	streq	r0, [sl]
    1bac:	01190000 	tsteq	r9, r0
    1bb0:	4c030550 	cfstr32mi	mvfx0, [r3], {80}	; 0x50
    1bb4:	191fff03 	ldmdbne	pc, {r0, r1, r8, r9, sl, fp, ip, sp, lr, pc}	; <UNPREDICTABLE>
    1bb8:	f5035201 			; <UNDEFINED> instruction: 0xf5035201
    1bbc:	01192506 	tsteq	r9, r6, lsl #10
    1bc0:	06f50353 	usateq	r0, #21, r3, asr #6
    1bc4:	7d021925 	stcvc	9, cr1, [r2, #-148]	; 0xffffff6c
    1bc8:	06f50304 	ldrbteq	r0, [r5], r4, lsl #6
    1bcc:	7d021925 	stcvc	9, cr1, [r2, #-148]	; 0xffffff6c
    1bd0:	0bf50310 	bleq	ffd42818 <__StackTop+0xdfd12818>
    1bd4:	fa180025 	blx	601c70 <__exidx_end+0x5ff6b8>
    1bd8:	2e000009 	cdpcs	0, 0, cr0, cr0, cr9, {0}
    1bdc:	c7000007 	strgt	r0, [r0, -r7]
    1be0:	19000005 	stmdbne	r0, {r0, r2}
    1be4:	03055001 	movweq	r5, #20481	; 0x5001
    1be8:	1fff02d4 	svcne	0x00ff02d4
    1bec:	03520119 	cmpeq	r2, #1073741830	; 0x40000006
    1bf0:	192506f5 	stmdbne	r5!, {r0, r2, r4, r5, r6, r7, r9, sl}
    1bf4:	f5035301 			; <UNDEFINED> instruction: 0xf5035301
    1bf8:	02192506 	andseq	r2, r9, #25165824	; 0x1800000
    1bfc:	f503007d 			; <UNDEFINED> instruction: 0xf503007d
    1c00:	02192506 	andseq	r2, r9, #25165824	; 0x1800000
    1c04:	f503087d 			; <UNDEFINED> instruction: 0xf503087d
    1c08:	0219250b 	andseq	r2, r9, #46137344	; 0x2c00000
    1c0c:	f5030c7d 			; <UNDEFINED> instruction: 0xf5030c7d
    1c10:	18002506 	stmdane	r0, {r1, r2, r8, sl, sp}
    1c14:	00000a1c 	andeq	r0, r0, ip, lsl sl
    1c18:	00000739 	andeq	r0, r0, r9, lsr r7
    1c1c:	000005ea 	andeq	r0, r0, sl, ror #11
    1c20:	05500119 	ldrbeq	r0, [r0, #-281]	; 0xfffffee7
    1c24:	00086103 	andeq	r6, r8, r3, lsl #2
    1c28:	51011900 	tstpl	r1, r0, lsl #18
    1c2c:	77ec9108 	strbvc	r9, [ip, r8, lsl #2]!
    1c30:	03e80a06 	mvneq	r0, #24576	; 0x6000
    1c34:	701e001b 	andsvc	r0, lr, fp, lsl r0
    1c38:	4400000a 	strmi	r0, [r0], #-10
    1c3c:	19000007 	stmdbne	r0, {r0, r1, r2}
    1c40:	91035001 	tstls	r3, r1
    1c44:	011977f0 			; <UNDEFINED> instruction: 0x011977f0
    1c48:	10030551 	andne	r0, r3, r1, asr r5
    1c4c:	00000025 	andeq	r0, r0, r5, lsr #32
    1c50:	04420700 	strbeq	r0, [r2], #-1792	; 0xfffff900
    1c54:	06160000 	ldreq	r0, [r6], -r0
    1c58:	ca0f0000 	bgt	3c1c60 <__exidx_end+0x3bf6a8>
    1c5c:	e7000000 	str	r0, [r0, -r0]
    1c60:	081f0003 	ldmdaeq	pc, {r0, r1}	; <UNPREDICTABLE>
    1c64:	0100000b 	tsteq	r0, fp
    1c68:	00000067 	andeq	r0, r0, r7, rrx
    1c6c:	00000200 	andeq	r0, r0, r0, lsl #4
    1c70:	209c0100 	addscs	r0, ip, r0, lsl #2
    1c74:	0000032d 	andeq	r0, r0, sp, lsr #6
    1c78:	3306a706 	movwcc	sl, #26374	; 0x6706
    1c7c:	05000006 	streq	r0, [r0, #-6]
    1c80:	000000b4 	strheq	r0, [r0], -r4
    1c84:	00029821 	andeq	r9, r2, r1, lsr #16
    1c88:	bf440700 	svclt	0x00440700
    1c8c:	07000000 	streq	r0, [r0, -r0]
    1c90:	000000a9 	andeq	r0, r0, r9, lsr #1
    1c94:	00000653 	andeq	r0, r0, r3, asr r6
    1c98:	0000ca08 	andeq	ip, r0, r8, lsl #20
    1c9c:	22000300 	andcs	r0, r0, #0, 6
    1ca0:	00000bb8 			; <UNDEFINED> instruction: 0x00000bb8
    1ca4:	06641a08 	strbteq	r1, [r4], -r8, lsl #20
    1ca8:	03050000 	movweq	r0, #20480	; 0x5000
    1cac:	1fff0380 	svcne	0x00ff0380
    1cb0:	00064305 	andeq	r4, r6, r5, lsl #6
    1cb4:	0b402200 	bleq	100a4bc <__exidx_end+0x1007f04>
    1cb8:	11010000 	mrsne	r0, (UNDEF: 1)
    1cbc:	000003b0 			; <UNDEFINED> instruction: 0x000003b0
    1cc0:	03100305 	tsteq	r0, #335544320	; 0x14000000
    1cc4:	5a221fff 	bpl	889cc8 <__exidx_end+0x887710>
    1cc8:	0100000b 	tsteq	r0, fp
    1ccc:	0003b012 	andeq	fp, r3, r2, lsl r0
    1cd0:	d4030500 	strle	r0, [r3], #-1280	; 0xfffffb00
    1cd4:	221fff02 	andscs	pc, pc, #2, 30
    1cd8:	00000bfa 	strdeq	r0, [r0], -sl
    1cdc:	03b01301 	movseq	r1, #67108864	; 0x4000000
    1ce0:	03050000 	movweq	r0, #20480	; 0x5000
    1ce4:	1fff034c 	svcne	0x00ff034c
    1ce8:	000b7322 	andeq	r7, fp, r2, lsr #6
    1cec:	25140100 	ldrcs	r0, [r4, #-256]	; 0xffffff00
    1cf0:	05000000 	streq	r0, [r0, #-0]
    1cf4:	ff034803 			; <UNDEFINED> instruction: 0xff034803
    1cf8:	0af5221f 	beq	ffd4a57c <__StackTop+0xdfd1a57c>
    1cfc:	15010000 	strne	r0, [r1, #-0]
    1d00:	00000025 	andeq	r0, r0, r5, lsr #32
    1d04:	030c0305 	movweq	r0, #49925	; 0xc305
    1d08:	a3221fff 	teqge	r2, #1020	; 0x3fc
    1d0c:	0100000b 	tsteq	r0, fp
    1d10:	00009016 	andeq	r9, r0, r6, lsl r0
    1d14:	44030500 	strmi	r0, [r3], #-1280	; 0xfffffb00
    1d18:	221fff03 	andscs	pc, pc, #3, 30
    1d1c:	00000b2d 	andeq	r0, r0, sp, lsr #22
    1d20:	00251701 	eoreq	r1, r5, r1, lsl #14
    1d24:	03050000 	movweq	r0, #20480	; 0x5000
    1d28:	1fff02d0 	svcne	0x00ff02d0
    1d2c:	000bea22 	andeq	lr, fp, r2, lsr #20
    1d30:	90180100 	andsls	r0, r8, r0, lsl #2
    1d34:	05000000 	streq	r0, [r0, #-0]
    1d38:	ff038803 			; <UNDEFINED> instruction: 0xff038803
    1d3c:	0b4a221f 	bleq	128a5c0 <__exidx_end+0x1288008>
    1d40:	19010000 	stmdbne	r1, {}	; <UNPREDICTABLE>
    1d44:	00000090 	muleq	r0, r0, r0
    1d48:	03080305 	movweq	r0, #33541	; 0x8305
    1d4c:	62231fff 	eorvs	r1, r3, #1020	; 0x3fc
    1d50:	62000003 	andvs	r0, r0, #3
    1d54:	05000003 	streq	r0, [r0, #-3]
    1d58:	0383233f 	orreq	r2, r3, #-67108864	; 0xfc000000
    1d5c:	03830000 	orreq	r0, r3, #0
    1d60:	40050000 	andmi	r0, r5, r0
    1d64:	000a3723 	andeq	r3, sl, r3, lsr #14
    1d68:	000a3700 	andeq	r3, sl, r0, lsl #14
    1d6c:	23510100 	cmpcs	r1, #0, 2
    1d70:	00000b69 	andeq	r0, r0, r9, ror #22
    1d74:	00000b69 	andeq	r0, r0, r9, ror #22
    1d78:	a0231408 	eorge	r1, r3, r8, lsl #8
    1d7c:	a0000003 	andge	r0, r0, r3
    1d80:	05000003 	streq	r0, [r0, #-3]
    1d84:	08e72334 	stmiaeq	r7!, {r2, r4, r5, r8, r9, sp}^
    1d88:	08e70000 	stmiaeq	r7!, {}^	; <UNPREDICTABLE>
    1d8c:	3f010000 	svccc	0x00010000
    1d90:	000b5223 	andeq	r5, fp, r3, lsr #4
    1d94:	000b5200 	andeq	r5, fp, r0, lsl #4
    1d98:	00e10900 	rsceq	r0, r1, r0, lsl #18
    1d9c:	00000a9d 	muleq	r0, sp, sl
    1da0:	07340004 	ldreq	r0, [r4, -r4]!
    1da4:	01040000 	mrseq	r0, (UNDEF: 4)
    1da8:	000000bc 	strheq	r0, [r0], -ip
    1dac:	000c2b0c 	andeq	r2, ip, ip, lsl #22
    1db0:	0001d700 	andeq	sp, r1, r0, lsl #14
    1db4:	0000b000 	andeq	fp, r0, r0
    1db8:	00000000 	andeq	r0, r0, r0
    1dbc:	00062300 	andeq	r2, r6, r0, lsl #6
    1dc0:	06010200 	streq	r0, [r1], -r0, lsl #4
    1dc4:	0000021b 	andeq	r0, r0, fp, lsl r2
    1dc8:	00034903 	andeq	r4, r3, r3, lsl #18
    1dcc:	371d0400 	ldrcc	r0, [sp, -r0, lsl #8]
    1dd0:	02000000 	andeq	r0, r0, #0
    1dd4:	02190801 	andseq	r0, r9, #65536	; 0x10000
    1dd8:	e0030000 	and	r0, r3, r0
    1ddc:	0400000b 	streq	r0, [r0], #-11
    1de0:	00004929 	andeq	r4, r0, r9, lsr #18
    1de4:	05020200 	streq	r0, [r2, #-512]	; 0xfffffe00
    1de8:	000000a6 	andeq	r0, r0, r6, lsr #1
    1dec:	6e070202 	cdpvs	2, 0, cr0, cr7, cr2, {0}
    1df0:	03000002 	movweq	r0, #2
    1df4:	000002fe 	strdeq	r0, [r0], -lr
    1df8:	00623f04 	rsbeq	r3, r2, r4, lsl #30
    1dfc:	04020000 	streq	r0, [r2], #-0
    1e00:	00019705 	andeq	r9, r1, r5, lsl #14
    1e04:	007a0300 	rsbseq	r0, sl, r0, lsl #6
    1e08:	41040000 	mrsmi	r0, (UNDEF: 4)
    1e0c:	00000074 	andeq	r0, r0, r4, ror r0
    1e10:	31070402 	tstcc	r7, r2, lsl #8
    1e14:	02000002 	andeq	r0, r0, #2
    1e18:	01920508 	orrseq	r0, r2, r8, lsl #10
    1e1c:	08020000 	stmdaeq	r2, {}	; <UNPREDICTABLE>
    1e20:	00022c07 	andeq	r2, r2, r7, lsl #24
    1e24:	05040400 	streq	r0, [r4, #-1024]	; 0xfffffc00
    1e28:	00746e69 	rsbseq	r6, r4, r9, ror #28
    1e2c:	36070402 	strcc	r0, [r7], -r2, lsl #8
    1e30:	03000002 	movweq	r0, #2
    1e34:	0000034b 	andeq	r0, r0, fp, asr #6
    1e38:	002c1405 	eoreq	r1, ip, r5, lsl #8
    1e3c:	e2030000 	and	r0, r3, #0
    1e40:	0500000b 	streq	r0, [r0, #-11]
    1e44:	00003e19 	andeq	r3, r0, r9, lsl lr
    1e48:	03000300 	movweq	r0, #768	; 0x300
    1e4c:	1f050000 	svcne	0x00050000
    1e50:	00000057 	andeq	r0, r0, r7, asr r0
    1e54:	00007c03 	andeq	r7, r0, r3, lsl #24
    1e58:	69200500 	stmdbvs	r0!, {r8, sl}
    1e5c:	05000000 	streq	r0, [r0, #-0]
    1e60:	0000068b 	andeq	r0, r0, fp, lsl #13
    1e64:	00002501 	andeq	r2, r0, r1, lsl #10
    1e68:	0e790600 	cdpeq	6, 7, cr0, cr9, cr0, {0}
    1e6c:	06000003 	streq	r0, [r0], -r3
    1e70:	00000904 	andeq	r0, r0, r4, lsl #18
    1e74:	054f0672 	strbeq	r0, [pc, #-1650]	; 180a <__aeabi_fdiv+0x42>
    1e78:	06730000 	ldrbteq	r0, [r3], -r0
    1e7c:	00000617 	andeq	r0, r0, r7, lsl r6
    1e80:	05680674 	strbeq	r0, [r8, #-1652]!	; 0xfffff98c
    1e84:	06750000 	ldrbteq	r0, [r5], -r0
    1e88:	000008a3 	andeq	r0, r0, r3, lsr #17
    1e8c:	066c0676 			; <UNDEFINED> instruction: 0x066c0676
    1e90:	067b0000 	ldrbteq	r0, [fp], -r0
    1e94:	000009bf 			; <UNDEFINED> instruction: 0x000009bf
    1e98:	0897067c 	ldmeq	r7, {r2, r3, r4, r5, r6, r9, sl}
    1e9c:	067e0000 	ldrbteq	r0, [lr], -r0
    1ea0:	000006f2 	strdeq	r0, [r0], -r2
    1ea4:	0773077f 			; <UNDEFINED> instruction: 0x0773077f
    1ea8:	07000000 	streq	r0, [r0, -r0]
    1eac:	00000588 	andeq	r0, r0, r8, lsl #11
    1eb0:	08f10701 	ldmeq	r1!, {r0, r8, r9, sl}^
    1eb4:	07020000 	streq	r0, [r2, -r0]
    1eb8:	000004fd 	strdeq	r0, [r0], -sp
    1ebc:	05ef0703 	strbeq	r0, [pc, #1795]!	; 25c7 <__exidx_end+0xf>
    1ec0:	07040000 	streq	r0, [r4, -r0]
    1ec4:	000006e8 	andeq	r0, r0, r8, ror #13
    1ec8:	098f0705 	stmibeq	pc, {r0, r2, r8, r9, sl}	; <UNPREDICTABLE>
    1ecc:	07060000 	streq	r0, [r6, -r0]
    1ed0:	00000409 	andeq	r0, r0, r9, lsl #8
    1ed4:	04b10707 	ldrteq	r0, [r1], #1799	; 0x707
    1ed8:	07080000 	streq	r0, [r8, -r0]
    1edc:	00000787 	andeq	r0, r0, r7, lsl #15
    1ee0:	06850709 	streq	r0, [r5], r9, lsl #14
    1ee4:	070a0000 	streq	r0, [sl, -r0]
    1ee8:	00000753 	andeq	r0, r0, r3, asr r7
    1eec:	09d1070b 	ldmibeq	r1, {r0, r1, r3, r8, r9, sl}^
    1ef0:	070c0000 	streq	r0, [ip, -r0]
    1ef4:	0000044a 	andeq	r0, r0, sl, asr #8
    1ef8:	04dd070d 	ldrbeq	r0, [sp], #1805	; 0x70d
    1efc:	070e0000 	streq	r0, [lr, -r0]
    1f00:	000007f9 	strdeq	r0, [r0], -r9
    1f04:	0925070f 	stmdbeq	r5!, {r0, r1, r2, r3, r8, r9, sl}
    1f08:	07100000 	ldreq	r0, [r0, -r0]
    1f0c:	000008fb 	strdeq	r0, [r0], -fp
    1f10:	09340711 	ldmdbeq	r4!, {r0, r4, r8, r9, sl}
    1f14:	07120000 	ldreq	r0, [r2, -r0]
    1f18:	000006af 	andeq	r0, r0, pc, lsr #13
    1f1c:	070b0713 	smladeq	fp, r3, r7, r0
    1f20:	07140000 	ldreq	r0, [r4, -r0]
    1f24:	000009ac 	andeq	r0, r0, ip, lsr #19
    1f28:	04890715 	streq	r0, [r9], #1813	; 0x715
    1f2c:	07160000 	ldreq	r0, [r6, -r0]
    1f30:	0000052c 	andeq	r0, r0, ip, lsr #10
    1f34:	07b50717 			; <UNDEFINED> instruction: 0x07b50717
    1f38:	07180000 	ldreq	r0, [r8, -r0]
    1f3c:	0000085d 	andeq	r0, r0, sp, asr r8
    1f40:	05ad0719 	streq	r0, [sp, #1817]!	; 0x719
    1f44:	071a0000 	ldreq	r0, [sl, -r0]
    1f48:	0000069a 	muleq	r0, sl, r6
    1f4c:	0959071b 	ldmdbeq	r9, {r0, r1, r3, r4, r8, r9, sl}^
    1f50:	071c0000 	ldreq	r0, [ip, -r0]
    1f54:	00000918 	andeq	r0, r0, r8, lsl r9
    1f58:	0980071d 	stmibeq	r0, {r0, r2, r3, r4, r8, r9, sl}
    1f5c:	071e0000 	ldreq	r0, [lr, -r0]
    1f60:	000009dc 	ldrdeq	r0, [r0], -ip
    1f64:	05d1071f 	ldrbeq	r0, [r1, #1823]	; 0x71f
    1f68:	07200000 	streq	r0, [r0, -r0]!
    1f6c:	0000063c 	andeq	r0, r0, ip, lsr r6
    1f70:	05e00721 	strbeq	r0, [r0, #1825]!	; 0x721
    1f74:	07220000 	streq	r0, [r2, -r0]!
    1f78:	0000086c 	andeq	r0, r0, ip, ror #16
    1f7c:	05f90723 	ldrbeq	r0, [r9, #1827]!	; 0x723
    1f80:	07240000 	streq	r0, [r4, -r0]!
    1f84:	00000455 	andeq	r0, r0, r5, asr r4
    1f88:	06080725 	streq	r0, [r8], -r5, lsr #14
    1f8c:	07260000 	streq	r0, [r6, -r0]!
    1f90:	0000077d 	andeq	r0, r0, sp, ror r7
    1f94:	06de0727 	ldrbeq	r0, [lr], r7, lsr #14
    1f98:	07280000 	streq	r0, [r8, -r0]!
    1f9c:	000007bf 			; <UNDEFINED> instruction: 0x000007bf
    1fa0:	04e80729 	strbteq	r0, [r8], #1833	; 0x729
    1fa4:	072a0000 	streq	r0, [sl, -r0]!
    1fa8:	00000999 	muleq	r0, r9, r9
    1fac:	08bf072b 	ldmeq	pc!, {r0, r1, r3, r5, r8, r9, sl}	; <UNPREDICTABLE>
    1fb0:	072c0000 	streq	r0, [ip, -r0]!
    1fb4:	000004d4 	ldrdeq	r0, [r0], -r4
    1fb8:	0819072d 	ldmdaeq	r9, {r0, r2, r3, r5, r8, r9, sl}
    1fbc:	072e0000 	streq	r0, [lr, -r0]!
    1fc0:	0000065b 	andeq	r0, r0, fp, asr r6
    1fc4:	05c7072f 	strbeq	r0, [r7, #1839]	; 0x72f
    1fc8:	07300000 	ldreq	r0, [r0, -r0]!
    1fcc:	00000418 	andeq	r0, r0, r8, lsl r4
    1fd0:	09700731 	ldmdbeq	r0!, {r0, r4, r5, r8, r9, sl}^
    1fd4:	07320000 	ldreq	r0, [r2, -r0]!
    1fd8:	000009ed 	andeq	r0, r0, sp, ror #19
    1fdc:	055e0733 	ldrbeq	r0, [lr, #-1843]	; 0xfffff8cd
    1fe0:	07340000 	ldreq	r0, [r4, -r0]!
    1fe4:	00000474 	andeq	r0, r0, r4, ror r4
    1fe8:	06ff0735 			; <UNDEFINED> instruction: 0x06ff0735
    1fec:	07360000 	ldreq	r0, [r6, -r0]!
    1ff0:	0000043a 	andeq	r0, r0, sl, lsr r4
    1ff4:	06900737 			; <UNDEFINED> instruction: 0x06900737
    1ff8:	07380000 	ldreq	r0, [r8, -r0]!
    1ffc:	00000804 	andeq	r0, r0, r4, lsl #16
    2000:	06780739 			; <UNDEFINED> instruction: 0x06780739
    2004:	073a0000 	ldreq	r0, [sl, -r0]!
    2008:	000006a4 	andeq	r0, r0, r4, lsr #13
    200c:	0768073b 			; <UNDEFINED> instruction: 0x0768073b
    2010:	073c0000 	ldreq	r0, [ip, -r0]!
    2014:	00000817 	andeq	r0, r0, r7, lsl r8
    2018:	047e073d 	ldrbteq	r0, [lr], #-1853	; 0xfffff8c3
    201c:	073e0000 	ldreq	r0, [lr, -r0]!
    2020:	000004f2 	strdeq	r0, [r0], -r2
    2024:	042c073f 	strteq	r0, [ip], #-1855	; 0xfffff8c1
    2028:	07400000 	strbeq	r0, [r0, -r0]
    202c:	0000075e 	andeq	r0, r0, lr, asr r7
    2030:	06cd0741 	strbeq	r0, [sp], r1, asr #14
    2034:	07420000 	strbeq	r0, [r2, -r0]
    2038:	0000062d 	andeq	r0, r0, sp, lsr #12
    203c:	072a0743 	streq	r0, [sl, -r3, asr #14]!
    2040:	07440000 	strbeq	r0, [r4, -r0]
    2044:	000004c5 	andeq	r0, r0, r5, asr #9
    2048:	080d0745 	stmdaeq	sp, {r0, r2, r6, r8, r9, sl}
    204c:	07460000 	strbeq	r0, [r6, -r0]
    2050:	000006c3 	andeq	r0, r0, r3, asr #13
    2054:	04220747 	strteq	r0, [r2], #-1863	; 0xfffff8b9
    2058:	07480000 	strbeq	r0, [r8, -r0]
    205c:	00000796 	muleq	r0, r6, r7
    2060:	04bb0749 	ldrteq	r0, [fp], #1865	; 0x749
    2064:	074a0000 	strbeq	r0, [sl, -r0]
    2068:	000008c9 	andeq	r0, r0, r9, asr #17
    206c:	0718074b 	ldreq	r0, [r8, -fp, asr #14]
    2070:	074c0000 	strbeq	r0, [ip, -r0]
    2074:	00000517 	andeq	r0, r0, r7, lsl r5
    2078:	0497074d 	ldreq	r0, [r7], #1869	; 0x74d
    207c:	074e0000 	strbeq	r0, [lr, -r0]
    2080:	00000944 	andeq	r0, r0, r4, asr #18
    2084:	0592074f 	ldreq	r0, [r2, #1871]	; 0x74f
    2088:	07500000 	ldrbeq	r0, [r0, -r0]
    208c:	000009b5 			; <UNDEFINED> instruction: 0x000009b5
    2090:	053a0751 	ldreq	r0, [sl, #-1873]!	; 0xfffff8af
    2094:	07520000 	ldrbeq	r0, [r2, -r0]
    2098:	0000073b 	andeq	r0, r0, fp, lsr r7
    209c:	05760753 	ldrbeq	r0, [r6, #-1875]!	; 0xfffff8ad
    20a0:	07540000 	ldrbeq	r0, [r4, -r0]
    20a4:	00000507 	andeq	r0, r0, r7, lsl #10
    20a8:	87030055 	smlsdhi	r3, r5, r0, r0
    20ac:	06000008 	streq	r0, [r0], -r8
    20b0:	0000c3dc 	ldrdeq	ip, [r0], -ip	; <UNPREDICTABLE>
    20b4:	0e040800 	cdpeq	8, 0, cr0, cr4, cr0, {0}
    20b8:	d5015002 	strle	r5, [r1, #-2]
    20bc:	09000003 	stmdbeq	r0, {r0, r1}
    20c0:	00000527 	andeq	r0, r0, r7, lsr #10
    20c4:	ec015202 	sfm	f5, 4, [r1], {2}
    20c8:	00000003 	andeq	r0, r0, r3
    20cc:	0007c909 	andeq	ip, r7, r9, lsl #18
    20d0:	01530200 	cmpeq	r3, r0, lsl #4
    20d4:	000003f1 	strdeq	r0, [r0], -r1
    20d8:	07910920 	ldreq	r0, [r1, r0, lsr #18]
    20dc:	54020000 	strpl	r0, [r2], #-0
    20e0:	00040101 	andeq	r0, r4, r1, lsl #2
    20e4:	a3098000 	movwge	r8, #36864	; 0x9000
    20e8:	02000009 	andeq	r0, r0, #9
    20ec:	03f10155 	mvnseq	r0, #1073741845	; 0x40000015
    20f0:	0aa00000 	beq	fe8020f8 <__StackTop+0xde7d20f8>
    20f4:	000004ac 	andeq	r0, r0, ip, lsr #9
    20f8:	06015602 	streq	r5, [r1], -r2, lsl #12
    20fc:	00000004 	andeq	r0, r0, r4
    2100:	07d30a01 	ldrbeq	r0, [r3, r1, lsl #20]
    2104:	57020000 	strpl	r0, [r2, -r0]
    2108:	0003f101 	andeq	pc, r3, r1, lsl #2
    210c:	0a012000 	beq	4a114 <__exidx_end+0x47b5c>
    2110:	00000413 	andeq	r0, r0, r3, lsl r4
    2114:	0b015802 	bleq	58124 <__exidx_end+0x55b6c>
    2118:	80000004 	andhi	r0, r0, r4
    211c:	087d0a01 	ldmdaeq	sp!, {r0, r9, fp}^
    2120:	59020000 	stmdbpl	r2, {}	; <UNPREDICTABLE>
    2124:	0003f101 	andeq	pc, r3, r1, lsl #2
    2128:	0a01a000 	beq	6a130 <__exidx_end+0x67b78>
    212c:	0000074e 	andeq	r0, r0, lr, asr #14
    2130:	10015a02 	andne	r5, r1, r2, lsl #20
    2134:	00000004 	andeq	r0, r0, r4
    2138:	07dd0a02 	ldrbeq	r0, [sp, r2, lsl #20]
    213c:	5b020000 	blpl	82144 <__exidx_end+0x7fb8c>
    2140:	00041501 	andeq	r1, r4, r1, lsl #10
    2144:	0b022000 	bleq	8a14c <__exidx_end+0x87b94>
    2148:	02005049 	andeq	r5, r0, #73	; 0x49
    214c:	0435015c 	ldrteq	r0, [r5], #-348	; 0xfffffea4
    2150:	03000000 	movweq	r0, #0
    2154:	0007e70a 	andeq	lr, r7, sl, lsl #14
    2158:	015d0200 	cmpeq	sp, r0, lsl #4
    215c:	0000043a 	andeq	r0, r0, sl, lsr r4
    2160:	350a03f0 	strcc	r0, [sl, #-1008]	; 0xfffffc10
    2164:	02000004 	andeq	r0, r0, #4
    2168:	044b015e 	strbeq	r0, [fp], #-350	; 0xfffffea2
    216c:	0e000000 	cdpeq	0, 0, cr0, cr0, cr0, {0}
    2170:	00b80c00 	adcseq	r0, r8, r0, lsl #24
    2174:	03e50000 	mvneq	r0, #0
    2178:	e50d0000 	str	r0, [sp, #-0]
    217c:	07000003 	streq	r0, [r0, -r3]
    2180:	07040200 	streq	r0, [r4, -r0, lsl #4]
    2184:	00000055 	andeq	r0, r0, r5, asr r0
    2188:	0003d50e 	andeq	sp, r3, lr, lsl #10
    218c:	00b80c00 	adcseq	r0, r8, r0, lsl #24
    2190:	04010000 	streq	r0, [r1], #-0
    2194:	e50d0000 	str	r0, [sp, #-0]
    2198:	17000003 	strne	r0, [r0, -r3]
    219c:	03d50e00 	bicseq	r0, r5, #0, 28
    21a0:	d50e0000 	strle	r0, [lr, #-0]
    21a4:	0e000003 	cdpeq	0, 0, cr0, cr0, cr3, {0}
    21a8:	000003d5 	ldrdeq	r0, [r0], -r5
    21ac:	0003d50e 	andeq	sp, r3, lr, lsl #10
    21b0:	00b80c00 	adcseq	r0, r8, r0, lsl #24
    21b4:	04250000 	strteq	r0, [r5], #-0
    21b8:	e50d0000 	str	r0, [sp, #-0]
    21bc:	37000003 	strcc	r0, [r0, -r3]
    21c0:	00970c00 	addseq	r0, r7, r0, lsl #24
    21c4:	04350000 	ldrteq	r0, [r5], #-0
    21c8:	e50d0000 	str	r0, [sp, #-0]
    21cc:	ef000003 	svc	0x00000003
    21d0:	04250e00 	strteq	r0, [r5], #-3584	; 0xfffff200
    21d4:	b80c0000 	stmdalt	ip, {}	; <UNPREDICTABLE>
    21d8:	4b000000 	blmi	21e0 <_printf_i+0x20>
    21dc:	0f000004 	svceq	0x00000004
    21e0:	000003e5 	andeq	r0, r0, r5, ror #7
    21e4:	0e000283 	cdpeq	2, 0, cr0, cr0, cr3, {4}
    21e8:	000000b8 	strheq	r0, [r0], -r8
    21ec:	00083210 	andeq	r3, r8, r0, lsl r2
    21f0:	015f0200 	cmpeq	pc, r0, lsl #4
    21f4:	00000319 	andeq	r0, r0, r9, lsl r3
    21f8:	00044b11 	andeq	r4, r4, r1, lsl fp
    21fc:	00b80c00 	adcseq	r0, r8, r0, lsl #24
    2200:	04710000 	ldrbteq	r0, [r1], #-0
    2204:	e50d0000 	str	r0, [sp, #-0]
    2208:	01000003 	tsteq	r0, r3
    220c:	00970e00 	addseq	r0, r7, r0, lsl #28
    2210:	70120000 	andsvc	r0, r2, r0
    2214:	ce011f06 	cdpgt	15, 0, cr1, cr1, cr6, {0}
    2218:	13000005 	movwne	r0, #5
    221c:	00314353 	eorseq	r4, r1, r3, asr r3
    2220:	ce012006 	cdpgt	0, 0, cr2, cr1, cr6, {0}
    2224:	00000005 	andeq	r0, r0, r5
    2228:	00000709 	andeq	r0, r0, r9, lsl #14
    222c:	01210600 	teqeq	r1, r0, lsl #12
    2230:	0000044b 	andeq	r0, r0, fp, asr #8
    2234:	000d0908 	andeq	r0, sp, r8, lsl #18
    2238:	22060000 	andcs	r0, r6, #0
    223c:	00044b01 	andeq	r4, r4, r1, lsl #22
    2240:	52130c00 	andspl	r0, r3, #0, 24
    2244:	01230600 	teqeq	r3, r0, lsl #12
    2248:	000005d8 	ldrdeq	r0, [r0], -r8
    224c:	56431310 			; <UNDEFINED> instruction: 0x56431310
    2250:	24060031 	strcs	r0, [r6], #-49	; 0xffffffcf
    2254:	00044b01 	andeq	r4, r4, r1, lsl #22
    2258:	43131800 	tstmi	r3, #0, 16
    225c:	06003256 			; <UNDEFINED> instruction: 0x06003256
    2260:	044b0125 	strbeq	r0, [fp], #-293	; 0xfffffedb
    2264:	131c0000 	tstne	ip, #0
    2268:	00324353 	eorseq	r4, r2, r3, asr r3
    226c:	4b012606 	blmi	4ba8c <__exidx_end+0x494d4>
    2270:	20000004 	andcs	r0, r0, r4
    2274:	33435313 	movtcc	r5, #13075	; 0x3313
    2278:	01270600 	teqeq	r7, r0, lsl #12
    227c:	0000044b 	andeq	r0, r0, fp, asr #8
    2280:	464f1324 	strbmi	r1, [pc], -r4, lsr #6
    2284:	28060053 	stmdacs	r6, {r0, r1, r4, r6}
    2288:	00044b01 	andeq	r4, r4, r1, lsl #22
    228c:	50132800 	andspl	r2, r3, r0, lsl #16
    2290:	29060047 	stmdbcs	r6, {r0, r1, r2, r6}
    2294:	00044b01 	andeq	r4, r4, r1, lsl #22
    2298:	4d132c00 	ldcmi	12, cr2, [r3, #-0]
    229c:	2a060047 	bcs	1823c0 <__exidx_end+0x17fe08>
    22a0:	00044b01 	andeq	r4, r4, r1, lsl #22
    22a4:	21093000 	mrscs	r3, (UNDEF: 9)
    22a8:	0600000c 	streq	r0, [r0], -ip
    22ac:	044b012b 	strbeq	r0, [fp], #-299	; 0xfffffed5
    22b0:	09340000 	ldmdbeq	r4!, {}	; <UNPREDICTABLE>
    22b4:	00000c26 	andeq	r0, r0, r6, lsr #24
    22b8:	4b012c06 	blmi	4d2d8 <__exidx_end+0x4ad20>
    22bc:	38000004 	stmdacc	r0, {r2}
    22c0:	000ce109 	andeq	lr, ip, r9, lsl #2
    22c4:	012d0600 	teqeq	sp, r0, lsl #12
    22c8:	0000044b 	andeq	r0, r0, fp, asr #8
    22cc:	0cdc093c 	ldcleq	9, cr0, [ip], {60}	; 0x3c
    22d0:	2e060000 	cdpcs	0, 0, cr0, cr6, cr0, {0}
    22d4:	00044b01 	andeq	r4, r4, r1, lsl #22
    22d8:	d7094000 	strle	r4, [r9, -r0]
    22dc:	0600000c 	streq	r0, [r0], -ip
    22e0:	044b012f 	strbeq	r0, [fp], #-303	; 0xfffffed1
    22e4:	09440000 	stmdbeq	r4, {}^	; <UNPREDICTABLE>
    22e8:	00000cd2 	ldrdeq	r0, [r0], -r2
    22ec:	4b013006 	blmi	4e30c <__exidx_end+0x4bd54>
    22f0:	48000004 	stmdami	r0, {r2}
    22f4:	000ccd09 	andeq	ip, ip, r9, lsl #26
    22f8:	01310600 	teqeq	r1, r0, lsl #12
    22fc:	0000044b 	andeq	r0, r0, fp, asr #8
    2300:	02d2094c 	sbcseq	r0, r2, #76, 18	; 0x130000
    2304:	32060000 	andcc	r0, r6, #0
    2308:	0005dd01 	andeq	sp, r5, r1, lsl #26
    230c:	c2095000 	andgt	r5, r9, #0
    2310:	0600000c 	streq	r0, [r0], -ip
    2314:	044b0133 	strbeq	r0, [fp], #-307	; 0xfffffecd
    2318:	09540000 	ldmdbeq	r4, {}^	; <UNPREDICTABLE>
    231c:	00000ca2 	andeq	r0, r0, r2, lsr #25
    2320:	4b013406 	blmi	4f340 <__exidx_end+0x4cd88>
    2324:	58000004 	stmdapl	r0, {r2}
    2328:	000c9d09 	andeq	r9, ip, r9, lsl #26
    232c:	01350600 	teqeq	r5, r0, lsl #12
    2330:	0000044b 	andeq	r0, r0, fp, asr #8
    2334:	0c98095c 	ldceq	9, cr0, [r8], {92}	; 0x5c
    2338:	36060000 	strcc	r0, [r6], -r0
    233c:	00044b01 	andeq	r4, r4, r1, lsl #22
    2340:	93096000 	movwls	r6, #36864	; 0x9000
    2344:	0600000c 	streq	r0, [r0], -ip
    2348:	044b0137 	strbeq	r0, [fp], #-311	; 0xfffffec9
    234c:	09640000 	stmdbeq	r4!, {}^	; <UNPREDICTABLE>
    2350:	00000c8e 	andeq	r0, r0, lr, lsl #25
    2354:	4b013806 	blmi	50374 <__exidx_end+0x4ddbc>
    2358:	68000004 	stmdavs	r0, {r2}
    235c:	000c8909 	andeq	r8, ip, r9, lsl #18
    2360:	01390600 	teqeq	r9, r0, lsl #12
    2364:	0000044b 	andeq	r0, r0, fp, asr #8
    2368:	610e006c 	tstvs	lr, ip, rrx
    236c:	0e000004 	cdpeq	0, 0, cr0, cr0, cr4, {0}
    2370:	00000461 	andeq	r0, r0, r1, ror #8
    2374:	0005d311 	andeq	sp, r5, r1, lsl r3
    2378:	00970c00 	addseq	r0, r7, r0, lsl #24
    237c:	05ed0000 	strbeq	r0, [sp, #0]!
    2380:	e50d0000 	str	r0, [sp, #-0]
    2384:	03000003 	movweq	r0, #3
    2388:	0cb91000 	ldceq	0, cr1, [r9]
    238c:	3a060000 	bcc	182394 <__exidx_end+0x17fddc>
    2390:	00047601 	andeq	r7, r4, r1, lsl #12
    2394:	00970c00 	addseq	r0, r7, r0, lsl #24
    2398:	06090000 	streq	r0, [r9], -r0
    239c:	e50d0000 	str	r0, [sp, #-0]
    23a0:	07000003 	streq	r0, [r0, -r3]
    23a4:	00970c00 	addseq	r0, r7, r0, lsl #24
    23a8:	06190000 	ldreq	r0, [r9], -r0
    23ac:	e50d0000 	str	r0, [sp, #-0]
    23b0:	2f000003 	svccs	0x00000003
    23b4:	06021200 	streq	r1, [r2], -r0, lsl #4
    23b8:	063d0c43 	ldrteq	r0, [sp], -r3, asr #24
    23bc:	55090000 	strpl	r0, [r9, #-0]
    23c0:	0600000c 	streq	r0, [r0], -ip
    23c4:	04710c44 	ldrbteq	r0, [r1], #-3140	; 0xfffff3bc
    23c8:	09000000 	stmdbeq	r0, {}	; <UNPREDICTABLE>
    23cc:	00000c50 	andeq	r0, r0, r0, asr ip
    23d0:	710c4506 	tstvc	ip, r6, lsl #10
    23d4:	01000004 	tsteq	r0, r4
    23d8:	06241200 	strteq	r1, [r4], -r0, lsl #4
    23dc:	06840c42 	streq	r0, [r4], r2, asr #24
    23e0:	44130000 	ldrmi	r0, [r3], #-0
    23e4:	06005441 	streq	r5, [r0], -r1, asr #8
    23e8:	06840c46 	streq	r0, [r4], r6, asr #24
    23ec:	13000000 	movwne	r0, #0
    23f0:	06005253 			; <UNDEFINED> instruction: 0x06005253
    23f4:	04710c47 	ldrbteq	r0, [r1], #-3143	; 0xfffff3b9
    23f8:	13200000 	teqne	r0, #0
    23fc:	06003043 	streq	r3, [r0], -r3, asr #32
    2400:	04710c48 	ldrbteq	r0, [r1], #-3144	; 0xfffff3b8
    2404:	13210000 	teqne	r1, #0
    2408:	06003143 	streq	r3, [r0], -r3, asr #2
    240c:	04710c49 	ldrbteq	r0, [r1], #-3145	; 0xfffff3b7
    2410:	13220000 	teqne	r2, #0
    2414:	06003243 	streq	r3, [r0], -r3, asr #4
    2418:	04710c4a 	ldrbteq	r0, [r1], #-3146	; 0xfffff3b6
    241c:	00230000 	eoreq	r0, r3, r0
    2420:	0006190c 	andeq	r1, r6, ip, lsl #18
    2424:	00069400 	andeq	r9, r6, r0, lsl #8
    2428:	03e50d00 	mvneq	r0, #0, 26
    242c:	000f0000 	andeq	r0, pc, r0
    2430:	000cb010 	andeq	fp, ip, r0, lsl r0
    2434:	0c4b0600 	mcrreq	6, 0, r0, fp, cr0
    2438:	0000063d 	andeq	r0, r0, sp, lsr r6
    243c:	0000970c 	andeq	r9, r0, ip, lsl #14
    2440:	0006b000 	andeq	fp, r6, r0
    2444:	03e50d00 	mvneq	r0, #0, 26
    2448:	00170000 	andseq	r0, r7, r0
    244c:	ea062812 	b	18c49c <__exidx_end+0x189ee4>
    2450:	0006eb22 	andeq	lr, r6, r2, lsr #22
    2454:	31431300 	mrscc	r1, (UNDEF: 115)
    2458:	22eb0600 	rsccs	r0, fp, #0, 12
    245c:	0000044b 	andeq	r0, r0, fp, asr #8
    2460:	00531300 	subseq	r1, r3, r0, lsl #6
    2464:	4b22ec06 	blmi	8bd484 <__exidx_end+0x8baecc>
    2468:	04000004 	streq	r0, [r0], #-4
    246c:	594c4413 	stmdbpl	ip, {r0, r1, r4, sl, lr}^
    2470:	22ed0600 	rsccs	r0, sp, #0, 12
    2474:	000006eb 	andeq	r0, r0, fp, ror #13
    2478:	02d20908 	sbcseq	r0, r2, #8, 18	; 0x20000
    247c:	ee060000 	cdp	0, 0, cr0, cr6, cr0, {0}
    2480:	0006a022 	andeq	sl, r6, r2, lsr #32
    2484:	0e001000 	cdpeq	0, 0, cr1, cr0, cr0, {0}
    2488:	00000461 	andeq	r0, r0, r1, ror #8
    248c:	f1060812 			; <UNDEFINED> instruction: 0xf1060812
    2490:	00071422 	andeq	r1, r7, r2, lsr #8
    2494:	0ce60900 	stcleq	9, cr0, [r6]
    2498:	f2060000 	vhadd.s8	d0, d6, d0
    249c:	00044b22 	andeq	r4, r4, r2, lsr #22
    24a0:	49130000 	ldmdbmi	r3, {}	; <UNPREDICTABLE>
    24a4:	0600544e 	streq	r5, [r0], -lr, asr #8
    24a8:	044b22f3 	strbeq	r2, [fp], #-755	; 0xfffffd0d
    24ac:	00040000 	andeq	r0, r4, r0
    24b0:	0601a008 	streq	sl, [r1], -r8
    24b4:	07a322e5 	streq	r2, [r3, r5, ror #5]!
    24b8:	53130000 	tstpl	r3, #0
    24bc:	e6060043 	str	r0, [r6], -r3, asr #32
    24c0:	00044b22 	andeq	r4, r4, r2, lsr #22
    24c4:	4d130000 	ldcmi	0, cr0, [r3, #-0]
    24c8:	0600444f 	streq	r4, [r0], -pc, asr #8
    24cc:	044b22e7 	strbeq	r2, [fp], #-743	; 0xfffffd19
    24d0:	13040000 	movwne	r0, #16384	; 0x4000
    24d4:	00544e43 	subseq	r4, r4, r3, asr #28
    24d8:	5c22e806 	stcpl	8, cr14, [r2], #-24	; 0xffffffe8
    24dc:	08000004 	stmdaeq	r0, {r2}
    24e0:	000ceb09 	andeq	lr, ip, r9, lsl #22
    24e4:	22e90600 	rsccs	r0, r9, #0, 12
    24e8:	0000044b 	andeq	r0, r0, fp, asr #8
    24ec:	4843130c 	stmdami	r3, {r2, r3, r8, r9, ip}^
    24f0:	22ef0600 	rsccs	r0, pc, #0, 12
    24f4:	000007a3 	andeq	r0, r0, r3, lsr #15
    24f8:	02d20910 	sbcseq	r0, r2, #16, 18	; 0x40000
    24fc:	f0060000 			; <UNDEFINED> instruction: 0xf0060000
    2500:	00042522 	andeq	r2, r4, r2, lsr #10
    2504:	440b6000 	strmi	r6, [fp], #-0
    2508:	06004341 	streq	r4, [r0], -r1, asr #6
    250c:	07b322f4 			; <UNDEFINED> instruction: 0x07b322f4
    2510:	01500000 	cmpeq	r0, r0
    2514:	0002dd0a 	andeq	sp, r2, sl, lsl #26
    2518:	22f50600 	rscscs	r0, r5, #0, 12
    251c:	00000609 	andeq	r0, r0, r9, lsl #12
    2520:	4b0a0160 	blmi	282aa8 <__exidx_end+0x2804f0>
    2524:	0600000c 	streq	r0, [r0], -ip
    2528:	044b22f6 	strbeq	r2, [fp], #-758	; 0xfffffd0a
    252c:	01900000 	orrseq	r0, r0, r0
    2530:	000cc70a 	andeq	ip, ip, sl, lsl #14
    2534:	22f70600 	rscscs	r0, r7, #0, 12
    2538:	000007d3 	ldrdeq	r0, [r0], -r3
    253c:	0c000194 	stfeqs	f0, [r0], {148}	; 0x94
    2540:	000006b0 			; <UNDEFINED> instruction: 0x000006b0
    2544:	000007b3 			; <UNDEFINED> instruction: 0x000007b3
    2548:	0003e50d 	andeq	lr, r3, sp, lsl #10
    254c:	0c000100 	stfeqs	f0, [r0], {-0}
    2550:	000006f0 	strdeq	r0, [r0], -r0	; <UNPREDICTABLE>
    2554:	000007c3 	andeq	r0, r0, r3, asr #15
    2558:	0003e50d 	andeq	lr, r3, sp, lsl #10
    255c:	0c000100 	stfeqs	f0, [r0], {-0}
    2560:	000000b8 	strheq	r0, [r0], -r8
    2564:	000007d3 	ldrdeq	r0, [r0], -r3
    2568:	0003e50d 	andeq	lr, r3, sp, lsl #10
    256c:	0e000200 	cdpeq	2, 0, cr0, cr0, cr0, {0}
    2570:	000007c3 	andeq	r0, r0, r3, asr #15
    2574:	000ca710 	andeq	sl, ip, r0, lsl r7
    2578:	22f80600 	rscscs	r0, r8, #0, 12
    257c:	00000714 	andeq	r0, r0, r4, lsl r7
    2580:	06106408 	ldreq	r6, [r0], -r8, lsl #8
    2584:	09582ace 	ldmdbeq	r8, {r1, r2, r3, r6, r7, r9, fp, sp}^
    2588:	92090000 	andls	r0, r9, #0
    258c:	06000002 	streq	r0, [r0], -r2
    2590:	044b2acf 	strbeq	r2, [fp], #-2767	; 0xfffff531
    2594:	09000000 	stmdbeq	r0, {}	; <UNPREDICTABLE>
    2598:	00000046 	andeq	r0, r0, r6, asr #32
    259c:	4b2ad006 	blmi	ab65bc <__exidx_end+0xab4004>
    25a0:	04000004 	streq	r0, [r0], #-4
    25a4:	0002d209 	andeq	sp, r2, r9, lsl #4
    25a8:	2ad10600 	bcs	ff443db0 <__StackTop+0xdf413db0>
    25ac:	00000958 	andeq	r0, r0, r8, asr r9
    25b0:	02a80a08 	adceq	r0, r8, #8, 20	; 0x8000
    25b4:	d2060000 	andle	r0, r6, #0
    25b8:	00044b2a 	andeq	r4, r4, sl, lsr #22
    25bc:	0a100400 	beq	4035c4 <__exidx_end+0x40100c>
    25c0:	000002dd 	ldrdeq	r0, [r0], -sp
    25c4:	dd2ad306 	stcle	3, cr13, [sl, #-24]!	; 0xffffffe8
    25c8:	08000005 	stmdaeq	r0, {r0, r2}
    25cc:	03530a10 	cmpeq	r3, #16, 20	; 0x10000
    25d0:	d4060000 	strle	r0, [r6], #-0
    25d4:	00044b2a 	andeq	r4, r4, sl, lsr #22
    25d8:	0a100c00 	beq	4055e0 <__exidx_end+0x403028>
    25dc:	00000000 	andeq	r0, r0, r0
    25e0:	4b2ad506 	blmi	ab7a00 <__exidx_end+0xab5448>
    25e4:	10000004 	andne	r0, r0, r4
    25e8:	02e80a10 	rsceq	r0, r8, #16, 20	; 0x10000
    25ec:	d6060000 	strle	r0, [r6], -r0
    25f0:	0005dd2a 	andeq	sp, r5, sl, lsr #26
    25f4:	0a101400 	beq	4075fc <__exidx_end+0x405044>
    25f8:	00000203 	andeq	r0, r0, r3, lsl #4
    25fc:	4b2ad706 	blmi	ab821c <__exidx_end+0xab5c64>
    2600:	18000004 	stmdane	r0, {r2}
    2604:	02f30a10 	rscseq	r0, r3, #16, 20	; 0x10000
    2608:	d8060000 	stmdale	r6, {}	; <UNPREDICTABLE>
    260c:	0005f92a 	andeq	pc, r5, sl, lsr #18
    2610:	0a101c00 	beq	409618 <__exidx_end+0x407060>
    2614:	00000041 	andeq	r0, r0, r1, asr #32
    2618:	5c2ad906 	stcpl	9, cr13, [sl], #-24	; 0xffffffe8
    261c:	24000004 	strcs	r0, [r0], #-4
    2620:	01a70a10 			; <UNDEFINED> instruction: 0x01a70a10
    2624:	da060000 	ble	18262c <__exidx_end+0x180074>
    2628:	00044b2a 	andeq	r4, r4, sl, lsr #22
    262c:	0a102800 	beq	40c634 <__exidx_end+0x40a07c>
    2630:	000001ad 	andeq	r0, r0, sp, lsr #3
    2634:	4b2adb06 	blmi	ab9254 <__exidx_end+0xab6c9c>
    2638:	2c000004 	stccs	0, cr0, [r0], {4}
    263c:	01b30a10 			; <UNDEFINED> instruction: 0x01b30a10
    2640:	dc060000 	stcle	0, cr0, [r6], {-0}
    2644:	00044b2a 	andeq	r4, r4, sl, lsr #22
    2648:	0a103000 	beq	40e650 <__exidx_end+0x40c098>
    264c:	000001b9 			; <UNDEFINED> instruction: 0x000001b9
    2650:	4b2add06 	blmi	ab9a70 <__exidx_end+0xab74b8>
    2654:	34000004 	strcc	r0, [r0], #-4
    2658:	01bf0a10 			; <UNDEFINED> instruction: 0x01bf0a10
    265c:	de060000 	cdple	0, 0, cr0, cr6, cr0, {0}
    2660:	00044b2a 	andeq	r4, r4, sl, lsr #22
    2664:	0a103800 	beq	41066c <__exidx_end+0x40e0b4>
    2668:	000001c5 	andeq	r0, r0, r5, asr #3
    266c:	4b2adf06 	blmi	aba28c <__exidx_end+0xab7cd4>
    2670:	3c000004 	stccc	0, cr0, [r0], {4}
    2674:	01cb0a10 	biceq	r0, fp, r0, lsl sl
    2678:	e0060000 	and	r0, r6, r0
    267c:	00044b2a 	andeq	r4, r4, sl, lsr #22
    2680:	0a104000 	beq	412688 <__exidx_end+0x4100d0>
    2684:	00000209 	andeq	r0, r0, r9, lsl #4
    2688:	4b2ae106 	blmi	abaaa8 <__exidx_end+0xab84f0>
    268c:	44000004 	strmi	r0, [r0], #-4
    2690:	02110a10 	andseq	r0, r1, #16, 20	; 0x10000
    2694:	e2060000 	and	r0, r6, #0
    2698:	00044b2a 	andeq	r4, r4, sl, lsr #22
    269c:	0a104800 	beq	4146a4 <__exidx_end+0x4120ec>
    26a0:	00000006 	andeq	r0, r0, r6
    26a4:	4b2ae306 	blmi	abb2c4 <__exidx_end+0xab8d0c>
    26a8:	4c000004 	stcmi	0, cr0, [r0], {4}
    26ac:	000c0a10 	andeq	r0, ip, r0, lsl sl
    26b0:	e4060000 	str	r0, [r6], #-0
    26b4:	00045c2a 	andeq	r5, r4, sl, lsr #24
    26b8:	0a105000 	beq	4166c0 <__exidx_end+0x414108>
    26bc:	000000a1 	andeq	r0, r0, r1, lsr #1
    26c0:	5c2ae506 	cfstr32pl	mvfx14, [sl], #-24	; 0xffffffe8
    26c4:	54000004 	strpl	r0, [r0], #-4
    26c8:	01d10a10 	bicseq	r0, r1, r0, lsl sl
    26cc:	e6060000 	str	r0, [r6], -r0
    26d0:	00045c2a 	andeq	r5, r4, sl, lsr #24
    26d4:	0a105800 	beq	4186dc <__exidx_end+0x416124>
    26d8:	000002cc 	andeq	r0, r0, ip, asr #5
    26dc:	5c2ae706 	stcpl	7, cr14, [sl], #-24	; 0xffffffe8
    26e0:	5c000004 	stcpl	0, cr0, [r0], {4}
    26e4:	00b00a10 	adcseq	r0, r0, r0, lsl sl
    26e8:	e8060000 	stmda	r6, {}	; <UNPREDICTABLE>
    26ec:	00045c2a 	andeq	r5, r4, sl, lsr #24
    26f0:	00106000 	andseq	r6, r0, r0
    26f4:	0000970c 	andeq	r9, r0, ip, lsl #14
    26f8:	00096900 	andeq	r6, r9, r0, lsl #18
    26fc:	03e50f00 	mvneq	r0, #0, 30
    2700:	0ffb0000 	svceq	0x00fb0000
    2704:	008d1000 	addeq	r1, sp, r0
    2708:	e9060000 	stmdb	r6, {}	; <UNPREDICTABLE>
    270c:	0007e42a 	andeq	lr, r7, sl, lsr #8
    2710:	08010200 	stmdaeq	r1, {r9}
    2714:	00000222 	andeq	r0, r0, r2, lsr #4
    2718:	0007a014 	andeq	sl, r7, r4, lsl r0
    271c:	01490300 	mrseq	r0, (UNDEF: 121)
    2720:	084e1503 	stmdaeq	lr, {r0, r1, r8, sl, ip}^
    2724:	bb020000 	bllt	8272c <__exidx_end+0x80174>
    2728:	099f0305 	ldmibeq	pc, {r0, r2, r8, r9}	; <UNPREDICTABLE>
    272c:	8b160000 	blhi	582734 <__exidx_end+0x58017c>
    2730:	02000006 	andeq	r0, r0, #6
    2734:	030e05bb 	movweq	r0, #58811	; 0xe5bb
    2738:	14000000 	strne	r0, [r0], #-0
    273c:	00000466 	andeq	r0, r0, r6, ror #8
    2740:	03015403 	movweq	r5, #5123	; 0x1403
    2744:	000c3117 	andeq	r3, ip, r7, lsl r1
    2748:	00190100 	andseq	r0, r9, r0, lsl #2
    274c:	28000000 	stmdacs	r0, {}	; <UNPREDICTABLE>
    2750:	01000000 	mrseq	r0, (UNDEF: 0)
    2754:	0c80179c 	stceq	7, cr1, [r0], {156}	; 0x9c
    2758:	20010000 	andcs	r0, r1, r0
    275c:	00000000 	andeq	r0, r0, r0
    2760:	0000002c 	andeq	r0, r0, ip, lsr #32
    2764:	69189c01 	ldmdbvs	r8, {r0, sl, fp, ip, pc}
    2768:	0100000b 	tsteq	r0, fp
    276c:	000af02a 	andeq	pc, sl, sl, lsr #32
    2770:	00009c00 	andeq	r9, r0, r0, lsl #24
    2774:	189c0100 	ldmne	ip, {r8}
    2778:	1900000a 	stmdbne	r0, {r1, r3}
    277c:	00000c6a 	andeq	r0, r0, sl, ror #24
    2780:	00902b01 	addseq	r2, r0, r1, lsl #22
    2784:	06aa0000 	strteq	r0, [sl], r0
    2788:	851a0000 	ldrhi	r0, [sl, #-0]
    278c:	6a000009 	bvs	27b8 <__exidx_end+0x200>
    2790:	0800000b 	stmdaeq	r0, {r0, r1, r3}
    2794:	01000000 	mrseq	r0, (UNDEF: 0)
    2798:	000a085d 	andeq	r0, sl, sp, asr r8
    279c:	09921b00 	ldmibeq	r2, {r8, r9, fp, ip}
    27a0:	00490000 	subeq	r0, r9, r0
    27a4:	00097c1c 	andeq	r7, r9, ip, lsl ip
    27a8:	000b7200 	andeq	r7, fp, r0, lsl #4
    27ac:	00001a00 	andeq	r1, r0, r0, lsl #20
    27b0:	005e0100 	subseq	r0, lr, r0, lsl #2
    27b4:	000c5a18 	andeq	r5, ip, r8, lsl sl
    27b8:	8c620100 	stfhie	f0, [r2], #-0
    27bc:	2c00000b 	stccs	0, cr0, [r0], {11}
    27c0:	01000000 	mrseq	r0, (UNDEF: 0)
    27c4:	000a3d9c 	muleq	sl, ip, sp
    27c8:	099f1c00 	ldmibeq	pc, {sl, fp, ip}	; <UNPREDICTABLE>
    27cc:	0b8c0000 	bleq	fe3027d4 <__StackTop+0xde2d27d4>
    27d0:	00020000 	andeq	r0, r2, r0
    27d4:	64010000 	strvs	r0, [r1], #-0
    27d8:	032d1d00 	teqeq	sp, #0, 26
    27dc:	a7020000 	strge	r0, [r2, -r0]
    27e0:	000a4906 	andeq	r4, sl, r6, lsl #18
    27e4:	00ad0e00 	adceq	r0, sp, r0, lsl #28
    27e8:	3b1e0000 	blcc	7827f0 <__exidx_end+0x780238>
    27ec:	0100000c 	tsteq	r0, ip
    27f0:	000a5f17 	andeq	r5, sl, r7, lsl pc
    27f4:	6b030500 	blvs	c3bfc <__exidx_end+0xc1644>
    27f8:	11000025 	tstne	r0, r5, lsr #32
    27fc:	000005dd 	ldrdeq	r0, [r0], -sp
    2800:	0000a20c 	andeq	sl, r0, ip, lsl #4
    2804:	000a7400 	andeq	r7, sl, r0, lsl #8
    2808:	03e50d00 	mvneq	r0, #0, 26
    280c:	00030000 	andeq	r0, r3, r0
    2810:	000bb81e 	andeq	fp, fp, lr, lsl r8
    2814:	851a0700 	ldrhi	r0, [sl, #-1792]	; 0xfffff900
    2818:	0500000a 	streq	r0, [r0, #-10]
    281c:	ff038003 			; <UNDEFINED> instruction: 0xff038003
    2820:	0a640e1f 	beq	19060a4 <__exidx_end+0x1903aec>
    2824:	701e0000 	andsvc	r0, lr, r0
    2828:	0100000c 	tsteq	r0, ip
    282c:	000a9b18 	andeq	r9, sl, r8, lsl fp
    2830:	8c030500 	cfstr32hi	mvfx0, [r3], {-0}
    2834:	0e1fff03 	cdpeq	15, 1, cr15, cr15, cr3, {0}
    2838:	00000089 	andeq	r0, r0, r9, lsl #1
    283c:	00006200 	andeq	r6, r0, r0, lsl #4
    2840:	d3000200 	movwle	r0, #512	; 0x200
    2844:	04000008 	streq	r0, [r0], #-8
    2848:	00078201 	andeq	r8, r7, r1, lsl #4
    284c:	000bb800 	andeq	fp, fp, r0, lsl #16
    2850:	000c1000 	andeq	r1, ip, r0
    2854:	632f2e00 	teqvs	pc, #0, 28
    2858:	7369736d 	cmnvc	r9, #-1275068415	; 0xb4000001
    285c:	364b4d2f 	strbcc	r4, [fp], -pc, lsr #26
    2860:	32314634 	eorscc	r4, r1, #52, 12	; 0x3400000
    2864:	6174732f 	cmnvs	r4, pc, lsr #6
    2868:	70757472 	rsbsvc	r7, r5, r2, ror r4
    286c:	364b4d5f 			; <UNDEFINED> instruction: 0x364b4d5f
    2870:	32314634 	eorscc	r4, r1, #52, 12	; 0x3400000
    2874:	2f00732e 	svccs	0x0000732e
    2878:	656d6f68 	strbvs	r6, [sp, #-3944]!	; 0xfffff098
    287c:	7268632f 	rsbvc	r6, r8, #-1140850688	; 0xbc000000
    2880:	432f7369 	teqmi	pc, #-1543503871	; 0xa4000001
    2884:	2f65646f 	svccs	0x0065646f
    2888:	65646977 	strbvs	r6, [r4, #-2423]!	; 0xfffff689
    288c:	646e6162 	strbtvs	r6, [lr], #-354	; 0xfffffe9e
    2890:	4700324f 	strmi	r3, [r0, -pc, asr #4]
    2894:	4120554e 	teqmi	r0, lr, asr #10
    2898:	2e322053 	mrccs	0, 1, r2, cr2, cr3, {2}
    289c:	312e3532 	teqcc	lr, r2, lsr r5
    28a0:	Address 0x00000000000028a0 is out of bounds.


Disassembly of section .debug_abbrev:

00000000 <.debug_abbrev>:
   0:	25011101 	strcs	r1, [r1, #-257]	; 0xfffffeff
   4:	030b130e 	movweq	r1, #45838	; 0xb30e
   8:	550e1b0e 	strpl	r1, [lr, #-2830]	; 0xfffff4f2
   c:	10011117 	andne	r1, r1, r7, lsl r1
  10:	02000017 	andeq	r0, r0, #23
  14:	0b0b0024 	bleq	2c00ac <__exidx_end+0x2bdaf4>
  18:	0e030b3e 	vmoveq.16	d3[0], r0
  1c:	16030000 	strne	r0, [r3], -r0
  20:	3a0e0300 	bcc	380c28 <__exidx_end+0x37e670>
  24:	490b3b0b 	stmdbmi	fp, {r0, r1, r3, r8, r9, fp, ip, sp}
  28:	04000013 	streq	r0, [r0], #-19	; 0xffffffed
  2c:	0b0b0024 	bleq	2c00c4 <__exidx_end+0x2bdb0c>
  30:	08030b3e 	stmdaeq	r3, {r1, r2, r3, r4, r5, r8, r9, fp}
  34:	35050000 	strcc	r0, [r5, #-0]
  38:	00134900 	andseq	r4, r3, r0, lsl #18
  3c:	00260600 	eoreq	r0, r6, r0, lsl #12
  40:	00001349 	andeq	r1, r0, r9, asr #6
  44:	49010107 	stmdbmi	r1, {r0, r1, r2, r8}
  48:	00130113 	andseq	r0, r3, r3, lsl r1
  4c:	00210800 	eoreq	r0, r1, r0, lsl #16
  50:	0b2f1349 	bleq	bc4d7c <__exidx_end+0xbc27c4>
  54:	13090000 	movwne	r0, #36864	; 0x9000
  58:	3a0b0b01 	bcc	2c2c64 <__exidx_end+0x2c06ac>
  5c:	01053b0b 	tsteq	r5, fp, lsl #22
  60:	0a000013 	beq	b4 <__isr_vector+0xb4>
  64:	0803000d 	stmdaeq	r3, {r0, r2, r3}
  68:	053b0b3a 	ldreq	r0, [fp, #-2874]!	; 0xfffff4c6
  6c:	0b381349 	bleq	e04d98 <__exidx_end+0xe027e0>
  70:	0d0b0000 	stceq	0, cr0, [fp, #-0]
  74:	3a0e0300 	bcc	380c7c <__exidx_end+0x37e6c4>
  78:	49053b0b 	stmdbmi	r5, {r0, r1, r3, r8, r9, fp, ip, sp}
  7c:	000b3813 	andeq	r3, fp, r3, lsl r8
  80:	00160c00 	andseq	r0, r6, r0, lsl #24
  84:	0b3a0e03 	bleq	e83898 <__exidx_end+0xe812e0>
  88:	1349053b 	movtne	r0, #38203	; 0x953b
  8c:	130d0000 	movwne	r0, #53248	; 0xd000
  90:	3a050b01 	bcc	142c9c <__exidx_end+0x1406e4>
  94:	01053b0b 	tsteq	r5, fp, lsl #22
  98:	0e000013 	mcreq	0, 0, r0, cr0, cr3, {0}
  9c:	0e03000d 	cdpeq	0, 0, cr0, cr3, cr13, {0}
  a0:	053b0b3a 	ldreq	r0, [fp, #-2874]!	; 0xfffff4c6
  a4:	05381349 	ldreq	r1, [r8, #-841]!	; 0xfffffcb7
  a8:	210f0000 	mrscs	r0, CPSR
  ac:	2f134900 	svccs	0x00134900
  b0:	10000005 	andne	r0, r0, r5
  b4:	193f002e 	ldmdbne	pc!, {r1, r2, r3, r5}	; <UNPREDICTABLE>
  b8:	0b3a0e03 	bleq	e838cc <__exidx_end+0xe81314>
  bc:	19270b3b 	stmdbne	r7!, {r0, r1, r3, r4, r5, r8, r9, fp}
  c0:	06120111 			; <UNDEFINED> instruction: 0x06120111
  c4:	42971840 	addsmi	r1, r7, #64, 16	; 0x400000
  c8:	11000019 	tstne	r0, r9, lsl r0
  cc:	193f012e 	ldmdbne	pc!, {r1, r2, r3, r5, r8}	; <UNPREDICTABLE>
  d0:	0b3a0e03 	bleq	e838e4 <__exidx_end+0xe8132c>
  d4:	1927053b 	stmdbne	r7!, {r0, r1, r3, r4, r5, r8, sl}
  d8:	06120111 			; <UNDEFINED> instruction: 0x06120111
  dc:	42971840 	addsmi	r1, r7, #64, 16	; 0x400000
  e0:	00130119 	andseq	r0, r3, r9, lsl r1
  e4:	00341200 	eorseq	r1, r4, r0, lsl #4
  e8:	0b3a0e03 	bleq	e838fc <__exidx_end+0xe81344>
  ec:	1349053b 	movtne	r0, #38203	; 0x953b
  f0:	00001702 	andeq	r1, r0, r2, lsl #14
  f4:	03003413 	movweq	r3, #1043	; 0x413
  f8:	3b0b3a0e 	blcc	2ce938 <__exidx_end+0x2cc380>
  fc:	3f134905 	svccc	0x00134905
 100:	00193c19 	andseq	r3, r9, r9, lsl ip
 104:	00341400 	eorseq	r1, r4, r0, lsl #8
 108:	0b3a0e03 	bleq	e8391c <__exidx_end+0xe81364>
 10c:	13490b3b 	movtne	r0, #39739	; 0x9b3b
 110:	1802193f 	stmdane	r2, {r0, r1, r2, r3, r4, r5, r8, fp, ip}
 114:	01000000 	mrseq	r0, (UNDEF: 0)
 118:	0e250111 	mcreq	1, 1, r0, cr5, cr1, {0}
 11c:	0e030b13 	vmoveq.32	d3[0], r0
 120:	17550e1b 	smmlane	r5, fp, lr, r0
 124:	17100111 			; <UNDEFINED> instruction: 0x17100111
 128:	24020000 	strcs	r0, [r2], #-0
 12c:	3e0b0b00 	vmlacc.f64	d0, d11, d0
 130:	000e030b 	andeq	r0, lr, fp, lsl #6
 134:	01130300 	tsteq	r3, r0, lsl #6
 138:	0b0b0e03 	bleq	2c394c <__exidx_end+0x2c1394>
 13c:	0b3b0b3a 	bleq	ec2e2c <__exidx_end+0xec0874>
 140:	00001301 	andeq	r1, r0, r1, lsl #6
 144:	03000d04 	movweq	r0, #3332	; 0xd04
 148:	3b0b3a08 	blcc	2ce970 <__exidx_end+0x2cc3b8>
 14c:	3813490b 	ldmdacc	r3, {r0, r1, r3, r8, fp, lr}
 150:	0500000b 	streq	r0, [r0, #-11]
 154:	0e03000d 	cdpeq	0, 0, cr0, cr3, cr13, {0}
 158:	0b3b0b3a 	bleq	ec2e48 <__exidx_end+0xec0890>
 15c:	0b381349 	bleq	e04e88 <__exidx_end+0xe028d0>
 160:	01060000 	mrseq	r0, (UNDEF: 6)
 164:	01134901 	tsteq	r3, r1, lsl #18
 168:	07000013 	smladeq	r0, r3, r0, r0
 16c:	13490021 	movtne	r0, #36897	; 0x9021
 170:	00000b2f 	andeq	r0, r0, pc, lsr #22
 174:	3f012e08 	svccc	0x00012e08
 178:	3a0e0319 	bcc	380de4 <__exidx_end+0x37e82c>
 17c:	270b3b0b 	strcs	r3, [fp, -fp, lsl #22]
 180:	11134919 	tstne	r3, r9, lsl r9
 184:	40061201 	andmi	r1, r6, r1, lsl #4
 188:	19429618 	stmdbne	r2, {r3, r4, r9, sl, ip, pc}^
 18c:	00001301 	andeq	r1, r0, r1, lsl #6
 190:	03000509 	movweq	r0, #1289	; 0x509
 194:	3b0b3a0e 	blcc	2ce9d4 <__exidx_end+0x2cc41c>
 198:	0213490b 	andseq	r4, r3, #180224	; 0x2c000
 19c:	0a000017 	beq	200 <Heap_Size+0x100>
 1a0:	08030005 	stmdaeq	r3, {r0, r2}
 1a4:	0b3b0b3a 	bleq	ec2e94 <__exidx_end+0xec08dc>
 1a8:	17021349 	strne	r1, [r2, -r9, asr #6]
 1ac:	050b0000 	streq	r0, [fp, #-0]
 1b0:	3a0e0300 	bcc	380db8 <__exidx_end+0x37e800>
 1b4:	490b3b0b 	stmdbmi	fp, {r0, r1, r3, r8, r9, fp, ip, sp}
 1b8:	00180213 	andseq	r0, r8, r3, lsl r2
 1bc:	00340c00 	eorseq	r0, r4, r0, lsl #24
 1c0:	0b3a0803 	bleq	e821d4 <__exidx_end+0xe7fc1c>
 1c4:	13490b3b 	movtne	r0, #39739	; 0x9b3b
 1c8:	00001702 	andeq	r1, r0, r2, lsl #14
 1cc:	0b00240d 	bleq	9208 <__exidx_end+0x6c50>
 1d0:	030b3e0b 	movweq	r3, #48651	; 0xbe0b
 1d4:	0e000008 	cdpeq	0, 0, cr0, cr0, cr8, {0}
 1d8:	0b0b000f 	bleq	2c021c <__exidx_end+0x2bdc64>
 1dc:	00001349 	andeq	r1, r0, r9, asr #6
 1e0:	0300340f 	movweq	r3, #1039	; 0x40f
 1e4:	3b0b3a0e 	blcc	2cea24 <__exidx_end+0x2cc46c>
 1e8:	0213490b 	andseq	r4, r3, #180224	; 0x2c000
 1ec:	10000017 	andne	r0, r0, r7, lsl r0
 1f0:	193f012e 	ldmdbne	pc!, {r1, r2, r3, r5, r8}	; <UNPREDICTABLE>
 1f4:	0b3a0e03 	bleq	e83a08 <__exidx_end+0xe81450>
 1f8:	19270b3b 	stmdbne	r7!, {r0, r1, r3, r4, r5, r8, r9, fp}
 1fc:	01111349 	tsteq	r1, r9, asr #6
 200:	18400612 	stmdane	r0, {r1, r4, r9, sl}^
 204:	00194296 	mulseq	r9, r6, r2
 208:	11010000 	mrsne	r0, (UNDEF: 1)
 20c:	130e2501 	movwne	r2, #58625	; 0xe501
 210:	1b0e030b 	blne	380e44 <__exidx_end+0x37e88c>
 214:	1117550e 	tstne	r7, lr, lsl #10
 218:	00171001 	andseq	r1, r7, r1
 21c:	00240200 	eoreq	r0, r4, r0, lsl #4
 220:	0b3e0b0b 	bleq	f82e54 <__exidx_end+0xf8089c>
 224:	00000e03 	andeq	r0, r0, r3, lsl #28
 228:	03001603 	movweq	r1, #1539	; 0x603
 22c:	3b0b3a0e 	blcc	2cea6c <__exidx_end+0x2cc4b4>
 230:	0013490b 	andseq	r4, r3, fp, lsl #18
 234:	00240400 	eoreq	r0, r4, r0, lsl #8
 238:	0b3e0b0b 	bleq	f82e6c <__exidx_end+0xf808b4>
 23c:	00000803 	andeq	r0, r0, r3, lsl #16
 240:	03010405 	movweq	r0, #5125	; 0x1405
 244:	490b0b0e 	stmdbmi	fp, {r1, r2, r3, r8, r9, fp}
 248:	3b0b3a13 	blcc	2cea9c <__exidx_end+0x2cc4e4>
 24c:	0013010b 	andseq	r0, r3, fp, lsl #2
 250:	00280600 	eoreq	r0, r8, r0, lsl #12
 254:	0d1c0e03 	ldceq	14, cr0, [ip, #-12]
 258:	28070000 	stmdacs	r7, {}	; <UNPREDICTABLE>
 25c:	1c0e0300 	stcne	3, cr0, [lr], {-0}
 260:	0800000b 	stmdaeq	r0, {r0, r1, r3}
 264:	050b0113 	streq	r0, [fp, #-275]	; 0xfffffeed
 268:	053b0b3a 	ldreq	r0, [fp, #-2874]!	; 0xfffff4c6
 26c:	00001301 	andeq	r1, r0, r1, lsl #6
 270:	03000d09 	movweq	r0, #3337	; 0xd09
 274:	3b0b3a0e 	blcc	2ceab4 <__exidx_end+0x2cc4fc>
 278:	38134905 	ldmdacc	r3, {r0, r2, r8, fp, lr}
 27c:	0a00000b 	beq	2b0 <Heap_Size+0x1b0>
 280:	0e03000d 	cdpeq	0, 0, cr0, cr3, cr13, {0}
 284:	053b0b3a 	ldreq	r0, [fp, #-2874]!	; 0xfffff4c6
 288:	05381349 	ldreq	r1, [r8, #-841]!	; 0xfffffcb7
 28c:	0d0b0000 	stceq	0, cr0, [fp, #-0]
 290:	3a080300 	bcc	200e98 <__exidx_end+0x1fe8e0>
 294:	49053b0b 	stmdbmi	r5, {r0, r1, r3, r8, r9, fp, ip, sp}
 298:	00053813 	andeq	r3, r5, r3, lsl r8
 29c:	01010c00 	tsteq	r1, r0, lsl #24
 2a0:	13011349 	movwne	r1, #4937	; 0x1349
 2a4:	210d0000 	mrscs	r0, (UNDEF: 13)
 2a8:	2f134900 	svccs	0x00134900
 2ac:	0e00000b 	cdpeq	0, 0, cr0, cr0, cr11, {0}
 2b0:	13490035 	movtne	r0, #36917	; 0x9035
 2b4:	210f0000 	mrscs	r0, CPSR
 2b8:	2f134900 	svccs	0x00134900
 2bc:	10000005 	andne	r0, r0, r5
 2c0:	0e030016 	mcreq	0, 0, r0, cr3, cr6, {0}
 2c4:	053b0b3a 	ldreq	r0, [fp, #-2874]!	; 0xfffff4c6
 2c8:	00001349 	andeq	r1, r0, r9, asr #6
 2cc:	49002611 	stmdbmi	r0, {r0, r4, r9, sl, sp}
 2d0:	12000013 	andne	r0, r0, #19
 2d4:	0b0b0113 	bleq	2c0728 <__exidx_end+0x2be170>
 2d8:	053b0b3a 	ldreq	r0, [fp, #-2874]!	; 0xfffff4c6
 2dc:	00001301 	andeq	r1, r0, r1, lsl #6
 2e0:	03000d13 	movweq	r0, #3347	; 0xd13
 2e4:	3b0b3a08 	blcc	2ceb0c <__exidx_end+0x2cc554>
 2e8:	38134905 	ldmdacc	r3, {r0, r2, r8, fp, lr}
 2ec:	1400000b 	strne	r0, [r0], #-11
 2f0:	0b0b0113 	bleq	2c0744 <__exidx_end+0x2be18c>
 2f4:	0b3b0b3a 	bleq	ec2fe4 <__exidx_end+0xec0a2c>
 2f8:	00001301 	andeq	r1, r0, r1, lsl #6
 2fc:	03000d15 	movweq	r0, #3349	; 0xd15
 300:	3b0b3a0e 	blcc	2ceb40 <__exidx_end+0x2cc588>
 304:	3813490b 	ldmdacc	r3, {r0, r1, r3, r8, fp, lr}
 308:	1600000b 	strne	r0, [r0], -fp
 30c:	19270015 	stmdbne	r7!, {r0, r2, r4}
 310:	0f170000 	svceq	0x00170000
 314:	490b0b00 	stmdbmi	fp, {r8, r9, fp}
 318:	18000013 	stmdane	r0, {r0, r1, r4}
 31c:	0e03002e 	cdpeq	0, 0, cr0, cr3, cr14, {1}
 320:	053b0b3a 	ldreq	r0, [fp, #-2874]!	; 0xfffff4c6
 324:	0b201927 	bleq	8067c8 <__exidx_end+0x804210>
 328:	2e190000 	cdpcs	0, 1, cr0, cr9, cr0, {0}
 32c:	3a0e0301 	bcc	380f38 <__exidx_end+0x37e980>
 330:	27053b0b 	strcs	r3, [r5, -fp, lsl #22]
 334:	010b2019 	tsteq	fp, r9, lsl r0
 338:	1a000013 	bne	38c <Heap_Size+0x28c>
 33c:	0e030005 	cdpeq	0, 0, cr0, cr3, cr5, {0}
 340:	053b0b3a 	ldreq	r0, [fp, #-2874]!	; 0xfffff4c6
 344:	00001349 	andeq	r1, r0, r9, asr #6
 348:	3f012e1b 	svccc	0x00012e1b
 34c:	3a0e0319 	bcc	380fb8 <__exidx_end+0x37ea00>
 350:	270b3b0b 	strcs	r3, [fp, -fp, lsl #22]
 354:	12011119 	andne	r1, r1, #1073741830	; 0x40000006
 358:	97184006 	ldrls	r4, [r8, -r6]
 35c:	13011942 	movwne	r1, #6466	; 0x1942
 360:	051c0000 	ldreq	r0, [ip, #-0]
 364:	3a0e0300 	bcc	380f6c <__exidx_end+0x37e9b4>
 368:	490b3b0b 	stmdbmi	fp, {r0, r1, r3, r8, r9, fp, ip, sp}
 36c:	00170213 	andseq	r0, r7, r3, lsl r2
 370:	00051d00 	andeq	r1, r5, r0, lsl #26
 374:	0b3a0e03 	bleq	e83b88 <__exidx_end+0xe815d0>
 378:	13490b3b 	movtne	r0, #39739	; 0x9b3b
 37c:	00001802 	andeq	r1, r0, r2, lsl #16
 380:	31011d1e 	tstcc	r1, lr, lsl sp
 384:	12011113 	andne	r1, r1, #-1073741820	; 0xc0000004
 388:	590b5806 	stmdbpl	fp, {r1, r2, fp, ip, lr}
 38c:	0013010b 	andseq	r0, r3, fp, lsl #2
 390:	00051f00 	andeq	r1, r5, r0, lsl #30
 394:	0b1c1331 	bleq	705060 <__exidx_end+0x702aa8>
 398:	1d200000 	stcne	0, cr0, [r0, #-0]
 39c:	11133100 	tstne	r3, r0, lsl #2
 3a0:	58061201 	stmdapl	r6, {r0, r9, ip}
 3a4:	000b590b 	andeq	r5, fp, fp, lsl #18
 3a8:	002e2100 	eoreq	r2, lr, r0, lsl #2
 3ac:	0e03193f 	mcreq	9, 0, r1, cr3, cr15, {1}
 3b0:	0b3b0b3a 	bleq	ec30a0 <__exidx_end+0xec0ae8>
 3b4:	01111927 	tsteq	r1, r7, lsr #18
 3b8:	18400612 	stmdane	r0, {r1, r4, r9, sl}^
 3bc:	00194297 	mulseq	r9, r7, r2
 3c0:	012e2200 	teqeq	lr, r0, lsl #4
 3c4:	0e03193f 	mcreq	9, 0, r1, cr3, cr15, {1}
 3c8:	0b3b0b3a 	bleq	ec30b8 <__exidx_end+0xec0b00>
 3cc:	01111927 	tsteq	r1, r7, lsr #18
 3d0:	18400612 	stmdane	r0, {r1, r4, r9, sl}^
 3d4:	01194296 			; <UNDEFINED> instruction: 0x01194296
 3d8:	23000013 	movwcs	r0, #19
 3dc:	0e030034 	mcreq	0, 0, r0, cr3, cr4, {1}
 3e0:	053b0b3a 	ldreq	r0, [fp, #-2874]!	; 0xfffff4c6
 3e4:	193f1349 	ldmdbne	pc!, {r0, r3, r6, r8, r9, ip}	; <UNPREDICTABLE>
 3e8:	0000193c 	andeq	r1, r0, ip, lsr r9
 3ec:	03003424 	movweq	r3, #1060	; 0x424
 3f0:	3b0b3a0e 	blcc	2cec30 <__exidx_end+0x2cc678>
 3f4:	3f13490b 	svccc	0x0013490b
 3f8:	00180219 	andseq	r0, r8, r9, lsl r2
 3fc:	11010000 	mrsne	r0, (UNDEF: 1)
 400:	130e2501 	movwne	r2, #58625	; 0xe501
 404:	1b0e030b 	blne	381038 <__exidx_end+0x37ea80>
 408:	1117550e 	tstne	r7, lr, lsl #10
 40c:	00171001 	andseq	r1, r7, r1
 410:	00240200 	eoreq	r0, r4, r0, lsl #4
 414:	0b3e0b0b 	bleq	f83048 <__exidx_end+0xf80a90>
 418:	00000e03 	andeq	r0, r0, r3, lsl #28
 41c:	03001603 	movweq	r1, #1539	; 0x603
 420:	3b0b3a0e 	blcc	2cec60 <__exidx_end+0x2cc6a8>
 424:	0013490b 	andseq	r4, r3, fp, lsl #18
 428:	00240400 	eoreq	r0, r4, r0, lsl #8
 42c:	0b3e0b0b 	bleq	f83060 <__exidx_end+0xf80aa8>
 430:	00000803 	andeq	r0, r0, r3, lsl #16
 434:	49003505 	stmdbmi	r0, {r0, r2, r8, sl, ip, sp}
 438:	06000013 			; <UNDEFINED> instruction: 0x06000013
 43c:	13490026 	movtne	r0, #36902	; 0x9026
 440:	01070000 	mrseq	r0, (UNDEF: 7)
 444:	01134901 	tsteq	r3, r1, lsl #18
 448:	08000013 	stmdaeq	r0, {r0, r1, r4}
 44c:	13490021 	movtne	r0, #36897	; 0x9021
 450:	00000b2f 	andeq	r0, r0, pc, lsr #22
 454:	0b011309 	bleq	45080 <__exidx_end+0x42ac8>
 458:	3b0b3a0b 	blcc	2cec8c <__exidx_end+0x2cc6d4>
 45c:	00130105 	andseq	r0, r3, r5, lsl #2
 460:	000d0a00 	andeq	r0, sp, r0, lsl #20
 464:	0b3a0e03 	bleq	e83c78 <__exidx_end+0xe816c0>
 468:	1349053b 	movtne	r0, #38203	; 0x953b
 46c:	00000b38 	andeq	r0, r0, r8, lsr fp
 470:	03000d0b 	movweq	r0, #3339	; 0xd0b
 474:	3b0b3a08 	blcc	2cec9c <__exidx_end+0x2cc6e4>
 478:	38134905 	ldmdacc	r3, {r0, r2, r8, fp, lr}
 47c:	0c00000b 	stceq	0, cr0, [r0], {11}
 480:	0e030016 	mcreq	0, 0, r0, cr3, cr6, {0}
 484:	053b0b3a 	ldreq	r0, [fp, #-2874]!	; 0xfffff4c6
 488:	00001349 	andeq	r1, r0, r9, asr #6
 48c:	0b01130d 	bleq	450c8 <__exidx_end+0x42b10>
 490:	3b0b3a05 	blcc	2cecac <__exidx_end+0x2cc6f4>
 494:	00130105 	andseq	r0, r3, r5, lsl #2
 498:	000d0e00 	andeq	r0, sp, r0, lsl #28
 49c:	0b3a0e03 	bleq	e83cb0 <__exidx_end+0xe816f8>
 4a0:	1349053b 	movtne	r0, #38203	; 0x953b
 4a4:	00000538 	andeq	r0, r0, r8, lsr r5
 4a8:	4900210f 	stmdbmi	r0, {r0, r1, r2, r3, r8, sp}
 4ac:	00052f13 	andeq	r2, r5, r3, lsl pc
 4b0:	012e1000 	teqeq	lr, r0
 4b4:	0e03193f 	mcreq	9, 0, r1, cr3, cr15, {1}
 4b8:	0b3b0b3a 	bleq	ec31a8 <__exidx_end+0xec0bf0>
 4bc:	01111927 	tsteq	r1, r7, lsr #18
 4c0:	18400612 	stmdane	r0, {r1, r4, r9, sl}^
 4c4:	01194297 			; <UNDEFINED> instruction: 0x01194297
 4c8:	11000013 	tstne	r0, r3, lsl r0
 4cc:	0e030005 	cdpeq	0, 0, cr0, cr3, cr5, {0}
 4d0:	0b3b0b3a 	bleq	ec31c0 <__exidx_end+0xec0c08>
 4d4:	17021349 	strne	r1, [r2, -r9, asr #6]
 4d8:	34120000 	ldrcc	r0, [r2], #-0
 4dc:	3a080300 	bcc	2010e4 <__exidx_end+0x1feb2c>
 4e0:	490b3b0b 	stmdbmi	fp, {r0, r1, r3, r8, r9, fp, ip, sp}
 4e4:	00170213 	andseq	r0, r7, r3, lsl r2
 4e8:	00341300 	eorseq	r1, r4, r0, lsl #6
 4ec:	0b3a0e03 	bleq	e83d00 <__exidx_end+0xe81748>
 4f0:	13490b3b 	movtne	r0, #39739	; 0x9b3b
 4f4:	00001702 	andeq	r1, r0, r2, lsl #14
 4f8:	3f002e14 	svccc	0x00002e14
 4fc:	3a0e0319 	bcc	381168 <__exidx_end+0x37ebb0>
 500:	270b3b0b 	strcs	r3, [fp, -fp, lsl #22]
 504:	12011119 	andne	r1, r1, #1073741830	; 0x40000006
 508:	97184006 	ldrls	r4, [r8, -r6]
 50c:	00001942 	andeq	r1, r0, r2, asr #18
 510:	03003415 	movweq	r3, #1045	; 0x415
 514:	3b0b3a0e 	blcc	2ced54 <__exidx_end+0x2cc79c>
 518:	0213490b 	andseq	r4, r3, #180224	; 0x2c000
 51c:	16000018 			; <UNDEFINED> instruction: 0x16000018
 520:	0e030034 	mcreq	0, 0, r0, cr3, cr4, {1}
 524:	053b0b3a 	ldreq	r0, [fp, #-2874]!	; 0xfffff4c6
 528:	193f1349 	ldmdbne	pc!, {r0, r3, r6, r8, r9, ip}	; <UNPREDICTABLE>
 52c:	0000193c 	andeq	r1, r0, ip, lsr r9
 530:	03003417 	movweq	r3, #1047	; 0x417
 534:	3b0b3a0e 	blcc	2ced74 <__exidx_end+0x2cc7bc>
 538:	3f13490b 	svccc	0x0013490b
 53c:	00193c19 	andseq	r3, r9, r9, lsl ip
 540:	11010000 	mrsne	r0, (UNDEF: 1)
 544:	130e2501 	movwne	r2, #58625	; 0xe501
 548:	1b0e030b 	blne	38117c <__exidx_end+0x37ebc4>
 54c:	1117550e 	tstne	r7, lr, lsl #10
 550:	00171001 	andseq	r1, r7, r1
 554:	00240200 	eoreq	r0, r4, r0, lsl #4
 558:	0b3e0b0b 	bleq	f8318c <__exidx_end+0xf80bd4>
 55c:	00000e03 	andeq	r0, r0, r3, lsl #28
 560:	03001603 	movweq	r1, #1539	; 0x603
 564:	3b0b3a0e 	blcc	2ceda4 <__exidx_end+0x2cc7ec>
 568:	0013490b 	andseq	r4, r3, fp, lsl #18
 56c:	00240400 	eoreq	r0, r4, r0, lsl #8
 570:	0b3e0b0b 	bleq	f831a4 <__exidx_end+0xf80bec>
 574:	00000803 	andeq	r0, r0, r3, lsl #16
 578:	49003505 	stmdbmi	r0, {r0, r2, r8, sl, ip, sp}
 57c:	06000013 			; <UNDEFINED> instruction: 0x06000013
 580:	13490026 	movtne	r0, #36902	; 0x9026
 584:	01070000 	mrseq	r0, (UNDEF: 7)
 588:	01134901 	tsteq	r3, r1, lsl #18
 58c:	08000013 	stmdaeq	r0, {r0, r1, r4}
 590:	13490021 	movtne	r0, #36897	; 0x9021
 594:	00000b2f 	andeq	r0, r0, pc, lsr #22
 598:	0b011309 	bleq	451c4 <__exidx_end+0x42c0c>
 59c:	3b0b3a0b 	blcc	2cedd0 <__exidx_end+0x2cc818>
 5a0:	00130105 	andseq	r0, r3, r5, lsl #2
 5a4:	000d0a00 	andeq	r0, sp, r0, lsl #20
 5a8:	0b3a0e03 	bleq	e83dbc <__exidx_end+0xe81804>
 5ac:	1349053b 	movtne	r0, #38203	; 0x953b
 5b0:	00000b38 	andeq	r0, r0, r8, lsr fp
 5b4:	0300160b 	movweq	r1, #1547	; 0x60b
 5b8:	3b0b3a0e 	blcc	2cedf8 <__exidx_end+0x2cc840>
 5bc:	00134905 	andseq	r4, r3, r5, lsl #18
 5c0:	000d0c00 	andeq	r0, sp, r0, lsl #24
 5c4:	0b3a0803 	bleq	e825d8 <__exidx_end+0xe80020>
 5c8:	1349053b 	movtne	r0, #38203	; 0x953b
 5cc:	00000b38 	andeq	r0, r0, r8, lsr fp
 5d0:	0b01130d 	bleq	4520c <__exidx_end+0x42c54>
 5d4:	3b0b3a05 	blcc	2cedf0 <__exidx_end+0x2cc838>
 5d8:	00130105 	andseq	r0, r3, r5, lsl #2
 5dc:	000d0e00 	andeq	r0, sp, r0, lsl #28
 5e0:	0b3a0e03 	bleq	e83df4 <__exidx_end+0xe8183c>
 5e4:	1349053b 	movtne	r0, #38203	; 0x953b
 5e8:	00000538 	andeq	r0, r0, r8, lsr r5
 5ec:	4900210f 	stmdbmi	r0, {r0, r1, r2, r3, r8, sp}
 5f0:	00052f13 	andeq	r2, r5, r3, lsl pc
 5f4:	01131000 	tsteq	r3, r0
 5f8:	0b0b0e03 	bleq	2c3e0c <__exidx_end+0x2c1854>
 5fc:	0b3b0b3a 	bleq	ec32ec <__exidx_end+0xec0d34>
 600:	00001301 	andeq	r1, r0, r1, lsl #6
 604:	03000d11 	movweq	r0, #3345	; 0xd11
 608:	3b0b3a08 	blcc	2cee30 <__exidx_end+0x2cc878>
 60c:	3813490b 	ldmdacc	r3, {r0, r1, r3, r8, fp, lr}
 610:	1200000b 	andne	r0, r0, #11
 614:	0e03000d 	cdpeq	0, 0, cr0, cr3, cr13, {0}
 618:	0b3b0b3a 	bleq	ec3308 <__exidx_end+0xec0d50>
 61c:	0b381349 	bleq	e05348 <__exidx_end+0xe02d90>
 620:	2e130000 	cdpcs	0, 1, cr0, cr3, cr0, {0}
 624:	03193f01 	tsteq	r9, #1, 30
 628:	3b0b3a0e 	blcc	2cee68 <__exidx_end+0x2cc8b0>
 62c:	1201110b 	andne	r1, r1, #-1073741822	; 0xc0000002
 630:	96184006 	ldrls	r4, [r8], -r6
 634:	13011942 	movwne	r1, #6466	; 0x1942
 638:	34140000 	ldrcc	r0, [r4], #-0
 63c:	3a0e0300 	bcc	381244 <__exidx_end+0x37ec8c>
 640:	490b3b0b 	stmdbmi	fp, {r0, r1, r3, r8, r9, fp, ip, sp}
 644:	00170213 	andseq	r0, r7, r3, lsl r2
 648:	00341500 	eorseq	r1, r4, r0, lsl #10
 64c:	0b3a0e03 	bleq	e83e60 <__exidx_end+0xe818a8>
 650:	13490b3b 	movtne	r0, #39739	; 0x9b3b
 654:	2e160000 	cdpcs	0, 1, cr0, cr6, cr0, {0}
 658:	03193f01 	tsteq	r9, #1, 30
 65c:	3b0b3a0e 	blcc	2cee9c <__exidx_end+0x2cc8e4>
 660:	3c13490b 	ldccc	9, cr4, [r3], {11}
 664:	00130119 	andseq	r0, r3, r9, lsl r1
 668:	00181700 	andseq	r1, r8, r0, lsl #14
 66c:	89180000 	ldmdbhi	r8, {}	; <UNPREDICTABLE>
 670:	11010182 	smlabbne	r1, r2, r1, r0
 674:	01133101 	tsteq	r3, r1, lsl #2
 678:	19000013 	stmdbne	r0, {r0, r1, r4}
 67c:	0001828a 	andeq	r8, r1, sl, lsl #5
 680:	42911802 	addsmi	r1, r1, #131072	; 0x20000
 684:	1a000018 	bne	6ec <PIDSetGoal+0x22>
 688:	00018289 	andeq	r8, r1, r9, lsl #5
 68c:	42950111 	addsmi	r0, r5, #1073741828	; 0x40000004
 690:	00133119 	andseq	r3, r3, r9, lsl r1
 694:	012e1b00 	teqeq	lr, r0, lsl #22
 698:	0e03193f 	mcreq	9, 0, r1, cr3, cr15, {1}
 69c:	0b3b0b3a 	bleq	ec338c <__exidx_end+0xec0dd4>
 6a0:	13491927 	movtne	r1, #39207	; 0x9927
 6a4:	11190187 	tstne	r9, r7, lsl #3
 6a8:	40061201 	andmi	r1, r6, r1, lsl #4
 6ac:	19429618 	stmdbne	r2, {r3, r4, r9, sl, ip, pc}^
 6b0:	00001301 	andeq	r1, r0, r1, lsl #6
 6b4:	0300341c 	movweq	r3, #1052	; 0x41c
 6b8:	3b0b3a08 	blcc	2ceee0 <__exidx_end+0x2cc928>
 6bc:	0213490b 	andseq	r4, r3, #180224	; 0x2c000
 6c0:	1d000018 	stcne	0, cr0, [r0, #-96]	; 0xffffffa0
 6c4:	00018289 	andeq	r8, r1, r9, lsl #5
 6c8:	13310111 	teqne	r1, #1073741828	; 0x40000004
 6cc:	891e0000 	ldmdbhi	lr, {}	; <UNPREDICTABLE>
 6d0:	11010182 	smlabbne	r1, r2, r1, r0
 6d4:	00133101 	andseq	r3, r3, r1, lsl #2
 6d8:	002e1f00 	eoreq	r1, lr, r0, lsl #30
 6dc:	0e03193f 	mcreq	9, 0, r1, cr3, cr15, {1}
 6e0:	0b3b0b3a 	bleq	ec33d0 <__exidx_end+0xec0e18>
 6e4:	06120111 			; <UNDEFINED> instruction: 0x06120111
 6e8:	42971840 	addsmi	r1, r7, #64, 16	; 0x400000
 6ec:	20000019 	andcs	r0, r0, r9, lsl r0
 6f0:	0e030034 	mcreq	0, 0, r0, cr3, cr4, {1}
 6f4:	053b0b3a 	ldreq	r0, [fp, #-2874]!	; 0xfffff4c6
 6f8:	193f1349 	ldmdbne	pc!, {r0, r3, r6, r8, r9, ip}	; <UNPREDICTABLE>
 6fc:	0000193c 	andeq	r1, r0, ip, lsr r9
 700:	03003421 	movweq	r3, #1057	; 0x421
 704:	3b0b3a0e 	blcc	2cef44 <__exidx_end+0x2cc98c>
 708:	3f13490b 	svccc	0x0013490b
 70c:	00193c19 	andseq	r3, r9, r9, lsl ip
 710:	00342200 	eorseq	r2, r4, r0, lsl #4
 714:	0b3a0e03 	bleq	e83f28 <__exidx_end+0xe81970>
 718:	13490b3b 	movtne	r0, #39739	; 0x9b3b
 71c:	1802193f 	stmdane	r2, {r0, r1, r2, r3, r4, r5, r8, fp, ip}
 720:	2e230000 	cdpcs	0, 2, cr0, cr3, cr0, {0}
 724:	3c193f00 	ldccc	15, cr3, [r9], {-0}
 728:	030e6e19 	movweq	r6, #60953	; 0xee19
 72c:	3b0b3a0e 	blcc	2cef6c <__exidx_end+0x2cc9b4>
 730:	0000000b 	andeq	r0, r0, fp
 734:	25011101 	strcs	r1, [r1, #-257]	; 0xfffffeff
 738:	030b130e 	movweq	r1, #45838	; 0xb30e
 73c:	550e1b0e 	strpl	r1, [lr, #-2830]	; 0xfffff4f2
 740:	10011117 	andne	r1, r1, r7, lsl r1
 744:	02000017 	andeq	r0, r0, #23
 748:	0b0b0024 	bleq	2c07e0 <__exidx_end+0x2be228>
 74c:	0e030b3e 	vmoveq.16	d3[0], r0
 750:	16030000 	strne	r0, [r3], -r0
 754:	3a0e0300 	bcc	38135c <__exidx_end+0x37eda4>
 758:	490b3b0b 	stmdbmi	fp, {r0, r1, r3, r8, r9, fp, ip, sp}
 75c:	04000013 	streq	r0, [r0], #-19	; 0xffffffed
 760:	0b0b0024 	bleq	2c07f8 <__exidx_end+0x2be240>
 764:	08030b3e 	stmdaeq	r3, {r1, r2, r3, r4, r5, r8, r9, fp}
 768:	04050000 	streq	r0, [r5], #-0
 76c:	0b0e0301 	bleq	381378 <__exidx_end+0x37edc0>
 770:	3a13490b 	bcc	4d2ba4 <__exidx_end+0x4d05ec>
 774:	010b3b0b 	tsteq	fp, fp, lsl #22
 778:	06000013 			; <UNDEFINED> instruction: 0x06000013
 77c:	0e030028 	cdpeq	0, 0, cr0, cr3, cr8, {1}
 780:	00000d1c 	andeq	r0, r0, ip, lsl sp
 784:	03002807 	movweq	r2, #2055	; 0x807
 788:	000b1c0e 	andeq	r1, fp, lr, lsl #24
 78c:	01130800 	tsteq	r3, r0, lsl #16
 790:	0b3a050b 	bleq	e81bc4 <__exidx_end+0xe7f60c>
 794:	1301053b 	movwne	r0, #5435	; 0x153b
 798:	0d090000 	stceq	0, cr0, [r9, #-0]
 79c:	3a0e0300 	bcc	3813a4 <__exidx_end+0x37edec>
 7a0:	49053b0b 	stmdbmi	r5, {r0, r1, r3, r8, r9, fp, ip, sp}
 7a4:	000b3813 	andeq	r3, fp, r3, lsl r8
 7a8:	000d0a00 	andeq	r0, sp, r0, lsl #20
 7ac:	0b3a0e03 	bleq	e83fc0 <__exidx_end+0xe81a08>
 7b0:	1349053b 	movtne	r0, #38203	; 0x953b
 7b4:	00000538 	andeq	r0, r0, r8, lsr r5
 7b8:	03000d0b 	movweq	r0, #3339	; 0xd0b
 7bc:	3b0b3a08 	blcc	2cefe4 <__exidx_end+0x2cca2c>
 7c0:	38134905 	ldmdacc	r3, {r0, r2, r8, fp, lr}
 7c4:	0c000005 	stceq	0, cr0, [r0], {5}
 7c8:	13490101 	movtne	r0, #37121	; 0x9101
 7cc:	00001301 	andeq	r1, r0, r1, lsl #6
 7d0:	4900210d 	stmdbmi	r0, {r0, r2, r3, r8, sp}
 7d4:	000b2f13 	andeq	r2, fp, r3, lsl pc
 7d8:	00350e00 	eorseq	r0, r5, r0, lsl #28
 7dc:	00001349 	andeq	r1, r0, r9, asr #6
 7e0:	4900210f 	stmdbmi	r0, {r0, r1, r2, r3, r8, sp}
 7e4:	00052f13 	andeq	r2, r5, r3, lsl pc
 7e8:	00161000 	andseq	r1, r6, r0
 7ec:	0b3a0e03 	bleq	e84000 <__exidx_end+0xe81a48>
 7f0:	1349053b 	movtne	r0, #38203	; 0x953b
 7f4:	26110000 	ldrcs	r0, [r1], -r0
 7f8:	00134900 	andseq	r4, r3, r0, lsl #18
 7fc:	01131200 	tsteq	r3, r0, lsl #4
 800:	0b3a0b0b 	bleq	e83434 <__exidx_end+0xe80e7c>
 804:	1301053b 	movwne	r0, #5435	; 0x153b
 808:	0d130000 	ldceq	0, cr0, [r3, #-0]
 80c:	3a080300 	bcc	201414 <__exidx_end+0x1fee5c>
 810:	49053b0b 	stmdbmi	r5, {r0, r1, r3, r8, r9, fp, ip, sp}
 814:	000b3813 	andeq	r3, fp, r3, lsl r8
 818:	002e1400 	eoreq	r1, lr, r0, lsl #8
 81c:	0b3a0e03 	bleq	e84030 <__exidx_end+0xe81a78>
 820:	1927053b 	stmdbne	r7!, {r0, r1, r3, r4, r5, r8, sl}
 824:	00000b20 	andeq	r0, r0, r0, lsr #22
 828:	03012e15 	movweq	r2, #7701	; 0x1e15
 82c:	3b0b3a0e 	blcc	2cf06c <__exidx_end+0x2ccab4>
 830:	20192705 	andscs	r2, r9, r5, lsl #14
 834:	0013010b 	andseq	r0, r3, fp, lsl #2
 838:	00051600 	andeq	r1, r5, r0, lsl #12
 83c:	0b3a0e03 	bleq	e84050 <__exidx_end+0xe81a98>
 840:	1349053b 	movtne	r0, #38203	; 0x953b
 844:	2e170000 	cdpcs	0, 1, cr0, cr7, cr0, {0}
 848:	03193f00 	tsteq	r9, #0, 30
 84c:	3b0b3a0e 	blcc	2cf08c <__exidx_end+0x2ccad4>
 850:	1119270b 	tstne	r9, fp, lsl #14
 854:	40061201 	andmi	r1, r6, r1, lsl #4
 858:	19429718 	stmdbne	r2, {r3, r4, r8, r9, sl, ip, pc}^
 85c:	2e180000 	cdpcs	0, 1, cr0, cr8, cr0, {0}
 860:	03193f01 	tsteq	r9, #1, 30
 864:	3b0b3a0e 	blcc	2cf0a4 <__exidx_end+0x2ccaec>
 868:	1119270b 	tstne	r9, fp, lsl #14
 86c:	40061201 	andmi	r1, r6, r1, lsl #4
 870:	19429718 	stmdbne	r2, {r3, r4, r8, r9, sl, ip, pc}^
 874:	00001301 	andeq	r1, r0, r1, lsl #6
 878:	03003419 	movweq	r3, #1049	; 0x419
 87c:	3b0b3a0e 	blcc	2cf0bc <__exidx_end+0x2ccb04>
 880:	0213490b 	andseq	r4, r3, #180224	; 0x2c000
 884:	1a000017 	bne	8e8 <updatePIDs+0x88>
 888:	1331011d 	teqne	r1, #1073741831	; 0x40000007
 88c:	06120111 			; <UNDEFINED> instruction: 0x06120111
 890:	0b590b58 	bleq	16435f8 <__exidx_end+0x1641040>
 894:	00001301 	andeq	r1, r0, r1, lsl #6
 898:	3100051b 	tstcc	r0, fp, lsl r5
 89c:	000b1c13 	andeq	r1, fp, r3, lsl ip
 8a0:	001d1c00 	andseq	r1, sp, r0, lsl #24
 8a4:	01111331 	tsteq	r1, r1, lsr r3
 8a8:	0b580612 	bleq	16020f8 <__exidx_end+0x15ffb40>
 8ac:	00000b59 	andeq	r0, r0, r9, asr fp
 8b0:	0300341d 	movweq	r3, #1053	; 0x41d
 8b4:	3b0b3a0e 	blcc	2cf0f4 <__exidx_end+0x2ccb3c>
 8b8:	3f134905 	svccc	0x00134905
 8bc:	00193c19 	andseq	r3, r9, r9, lsl ip
 8c0:	00341e00 	eorseq	r1, r4, r0, lsl #28
 8c4:	0b3a0e03 	bleq	e840d8 <__exidx_end+0xe81b20>
 8c8:	13490b3b 	movtne	r0, #39739	; 0x9b3b
 8cc:	1802193f 	stmdane	r2, {r0, r1, r2, r3, r4, r5, r8, fp, ip}
 8d0:	01000000 	mrseq	r0, (UNDEF: 0)
 8d4:	06100011 			; <UNDEFINED> instruction: 0x06100011
 8d8:	01120111 	tsteq	r2, r1, lsl r1
 8dc:	081b0803 	ldmdaeq	fp, {r0, r1, fp}
 8e0:	05130825 	ldreq	r0, [r3, #-2085]	; 0xfffff7db
 8e4:	Address 0x00000000000008e4 is out of bounds.


Disassembly of section .debug_loc:

00000000 <.debug_loc>:
	...
   8:	00510001 	subseq	r0, r1, r1
   c:	00000000 	andeq	r0, r0, r0
  10:	01000000 	mrseq	r0, (UNDEF: 0)
  14:	00005300 	andeq	r5, r0, r0, lsl #6
  18:	00000000 	andeq	r0, r0, r0
  1c:	00010000 	andeq	r0, r1, r0
  20:	00000053 	andeq	r0, r0, r3, asr r0
  24:	00000000 	andeq	r0, r0, r0
  28:	52000100 	andpl	r0, r0, #0, 2
	...
  34:	00530001 	subseq	r0, r3, r1
  38:	00000000 	andeq	r0, r0, r0
  3c:	01000000 	mrseq	r0, (UNDEF: 0)
  40:	00005300 	andeq	r5, r0, r0, lsl #6
  44:	00000000 	andeq	r0, r0, r0
  48:	00010000 	andeq	r0, r1, r0
  4c:	00000053 	andeq	r0, r0, r3, asr r0
	...
  5c:	73000700 	movwvc	r0, #1792	; 0x700
  60:	231a4f00 	tstcs	sl, #0, 30
  64:	00009f01 	andeq	r9, r0, r1, lsl #30
  68:	00000000 	andeq	r0, r0, r0
  6c:	00070000 	andeq	r0, r7, r0
  70:	1a4f0073 	bne	13c0244 <__exidx_end+0x13bdc8c>
  74:	009f1823 	addseq	r1, pc, r3, lsr #16
  78:	00000000 	andeq	r0, r0, r0
  7c:	bc000000 	stclt	0, cr0, [r0], {-0}
  80:	c2000005 	andgt	r0, r0, #5
  84:	01000005 	tsteq	r0, r5
  88:	05c25000 	strbeq	r5, [r2]
  8c:	06260000 	strteq	r0, [r6], -r0
  90:	00010000 	andeq	r0, r1, r0
  94:	00000054 	andeq	r0, r0, r4, asr r0
  98:	00000000 	andeq	r0, r0, r0
  9c:	0005bc00 	andeq	fp, r5, r0, lsl #24
  a0:	0005c600 	andeq	ip, r5, r0, lsl #12
  a4:	51000100 	mrspl	r0, (UNDEF: 16)
  a8:	000005c6 	andeq	r0, r0, r6, asr #11
  ac:	000005cd 	andeq	r0, r0, sp, asr #11
  b0:	cd500001 	ldclgt	0, cr0, [r0, #-4]
  b4:	26000005 	strcs	r0, [r0], -r5
  b8:	06000006 	streq	r0, [r0], -r6
  bc:	f503f300 			; <UNDEFINED> instruction: 0xf503f300
  c0:	009f2501 	addseq	r2, pc, r1, lsl #10
  c4:	00000000 	andeq	r0, r0, r0
  c8:	bc000000 	stclt	0, cr0, [r0], {-0}
  cc:	cd000005 	stcgt	0, cr0, [r0, #-20]	; 0xffffffec
  d0:	01000005 	tsteq	r0, r5
  d4:	05cd5200 	strbeq	r5, [sp, #512]	; 0x200
  d8:	06260000 	strteq	r0, [r6], -r0
  dc:	00010000 	andeq	r0, r1, r0
  e0:	00000055 	andeq	r0, r0, r5, asr r0
  e4:	00000000 	andeq	r0, r0, r0
  e8:	0005bc00 	andeq	fp, r5, r0, lsl #24
  ec:	0005cd00 	andeq	ip, r5, r0, lsl #26
  f0:	53000100 	movwpl	r0, #256	; 0x100
  f4:	000005cd 	andeq	r0, r0, sp, asr #11
  f8:	00000626 	andeq	r0, r0, r6, lsr #12
  fc:	00560001 	subseq	r0, r6, r1
 100:	00000000 	andeq	r0, r0, r0
 104:	16000000 	strne	r0, [r0], -r0
 108:	1c000006 	stcne	0, cr0, [r0], {6}
 10c:	02000006 	andeq	r0, r0, #6
 110:	1c9f3000 	ldcne	0, cr3, [pc], {0}
 114:	1e000006 	cdpne	0, 0, cr0, cr0, cr6, {0}
 118:	02000006 	andeq	r0, r0, #6
 11c:	1e9f3100 	fmlnee	f3, f7, f0
 120:	20000006 	andcs	r0, r0, r6
 124:	02000006 	andeq	r0, r0, #6
 128:	209f3200 	addscs	r3, pc, r0, lsl #4
 12c:	22000006 	andcs	r0, r0, #6
 130:	02000006 	andeq	r0, r0, #6
 134:	229f3300 	addscs	r3, pc, #0, 6
 138:	26000006 	strcs	r0, [r0], -r6
 13c:	02000006 	andeq	r0, r0, #6
 140:	009f3400 	addseq	r3, pc, r0, lsl #8
 144:	00000000 	andeq	r0, r0, r0
 148:	26000000 	strcs	r0, [r0], -r0
 14c:	30000006 	andcc	r0, r0, r6
 150:	01000006 	tsteq	r0, r6
 154:	06305000 	ldrteq	r5, [r0], -r0
 158:	06b40000 	ldrteq	r0, [r4], r0
 15c:	00010000 	andeq	r0, r1, r0
 160:	0006b454 	andeq	fp, r6, r4, asr r4
 164:	0006c200 	andeq	ip, r6, r0, lsl #4
 168:	f3000400 	vshl.u8	d0, d0, d0
 16c:	c29f5001 	addsgt	r5, pc, #1
 170:	c4000006 	strgt	r0, [r0], #-6
 174:	01000006 	tsteq	r0, r6
 178:	06c45400 	strbeq	r5, [r4], r0, lsl #8
 17c:	06ca0000 	strbeq	r0, [sl], r0
 180:	00040000 	andeq	r0, r4, r0
 184:	9f5001f3 	svcls	0x005001f3
	...
 190:	00000626 	andeq	r0, r0, r6, lsr #12
 194:	00000635 	andeq	r0, r0, r5, lsr r6
 198:	35510001 	ldrbcc	r0, [r1, #-1]
 19c:	46000006 	strmi	r0, [r0], -r6
 1a0:	01000006 	tsteq	r0, r6
 1a4:	06465600 	strbeq	r5, [r6], -r0, lsl #12
 1a8:	06500000 	ldrbeq	r0, [r0], -r0
 1ac:	00010000 	andeq	r0, r1, r0
 1b0:	00000055 	andeq	r0, r0, r5, asr r0
 1b4:	00000000 	andeq	r0, r0, r0
 1b8:	00065400 	andeq	r5, r6, r0, lsl #8
 1bc:	00065800 	andeq	r5, r6, r0, lsl #16
 1c0:	50000100 	andpl	r0, r0, r0, lsl #2
 1c4:	00000658 	andeq	r0, r0, r8, asr r6
 1c8:	000006a8 	andeq	r0, r0, r8, lsr #13
 1cc:	00560001 	subseq	r0, r6, r1
 1d0:	00000000 	andeq	r0, r0, r0
 1d4:	54000000 	strpl	r0, [r0], #-0
 1d8:	5c000006 	stcpl	0, cr0, [r0], {6}
 1dc:	02000006 	andeq	r0, r0, #6
 1e0:	5c9f3000 	ldcpl	0, cr3, [pc], {0}
 1e4:	66000006 	strvs	r0, [r0], -r6
 1e8:	02000006 	andeq	r0, r0, #6
 1ec:	669f3100 	ldrvs	r3, [pc], r0, lsl #2
 1f0:	6e000006 	cdpvs	0, 0, cr0, cr0, cr6, {0}
 1f4:	02000006 	andeq	r0, r0, #6
 1f8:	6e9f3200 	cdpvs	2, 9, cr3, cr15, cr0, {0}
 1fc:	ca000006 	bgt	21c <Heap_Size+0x11c>
 200:	02000006 	andeq	r0, r0, #6
 204:	009f3300 	addseq	r3, pc, r0, lsl #6
 208:	00000000 	andeq	r0, r0, r0
 20c:	84000000 	strhi	r0, [r0], #-0
 210:	86000006 	strhi	r0, [r0], -r6
 214:	01000006 	tsteq	r0, r6
 218:	06865000 	streq	r5, [r6], r0
 21c:	069a0000 	ldreq	r0, [sl], r0
 220:	00010000 	andeq	r0, r1, r0
 224:	00069a58 	andeq	r9, r6, r8, asr sl
 228:	00069c00 	andeq	r9, r6, r0, lsl #24
 22c:	50000100 	andpl	r0, r0, r0, lsl #2
 230:	0000069c 	muleq	r0, ip, r6
 234:	000006ac 	andeq	r0, r0, ip, lsr #13
 238:	ac550001 	mrrcge	0, 0, r0, r5, cr1
 23c:	af000006 	svcge	0x00000006
 240:	01000006 	tsteq	r0, r6
 244:	06af5000 	strteq	r5, [pc], r0
 248:	06c00000 	strbeq	r0, [r0], r0
 24c:	00010000 	andeq	r0, r1, r0
 250:	0006c255 	andeq	ip, r6, r5, asr r2
 254:	0006ca00 	andeq	ip, r6, r0, lsl #20
 258:	55000100 	strpl	r0, [r0, #-256]	; 0xffffff00
	...
 264:	00000654 	andeq	r0, r0, r4, asr r6
 268:	00000658 	andeq	r0, r0, r8, asr r6
 26c:	00f50008 	rscseq	r0, r5, r8
 270:	2505f525 	strcs	pc, [r5, #-1317]	; 0xfffffadb
 274:	06589f1c 	uadd16eq	r9, r8, ip
 278:	069a0000 	ldreq	r0, [sl], r0
 27c:	00080000 	andeq	r0, r8, r0
 280:	f52506f5 			; <UNDEFINED> instruction: 0xf52506f5
 284:	9f1c2505 	svcls	0x001c2505
	...
 290:	00000626 	andeq	r0, r0, r6, lsr #12
 294:	0000065c 	andeq	r0, r0, ip, asr r6
 298:	049e0006 	ldreq	r0, [lr], #6
 29c:	00000000 	andeq	r0, r0, r0
 2a0:	0000065c 	andeq	r0, r0, ip, asr r6
 2a4:	00000662 	andeq	r0, r0, r2, ror #12
 2a8:	62500001 	subsvs	r0, r0, #1
 2ac:	65000006 	strvs	r0, [r0, #-6]
 2b0:	01000006 	tsteq	r0, r6
 2b4:	06665100 	strbteq	r5, [r6], -r0, lsl #2
 2b8:	066d0000 	strbteq	r0, [sp], -r0
 2bc:	00010000 	andeq	r0, r1, r0
 2c0:	00066e50 	andeq	r6, r6, r0, asr lr
 2c4:	00067300 	andeq	r7, r6, r0, lsl #6
 2c8:	50000100 	andpl	r0, r0, r0, lsl #2
 2cc:	00000678 	andeq	r0, r0, r8, ror r6
 2d0:	0000067c 	andeq	r0, r0, ip, ror r6
 2d4:	7c500001 	mrrcvc	0, 0, r0, r0, cr1	; <UNPREDICTABLE>
 2d8:	ca000006 	bgt	2f8 <Heap_Size+0x1f8>
 2dc:	01000006 	tsteq	r0, r6
 2e0:	00005700 	andeq	r5, r0, r0, lsl #14
 2e4:	00000000 	andeq	r0, r0, r0
 2e8:	06ca0000 	strbeq	r0, [sl], r0
 2ec:	06da0000 	ldrbeq	r0, [sl], r0
 2f0:	00010000 	andeq	r0, r1, r0
 2f4:	0006da50 	andeq	sp, r6, r0, asr sl
 2f8:	00075e00 	andeq	r5, r7, r0, lsl #28
 2fc:	54000100 	strpl	r0, [r0], #-256	; 0xffffff00
 300:	0000075e 	andeq	r0, r0, lr, asr r7
 304:	0000076c 	andeq	r0, r0, ip, ror #14
 308:	01f30004 	mvnseq	r0, r4
 30c:	076c9f50 			; <UNDEFINED> instruction: 0x076c9f50
 310:	076e0000 	strbeq	r0, [lr, -r0]!
 314:	00010000 	andeq	r0, r1, r0
 318:	00076e54 	andeq	r6, r7, r4, asr lr
 31c:	00077400 	andeq	r7, r7, r0, lsl #8
 320:	f3000400 	vshl.u8	d0, d0, d0
 324:	009f5001 	addseq	r5, pc, r1
 328:	00000000 	andeq	r0, r0, r0
 32c:	ca000000 	bgt	334 <Heap_Size+0x234>
 330:	d8000006 	stmdale	r0, {r1, r2}
 334:	01000006 	tsteq	r0, r6
 338:	06d85100 	ldrbeq	r5, [r8], r0, lsl #2
 33c:	07220000 	streq	r0, [r2, -r0]!
 340:	00010000 	andeq	r0, r1, r0
 344:	00072257 	andeq	r2, r7, r7, asr r2
 348:	00077400 	andeq	r7, r7, r0, lsl #8
 34c:	f3000600 	vmax.u8	d0, d0, d0
 350:	2501f503 	strcs	pc, [r1, #-1283]	; 0xfffffafd
 354:	0000009f 	muleq	r0, pc, r0	; <UNPREDICTABLE>
 358:	00000000 	andeq	r0, r0, r0
 35c:	0006ca00 	andeq	ip, r6, r0, lsl #20
 360:	0006df00 	andeq	sp, r6, r0, lsl #30
 364:	52000100 	andpl	r0, r0, #0, 2
 368:	000006df 	ldrdeq	r0, [r0], -pc	; <UNPREDICTABLE>
 36c:	000006f0 	strdeq	r0, [r0], -r0	; <UNPREDICTABLE>
 370:	f0560001 			; <UNDEFINED> instruction: 0xf0560001
 374:	fa000006 	blx	394 <Heap_Size+0x294>
 378:	01000006 	tsteq	r0, r6
 37c:	00005500 	andeq	r5, r0, r0, lsl #10
 380:	00000000 	andeq	r0, r0, r0
 384:	06fe0000 	ldrbteq	r0, [lr], r0
 388:	07020000 	streq	r0, [r2, -r0]
 38c:	00010000 	andeq	r0, r1, r0
 390:	00070250 	andeq	r0, r7, r0, asr r2
 394:	00075200 	andeq	r5, r7, r0, lsl #4
 398:	56000100 	strpl	r0, [r0], -r0, lsl #2
	...
 3a4:	000006fe 	strdeq	r0, [r0], -lr
 3a8:	00000706 	andeq	r0, r0, r6, lsl #14
 3ac:	9f300002 	svcls	0x00300002
 3b0:	00000706 	andeq	r0, r0, r6, lsl #14
 3b4:	00000710 	andeq	r0, r0, r0, lsl r7
 3b8:	9f310002 	svcls	0x00310002
 3bc:	00000710 	andeq	r0, r0, r0, lsl r7
 3c0:	00000718 	andeq	r0, r0, r8, lsl r7
 3c4:	9f320002 	svcls	0x00320002
 3c8:	00000718 	andeq	r0, r0, r8, lsl r7
 3cc:	00000774 	andeq	r0, r0, r4, ror r7
 3d0:	9f330002 	svcls	0x00330002
	...
 3dc:	0000072e 	andeq	r0, r0, lr, lsr #14
 3e0:	00000730 	andeq	r0, r0, r0, lsr r7
 3e4:	30500001 	subscc	r0, r0, r1
 3e8:	44000007 	strmi	r0, [r0], #-7
 3ec:	01000007 	tsteq	r0, r7
 3f0:	07445800 	strbeq	r5, [r4, -r0, lsl #16]
 3f4:	07460000 	strbeq	r0, [r6, -r0]
 3f8:	00010000 	andeq	r0, r1, r0
 3fc:	00074650 	andeq	r4, r7, r0, asr r6
 400:	00075600 	andeq	r5, r7, r0, lsl #12
 404:	55000100 	strpl	r0, [r0, #-256]	; 0xffffff00
 408:	00000756 	andeq	r0, r0, r6, asr r7
 40c:	00000759 	andeq	r0, r0, r9, asr r7
 410:	59500001 	ldmdbpl	r0, {r0}^
 414:	6a000007 	bvs	438 <frame_dummy>
 418:	01000007 	tsteq	r0, r7
 41c:	076c5500 	strbeq	r5, [ip, -r0, lsl #10]!
 420:	07740000 	ldrbeq	r0, [r4, -r0]!
 424:	00010000 	andeq	r0, r1, r0
 428:	00000055 	andeq	r0, r0, r5, asr r0
 42c:	00000000 	andeq	r0, r0, r0
 430:	0006fe00 	andeq	pc, r6, r0, lsl #28
 434:	00070200 	andeq	r0, r7, r0, lsl #4
 438:	f5000800 			; <UNDEFINED> instruction: 0xf5000800
 43c:	05f52500 	ldrbeq	r2, [r5, #1280]!	; 0x500
 440:	029f1c25 	addseq	r1, pc, #9472	; 0x2500
 444:	44000007 	strmi	r0, [r0], #-7
 448:	08000007 	stmdaeq	r0, {r0, r1, r2}
 44c:	2506f500 	strcs	pc, [r6, #-1280]	; 0xfffffb00
 450:	1c2505f5 	cfstr32ne	mvfx0, [r5], #-980	; 0xfffffc2c
 454:	0000009f 	muleq	r0, pc, r0	; <UNPREDICTABLE>
 458:	00000000 	andeq	r0, r0, r0
 45c:	0006d400 	andeq	sp, r6, r0, lsl #8
 460:	00070600 	andeq	r0, r7, r0, lsl #12
 464:	9e000600 	cfmadd32ls	mvax0, mvfx0, mvfx0, mvfx0
 468:	00000004 	andeq	r0, r0, r4
 46c:	00070600 	andeq	r0, r7, r0, lsl #12
 470:	00070c00 	andeq	r0, r7, r0, lsl #24
 474:	50000100 	andpl	r0, r0, r0, lsl #2
 478:	0000070c 	andeq	r0, r0, ip, lsl #14
 47c:	0000070f 	andeq	r0, r0, pc, lsl #14
 480:	10510001 	subsne	r0, r1, r1
 484:	17000007 	strne	r0, [r0, -r7]
 488:	01000007 	tsteq	r0, r7
 48c:	07185000 	ldreq	r5, [r8, -r0]
 490:	071d0000 	ldreq	r0, [sp, -r0]
 494:	00010000 	andeq	r0, r1, r0
 498:	00072250 	andeq	r2, r7, r0, asr r2
 49c:	00072600 	andeq	r2, r7, r0, lsl #12
 4a0:	50000100 	andpl	r0, r0, r0, lsl #2
 4a4:	00000726 	andeq	r0, r0, r6, lsr #14
 4a8:	00000774 	andeq	r0, r0, r4, ror r7
 4ac:	00570001 	subseq	r0, r7, r1
 4b0:	00000000 	andeq	r0, r0, r0
 4b4:	74000000 	strvc	r0, [r0], #-0
 4b8:	7e000007 	cdpvc	0, 0, cr0, cr0, cr7, {0}
 4bc:	01000007 	tsteq	r0, r7
 4c0:	077e5000 	ldrbeq	r5, [lr, -r0]!
 4c4:	07860000 	streq	r0, [r6, r0]
 4c8:	00050000 	andeq	r0, r5, r0
 4cc:	ff02c803 			; <UNDEFINED> instruction: 0xff02c803
 4d0:	0007861f 	andeq	r8, r7, pc, lsl r6
 4d4:	0007c400 	andeq	ip, r7, r0, lsl #8
 4d8:	f3000400 	vshl.u8	d0, d0, d0
 4dc:	009f5001 	addseq	r5, pc, r1
	...
 4ec:	01000000 	mrseq	r0, (UNDEF: 0)
 4f0:	00005000 	andeq	r5, r0, r0
 4f4:	00000000 	andeq	r0, r0, r0
 4f8:	00050000 	andeq	r0, r5, r0
 4fc:	ff02cc03 			; <UNDEFINED> instruction: 0xff02cc03
 500:	0000001f 	andeq	r0, r0, pc, lsl r0
 504:	00000000 	andeq	r0, r0, r0
 508:	f3000400 	vshl.u8	d0, d0, d0
 50c:	009f5001 	addseq	r5, pc, r1
 510:	00000000 	andeq	r0, r0, r0
 514:	04000000 	streq	r0, [r0], #-0
 518:	14000008 	strne	r0, [r0], #-8
 51c:	01000008 	tsteq	r0, r8
 520:	08145000 	ldmdaeq	r4, {ip, lr}
 524:	08380000 	ldmdaeq	r8!, {}	; <UNPREDICTABLE>
 528:	00040000 	andeq	r0, r4, r0
 52c:	9f5001f3 	svcls	0x005001f3
	...
 538:	0000080c 	andeq	r0, r0, ip, lsl #16
 53c:	0000080e 	andeq	r0, r0, lr, lsl #16
 540:	00730019 	rsbseq	r0, r3, r9, lsl r0
 544:	7125f706 	msrvc	SP_abt, r6
 548:	1b25f700 	blne	97e150 <__exidx_end+0x97bb98>
 54c:	007000f7 	ldrshteq	r0, [r0], #-7
 550:	0825f71e 	stmdaeq	r5!, {r1, r2, r3, r4, r8, r9, sl, ip, sp, lr, pc}
 554:	1b25f764 	blne	97e2ec <__exidx_end+0x97bd34>
 558:	0e9f00f7 	mrceq	0, 4, r0, cr15, cr7, {7}
 55c:	12000008 	andne	r0, r0, #8
 560:	18000008 	stmdane	r0, {r3}
 564:	f7007300 			; <UNDEFINED> instruction: 0xf7007300
 568:	f7007125 			; <UNDEFINED> instruction: 0xf7007125
 56c:	00f71b25 	rscseq	r1, r7, r5, lsr #22
 570:	f71e0070 			; <UNDEFINED> instruction: 0xf71e0070
 574:	f7640825 			; <UNDEFINED> instruction: 0xf7640825
 578:	00f71b25 	rscseq	r1, r7, r5, lsr #22
 57c:	0000009f 	muleq	r0, pc, r0	; <UNPREDICTABLE>
	...
 58c:	50000100 	andpl	r0, r0, r0, lsl #2
	...
 598:	28030005 	stmdacs	r3, {r0, r2}
 59c:	001fff02 	andseq	pc, pc, r2, lsl #30
 5a0:	00000000 	andeq	r0, r0, r0
 5a4:	04000000 	streq	r0, [r0], #-0
 5a8:	5001f300 	andpl	pc, r1, r0, lsl #6
 5ac:	0000009f 	muleq	r0, pc, r0	; <UNPREDICTABLE>
	...
 5bc:	53000100 	movwpl	r0, #256	; 0x100
	...
 5d0:	73310005 	teqvc	r1, #5
 5d4:	009f2400 	addseq	r2, pc, r0, lsl #8
 5d8:	00000000 	andeq	r0, r0, r0
 5dc:	05000000 	streq	r0, [r0, #-0]
 5e0:	7f733100 	svcvc	0x00733100
 5e4:	00009f24 	andeq	r9, r0, r4, lsr #30
 5e8:	00000000 	andeq	r0, r0, r0
 5ec:	00050000 	andeq	r0, r5, r0
 5f0:	24007331 	strcs	r7, [r0], #-817	; 0xfffffccf
 5f4:	0000009f 	muleq	r0, pc, r0	; <UNPREDICTABLE>
	...
 604:	30000200 	andcc	r0, r0, r0, lsl #4
 608:	0000009f 	muleq	r0, pc, r0	; <UNPREDICTABLE>
 60c:	00000000 	andeq	r0, r0, r0
 610:	53000100 	movwpl	r0, #256	; 0x100
	...
 61c:	000008a0 	andeq	r0, r0, r0, lsr #17
 620:	000008a6 	andeq	r0, r0, r6, lsr #17
 624:	00740007 	rsbseq	r0, r4, r7
 628:	26402440 	strbcs	r2, [r0], -r0, asr #8
 62c:	0008a69f 	muleq	r8, pc, r6	; <UNPREDICTABLE>
 630:	0008a900 	andeq	sl, r8, r0, lsl #18
 634:	50000100 	andpl	r0, r0, r0, lsl #2
 638:	000008a9 	andeq	r0, r0, r9, lsr #17
 63c:	000008de 	ldrdeq	r0, [r0], -lr
 640:	00740007 	rsbseq	r0, r4, r7
 644:	26402440 	strbcs	r2, [r0], -r0, asr #8
 648:	0000009f 	muleq	r0, pc, r0	; <UNPREDICTABLE>
 64c:	00000000 	andeq	r0, r0, r0
 650:	000a0c00 	andeq	r0, sl, r0, lsl #24
 654:	000a1800 	andeq	r1, sl, r0, lsl #16
 658:	91000900 	tstls	r0, r0, lsl #18
 65c:	0a0677ec 	beq	19e614 <__exidx_end+0x19c05c>
 660:	9f1b03e8 	svcls	0x001b03e8
 664:	00000a18 	andeq	r0, r0, r8, lsl sl
 668:	00000a1b 	andeq	r0, r0, fp, lsl sl
 66c:	1b510001 	blne	1440678 <__exidx_end+0x143e0c0>
 670:	2800000a 	stmdacs	r0, {r1, r3}
 674:	0900000a 	stmdbeq	r0, {r1, r3}
 678:	77ec9100 	strbvc	r9, [ip, r0, lsl #2]!
 67c:	03e80a06 	mvneq	r0, #24576	; 0x6000
 680:	00009f1b 	andeq	r9, r0, fp, lsl pc
 684:	00000000 	andeq	r0, r0, r0
 688:	09a20000 	stmibeq	r2!, {}	; <UNPREDICTABLE>
 68c:	09b00000 	ldmibeq	r0!, {}	; <UNPREDICTABLE>
 690:	00010000 	andeq	r0, r1, r0
 694:	0009b050 	andeq	fp, r9, r0, asr r0
 698:	000a2800 	andeq	r2, sl, r0, lsl #16
 69c:	91000300 	mrsls	r0, LR_irq
 6a0:	000077ec 	andeq	r7, r0, ip, ror #15
 6a4:	00000000 	andeq	r0, r0, r0
 6a8:	0b1e0000 	bleq	7806b0 <__exidx_end+0x77e0f8>
 6ac:	0b220000 	bleq	8806b4 <__exidx_end+0x87e0fc>
 6b0:	00010000 	andeq	r0, r1, r0
 6b4:	000b2251 	andeq	r2, fp, r1, asr r2
 6b8:	000b3c00 	andeq	r3, fp, r0, lsl #24
 6bc:	52000100 	andpl	r0, r0, #0, 2
 6c0:	00000b3c 	andeq	r0, r0, ip, lsr fp
 6c4:	00000b40 	andeq	r0, r0, r0, asr #22
 6c8:	40510001 	subsmi	r0, r1, r1
 6cc:	5a00000b 	bpl	700 <PIDSetGoal+0x36>
 6d0:	0100000b 	tsteq	r0, fp
 6d4:	0b5a5200 	bleq	1694edc <__exidx_end+0x1692924>
 6d8:	0b620000 	bleq	18806e0 <__exidx_end+0x187e128>
 6dc:	00020000 	andeq	r0, r2, r0
 6e0:	00003073 	andeq	r3, r0, r3, ror r0
 6e4:	00000000 	andeq	r0, r0, r0
	...

Disassembly of section .debug_aranges:

00000000 <.debug_aranges>:
   0:	00000024 	andeq	r0, r0, r4, lsr #32
   4:	00000002 	andeq	r0, r0, r2
   8:	00040000 	andeq	r0, r4, r0
   c:	00000000 	andeq	r0, r0, r0
  10:	000004d4 	ldrdeq	r0, [r0], -r4
  14:	000000e8 	andeq	r0, r0, r8, ror #1
  18:	00000000 	andeq	r0, r0, r0
  1c:	00000128 	andeq	r0, r0, r8, lsr #2
	...
  28:	0000002c 	andeq	r0, r0, ip, lsr #32
  2c:	05ad0002 	streq	r0, [sp, #2]!
  30:	00040000 	andeq	r0, r4, r0
  34:	00000000 	andeq	r0, r0, r0
  38:	000005bc 			; <UNDEFINED> instruction: 0x000005bc
  3c:	0000006a 	andeq	r0, r0, sl, rrx
  40:	00000626 	andeq	r0, r0, r6, lsr #12
  44:	000000a4 	andeq	r0, r0, r4, lsr #1
  48:	000006ca 	andeq	r0, r0, sl, asr #13
  4c:	000000aa 	andeq	r0, r0, sl, lsr #1
	...
  58:	00000044 	andeq	r0, r0, r4, asr #32
  5c:	08410002 	stmdaeq	r1, {r1}^
  60:	00040000 	andeq	r0, r4, r0
  64:	00000000 	andeq	r0, r0, r0
  68:	00000774 	andeq	r0, r0, r4, ror r7
  6c:	00000050 	andeq	r0, r0, r0, asr r0
  70:	00000000 	andeq	r0, r0, r0
  74:	00000050 	andeq	r0, r0, r0, asr r0
  78:	00000000 	andeq	r0, r0, r0
  7c:	00000010 	andeq	r0, r0, r0, lsl r0
  80:	00000000 	andeq	r0, r0, r0
  84:	00000010 	andeq	r0, r0, r0, lsl r0
  88:	000007c4 	andeq	r0, r0, r4, asr #15
  8c:	00000020 	andeq	r0, r0, r0, lsr #32
  90:	000007e4 	andeq	r0, r0, r4, ror #15
  94:	00000020 	andeq	r0, r0, r0, lsr #32
	...
  a0:	0000002c 	andeq	r0, r0, ip, lsr #32
  a4:	109c0002 	addsne	r0, ip, r2
  a8:	00040000 	andeq	r0, r4, r0
  ac:	00000000 	andeq	r0, r0, r0
  b0:	00000804 	andeq	r0, r0, r4, lsl #16
  b4:	00000034 	andeq	r0, r0, r4, lsr r0
  b8:	00000000 	andeq	r0, r0, r0
  bc:	000000a4 	andeq	r0, r0, r4, lsr #1
  c0:	00000838 	andeq	r0, r0, r8, lsr r8
  c4:	00000024 	andeq	r0, r0, r4, lsr #32
	...
  d0:	0000002c 	andeq	r0, r0, ip, lsr #32
  d4:	164c0002 	strbne	r0, [ip], -r2
  d8:	00040000 	andeq	r0, r4, r0
  dc:	00000000 	andeq	r0, r0, r0
  e0:	00000860 	andeq	r0, r0, r0, ror #16
  e4:	000000b0 	strheq	r0, [r0], -r0	; <UNPREDICTABLE>
  e8:	00000910 	andeq	r0, r0, r0, lsl r9
  ec:	000001e0 	andeq	r0, r0, r0, ror #3
  f0:	00000000 	andeq	r0, r0, r0
  f4:	00000002 	andeq	r0, r0, r2
	...
 100:	00000034 	andeq	r0, r0, r4, lsr r0
 104:	1d9c0002 	ldcne	0, cr0, [ip, #8]
 108:	00040000 	andeq	r0, r4, r0
	...
 114:	00000028 	andeq	r0, r0, r8, lsr #32
 118:	00000000 	andeq	r0, r0, r0
 11c:	0000002c 	andeq	r0, r0, ip, lsr #32
 120:	00000af0 	strdeq	r0, [r0], -r0	; <UNPREDICTABLE>
 124:	0000009c 	muleq	r0, ip, r0
 128:	00000b8c 	andeq	r0, r0, ip, lsl #23
 12c:	0000002c 	andeq	r0, r0, ip, lsr #32
	...
 138:	0000001c 	andeq	r0, r0, ip, lsl r0
 13c:	283d0002 	ldmdacs	sp!, {r1}
 140:	00040000 	andeq	r0, r4, r0
 144:	00000000 	andeq	r0, r0, r0
 148:	00000bb8 			; <UNDEFINED> instruction: 0x00000bb8
 14c:	00000058 	andeq	r0, r0, r8, asr r0
	...

Disassembly of section .debug_ranges:

00000000 <.debug_ranges>:
   0:	000004d4 	ldrdeq	r0, [r0], -r4
   4:	000005bc 			; <UNDEFINED> instruction: 0x000005bc
   8:	00000001 	andeq	r0, r0, r1
   c:	00000001 	andeq	r0, r0, r1
	...
  18:	000005bc 			; <UNDEFINED> instruction: 0x000005bc
  1c:	00000626 	andeq	r0, r0, r6, lsr #12
  20:	00000626 	andeq	r0, r0, r6, lsr #12
  24:	000006ca 	andeq	r0, r0, sl, asr #13
  28:	000006ca 	andeq	r0, r0, sl, asr #13
  2c:	00000774 	andeq	r0, r0, r4, ror r7
	...
  38:	00000774 	andeq	r0, r0, r4, ror r7
  3c:	000007c4 	andeq	r0, r0, r4, asr #15
  40:	00000001 	andeq	r0, r0, r1
  44:	00000001 	andeq	r0, r0, r1
  48:	00000001 	andeq	r0, r0, r1
  4c:	00000001 	andeq	r0, r0, r1
  50:	00000001 	andeq	r0, r0, r1
  54:	00000001 	andeq	r0, r0, r1
  58:	000007c4 	andeq	r0, r0, r4, asr #15
  5c:	000007e4 	andeq	r0, r0, r4, ror #15
  60:	000007e4 	andeq	r0, r0, r4, ror #15
  64:	00000804 	andeq	r0, r0, r4, lsl #16
	...
  70:	00000804 	andeq	r0, r0, r4, lsl #16
  74:	00000838 	andeq	r0, r0, r8, lsr r8
  78:	00000001 	andeq	r0, r0, r1
  7c:	00000001 	andeq	r0, r0, r1
  80:	00000838 	andeq	r0, r0, r8, lsr r8
  84:	0000085c 	andeq	r0, r0, ip, asr r8
	...
  90:	00000860 	andeq	r0, r0, r0, ror #16
  94:	00000910 	andeq	r0, r0, r0, lsl r9
  98:	00000910 	andeq	r0, r0, r0, lsl r9
  9c:	00000af0 	strdeq	r0, [r0], -r0	; <UNPREDICTABLE>
  a0:	00000001 	andeq	r0, r0, r1
  a4:	00000001 	andeq	r0, r0, r1
	...
  b0:	00000001 	andeq	r0, r0, r1
  b4:	00000001 	andeq	r0, r0, r1
  b8:	00000001 	andeq	r0, r0, r1
  bc:	00000001 	andeq	r0, r0, r1
  c0:	00000af0 	strdeq	r0, [r0], -r0	; <UNPREDICTABLE>
  c4:	00000b8c 	andeq	r0, r0, ip, lsl #23
  c8:	00000b8c 	andeq	r0, r0, ip, lsl #23
  cc:	00000bb8 			; <UNDEFINED> instruction: 0x00000bb8
	...

Disassembly of section .debug_line:

00000000 <.debug_line>:
   0:	00000147 	andeq	r0, r0, r7, asr #2
   4:	00bb0002 	adcseq	r0, fp, r2
   8:	01020000 	mrseq	r0, (UNDEF: 2)
   c:	000d0efb 	strdeq	r0, [sp], -fp
  10:	01010101 	tsteq	r1, r1, lsl #2
  14:	01000000 	mrseq	r0, (UNDEF: 0)
  18:	2e010000 	cdpcs	0, 0, cr0, cr1, cr0, {0}
  1c:	736d632f 	cmnvc	sp, #-1140850688	; 0xbc000000
  20:	4d2f7369 	stcmi	3, cr7, [pc, #-420]!	; fffffe84 <__StackTop+0xdffcfe84>
  24:	4634364b 	ldrtmi	r3, [r4], -fp, asr #12
  28:	2f003231 	svccs	0x00003231
  2c:	2f727375 	svccs	0x00727375
  30:	2d6d7261 	sfmcs	f7, 2, [sp, #-388]!	; 0xfffffe7c
  34:	656e6f6e 	strbvs	r6, [lr, #-3950]!	; 0xfffff092
  38:	6261652d 	rsbvs	r6, r1, #188743680	; 0xb400000
  3c:	6e692f69 	cdpvs	15, 6, cr2, cr9, cr9, {3}
  40:	64756c63 	ldrbtvs	r6, [r5], #-3171	; 0xfffff39d
  44:	616d2f65 	cmnvs	sp, r5, ror #30
  48:	6e696863 	cdpvs	8, 6, cr6, cr9, cr3, {3}
  4c:	752f0065 	strvc	r0, [pc, #-101]!	; ffffffef <__StackTop+0xdffcffef>
  50:	612f7273 	teqvs	pc, r3, ror r2	; <UNPREDICTABLE>
  54:	6e2d6d72 	mcrvs	13, 1, r6, cr13, cr2, {3}
  58:	2d656e6f 	stclcs	14, cr6, [r5, #-444]!	; 0xfffffe44
  5c:	69626165 	stmdbvs	r2!, {r0, r2, r5, r6, r8, sp, lr}^
  60:	636e692f 	cmnvs	lr, #770048	; 0xbc000
  64:	6564756c 	strbvs	r7, [r4, #-1388]!	; 0xfffffa94
  68:	7379732f 	cmnvc	r9, #-1140850688	; 0xbc000000
  6c:	736d6300 	cmnvc	sp, #0, 6
  70:	00007369 	andeq	r7, r0, r9, ror #6
  74:	74737973 	ldrbtvc	r7, [r3], #-2419	; 0xfffff68d
  78:	4d5f6d65 	ldclmi	13, cr6, [pc, #-404]	; fffffeec <__StackTop+0xdffcfeec>
  7c:	4634364b 	ldrtmi	r3, [r4], -fp, asr #12
  80:	632e3231 	teqvs	lr, #268435459	; 0x10000003
  84:	00000100 	andeq	r0, r0, r0, lsl #2
  88:	6665645f 			; <UNDEFINED> instruction: 0x6665645f
  8c:	746c7561 	strbtvc	r7, [ip], #-1377	; 0xfffffa9f
  90:	7079745f 	rsbsvc	r7, r9, pc, asr r4
  94:	682e7365 	stmdavs	lr!, {r0, r2, r5, r6, r8, r9, ip, sp, lr}
  98:	00000200 	andeq	r0, r0, r0, lsl #4
  9c:	6474735f 	ldrbtvs	r7, [r4], #-863	; 0xfffffca1
  a0:	2e746e69 	cdpcs	14, 7, cr6, cr4, cr9, {3}
  a4:	00030068 	andeq	r0, r3, r8, rrx
  a8:	364b4d00 	strbcc	r4, [fp], -r0, lsl #26
  ac:	32314634 	eorscc	r4, r1, #52, 12	; 0x3400000
  b0:	0100682e 	tsteq	r0, lr, lsr #16
  b4:	6f630000 	svcvs	0x00630000
  b8:	635f6572 	cmpvs	pc, #478150656	; 0x1c800000
  bc:	682e346d 	stmdavs	lr!, {r0, r2, r3, r5, r6, sl, ip, sp}
  c0:	00000400 	andeq	r0, r0, r0, lsl #8
  c4:	02050000 	andeq	r0, r5, #0
  c8:	000004d4 	ldrdeq	r0, [r0], -r4
  cc:	01018003 	tsteq	r1, r3
  d0:	033e4c19 	teqeq	lr, #6400	; 0x1900
  d4:	27033c0d 	strcs	r3, [r3, -sp, lsl #24]
  d8:	2e59032e 	cdpcs	3, 5, cr0, cr9, cr14, {1}
  dc:	58250330 	stmdapl	r5!, {r4, r5, r8, r9}
  e0:	4c685d5a 	stclmi	13, cr5, [r8], #-360	; 0xfffffe98
  e4:	4c3e3e77 	ldcmi	14, cr3, [lr], #-476	; 0xfffffe24
  e8:	00304c30 	eorseq	r4, r0, r0, lsr ip
  ec:	2f010402 	svccs	0x00010402
  f0:	01040200 	mrseq	r0, R12_usr
  f4:	02006a3e 	andeq	r6, r0, #253952	; 0x3e000
  f8:	002f0104 	eoreq	r0, pc, r4, lsl #2
  fc:	68010402 	stmdavs	r1, {r1, sl}
 100:	0402004e 	streq	r0, [r2], #-78	; 0xffffffb2
 104:	025d2f01 	subseq	r2, sp, #1, 30
 108:	01010014 	tsteq	r1, r4, lsl r0
 10c:	00020500 	andeq	r0, r2, r0, lsl #10
 110:	03000000 	movweq	r0, #0
 114:	160102d7 			; <UNDEFINED> instruction: 0x160102d7
 118:	233e3e5a 	teqcs	lr, #1440	; 0x5a0
 11c:	1c67215a 	stfnee	f2, [r7], #-360	; 0xfffffe98
 120:	212f2d40 	teqcs	pc, r0, asr #26
 124:	3aca3131 	bcc	ff28c5f0 <__StackTop+0xdf25c5f0>
 128:	03580e03 	cmpeq	r8, #3, 28	; 0x30
 12c:	17033c72 	smlsdxne	r3, r2, ip, r3
 130:	3c6e034a 	stclcc	3, cr0, [lr], #-296	; 0xfffffed8
 134:	3f423f3f 	svccc	0x00423f3f
 138:	213c0a03 	teqcs	ip, r3, lsl #20
 13c:	5a5a2167 	bpl	16886e0 <__exidx_end+0x1686128>
 140:	215a763f 	cmpcs	sl, pc, lsr r6
 144:	16023476 			; <UNDEFINED> instruction: 0x16023476
 148:	af010100 	svcge	0x00010100
 14c:	02000000 	andeq	r0, r0, #0
 150:	00001c00 	andeq	r1, r0, r0, lsl #24
 154:	fb010200 	blx	4095e <__exidx_end+0x3e3a6>
 158:	01000d0e 	tsteq	r0, lr, lsl #26
 15c:	00010101 	andeq	r0, r1, r1, lsl #2
 160:	00010000 	andeq	r0, r1, r0
 164:	50000100 	andpl	r0, r0, r0, lsl #2
 168:	632e4449 	teqvs	lr, #1224736768	; 0x49000000
 16c:	00000000 	andeq	r0, r0, r0
 170:	02050000 	andeq	r0, r5, #0
 174:	000005bc 			; <UNDEFINED> instruction: 0x000005bc
 178:	20013703 	andcs	r3, r1, r3, lsl #14
 17c:	67302c30 			; <UNDEFINED> instruction: 0x67302c30
 180:	2d75212d 	ldfcse	f2, [r5, #-180]!	; 0xffffff4c
 184:	2f317521 	svccs	0x00317521
 188:	302f2f2f 	eorcc	r2, pc, pc, lsr #30
 18c:	03207603 	teqeq	r0, #3145728	; 0x300000
 190:	024d200a 	subeq	r2, sp, #10
 194:	01010002 	tsteq	r1, r2
 198:	26020500 	strcs	r0, [r2], -r0, lsl #10
 19c:	03000006 	movweq	r0, #6
 1a0:	350100fd 	strcc	r0, [r1, #-253]	; 0xffffff03
 1a4:	27207903 	strcs	r7, [r0, -r3, lsl #18]!
 1a8:	27207903 	strcs	r7, [r0, -r3, lsl #18]!
 1ac:	224b783e 	subcs	r7, fp, #4063232	; 0x3e0000
 1b0:	2149241d 	cmpcs	r9, sp, lsl r4
 1b4:	3d302157 	ldfccs	f2, [r0, #-348]!	; 0xfffffea4
 1b8:	1f4b221f 	svcne	0x004b221f
 1bc:	211f9121 	tstcs	pc, r1, lsr #2
 1c0:	3e212d67 	cdpcc	13, 2, cr2, cr1, cr7, {3}
 1c4:	02252c67 	eoreq	r2, r5, #26368	; 0x6700
 1c8:	01010003 	tsteq	r1, r3
 1cc:	ca020500 	bgt	815d4 <__exidx_end+0x7f01c>
 1d0:	03000006 	movweq	r0, #6
 1d4:	2e0101a0 	adfcsdp	f0, f1, f0
 1d8:	78032234 	stmdavc	r3, {r2, r4, r5, r9, sp}
 1dc:	783e283c 	ldmdavc	lr!, {r2, r3, r4, r5, fp, sp}
 1e0:	241d224b 	ldrcs	r2, [sp], #-587	; 0xfffffdb5
 1e4:	21572149 	cmpcs	r7, r9, asr #2
 1e8:	221f3d30 	andscs	r3, pc, #48, 26	; 0xc00
 1ec:	91211f4b 	teqls	r1, fp, asr #30
 1f0:	2d67211f 	stfcse	f2, [r7, #-124]!	; 0xffffff84
 1f4:	2c673e21 	stclcs	14, cr3, [r7], #-132	; 0xffffff7c
 1f8:	00030225 	andeq	r0, r3, r5, lsr #4
 1fc:	017c0101 	cmneq	ip, r1, lsl #2
 200:	00020000 	andeq	r0, r2, r0
 204:	000000ca 	andeq	r0, r0, sl, asr #1
 208:	0efb0102 	cdpeq	1, 15, cr0, cr11, cr2, {0}
 20c:	0101000d 	tsteq	r1, sp
 210:	00000101 	andeq	r0, r0, r1, lsl #2
 214:	00000100 	andeq	r0, r0, r0, lsl #2
 218:	736d6301 	cmnvc	sp, #67108864	; 0x4000000
 21c:	2f007369 	svccs	0x00007369
 220:	2f727375 	svccs	0x00727375
 224:	2d6d7261 	sfmcs	f7, 2, [sp, #-388]!	; 0xfffffe7c
 228:	656e6f6e 	strbvs	r6, [lr, #-3950]!	; 0xfffff092
 22c:	6261652d 	rsbvs	r6, r1, #188743680	; 0xb400000
 230:	6e692f69 	cdpvs	15, 6, cr2, cr9, cr9, {3}
 234:	64756c63 	ldrbtvs	r6, [r5], #-3171	; 0xfffff39d
 238:	616d2f65 	cmnvs	sp, r5, ror #30
 23c:	6e696863 	cdpvs	8, 6, cr6, cr9, cr3, {3}
 240:	752f0065 	strvc	r0, [pc, #-101]!	; 1e3 <Heap_Size+0xe3>
 244:	612f7273 	teqvs	pc, r3, ror r2	; <UNPREDICTABLE>
 248:	6e2d6d72 	mcrvs	13, 1, r6, cr13, cr2, {3}
 24c:	2d656e6f 	stclcs	14, cr6, [r5, #-444]!	; 0xfffffe44
 250:	69626165 	stmdbvs	r2!, {r0, r2, r5, r6, r8, sp, lr}^
 254:	636e692f 	cmnvs	lr, #770048	; 0xbc000
 258:	6564756c 	strbvs	r7, [r4, #-1388]!	; 0xfffffa94
 25c:	7379732f 	cmnvc	r9, #-1140850688	; 0xbc000000
 260:	632f2e00 	teqvs	pc, #0, 28
 264:	7369736d 	cmnvc	r9, #-1275068415	; 0xb4000001
 268:	364b4d2f 	strbcc	r4, [fp], -pc, lsr #26
 26c:	32314634 	eorscc	r4, r1, #52, 12	; 0x3400000
 270:	49500000 	ldmdbmi	r0, {}^	; <UNPREDICTABLE>
 274:	00632e54 	rsbeq	r2, r3, r4, asr lr
 278:	63000000 	movwvs	r0, #0
 27c:	5f65726f 	svcpl	0x0065726f
 280:	2e346d63 	cdpcs	13, 3, cr6, cr4, cr3, {3}
 284:	00010068 	andeq	r0, r1, r8, rrx
 288:	726f6300 	rsbvc	r6, pc, #0, 6
 28c:	6d635f65 	stclvs	15, cr5, [r3, #-404]!	; 0xfffffe6c
 290:	636e7546 	cmnvs	lr, #293601280	; 0x11800000
 294:	0100682e 	tsteq	r0, lr, lsr #16
 298:	645f0000 	ldrbvs	r0, [pc], #-0	; 2a0 <Heap_Size+0x1a0>
 29c:	75616665 	strbvc	r6, [r1, #-1637]!	; 0xfffff99b
 2a0:	745f746c 	ldrbvc	r7, [pc], #-1132	; 2a8 <Heap_Size+0x1a8>
 2a4:	73657079 	cmnvc	r5, #121	; 0x79
 2a8:	0200682e 	andeq	r6, r0, #3014656	; 0x2e0000
 2ac:	735f0000 	cmpvc	pc, #0
 2b0:	6e696474 	mcrvs	4, 3, r6, cr9, cr4, {3}
 2b4:	00682e74 	rsbeq	r2, r8, r4, ror lr
 2b8:	4d000003 	stcmi	0, cr0, [r0, #-12]
 2bc:	4634364b 	ldrtmi	r3, [r4], -fp, asr #12
 2c0:	682e3231 	stmdavs	lr!, {r0, r4, r5, r9, ip, sp}
 2c4:	00000400 	andeq	r0, r0, r0, lsl #8
 2c8:	2e544950 	mrccs	9, 2, r4, cr4, cr0, {2}
 2cc:	00000068 	andeq	r0, r0, r8, rrx
 2d0:	05000000 	streq	r0, [r0, #-0]
 2d4:	00077402 	andeq	r7, r7, r2, lsl #8
 2d8:	21131800 	tstcs	r3, r0, lsl #16
 2dc:	3e59212d 	rdfccep	f2, f1, #5.0
 2e0:	3d2f2f1f 	stccc	15, cr2, [pc, #-124]!	; 26c <Heap_Size+0x16c>
 2e4:	b0030204 	andlt	r0, r3, r4, lsl #4
 2e8:	0304660b 	movweq	r6, #17931	; 0x460b
 2ec:	4a778d03 	bmi	1de3700 <__exidx_end+0x1de1148>
 2f0:	01000a02 	tsteq	r0, r2, lsl #20
 2f4:	02050001 	andeq	r0, r5, #1
 2f8:	00000000 	andeq	r0, r0, r0
 2fc:	13011403 	movwne	r1, #5123	; 0x1403
 300:	59212d21 	stmdbpl	r1!, {r0, r5, r8, sl, fp, sp}
 304:	2f2f1f3e 	svccs	0x002f1f3e
 308:	0302043d 	movweq	r0, #9277	; 0x243d
 30c:	04660ba2 	strbteq	r0, [r6], #-2978	; 0xfffff45e
 310:	778d0303 	strvc	r0, [sp, r3, lsl #6]
 314:	000a024a 	andeq	r0, sl, sl, asr #4
 318:	05000101 	streq	r0, [r0, #-257]	; 0xfffffeff
 31c:	00000002 	andeq	r0, r0, r2
 320:	01240300 	teqeq	r4, r0, lsl #6
 324:	00080213 	andeq	r0, r8, r3, lsl r2
 328:	05000101 	streq	r0, [r0, #-257]	; 0xfffffeff
 32c:	00000002 	andeq	r0, r0, r2
 330:	01280300 	teqeq	r8, r0, lsl #6
 334:	00080213 	andeq	r0, r8, r3, lsl r2
 338:	05000101 	streq	r0, [r0, #-257]	; 0xfffffeff
 33c:	0007c402 	andeq	ip, r7, r2, lsl #8
 340:	012c0300 	teqeq	ip, r0, lsl #6
 344:	a9030304 	stmdbge	r3, {r2, r8, r9}
 348:	01042002 	tsteq	r4, r2
 34c:	207dda03 	rsbscs	sp, sp, r3, lsl #20
 350:	0303044b 	movweq	r0, #13387	; 0x344b
 354:	023c029a 	eorseq	r0, ip, #-1610612727	; 0xa0000009
 358:	01010007 	tsteq	r1, r7
 35c:	e4020500 	str	r0, [r2], #-1280	; 0xfffffb00
 360:	03000007 	movweq	r0, #7
 364:	03040133 	movweq	r0, #16691	; 0x4133
 368:	2002a203 	andcs	sl, r2, r3, lsl #4
 36c:	e1030104 	tst	r3, r4, lsl #2
 370:	044b207d 	strbeq	r2, [fp], #-125	; 0xffffff83
 374:	02930303 	addseq	r0, r3, #201326592	; 0xc000000
 378:	0007023c 	andeq	r0, r7, ip, lsr r2
 37c:	01240101 	teqeq	r4, r1, lsl #2
 380:	00020000 	andeq	r0, r2, r0
 384:	000000c4 	andeq	r0, r0, r4, asr #1
 388:	0efb0102 	cdpeq	1, 15, cr0, cr11, cr2, {0}
 38c:	0101000d 	tsteq	r1, sp
 390:	00000101 	andeq	r0, r0, r1, lsl #2
 394:	00000100 	andeq	r0, r0, r0, lsl #2
 398:	73752f01 	cmnvc	r5, #1, 30
 39c:	72612f72 	rsbvc	r2, r1, #456	; 0x1c8
 3a0:	6f6e2d6d 	svcvs	0x006e2d6d
 3a4:	652d656e 	strvs	r6, [sp, #-1390]!	; 0xfffffa92
 3a8:	2f696261 	svccs	0x00696261
 3ac:	6c636e69 	stclvs	14, cr6, [r3], #-420	; 0xfffffe5c
 3b0:	2f656475 	svccs	0x00656475
 3b4:	6863616d 	stmdavs	r3!, {r0, r2, r3, r5, r6, r8, sp, lr}^
 3b8:	00656e69 	rsbeq	r6, r5, r9, ror #28
 3bc:	7273752f 	rsbsvc	r7, r3, #197132288	; 0xbc00000
 3c0:	6d72612f 	ldfvse	f6, [r2, #-188]!	; 0xffffff44
 3c4:	6e6f6e2d 	cdpvs	14, 6, cr6, cr15, cr13, {1}
 3c8:	61652d65 	cmnvs	r5, r5, ror #26
 3cc:	692f6962 	stmdbvs	pc!, {r1, r5, r6, r8, fp, sp, lr}	; <UNPREDICTABLE>
 3d0:	756c636e 	strbvc	r6, [ip, #-878]!	; 0xfffffc92
 3d4:	732f6564 	teqvc	pc, #100, 10	; 0x19000000
 3d8:	2e007379 	mcrcs	3, 0, r7, cr0, cr9, {3}
 3dc:	736d632f 	cmnvc	sp, #-1140850688	; 0xbc000000
 3e0:	4d2f7369 	stcmi	3, cr7, [pc, #-420]!	; 244 <Heap_Size+0x144>
 3e4:	4634364b 	ldrtmi	r3, [r4], -fp, asr #12
 3e8:	63003231 	movwvs	r3, #561	; 0x231
 3ec:	7369736d 	cmnvc	r9, #-1275068415	; 0xb4000001
 3f0:	77700000 	ldrbvc	r0, [r0, -r0]!
 3f4:	00632e6d 	rsbeq	r2, r3, sp, ror #28
 3f8:	5f000000 	svcpl	0x00000000
 3fc:	61666564 	cmnvs	r6, r4, ror #10
 400:	5f746c75 	svcpl	0x00746c75
 404:	65707974 	ldrbvs	r7, [r0, #-2420]!	; 0xfffff68c
 408:	00682e73 	rsbeq	r2, r8, r3, ror lr
 40c:	5f000001 	svcpl	0x00000001
 410:	69647473 	stmdbvs	r4!, {r0, r1, r4, r5, r6, sl, ip, sp, lr}^
 414:	682e746e 	stmdavs	lr!, {r1, r2, r3, r5, r6, sl, ip, sp, lr}
 418:	00000200 	andeq	r0, r0, r0, lsl #4
 41c:	34364b4d 	ldrtcc	r4, [r6], #-2893	; 0xfffff4b3
 420:	2e323146 	rsfcssm	f3, f2, f6
 424:	00030068 	andeq	r0, r3, r8, rrx
 428:	726f6300 	rsbvc	r6, pc, #0, 6
 42c:	6d635f65 	stclvs	15, cr5, [r3, #-404]!	; 0xfffffe6c
 430:	00682e34 	rsbeq	r2, r8, r4, lsr lr
 434:	73000004 	movwvc	r0, #4
 438:	65747379 	ldrbvs	r7, [r4, #-889]!	; 0xfffffc87
 43c:	4b4d5f6d 	blmi	13581f8 <__exidx_end+0x1355c40>
 440:	31463436 	cmpcc	r6, r6, lsr r4
 444:	00682e32 	rsbeq	r2, r8, r2, lsr lr
 448:	00000003 	andeq	r0, r0, r3
 44c:	04020500 	streq	r0, [r2], #-1280	; 0xfffffb00
 450:	03000008 	movweq	r0, #8
 454:	21150124 	tstcs	r5, r4, lsr #2
 458:	02229f1f 	eoreq	r9, r2, #31, 30	; 0x7c
 45c:	0101000d 	tsteq	r1, sp
 460:	00020500 	andeq	r0, r2, r0, lsl #10
 464:	03000000 	movweq	r0, #0
 468:	76250134 			; <UNDEFINED> instruction: 0x76250134
 46c:	401c326d 	andsmi	r3, ip, sp, ror #4
 470:	03200c03 	teqeq	r0, #768	; 0x300
 474:	32412074 	subcc	r2, r1, #116	; 0x74
 478:	2d216923 	stccs	9, cr6, [r1, #-140]!	; 0xffffff74
 47c:	0402002f 	streq	r0, [r2], #-47	; 0xffffffd1
 480:	27514802 	ldrbcs	r4, [r1, -r2, lsl #16]
 484:	03422f2d 	movteq	r2, #12077	; 0x2f2d
 488:	3f26207a 	svccc	0x0026207a
 48c:	10024c34 	andne	r4, r2, r4, lsr ip
 490:	00010100 	andeq	r0, r1, r0, lsl #2
 494:	08380205 	ldmdaeq	r8!, {r0, r2, r9}
 498:	fc030000 	stc2	0, cr0, [r3], {-0}
 49c:	5c140100 	ldfpls	f0, [r4], {-0}
 4a0:	000a023e 	andeq	r0, sl, lr, lsr r2
 4a4:	01790101 	cmneq	r9, r1, lsl #2
 4a8:	00020000 	andeq	r0, r2, r0
 4ac:	000000fd 	strdeq	r0, [r0], -sp
 4b0:	0efb0102 	cdpeq	1, 15, cr0, cr11, cr2, {0}
 4b4:	0101000d 	tsteq	r1, sp
 4b8:	00000101 	andeq	r0, r0, r1, lsl #2
 4bc:	00000100 	andeq	r0, r0, r0, lsl #2
 4c0:	73752f01 	cmnvc	r5, #1, 30
 4c4:	72612f72 	rsbvc	r2, r1, #456	; 0x1c8
 4c8:	6f6e2d6d 	svcvs	0x006e2d6d
 4cc:	652d656e 	strvs	r6, [sp, #-1390]!	; 0xfffffa92
 4d0:	2f696261 	svccs	0x00696261
 4d4:	6c636e69 	stclvs	14, cr6, [r3], #-420	; 0xfffffe5c
 4d8:	2f656475 	svccs	0x00656475
 4dc:	6863616d 	stmdavs	r3!, {r0, r2, r3, r5, r6, r8, sp, lr}^
 4e0:	00656e69 	rsbeq	r6, r5, r9, ror #28
 4e4:	7273752f 	rsbsvc	r7, r3, #197132288	; 0xbc00000
 4e8:	6d72612f 	ldfvse	f6, [r2, #-188]!	; 0xffffff44
 4ec:	6e6f6e2d 	cdpvs	14, 6, cr6, cr15, cr13, {1}
 4f0:	61652d65 	cmnvs	r5, r5, ror #26
 4f4:	692f6962 	stmdbvs	pc!, {r1, r5, r6, r8, fp, sp, lr}	; <UNPREDICTABLE>
 4f8:	756c636e 	strbvc	r6, [ip, #-878]!	; 0xfffffc92
 4fc:	732f6564 	teqvc	pc, #100, 10	; 0x19000000
 500:	2e007379 	mcrcs	3, 0, r7, cr0, cr9, {3}
 504:	736d632f 	cmnvc	sp, #-1140850688	; 0xbc000000
 508:	4d2f7369 	stcmi	3, cr7, [pc, #-420]!	; 36c <Heap_Size+0x26c>
 50c:	4634364b 	ldrtmi	r3, [r4], -fp, asr #12
 510:	63003231 	movwvs	r3, #561	; 0x231
 514:	7369736d 	cmnvc	r9, #-1275068415	; 0xb4000001
 518:	73752f00 	cmnvc	r5, #0, 30
 51c:	72612f72 	rsbvc	r2, r1, #456	; 0x1c8
 520:	6f6e2d6d 	svcvs	0x006e2d6d
 524:	652d656e 	strvs	r6, [sp, #-1390]!	; 0xfffffa92
 528:	2f696261 	svccs	0x00696261
 52c:	6c636e69 	stclvs	14, cr6, [r3], #-420	; 0xfffffe5c
 530:	00656475 	rsbeq	r6, r5, r5, ror r4
 534:	69616d00 	stmdbvs	r1!, {r8, sl, fp, sp, lr}^
 538:	00632e6e 	rsbeq	r2, r3, lr, ror #28
 53c:	5f000000 	svcpl	0x00000000
 540:	61666564 	cmnvs	r6, r4, ror #10
 544:	5f746c75 	svcpl	0x00746c75
 548:	65707974 	ldrbvs	r7, [r0, #-2420]!	; 0xfffff68c
 54c:	00682e73 	rsbeq	r2, r8, r3, ror lr
 550:	5f000001 	svcpl	0x00000001
 554:	69647473 	stmdbvs	r4!, {r0, r1, r4, r5, r6, sl, ip, sp, lr}^
 558:	682e746e 	stmdavs	lr!, {r1, r2, r3, r5, r6, sl, ip, sp, lr}
 55c:	00000200 	andeq	r0, r0, r0, lsl #4
 560:	34364b4d 	ldrtcc	r4, [r6], #-2893	; 0xfffff4b3
 564:	2e323146 	rsfcssm	f3, f2, f6
 568:	00030068 	andeq	r0, r3, r8, rrx
 56c:	44495000 	strbmi	r5, [r9], #-0
 570:	0000682e 	andeq	r6, r0, lr, lsr #16
 574:	6f630000 	svcvs	0x00630000
 578:	635f6572 	cmpvs	pc, #478150656	; 0x1c800000
 57c:	682e346d 	stmdavs	lr!, {r0, r2, r3, r5, r6, sl, ip, sp}
 580:	00000400 	andeq	r0, r0, r0, lsl #8
 584:	74737973 	ldrbtvc	r7, [r3], #-2419	; 0xfffff68d
 588:	4d5f6d65 	ldclmi	13, cr6, [pc, #-404]	; 3fc <Heap_Size+0x2fc>
 58c:	4634364b 	ldrtmi	r3, [r4], -fp, asr #12
 590:	682e3231 	stmdavs	lr!, {r0, r4, r5, r9, ip, sp}
 594:	00000300 	andeq	r0, r0, r0, lsl #6
 598:	2e636461 	cdpcs	4, 6, cr6, cr3, cr1, {3}
 59c:	00000068 	andeq	r0, r0, r8, rrx
 5a0:	64747300 	ldrbtvs	r7, [r4], #-768	; 0xfffffd00
 5a4:	682e6f69 	stmdavs	lr!, {r0, r3, r5, r6, r8, r9, sl, fp, sp, lr}
 5a8:	00000500 	andeq	r0, r0, r0, lsl #10
 5ac:	02050000 	andeq	r0, r5, #0
 5b0:	00000860 	andeq	r0, r0, r0, ror #16
 5b4:	0100c903 	tsteq	r0, r3, lsl #18
 5b8:	08212f21 	stmdaeq	r1!, {r0, r5, r8, r9, sl, fp, sp}
 5bc:	2f237f2f 	svccs	0x00237f2f
 5c0:	03892f08 	orreq	r2, r9, #8, 30
 5c4:	19022e7a 	stmdbne	r2, {r1, r3, r4, r5, r6, r9, sl, fp, sp}
 5c8:	00010100 	andeq	r0, r1, r0, lsl #2
 5cc:	09100205 	ldmdbeq	r0, {r0, r2, r9}
 5d0:	1a030000 	bne	c05d8 <__exidx_end+0xbe020>
 5d4:	0a033201 	beq	ccde0 <__exidx_end+0xca828>
 5d8:	2e760366 	cdpcs	3, 7, cr0, cr6, cr6, {3}
 5dc:	4b837508 	blmi	fe0dda04 <__StackTop+0xde0ada04>
 5e0:	353c7903 	ldrcc	r7, [ip, #-2307]!	; 0xfffff6fd
 5e4:	1d232f21 	stcne	15, cr2, [r3, #-132]!	; 0xffffff7c
 5e8:	229c5a23 	addscs	r5, ip, #143360	; 0x23000
 5ec:	f5330896 			; <UNDEFINED> instruction: 0xf5330896
 5f0:	20780328 	rsbscs	r0, r8, r8, lsr #6
 5f4:	211f302f 	tstcs	pc, pc, lsr #32
 5f8:	0875261f 	ldmdaeq	r5!, {r0, r1, r2, r3, r4, r9, sl, sp}^
 5fc:	001d233d 	andseq	r2, sp, sp, lsr r3
 600:	77010402 	strvc	r0, [r1, -r2, lsl #8]
 604:	01040200 	mrseq	r0, R12_usr
 608:	040200c9 	streq	r0, [r2], #-201	; 0xffffff37
 60c:	3c024b01 	stccc	11, cr4, [r2], {1}
 610:	00010100 	andeq	r0, r1, r0, lsl #2
 614:	00000205 	andeq	r0, r0, r5, lsl #4
 618:	e6030000 	str	r0, [r3], -r0
 61c:	01020100 	mrseq	r0, (UNDEF: 18)
 620:	5b010100 	blpl	40a28 <__exidx_end+0x3e470>
 624:	02000001 	andeq	r0, r0, #1
 628:	0000ca00 	andeq	ip, r0, r0, lsl #20
 62c:	fb010200 	blx	40e36 <__exidx_end+0x3e87e>
 630:	01000d0e 	tsteq	r0, lr, lsl #26
 634:	00010101 	andeq	r0, r1, r1, lsl #2
 638:	00010000 	andeq	r0, r1, r0
 63c:	6d630100 	stfvse	f0, [r3, #-0]
 640:	00736973 	rsbseq	r6, r3, r3, ror r9
 644:	7273752f 	rsbsvc	r7, r3, #197132288	; 0xbc00000
 648:	6d72612f 	ldfvse	f6, [r2, #-188]!	; 0xffffff44
 64c:	6e6f6e2d 	cdpvs	14, 6, cr6, cr15, cr13, {1}
 650:	61652d65 	cmnvs	r5, r5, ror #26
 654:	692f6962 	stmdbvs	pc!, {r1, r5, r6, r8, fp, sp, lr}	; <UNPREDICTABLE>
 658:	756c636e 	strbvc	r6, [ip, #-878]!	; 0xfffffc92
 65c:	6d2f6564 	cfstr32vs	mvfx6, [pc, #-400]!	; 4d4 <SystemInit>
 660:	69686361 	stmdbvs	r8!, {r0, r5, r6, r8, r9, sp, lr}^
 664:	2f00656e 	svccs	0x0000656e
 668:	2f727375 	svccs	0x00727375
 66c:	2d6d7261 	sfmcs	f7, 2, [sp, #-388]!	; 0xfffffe7c
 670:	656e6f6e 	strbvs	r6, [lr, #-3950]!	; 0xfffff092
 674:	6261652d 	rsbvs	r6, r1, #188743680	; 0xb400000
 678:	6e692f69 	cdpvs	15, 6, cr2, cr9, cr9, {3}
 67c:	64756c63 	ldrbtvs	r6, [r5], #-3171	; 0xfffff39d
 680:	79732f65 	ldmdbvc	r3!, {r0, r2, r5, r6, r8, r9, sl, fp, sp}^
 684:	2f2e0073 	svccs	0x002e0073
 688:	69736d63 	ldmdbvs	r3!, {r0, r1, r5, r6, r8, sl, fp, sp, lr}^
 68c:	4b4d2f73 	blmi	134c460 <__exidx_end+0x1349ea8>
 690:	31463436 	cmpcc	r6, r6, lsr r4
 694:	61000032 	tstvs	r0, r2, lsr r0
 698:	632e6364 	teqvs	lr, #100, 6	; 0x90000001
 69c:	00000000 	andeq	r0, r0, r0
 6a0:	65726f63 	ldrbvs	r6, [r2, #-3939]!	; 0xfffff09d
 6a4:	346d635f 	strbtcc	r6, [sp], #-863	; 0xfffffca1
 6a8:	0100682e 	tsteq	r0, lr, lsr #16
 6ac:	6f630000 	svcvs	0x00630000
 6b0:	635f6572 	cmpvs	pc, #478150656	; 0x1c800000
 6b4:	6e75466d 	cdpvs	6, 7, cr4, cr5, cr13, {3}
 6b8:	00682e63 	rsbeq	r2, r8, r3, ror #28
 6bc:	5f000001 	svcpl	0x00000001
 6c0:	61666564 	cmnvs	r6, r4, ror #10
 6c4:	5f746c75 	svcpl	0x00746c75
 6c8:	65707974 	ldrbvs	r7, [r0, #-2420]!	; 0xfffff68c
 6cc:	00682e73 	rsbeq	r2, r8, r3, ror lr
 6d0:	5f000002 	svcpl	0x00000002
 6d4:	69647473 	stmdbvs	r4!, {r0, r1, r4, r5, r6, sl, ip, sp, lr}^
 6d8:	682e746e 	stmdavs	lr!, {r1, r2, r3, r5, r6, sl, ip, sp, lr}
 6dc:	00000300 	andeq	r0, r0, r0, lsl #6
 6e0:	34364b4d 	ldrtcc	r4, [r6], #-2893	; 0xfffff4b3
 6e4:	2e323146 	rsfcssm	f3, f2, f6
 6e8:	00040068 	andeq	r0, r4, r8, rrx
 6ec:	63646100 	cmnvs	r4, #0, 2
 6f0:	0000682e 	andeq	r6, r0, lr, lsr #16
 6f4:	00000000 	andeq	r0, r0, r0
 6f8:	00000205 	andeq	r0, r0, r5, lsl #4
 6fc:	18030000 	stmdane	r3, {}	; <UNPREDICTABLE>
 700:	4b751401 	blmi	1d4570c <__exidx_end+0x1d43154>
 704:	01000902 	tsteq	r0, r2, lsl #18
 708:	02050001 	andeq	r0, r5, #1
 70c:	00000000 	andeq	r0, r0, r0
 710:	14011f03 	strne	r1, [r1], #-3843	; 0xfffff0fd
 714:	023d4c76 	eorseq	r4, sp, #30208	; 0x7600
 718:	01010008 	tsteq	r1, r8
 71c:	f0020500 			; <UNDEFINED> instruction: 0xf0020500
 720:	0300000a 	movweq	r0, #10
 724:	3e240129 	sufccsp	f0, f4, #1.0
 728:	40344c1e 	eorsmi	r4, r4, lr, lsl ip
 72c:	01040200 	mrseq	r0, R12_usr
 730:	2f21593d 	svccs	0x0021593d
 734:	2f2f2f2f 	svccs	0x002f2f2f
 738:	21212f21 	teqcs	r1, r1, lsr #30
 73c:	2f2f2f2f 	svccs	0x002f2f2f
 740:	242f212f 	strtcs	r2, [pc], #-303	; 748 <PIDSetGoal+0x7e>
 744:	03200a03 	teqeq	r0, #12288	; 0x3000
 748:	22442076 	subcs	r2, r4, #118	; 0x76
 74c:	e3030204 	movw	r0, #12804	; 0x3204
 750:	03043c0a 	movweq	r3, #19466	; 0x4c0a
 754:	4a778d03 	bmi	1de3b68 <__exidx_end+0x1de15b0>
 758:	01000d02 	tsteq	r0, r2, lsl #26
 75c:	02050001 	andeq	r0, r5, #1
 760:	00000b8c 	andeq	r0, r0, ip, lsl #23
 764:	0100e103 	tsteq	r0, r3, lsl #2
 768:	f4030304 	vst2.8	{d0-d3}, [r3], r4
 76c:	01040101 	tsteq	r4, r1, lsl #2
 770:	207e8f03 	rsbscs	r8, lr, r3, lsl #30
 774:	01040200 	mrseq	r0, R12_usr
 778:	3d064a06 	vstrcc	s8, [r6, #-24]	; 0xffffffe8
 77c:	000c022f 	andeq	r0, ip, pc, lsr #4
 780:	00710101 	rsbseq	r0, r1, r1, lsl #2
 784:	00020000 	andeq	r0, r2, r0
 788:	00000038 	andeq	r0, r0, r8, lsr r0
 78c:	0efb0102 	cdpeq	1, 15, cr0, cr11, cr2, {0}
 790:	0101000d 	tsteq	r1, sp
 794:	00000101 	andeq	r0, r0, r1, lsl #2
 798:	00000100 	andeq	r0, r0, r0, lsl #2
 79c:	632f2e01 	teqvs	pc, #1, 28
 7a0:	7369736d 	cmnvc	r9, #-1275068415	; 0xb4000001
 7a4:	364b4d2f 	strbcc	r4, [fp], -pc, lsr #26
 7a8:	32314634 	eorscc	r4, r1, #52, 12	; 0x3400000
 7ac:	74730000 	ldrbtvc	r0, [r3], #-0
 7b0:	75747261 	ldrbvc	r7, [r4, #-609]!	; 0xfffffd9f
 7b4:	4b4d5f70 	blmi	135857c <__exidx_end+0x1355fc4>
 7b8:	31463436 	cmpcc	r6, r6, lsr r4
 7bc:	00732e32 	rsbseq	r2, r3, r2, lsr lr
 7c0:	00000001 	andeq	r0, r0, r1
 7c4:	b8020500 	stmdalt	r2, {r8, sl}
 7c8:	0300000b 	movweq	r0, #11
 7cc:	210101c9 	smlabtcs	r1, r9, r1, r0
 7d0:	200d0321 	andcs	r0, sp, r1, lsr #6
 7d4:	21212221 	teqcs	r1, r1, lsr #4
 7d8:	21212421 	teqcs	r1, r1, lsr #8
 7dc:	2e640321 	cdpcs	3, 6, cr0, cr4, cr1, {1}
 7e0:	17032f2f 	strne	r2, [r3, -pc, lsr #30]
 7e4:	1603302e 	strne	r3, [r3], -lr, lsr #32
 7e8:	2f2f2f2e 	svccs	0x002f2f2e
 7ec:	2f2f2f2f 	svccs	0x002f2f2f
 7f0:	02022f2f 	andeq	r2, r2, #47, 30	; 0xbc
 7f4:	Address 0x00000000000007f4 is out of bounds.


Disassembly of section .debug_str:

00000000 <.debug_str>:
   0:	54504f53 	ldrbpl	r4, [r0], #-3923	; 0xfffff0ad
   4:	43460035 	movtmi	r0, #24629	; 0x6035
   8:	00314746 	eorseq	r4, r1, r6, asr #14
   c:	47464346 	strbmi	r4, [r6, -r6, asr #6]
  10:	4d540032 	ldclmi	0, cr0, [r4, #-200]	; 0xffffff38
  14:	54554f52 	ldrbpl	r4, [r5], #-3922	; 0xfffff0ae
  18:	2f2e004c 	svccs	0x002e004c
  1c:	69736d63 	ldmdbvs	r3!, {r0, r1, r5, r6, r8, sl, fp, sp, lr}^
  20:	4b4d2f73 	blmi	134bdf4 <__exidx_end+0x134983c>
  24:	31463436 	cmpcc	r6, r6, lsr r4
  28:	79732f32 	ldmdbvc	r3!, {r1, r4, r5, r8, r9, sl, fp, sp}^
  2c:	6d657473 	cfstrdvs	mvd7, [r5, #-460]!	; 0xfffffe34
  30:	364b4d5f 			; <UNDEFINED> instruction: 0x364b4d5f
  34:	32314634 	eorscc	r4, r1, #52, 12	; 0x3400000
  38:	5000632e 	andpl	r6, r0, lr, lsr #6
  3c:	43534552 	cmpmi	r3, #343932928	; 0x14800000
  40:	49445300 	stmdbmi	r4, {r8, r9, ip, lr}^
  44:	4f530044 	svcmi	0x00530044
  48:	43315450 	teqmi	r1, #80, 8	; 0x50000000
  4c:	41004746 	tstmi	r0, r6, asr #14
  50:	48564354 	ldmdami	r6, {r2, r4, r6, r8, r9, lr}^
  54:	7a697300 	bvc	1a5cc5c <__exidx_end+0x1a5a6a4>
  58:	70797465 	rsbsvc	r7, r9, r5, ror #8
  5c:	79530065 	ldmdbvc	r3, {r0, r2, r5, r6}^
  60:	6d657473 	cfstrdvs	mvd7, [r5, #-460]!	; 0xfffffe34
  64:	65726f43 	ldrbvs	r6, [r2, #-3907]!	; 0xfffff0bd
  68:	636f6c43 	cmnvs	pc, #17152	; 0x4300
  6c:	6470556b 	ldrbtvs	r5, [r0], #-1387	; 0xfffffa95
  70:	00657461 	rsbeq	r7, r5, r1, ror #8
  74:	53474552 	movtpl	r4, #30034	; 0x7552
  78:	5f5f0043 	svcpl	0x005f0043
  7c:	746e6975 	strbtvc	r6, [lr], #-2421	; 0xfffff68b
  80:	745f3233 	ldrbvc	r3, [pc], #-563	; 88 <__isr_vector+0x88>
  84:	524d5400 	subpl	r5, sp, #0, 8
  88:	4854554f 	ldmdami	r4, {r0, r1, r2, r3, r6, r8, sl, ip, lr}^
  8c:	4d495300 	stclmi	3, cr5, [r9, #-0]
  90:	7079545f 	rsbsvc	r5, r9, pc, asr r4
  94:	5f5f0065 	svcpl	0x005f0065
  98:	746e6975 	strbtvc	r6, [lr], #-2421	; 0xfffff68b
  9c:	745f3631 	ldrbvc	r3, [pc], #-1585	; a4 <__isr_vector+0xa4>
  a0:	44495500 	strbmi	r5, [r9], #-1280	; 0xfffffb00
  a4:	68730048 	ldmdavs	r3!, {r3, r6}^
  a8:	2074726f 	rsbscs	r7, r4, pc, ror #4
  ac:	00746e69 	rsbseq	r6, r4, r9, ror #28
  b0:	4c444955 	mcrrmi	9, 5, r4, r4, cr5
  b4:	564f5400 	strbpl	r5, [pc], -r0, lsl #8
  b8:	00484c41 	subeq	r4, r8, r1, asr #24
  bc:	20554e47 	subscs	r4, r5, r7, asr #28
  c0:	20393943 	eorscs	r3, r9, r3, asr #18
  c4:	2e322e35 	mrccs	14, 1, r2, cr2, cr5, {1}
  c8:	6d2d2030 	stcvs	0, cr2, [sp, #-192]!	; 0xffffff40
  cc:	6d756874 	ldclvs	8, cr6, [r5, #-464]!	; 0xfffffe30
  d0:	6d2d2062 	stcvs	0, cr2, [sp, #-392]!	; 0xfffffe78
  d4:	3d757063 	ldclcc	0, cr7, [r5, #-396]!	; 0xfffffe74
  d8:	74726f63 	ldrbtvc	r6, [r2], #-3939	; 0xfffff09d
  dc:	6d2d7865 	stcvs	8, cr7, [sp, #-404]!	; 0xfffffe6c
  e0:	672d2034 			; <UNDEFINED> instruction: 0x672d2034
  e4:	67672d20 	strbvs	r2, [r7, -r0, lsr #26]!
  e8:	2d206264 	sfmcs	f6, 4, [r0, #-400]!	; 0xfffffe70
  ec:	2d20734f 	stccs	3, cr7, [r0, #-316]!	; 0xfffffec4
  f0:	3d647473 	cfstrdcc	mvd7, [r4, #-460]!	; 0xfffffe34
  f4:	39756e67 	ldmdbcc	r5!, {r0, r1, r2, r5, r6, r9, sl, fp, sp, lr}^
  f8:	662d2039 			; <UNDEFINED> instruction: 0x662d2039
  fc:	732d6f6e 	teqvc	sp, #440	; 0x1b8
 100:	63697274 	cmnvs	r9, #116, 4	; 0x40000007
 104:	6c612d74 	stclvs	13, cr2, [r1], #-464	; 0xfffffe30
 108:	69736169 	ldmdbvs	r3!, {r0, r3, r5, r6, r8, sp, lr}^
 10c:	2d20676e 	stccs	7, cr6, [r0, #-440]!	; 0xfffffe48
 110:	6e756666 	cdpvs	6, 7, cr6, cr5, cr6, {3}
 114:	6f697463 	svcvs	0x00697463
 118:	65732d6e 	ldrbvs	r2, [r3, #-3438]!	; 0xfffff292
 11c:	6f697463 	svcvs	0x00697463
 120:	2d20736e 	stccs	3, cr7, [r0, #-440]!	; 0xfffffe48
 124:	74616466 	strbtvc	r6, [r1], #-1126	; 0xfffffb9a
 128:	65732d61 	ldrbvs	r2, [r3, #-3425]!	; 0xfffff29f
 12c:	6f697463 	svcvs	0x00697463
 130:	2d20736e 	stccs	3, cr7, [r0, #-440]!	; 0xfffffe48
 134:	2d6f6e66 	stclcs	14, cr6, [pc, #-408]!	; ffffffa4 <__StackTop+0xdffcffa4>
 138:	65637865 	strbvs	r7, [r3, #-2149]!	; 0xfffff79b
 13c:	6f697470 	svcvs	0x00697470
 140:	2d20736e 	stccs	3, cr7, [r0, #-440]!	; 0xfffffe48
 144:	2d6f6e66 	stclcs	14, cr6, [pc, #-408]!	; ffffffb4 <__StackTop+0xdffcffb4>
 148:	656c6564 	strbvs	r6, [ip, #-1380]!	; 0xfffffa9c
 14c:	6e2d6574 	mcrvs	5, 1, r6, cr13, cr4, {3}
 150:	2d6c6c75 	stclcs	12, cr6, [ip, #-468]!	; 0xfffffe2c
 154:	6e696f70 	mcrvs	15, 3, r6, cr9, cr0, {3}
 158:	2d726574 	cfldr64cs	mvdx6, [r2, #-464]!	; 0xfffffe30
 15c:	63656863 	cmnvs	r5, #6488064	; 0x630000
 160:	2d20736b 	stccs	3, cr7, [r0, #-428]!	; 0xfffffe54
 164:	73656d66 	cmnvc	r5, #6528	; 0x1980
 168:	65676173 	strbvs	r6, [r7, #-371]!	; 0xfffffe8d
 16c:	6e656c2d 	cdpvs	12, 6, cr6, cr5, cr13, {1}
 170:	3d687467 	cfstrdcc	mvd7, [r8, #-412]!	; 0xfffffe64
 174:	662d2030 			; <UNDEFINED> instruction: 0x662d2030
 178:	622d6f6e 	eorvs	r6, sp, #440	; 0x1b8
 17c:	746c6975 	strbtvc	r6, [ip], #-2421	; 0xfffff68b
 180:	54006e69 	strpl	r6, [r0], #-3689	; 0xfffff197
 184:	4c41564f 	mcrrmi	6, 4, r5, r1, cr15
 188:	5453004c 	ldrbpl	r0, [r3], #-76	; 0xffffffb4
 18c:	4c525443 	cfldrdmi	mvd5, [r2], {67}	; 0x43
 190:	6f6c0048 	svcvs	0x006c0048
 194:	6c20676e 	stcvs	7, cr6, [r0], #-440	; 0xfffffe48
 198:	20676e6f 	rsbcs	r6, r7, pc, ror #28
 19c:	00746e69 	rsbseq	r6, r4, r9, ror #28
 1a0:	4f4c4e55 	svcmi	0x004c4e55
 1a4:	53004b43 	movwpl	r4, #2883	; 0xb43
 1a8:	31434743 	cmpcc	r3, r3, asr #14
 1ac:	47435300 	strbmi	r5, [r3, -r0, lsl #6]
 1b0:	53003243 	movwpl	r3, #579	; 0x243
 1b4:	33434743 	movtcc	r4, #14147	; 0x3743
 1b8:	47435300 	strbmi	r5, [r3, -r0, lsl #6]
 1bc:	53003443 	movwpl	r3, #1091	; 0x443
 1c0:	35434743 	strbcc	r4, [r3, #-1859]	; 0xfffff8bd
 1c4:	47435300 	strbmi	r5, [r3, -r0, lsl #6]
 1c8:	53003643 	movwpl	r3, #1603	; 0x643
 1cc:	37434743 	strbcc	r4, [r3, -r3, asr #14]
 1d0:	44495500 	strbmi	r5, [r9], #-1280	; 0xfffffb00
 1d4:	2f00484d 	svccs	0x0000484d
 1d8:	656d6f68 	strbvs	r6, [sp, #-3944]!	; 0xfffff098
 1dc:	7268632f 	rsbvc	r6, r8, #-1140850688	; 0xbc000000
 1e0:	432f7369 	teqmi	pc, #-1543503871	; 0xa4000001
 1e4:	2f65646f 	svccs	0x0065646f
 1e8:	65646977 	strbvs	r6, [r4, #-2423]!	; 0xfffff689
 1ec:	646e6162 	strbtvs	r6, [lr], #-354	; 0xfffffe9e
 1f0:	5700324f 	strpl	r3, [r0, -pc, asr #4]
 1f4:	5f474f44 	svcpl	0x00474f44
 1f8:	65707954 	ldrbvs	r7, [r0, #-2388]!	; 0xfffff6ac
 1fc:	43504700 	cmpmi	r0, #0, 14
 200:	53005248 	movwpl	r5, #584	; 0x248
 204:	3754504f 	ldrbcc	r5, [r4, -pc, asr #32]
 208:	4b4c4300 	blmi	1310e10 <__exidx_end+0x130e858>
 20c:	31564944 	cmpcc	r6, r4, asr #18
 210:	4b4c4300 	blmi	1310e18 <__exidx_end+0x130e860>
 214:	32564944 	subscc	r4, r6, #68, 18	; 0x110000
 218:	736e7500 	cmnvc	lr, #0, 10
 21c:	656e6769 	strbvs	r6, [lr, #-1897]!	; 0xfffff897
 220:	68632064 	stmdavs	r3!, {r2, r5, r6, sp}^
 224:	49007261 	stmdbmi	r0, {r0, r5, r6, r9, ip, sp, lr}
 228:	00524653 	subseq	r4, r2, r3, asr r6
 22c:	676e6f6c 	strbvs	r6, [lr, -ip, ror #30]!
 230:	6e6f6c20 	cdpvs	12, 6, cr6, cr15, cr0, {1}
 234:	6e752067 	cdpvs	0, 7, cr2, cr5, cr7, {3}
 238:	6e676973 	mcrvs	9, 3, r6, cr7, cr3, {3}
 23c:	69206465 	stmdbvs	r0!, {r0, r2, r5, r6, sl, sp, lr}
 240:	4700746e 	strmi	r7, [r0, -lr, ror #8]
 244:	524c4350 	subpl	r4, ip, #80, 6	; 0x40000001
 248:	54535200 	ldrbpl	r5, [r3], #-512	; 0xfffffe00
 24c:	00544e43 	subseq	r4, r4, r3, asr #28
 250:	5344564c 	movtpl	r5, #17996	; 0x464c
 254:	4c003143 	stfmis	f3, [r0], {67}	; 0x43
 258:	43534456 	cmpmi	r3, #1442840576	; 0x56000000
 25c:	46440032 			; <UNDEFINED> instruction: 0x46440032
 260:	53005243 	movwpl	r5, #579	; 0x243
 264:	65747379 	ldrbvs	r7, [r4, #-889]!	; 0xfffffc87
 268:	696e496d 	stmdbvs	lr!, {r0, r2, r3, r5, r6, r8, fp, lr}^
 26c:	68730074 	ldmdavs	r3!, {r2, r4, r5, r6}^
 270:	2074726f 	rsbscs	r7, r4, pc, ror #4
 274:	69736e75 	ldmdbvs	r3!, {r0, r2, r4, r5, r6, r9, sl, fp, sp, lr}^
 278:	64656e67 	strbtvs	r6, [r5], #-3687	; 0xfffff199
 27c:	746e6920 	strbtvc	r6, [lr], #-2336	; 0xfffff6e0
 280:	76694400 	strbtvc	r4, [r9], -r0, lsl #8
 284:	72656469 	rsbvc	r6, r5, #1761607680	; 0x69000000
 288:	47434d00 	strbmi	r4, [r3, -r0, lsl #26]
 28c:	7079545f 	rsbsvc	r5, r9, pc, asr r4
 290:	4f530065 	svcmi	0x00530065
 294:	00315450 	eorseq	r5, r1, r0, asr r4
 298:	74737953 	ldrbtvc	r7, [r3], #-2387	; 0xfffff6ad
 29c:	6f436d65 	svcvs	0x00436d65
 2a0:	6c436572 	cfstr64vs	mvdx6, [r3], {114}	; 0x72
 2a4:	006b636f 	rsbeq	r6, fp, pc, ror #6
 2a8:	54504f53 	ldrbpl	r4, [r0], #-3923	; 0xfffff0ad
 2ac:	534f0032 	movtpl	r0, #61490	; 0xf032
 2b0:	79545f43 	ldmdbvc	r4, {r0, r1, r6, r8, r9, sl, fp, ip, lr}^
 2b4:	52006570 	andpl	r6, r0, #112, 10	; 0x1c000000
 2b8:	45524645 	ldrbmi	r4, [r2, #-1605]	; 0xfffff9bb
 2bc:	53004853 	movwpl	r4, #2131	; 0x853
 2c0:	52544354 	subspl	r4, r4, #84, 6	; 0x50000001
 2c4:	44004c4c 	strmi	r4, [r0], #-3148	; 0xfffff3b4
 2c8:	00525746 	subseq	r5, r2, r6, asr #14
 2cc:	4d444955 	stclmi	9, cr4, [r4, #-340]	; 0xfffffeac
 2d0:	4552004c 	ldrbmi	r0, [r2, #-76]	; 0xffffffb4
 2d4:	56524553 			; <UNDEFINED> instruction: 0x56524553
 2d8:	305f4445 	subscc	r4, pc, r5, asr #8
 2dc:	53455200 	movtpl	r5, #20992	; 0x5200
 2e0:	45565245 	ldrbmi	r5, [r6, #-581]	; 0xfffffdbb
 2e4:	00315f44 	eorseq	r5, r1, r4, asr #30
 2e8:	45534552 	ldrbmi	r4, [r3, #-1362]	; 0xfffffaae
 2ec:	44455652 	strbmi	r5, [r5], #-1618	; 0xfffff9ae
 2f0:	5200325f 	andpl	r3, r0, #-268435451	; 0xf0000005
 2f4:	52455345 	subpl	r5, r5, #335544321	; 0x14000001
 2f8:	5f444556 	svcpl	0x00444556
 2fc:	5f5f0033 	svcpl	0x005f0033
 300:	33746e69 	cmncc	r4, #1680	; 0x690
 304:	00745f32 	rsbseq	r5, r4, r2, lsr pc
 308:	56435441 	strbpl	r5, [r3], -r1, asr #8
 30c:	434d004c 	movtmi	r0, #53324	; 0xd04c
 310:	54554f47 	ldrbpl	r4, [r5], #-3911	; 0xfffff0b9
 314:	636f6c43 	cmnvs	pc, #17152	; 0x4300
 318:	4957006b 	ldmdbmi	r7, {r0, r1, r3, r5, r6}^
 31c:	5000484e 	andpl	r4, r0, lr, asr #16
 320:	545f434d 	ldrbpl	r4, [pc], #-845	; 328 <Heap_Size+0x228>
 324:	00657079 	rsbeq	r7, r5, r9, ror r0
 328:	4c4e4957 	mcrrmi	9, 5, r4, lr, cr7
 32c:	4d544900 	ldclmi	9, cr4, [r4, #-0]
 330:	4278525f 	rsbsmi	r5, r8, #-268435451	; 0xf0000005
 334:	65666675 	strbvs	r6, [r6, #-1653]!	; 0xfffff98b
 338:	46440072 			; <UNDEFINED> instruction: 0x46440072
 33c:	50005245 	andpl	r5, r0, r5, asr #4
 340:	5f54524f 	svcpl	0x0054524f
 344:	65707954 	ldrbvs	r7, [r0, #-2388]!	; 0xfffff6ac
 348:	755f5f00 	ldrbvc	r5, [pc, #-3840]	; fffff450 <__StackTop+0xdffcf450>
 34c:	38746e69 	ldmdacc	r4!, {r0, r3, r5, r6, r9, sl, fp, sp, lr}^
 350:	5300745f 	movwpl	r7, #1119	; 0x45f
 354:	3454504f 	ldrbcc	r5, [r4], #-79	; 0xffffffb1
 358:	746e6900 	strbtvc	r6, [lr], #-2304	; 0xfffff700
 35c:	61726765 	cmnvs	r2, r5, ror #14
 360:	4950006c 	ldmdbmi	r0, {r2, r3, r5, r6}^
 364:	64705544 	ldrbtvs	r5, [r0], #-1348	; 0xfffffabc
 368:	00657461 	rsbeq	r7, r5, r1, ror #8
 36c:	75706e69 	ldrbvc	r6, [r0, #-3689]!	; 0xfffff197
 370:	6e690074 	mcrvs	0, 3, r0, cr9, cr4, {3}
 374:	4c747570 	cfldr64mi	mvdx7, [r4], #-448	; 0xfffffe40
 378:	5000776f 	andpl	r7, r0, pc, ror #14
 37c:	61444449 	cmpvs	r4, r9, asr #8
 380:	50006174 	andpl	r6, r0, r4, ror r1
 384:	65534449 	ldrbvs	r4, [r3, #-1097]	; 0xfffffbb7
 388:	616f4774 	smcvs	62580	; 0xf474
 38c:	756f006c 	strbvc	r0, [pc, #-108]!	; 328 <Heap_Size+0x228>
 390:	74757074 	ldrbtvc	r7, [r5], #-116	; 0xffffff8c
 394:	74756f00 	ldrbtvc	r6, [r5], #-3840	; 0xfffff100
 398:	48747570 	ldmdami	r4!, {r4, r5, r6, r8, sl, ip, sp, lr}^
 39c:	00686769 	rsbeq	r6, r8, r9, ror #14
 3a0:	49444950 	stmdbmi	r4, {r4, r6, r8, fp, lr}^
 3a4:	6974696e 	ldmdbvs	r4!, {r1, r2, r3, r5, r6, r8, fp, sp, lr}^
 3a8:	7a696c61 	bvc	1a5b534 <__exidx_end+0x1a58f7c>
 3ac:	49500065 	ldmdbmi	r0, {r0, r2, r5, r6}^
 3b0:	74614444 	strbtvc	r4, [r1], #-1092	; 0xfffffbbc
 3b4:	72745361 	rsbsvc	r5, r4, #-2080374783	; 0x84000001
 3b8:	00746375 	rsbseq	r6, r4, r5, ror r3
 3bc:	75706e69 	ldrbvc	r6, [r0, #-3689]!	; 0xfffff197
 3c0:	67694874 			; <UNDEFINED> instruction: 0x67694874
 3c4:	69740068 	ldmdbvs	r4!, {r3, r5, r6}^
 3c8:	6542656d 	strbvs	r6, [r2, #-1389]	; 0xfffffa93
 3cc:	65657774 	strbvs	r7, [r5, #-1908]!	; 0xfffff88c
 3d0:	6470556e 	ldrbtvs	r5, [r0], #-1390	; 0xfffffa92
 3d4:	73657461 	cmnvc	r5, #1627389952	; 0x61000000
 3d8:	73616c00 	cmnvc	r1, #0, 24
 3dc:	72724574 	rsbsvc	r4, r2, #116, 10	; 0x1d000000
 3e0:	6f670073 	svcvs	0x00670073
 3e4:	6f006c61 	svcvs	0x00006c61
 3e8:	75707475 	ldrbvc	r7, [r0, #-1141]!	; 0xfffffb8b
 3ec:	776f4c74 			; <UNDEFINED> instruction: 0x776f4c74
 3f0:	72656400 	rsbvc	r6, r5, #0, 8
 3f4:	50007669 	andpl	r7, r0, r9, ror #12
 3f8:	632e4449 	teqvs	lr, #1224736768	; 0x49000000
 3fc:	6f6c6600 	svcvs	0x006c6600
 400:	65007461 	strvs	r7, [r0, #-1121]	; 0xfffffb9f
 404:	726f7272 	rsbvc	r7, pc, #536870919	; 0x20000007
 408:	414d4400 	cmpmi	sp, r0, lsl #8
 40c:	52495f37 	subpl	r5, r9, #55, 30	; 0xdc
 410:	49006e51 	stmdbmi	r0, {r0, r4, r6, r9, sl, fp, sp, lr}
 414:	00525043 	subseq	r5, r2, r3, asr #32
 418:	31544950 	cmpcc	r4, r0, asr r9
 41c:	5152495f 	cmppl	r2, pc, asr r9
 420:	4144006e 	cmpmi	r4, lr, rrx
 424:	495f3143 	ldmdbmi	pc, {r0, r1, r6, r8, ip, sp}^	; <UNPREDICTABLE>
 428:	006e5152 	rsbeq	r5, lr, r2, asr r1
 42c:	5f495753 	svcpl	0x00495753
 430:	6e515249 	cdpvs	2, 5, cr5, cr1, cr9, {2}
 434:	49545300 	ldmdbmi	r4, {r8, r9, ip, lr}^
 438:	65520052 	ldrbvs	r0, [r2, #-82]	; 0xffffffae
 43c:	76726573 			; <UNDEFINED> instruction: 0x76726573
 440:	31376465 	teqcc	r7, r5, ror #8
 444:	5152495f 	cmppl	r2, pc, asr r9
 448:	4d44006e 	stclmi	0, cr0, [r4, #-440]	; 0xfffffe48
 44c:	5f333141 	svcpl	0x00333141
 450:	6e515249 	cdpvs	2, 5, cr5, cr1, cr9, {2}
 454:	52415500 	subpl	r5, r1, #0, 10
 458:	525f3354 	subspl	r3, pc, #84, 6	; 0x50000001
 45c:	58545f58 	ldmdapl	r4, {r3, r4, r6, r8, r9, sl, fp, ip, lr}^
 460:	5152495f 	cmppl	r2, pc, asr r9
 464:	5f5f006e 	svcpl	0x005f006e
 468:	61736964 	cmnvs	r3, r4, ror #18
 46c:	5f656c62 	svcpl	0x00656c62
 470:	00717269 	rsbseq	r7, r1, r9, ror #4
 474:	30425355 	subcc	r5, r2, r5, asr r3
 478:	5152495f 	cmppl	r2, pc, asr r9
 47c:	4f50006e 	svcmi	0x0050006e
 480:	5f445452 	svcpl	0x00445452
 484:	6e515249 	cdpvs	2, 5, cr5, cr1, cr9, {2}
 488:	74615700 	strbtvc	r5, [r1], #-1792	; 0xfffff900
 48c:	6f646863 	svcvs	0x00646863
 490:	52495f67 	subpl	r5, r9, #412	; 0x19c
 494:	43006e51 	movwmi	r6, #3665	; 0xe51
 498:	5f304e41 	svcpl	0x00304e41
 49c:	575f7854 			; <UNDEFINED> instruction: 0x575f7854
 4a0:	696e7261 	stmdbvs	lr!, {r0, r5, r6, r9, ip, sp, lr}^
 4a4:	495f676e 	ldmdbmi	pc, {r1, r2, r3, r5, r6, r8, r9, sl, sp, lr}^	; <UNPREDICTABLE>
 4a8:	006e5152 	rsbeq	r5, lr, r2, asr r1
 4ac:	52505349 	subspl	r5, r0, #603979777	; 0x24000001
 4b0:	414d4400 	cmpmi	sp, r0, lsl #8
 4b4:	52495f38 	subpl	r5, r9, #56, 30	; 0xe0
 4b8:	49006e51 	stmdbmi	r0, {r0, r4, r6, r9, sl, fp, sp, lr}
 4bc:	5f324332 	svcpl	0x00324332
 4c0:	6e515249 	cdpvs	2, 5, cr5, cr1, cr9, {2}
 4c4:	52415500 	subpl	r5, r1, #0, 10
 4c8:	455f3554 	ldrbmi	r3, [pc, #-1364]	; ffffff7c <__StackTop+0xdffcff7c>
 4cc:	495f5252 	ldmdbmi	pc, {r1, r4, r6, r9, ip, lr}^	; <UNPREDICTABLE>
 4d0:	006e5152 	rsbeq	r5, lr, r2, asr r1
 4d4:	5f544d43 	svcpl	0x00544d43
 4d8:	6e515249 	cdpvs	2, 5, cr5, cr1, cr9, {2}
 4dc:	414d4400 	cmpmi	sp, r0, lsl #8
 4e0:	495f3431 	ldmdbmi	pc, {r0, r4, r5, sl, ip, sp}^	; <UNPREDICTABLE>
 4e4:	006e5152 	rsbeq	r5, lr, r2, asr r1
 4e8:	304d5446 	subcc	r5, sp, r6, asr #8
 4ec:	5152495f 	cmppl	r2, pc, asr r9
 4f0:	4f50006e 	svcmi	0x0050006e
 4f4:	5f455452 	svcpl	0x00455452
 4f8:	6e515249 	cdpvs	2, 5, cr5, cr1, cr9, {2}
 4fc:	414d4400 	cmpmi	sp, r0, lsl #8
 500:	52495f33 	subpl	r5, r9, #51, 30	; 0xcc
 504:	45006e51 	strmi	r6, [r0, #-3665]	; 0xfffff1af
 508:	5f54454e 	svcpl	0x0054454e
 50c:	6f727245 	svcvs	0x00727245
 510:	52495f72 	subpl	r5, r9, #456	; 0x1c8
 514:	43006e51 	movwmi	r6, #3665	; 0xe51
 518:	5f304e41 	svcpl	0x00304e41
 51c:	6f727245 	svcvs	0x00727245
 520:	52495f72 	subpl	r5, r9, #456	; 0x1c8
 524:	49006e51 	stmdbmi	r0, {r0, r4, r6, r9, sl, fp, sp, lr}
 528:	00524553 	subseq	r4, r2, r3, asr r5
 52c:	5f474e52 	svcpl	0x00474e52
 530:	6e515249 	cdpvs	2, 5, cr5, cr1, cr9, {2}
 534:	41564300 	cmpmi	r6, r0, lsl #6
 538:	4e45004c 	cdpmi	0, 4, cr0, cr5, cr12, {2}
 53c:	315f5445 	cmpcc	pc, r5, asr #8
 540:	5f383835 	svcpl	0x00383835
 544:	656d6954 	strbvs	r6, [sp, #-2388]!	; 0xfffff6ac
 548:	52495f72 	subpl	r5, r9, #456	; 0x1c8
 54c:	48006e51 	stmdami	r0, {r0, r4, r6, r9, sl, fp, sp, lr}
 550:	46647261 	strbtmi	r7, [r4], -r1, ror #4
 554:	746c7561 	strbtvc	r7, [ip], #-1377	; 0xfffffa9f
 558:	5152495f 	cmppl	r2, pc, asr r9
 55c:	4450006e 	ldrbmi	r0, [r0], #-110	; 0xffffff92
 560:	495f3042 	ldmdbmi	pc, {r1, r6, ip, sp}^	; <UNPREDICTABLE>
 564:	006e5152 	rsbeq	r5, lr, r2, asr r1
 568:	46737542 	ldrbtmi	r7, [r3], -r2, asr #10
 56c:	746c7561 	strbtvc	r7, [ip], #-1377	; 0xfffffa9f
 570:	5152495f 	cmppl	r2, pc, asr r9
 574:	4e45006e 	cdpmi	0, 4, cr0, cr5, cr14, {3}
 578:	525f5445 	subspl	r5, pc, #1157627904	; 0x45000000
 57c:	69656365 	stmdbvs	r5!, {r0, r2, r5, r6, r8, r9, sp, lr}^
 580:	495f6576 	ldmdbmi	pc, {r1, r2, r4, r5, r6, r8, sl, sp, lr}^	; <UNPREDICTABLE>
 584:	006e5152 	rsbeq	r5, lr, r2, asr r1
 588:	31414d44 	cmpcc	r1, r4, asr #26
 58c:	5152495f 	cmppl	r2, pc, asr r9
 590:	4143006e 	cmpmi	r3, lr, rrx
 594:	575f304e 	ldrbpl	r3, [pc, -lr, asr #32]
 598:	5f656b61 	svcpl	0x00656b61
 59c:	495f7055 	ldmdbmi	pc, {r0, r2, r4, r6, ip, sp, lr}^	; <UNPREDICTABLE>
 5a0:	006e5152 	rsbeq	r5, lr, r2, asr r1
 5a4:	5f544950 	svcpl	0x00544950
 5a8:	65707954 	ldrbvs	r7, [r0, #-2388]!	; 0xfffff6ac
 5ac:	49505300 	ldmdbmi	r0, {r8, r9, ip, lr}^
 5b0:	52495f30 	subpl	r5, r9, #48, 30	; 0xc0
 5b4:	50006e51 	andpl	r6, r0, r1, asr lr
 5b8:	5f305449 	svcpl	0x00305449
 5bc:	48515249 	ldmdami	r1, {r0, r3, r6, r9, ip, lr}^
 5c0:	6c646e61 	stclvs	14, cr6, [r4], #-388	; 0xfffffe7c
 5c4:	50007265 	andpl	r7, r0, r5, ror #4
 5c8:	5f305449 	svcpl	0x00305449
 5cc:	6e515249 	cdpvs	2, 5, cr5, cr1, cr9, {2}
 5d0:	52415500 	subpl	r5, r1, #0, 10
 5d4:	455f3054 	ldrbmi	r3, [pc, #-84]	; 588 <SystemInit+0xb4>
 5d8:	495f5252 	ldmdbmi	pc, {r1, r4, r6, r9, ip, lr}^	; <UNPREDICTABLE>
 5dc:	006e5152 	rsbeq	r5, lr, r2, asr r1
 5e0:	54524155 	ldrbpl	r4, [r2], #-341	; 0xfffffeab
 5e4:	52455f31 	subpl	r5, r5, #49, 30	; 0xc4
 5e8:	52495f52 	subpl	r5, r9, #328	; 0x148
 5ec:	44006e51 	strmi	r6, [r0], #-3665	; 0xfffff1af
 5f0:	5f34414d 	svcpl	0x0034414d
 5f4:	6e515249 	cdpvs	2, 5, cr5, cr1, cr9, {2}
 5f8:	52415500 	subpl	r5, r1, #0, 10
 5fc:	455f3254 	ldrbmi	r3, [pc, #-596]	; 3b0 <Heap_Size+0x2b0>
 600:	495f5252 	ldmdbmi	pc, {r1, r4, r6, r9, ip, lr}^	; <UNPREDICTABLE>
 604:	006e5152 	rsbeq	r5, lr, r2, asr r1
 608:	54524155 	ldrbpl	r4, [r2], #-341	; 0xfffffeab
 60c:	52455f33 	subpl	r5, r5, #51, 30	; 0xcc
 610:	52495f52 	subpl	r5, r9, #328	; 0x148
 614:	4d006e51 	stcmi	14, cr6, [r0, #-324]	; 0xfffffebc
 618:	726f6d65 	rsbvc	r6, pc, #6464	; 0x1940
 61c:	6e614d79 	mcrvs	13, 3, r4, cr1, cr9, {3}
 620:	6d656761 	stclvs	7, cr6, [r5, #-388]!	; 0xfffffe7c
 624:	5f746e65 	svcpl	0x00746e65
 628:	6e515249 	cdpvs	2, 5, cr5, cr1, cr9, {2}
 62c:	52415500 	subpl	r5, r1, #0, 10
 630:	455f3454 	ldrbmi	r3, [pc, #-1108]	; 1e4 <Heap_Size+0xe4>
 634:	495f5252 	ldmdbmi	pc, {r1, r4, r6, r9, ip, lr}^	; <UNPREDICTABLE>
 638:	006e5152 	rsbeq	r5, lr, r2, asr r1
 63c:	54524155 	ldrbpl	r4, [r2], #-341	; 0xfffffeab
 640:	58525f31 	ldmdapl	r2, {r0, r4, r5, r8, r9, sl, fp, ip, lr}^
 644:	5f58545f 	svcpl	0x0058545f
 648:	6e515249 	cdpvs	2, 5, cr5, cr1, cr9, {2}
 64c:	54495000 	strbpl	r5, [r9], #-0
 650:	61746144 	cmnvs	r4, r4, asr #2
 654:	75727453 	ldrbvc	r7, [r2, #-1107]!	; 0xfffffbad
 658:	52007463 	andpl	r7, r0, #1660944384	; 0x63000000
 65c:	535f4354 	cmppl	pc, #84, 6	; 0x50000001
 660:	6e6f6365 	cdpvs	3, 6, cr6, cr15, cr5, {3}
 664:	495f7364 	ldmdbmi	pc, {r2, r5, r6, r8, r9, ip, sp, lr}^	; <UNPREDICTABLE>
 668:	006e5152 	rsbeq	r5, lr, r2, asr r1
 66c:	61435653 	cmpvs	r3, r3, asr r6
 670:	495f6c6c 	ldmdbmi	pc, {r2, r3, r5, r6, sl, fp, sp, lr}^	; <UNPREDICTABLE>
 674:	006e5152 	rsbeq	r5, lr, r2, asr r1
 678:	6954504c 	ldmdbvs	r4, {r2, r3, r6, ip, lr}^
 67c:	5f72656d 	svcpl	0x0072656d
 680:	6e515249 	cdpvs	2, 5, cr5, cr1, cr9, {2}
 684:	414d4400 	cmpmi	sp, r0, lsl #8
 688:	495f3031 	ldmdbmi	pc, {r0, r4, r5, ip, sp}^	; <UNPREDICTABLE>
 68c:	006e5152 	rsbeq	r5, lr, r2, asr r1
 690:	30434144 	subcc	r4, r3, r4, asr #2
 694:	5152495f 	cmppl	r2, pc, asr r9
 698:	5053006e 	subspl	r0, r3, lr, rrx
 69c:	495f3149 	ldmdbmi	pc, {r0, r3, r6, r8, ip, sp}^	; <UNPREDICTABLE>
 6a0:	006e5152 	rsbeq	r5, lr, r2, asr r1
 6a4:	54524f50 	ldrbpl	r4, [r2], #-3920	; 0xfffff0b0
 6a8:	52495f41 	subpl	r5, r9, #260	; 0x104
 6ac:	52006e51 	andpl	r6, r0, #1296	; 0x510
 6b0:	5f646165 	svcpl	0x00646165
 6b4:	6c6c6f43 	stclvs	15, cr6, [ip], #-268	; 0xfffffef4
 6b8:	6f697369 	svcvs	0x00697369
 6bc:	52495f6e 	subpl	r5, r9, #440	; 0x1b8
 6c0:	46006e51 			; <UNDEFINED> instruction: 0x46006e51
 6c4:	5f334d54 	svcpl	0x00334d54
 6c8:	6e515249 	cdpvs	2, 5, cr5, cr1, cr9, {2}
 6cc:	52415500 	subpl	r5, r1, #0, 10
 6d0:	525f3454 	subspl	r3, pc, #84, 8	; 0x54000000
 6d4:	58545f58 	ldmdapl	r4, {r3, r4, r6, r8, r9, sl, fp, ip, lr}^
 6d8:	5152495f 	cmppl	r2, pc, asr r9
 6dc:	4d43006e 	stclmi	0, cr0, [r3, #-440]	; 0xfffffe48
 6e0:	495f3050 	ldmdbmi	pc, {r4, r6, ip, sp}^	; <UNPREDICTABLE>
 6e4:	006e5152 	rsbeq	r5, lr, r2, asr r1
 6e8:	35414d44 	strbcc	r4, [r1, #-3396]	; 0xfffff2bc
 6ec:	5152495f 	cmppl	r2, pc, asr r9
 6f0:	7953006e 	ldmdbvc	r3, {r1, r2, r3, r5, r6}^
 6f4:	63695473 	cmnvs	r9, #1929379840	; 0x73000000
 6f8:	52495f6b 	subpl	r5, r9, #428	; 0x1ac
 6fc:	55006e51 	strpl	r6, [r0, #-3665]	; 0xfffff1af
 700:	43444253 	movtmi	r4, #16979	; 0x4253
 704:	52495f44 	subpl	r5, r9, #68, 30	; 0x110
 708:	4c006e51 	stcmi	14, cr6, [r0], {81}	; 0x51
 70c:	4c5f4456 	cfldrdmi	mvd4, [pc], {86}	; 0x56
 710:	495f5756 	ldmdbmi	pc, {r1, r2, r4, r6, r8, r9, sl, ip, lr}^	; <UNPREDICTABLE>
 714:	006e5152 	rsbeq	r5, lr, r2, asr r1
 718:	304e4143 	subcc	r4, lr, r3, asr #2
 71c:	7375425f 	cmnvc	r5, #-268435451	; 0xf0000005
 720:	66664f5f 	uqsaxvs	r4, r6, pc	; <UNPREDICTABLE>
 724:	5152495f 	cmppl	r2, pc, asr r9
 728:	4155006e 	cmpmi	r5, lr, rrx
 72c:	5f355452 	svcpl	0x00355452
 730:	545f5852 	ldrbpl	r5, [pc], #-2130	; 738 <PIDSetGoal+0x6e>
 734:	52495f58 	subpl	r5, r9, #88, 30	; 0x160
 738:	45006e51 	strmi	r6, [r0, #-3665]	; 0xfffff1af
 73c:	5f54454e 	svcpl	0x0054454e
 740:	6e617254 	mcrvs	2, 3, r7, cr1, cr4, {2}
 744:	74696d73 	strbtvc	r6, [r9], #-3443	; 0xfffff28d
 748:	5152495f 	cmppl	r2, pc, asr r9
 74c:	4149006e 	cmpmi	r9, lr, rrx
 750:	44005242 	strmi	r5, [r0], #-578	; 0xfffffdbe
 754:	3131414d 	teqcc	r1, sp, asr #2
 758:	5152495f 	cmppl	r2, pc, asr r9
 75c:	5053006e 	subspl	r0, r3, lr, rrx
 760:	495f3249 	ldmdbmi	pc, {r0, r3, r6, r9, ip, sp}^	; <UNPREDICTABLE>
 764:	006e5152 	rsbeq	r5, lr, r2, asr r1
 768:	54524f50 	ldrbpl	r4, [r2], #-3920	; 0xfffff0b0
 76c:	52495f42 	subpl	r5, r9, #264	; 0x108
 770:	44006e51 	strmi	r6, [r0], #-3665	; 0xfffff1af
 774:	5f30414d 	svcpl	0x0030414d
 778:	6e515249 	cdpvs	2, 5, cr5, cr1, cr9, {2}
 77c:	43444100 	movtmi	r4, #16640	; 0x4100
 780:	52495f30 	subpl	r5, r9, #48, 30	; 0xc0
 784:	44006e51 	strmi	r6, [r0], #-3665	; 0xfffff1af
 788:	5f39414d 	svcpl	0x0039414d
 78c:	6e515249 	cdpvs	2, 5, cr5, cr1, cr9, {2}
 790:	45434900 	strbmi	r4, [r3, #-2304]	; 0xfffff700
 794:	44410052 	strbmi	r0, [r1], #-82	; 0xffffffae
 798:	495f3143 	ldmdbmi	pc, {r0, r1, r6, r8, ip, sp}^	; <UNPREDICTABLE>
 79c:	006e5152 	rsbeq	r5, lr, r2, asr r1
 7a0:	6e655f5f 	mcrvs	15, 3, r5, cr5, cr15, {2}
 7a4:	656c6261 	strbvs	r6, [ip, #-609]!	; 0xfffffd9f
 7a8:	7172695f 	cmnvc	r2, pc, asr r9
 7ac:	54495000 	strbpl	r5, [r9], #-0
 7b0:	61746144 	cmnvs	r4, r4, asr #2
 7b4:	43324900 	teqmi	r2, #0, 18
 7b8:	52495f30 	subpl	r5, r9, #48, 30	; 0xc0
 7bc:	43006e51 	movwmi	r6, #3665	; 0xe51
 7c0:	5f31504d 	svcpl	0x0031504d
 7c4:	6e515249 	cdpvs	2, 5, cr5, cr1, cr9, {2}
 7c8:	53455200 	movtpl	r5, #20992	; 0x5200
 7cc:	45565245 	ldrbmi	r5, [r6, #-581]	; 0xfffffdbb
 7d0:	52003044 	andpl	r3, r0, #68	; 0x44
 7d4:	52455345 	subpl	r5, r5, #335544321	; 0x14000001
 7d8:	32444556 	subcc	r4, r4, #360710144	; 0x15800000
 7dc:	53455200 	movtpl	r5, #20992	; 0x5200
 7e0:	45565245 	ldrbmi	r5, [r6, #-581]	; 0xfffffdbb
 7e4:	52003444 	andpl	r3, r0, #68, 8	; 0x44000000
 7e8:	52455345 	subpl	r5, r5, #335544321	; 0x14000001
 7ec:	35444556 	strbcc	r4, [r4, #-1366]	; 0xfffffaaa
 7f0:	41484300 	mrsmi	r4, (UNDEF: 120)
 7f4:	4c454e4e 	mcrrmi	14, 4, r4, r5, cr14
 7f8:	414d4400 	cmpmi	sp, r0, lsl #8
 7fc:	495f3531 	ldmdbmi	pc, {r0, r4, r5, r8, sl, ip, sp}^	; <UNPREDICTABLE>
 800:	006e5152 	rsbeq	r5, lr, r2, asr r1
 804:	5f47434d 	svcpl	0x0047434d
 808:	6e515249 	cdpvs	2, 5, cr5, cr1, cr9, {2}
 80c:	504d4300 	subpl	r4, sp, r0, lsl #6
 810:	52495f32 	subpl	r5, r9, #50, 30	; 0xc8
 814:	50006e51 	andpl	r6, r0, r1, asr lr
 818:	4354524f 	cmpmi	r4, #-268435452	; 0xf0000004
 81c:	5152495f 	cmppl	r2, pc, asr r9
 820:	4950006e 	ldmdbmi	r0, {r1, r2, r3, r5, r6}^
 824:	495f3154 	ldmdbmi	pc, {r2, r4, r6, r8, ip, sp}^	; <UNPREDICTABLE>
 828:	61485152 	cmpvs	r8, r2, asr r1
 82c:	656c646e 	strbvs	r6, [ip, #-1134]!	; 0xfffffb92
 830:	564e0072 			; <UNDEFINED> instruction: 0x564e0072
 834:	545f4349 	ldrbpl	r4, [pc], #-841	; 83c <FTM0_IRQHandler+0x4>
 838:	00657079 	rsbeq	r7, r5, r9, ror r0
 83c:	706f7473 	rsbvc	r7, pc, r3, ror r4	; <UNPREDICTABLE>
 840:	30544950 	subscc	r4, r4, r0, asr r9
 844:	6f747300 	svcvs	0x00747300
 848:	54495070 	strbpl	r5, [r9], #-112	; 0xffffff90
 84c:	564e0031 			; <UNDEFINED> instruction: 0x564e0031
 850:	455f4349 	ldrbmi	r4, [pc, #-841]	; 50f <SystemInit+0x3b>
 854:	6c62616e 	stfvse	f6, [r2], #-440	; 0xfffffe48
 858:	51524965 	cmppl	r2, r5, ror #18
 85c:	43324900 	teqmi	r2, #0, 18
 860:	52495f31 	subpl	r5, r9, #49, 30	; 0xc4
 864:	54006e51 	strpl	r6, [r0], #-3665	; 0xfffff1af
 868:	00474c46 	subeq	r4, r7, r6, asr #24
 86c:	54524155 	ldrbpl	r4, [r2], #-341	; 0xfffffeab
 870:	58525f32 	ldmdapl	r2, {r1, r4, r5, r8, r9, sl, fp, ip, lr}^
 874:	5f58545f 	svcpl	0x0058545f
 878:	6e515249 	cdpvs	2, 5, cr5, cr1, cr9, {2}
 87c:	53455200 	movtpl	r5, #20992	; 0x5200
 880:	45565245 	ldrbmi	r5, [r6, #-581]	; 0xfffffdbb
 884:	49003344 	stmdbmi	r0, {r2, r6, r8, r9, ip, sp}
 888:	5f6e5152 	svcpl	0x006e5152
 88c:	65707954 	ldrbvs	r7, [r0, #-2388]!	; 0xfffff6ac
 890:	49315400 	ldmdbmi	r1!, {sl, ip, lr}
 894:	50005253 	andpl	r5, r0, r3, asr r2
 898:	53646e65 	cmnpl	r4, #1616	; 0x650
 89c:	52495f56 	subpl	r5, r9, #344	; 0x158
 8a0:	55006e51 	strpl	r6, [r0, #-3665]	; 0xfffff1af
 8a4:	65676173 	strbvs	r6, [r7, #-371]!	; 0xfffffe8d
 8a8:	6c756146 	ldfvse	f6, [r5], #-280	; 0xfffffee8
 8ac:	52495f74 	subpl	r5, r9, #116, 30	; 0x1d0
 8b0:	50006e51 	andpl	r6, r0, r1, asr lr
 8b4:	632e5449 	teqvs	lr, #1224736768	; 0x49000000
 8b8:	56646c00 	strbtpl	r6, [r4], -r0, lsl #24
 8bc:	46006c61 	strmi	r6, [r0], -r1, ror #24
 8c0:	5f324d54 	svcpl	0x00324d54
 8c4:	6e515249 	cdpvs	2, 5, cr5, cr1, cr9, {2}
 8c8:	4e414300 	cdpmi	3, 4, cr4, cr1, cr0, {0}
 8cc:	524f5f30 	subpl	r5, pc, #48, 30	; 0xc0
 8d0:	4d5f6465 	cfldrdmi	mvd6, [pc, #-404]	; 744 <PIDSetGoal+0x7a>
 8d4:	61737365 	cmnvs	r3, r5, ror #6
 8d8:	625f6567 	subsvs	r6, pc, #432013312	; 0x19c00000
 8dc:	65666675 	strbvs	r6, [r6, #-1653]!	; 0xfffff98b
 8e0:	52495f72 	subpl	r5, r9, #456	; 0x1c8
 8e4:	73006e51 	movwvc	r6, #3665	; 0xe51
 8e8:	74726174 	ldrbtvc	r6, [r2], #-372	; 0xfffffe8c
 8ec:	30544950 	subscc	r4, r4, r0, asr r9
 8f0:	414d4400 	cmpmi	sp, r0, lsl #8
 8f4:	52495f32 	subpl	r5, r9, #50, 30	; 0xc8
 8f8:	4d006e51 	stcmi	14, cr6, [r0, #-324]	; 0xfffffebc
 8fc:	495f4d43 	ldmdbmi	pc, {r0, r1, r6, r8, sl, fp, lr}^	; <UNPREDICTABLE>
 900:	006e5152 	rsbeq	r5, lr, r2, asr r1
 904:	4d6e6f4e 	stclmi	15, cr6, [lr, #-312]!	; 0xfffffec8
 908:	616b7361 	cmnvs	fp, r1, ror #6
 90c:	49656c62 	stmdbmi	r5!, {r1, r5, r6, sl, fp, sp, lr}^
 910:	495f746e 	ldmdbmi	pc, {r1, r2, r3, r5, r6, sl, ip, sp, lr}^	; <UNPREDICTABLE>
 914:	006e5152 	rsbeq	r5, lr, r2, asr r1
 918:	30533249 	subscc	r3, r3, r9, asr #4
 91c:	5f78525f 	svcpl	0x0078525f
 920:	6e515249 	cdpvs	2, 5, cr5, cr1, cr9, {2}
 924:	414d4400 	cmpmi	sp, r0, lsl #8
 928:	7272455f 	rsbsvc	r4, r2, #398458880	; 0x17c00000
 92c:	495f726f 	ldmdbmi	pc, {r0, r1, r2, r3, r5, r6, r9, ip, sp, lr}^	; <UNPREDICTABLE>
 930:	006e5152 	rsbeq	r5, lr, r2, asr r1
 934:	45465446 	strbmi	r5, [r6, #-1094]	; 0xfffffbba
 938:	5152495f 	cmppl	r2, pc, asr r9
 93c:	3054006e 	subscc	r0, r4, lr, rrx
 940:	00525349 	subseq	r5, r2, r9, asr #6
 944:	304e4143 	subcc	r4, lr, r3, asr #2
 948:	5f78525f 	svcpl	0x0078525f
 94c:	6e726157 	mrcvs	1, 3, r6, cr2, cr7, {2}
 950:	5f676e69 	svcpl	0x00676e69
 954:	6e515249 	cdpvs	2, 5, cr5, cr1, cr9, {2}
 958:	53324900 	teqpl	r2, #0, 18
 95c:	78545f30 	ldmdavc	r4, {r4, r5, r8, r9, sl, fp, ip, lr}^
 960:	5152495f 	cmppl	r2, pc, asr r9
 964:	7473006e 	ldrbtvc	r0, [r3], #-110	; 0xffffff92
 968:	50747261 	rsbspl	r7, r4, r1, ror #4
 96c:	00315449 	eorseq	r5, r1, r9, asr #8
 970:	32544950 	subscc	r4, r4, #80, 18	; 0x140000
 974:	5152495f 	cmppl	r2, pc, asr r9
 978:	444c006e 	strbmi	r0, [ip], #-110	; 0xffffff92
 97c:	004c4156 	subeq	r4, ip, r6, asr r1
 980:	54524155 	ldrbpl	r4, [r2], #-341	; 0xfffffeab
 984:	4f4c5f30 	svcmi	0x004c5f30
 988:	52495f4e 	subpl	r5, r9, #312	; 0x138
 98c:	44006e51 	strmi	r6, [r0], #-3665	; 0xfffff1af
 990:	5f36414d 	svcpl	0x0036414d
 994:	6e515249 	cdpvs	2, 5, cr5, cr1, cr9, {2}
 998:	4d544600 	ldclmi	6, cr4, [r4, #-0]
 99c:	52495f31 	subpl	r5, r9, #49, 30	; 0xc4
 9a0:	52006e51 	andpl	r6, r0, #1296	; 0x510
 9a4:	56524553 			; <UNDEFINED> instruction: 0x56524553
 9a8:	00314445 	eorseq	r4, r1, r5, asr #8
 9ac:	5f574c4c 	svcpl	0x00574c4c
 9b0:	6e515249 	cdpvs	2, 5, cr5, cr1, cr9, {2}
 9b4:	48445300 	stmdami	r4, {r8, r9, ip, lr}^
 9b8:	52495f43 	subpl	r5, r9, #268	; 0x10c
 9bc:	44006e51 	strmi	r6, [r0], #-3665	; 0xfffff1af
 9c0:	67756265 	ldrbvs	r6, [r5, -r5, ror #4]!
 9c4:	696e6f4d 	stmdbvs	lr!, {r0, r2, r3, r6, r8, r9, sl, fp, sp, lr}^
 9c8:	5f726f74 	svcpl	0x00726f74
 9cc:	6e515249 	cdpvs	2, 5, cr5, cr1, cr9, {2}
 9d0:	414d4400 	cmpmi	sp, r0, lsl #8
 9d4:	495f3231 	ldmdbmi	pc, {r0, r4, r5, r9, ip, sp}^	; <UNPREDICTABLE>
 9d8:	006e5152 	rsbeq	r5, lr, r2, asr r1
 9dc:	54524155 	ldrbpl	r4, [r2], #-341	; 0xfffffeab
 9e0:	58525f30 	ldmdapl	r2, {r4, r5, r8, r9, sl, fp, ip, lr}^
 9e4:	5f58545f 	svcpl	0x0058545f
 9e8:	6e515249 	cdpvs	2, 5, cr5, cr1, cr9, {2}
 9ec:	54495000 	strbpl	r5, [r9], #-0
 9f0:	52495f33 	subpl	r5, r9, #51, 30	; 0xcc
 9f4:	53006e51 	movwpl	r6, #3665	; 0xe51
 9f8:	4f434e59 	svcmi	0x00434e59
 9fc:	4600464e 	strmi	r4, [r0], -lr, asr #12
 a00:	545f4d54 	ldrbpl	r4, [pc], #-3412	; a08 <main+0xf8>
 a04:	00657079 	rsbeq	r7, r5, r9, ror r0
 a08:	544d5750 	strbpl	r5, [sp], #-1872	; 0xfffff8b0
 a0c:	006b6369 	rsbeq	r6, fp, r9, ror #6
 a10:	2e6d7770 	mcrcs	7, 3, r7, cr13, cr0, {3}
 a14:	6e490063 	cdpvs	0, 4, cr0, cr9, cr3, {3}
 a18:	57507469 	ldrbpl	r7, [r0, -r9, ror #8]
 a1c:	4600324d 	strmi	r3, [r0], -sp, asr #4
 a20:	5f304d54 	svcpl	0x00304d54
 a24:	48515249 	ldmdami	r1, {r0, r3, r6, r9, ip, lr}^
 a28:	6c646e61 	stclvs	14, cr6, [r4], #-388	; 0xfffffe7c
 a2c:	45007265 	strmi	r7, [r0, #-613]	; 0xfffffd9b
 a30:	52545458 	subspl	r5, r4, #88, 8	; 0x58000000
 a34:	53004749 	movwpl	r4, #1865	; 0x749
 a38:	75447465 	strbvc	r7, [r4, #-1125]	; 0xfffffb9b
 a3c:	79437974 	stmdbvc	r3, {r2, r4, r5, r6, r8, fp, ip, sp, lr}^
 a40:	32656c63 	rsbcc	r6, r5, #25344	; 0x6300
 a44:	54554f00 	ldrbpl	r4, [r5], #-3840	; 0xfffff100
 a48:	54494e49 	strbpl	r4, [r9], #-3657	; 0xfffff1b7
 a4c:	4f575300 	svcmi	0x00575300
 a50:	4c525443 	cfldrdmi	mvd5, [r2], {67}	; 0x43
 a54:	4d575000 	ldclmi	0, cr5, [r7, #-0]
 a58:	44414f4c 	strbmi	r4, [r1], #-3916	; 0xfffff0b4
 a5c:	564e4900 	strbpl	r4, [lr], -r0, lsl #18
 a60:	4c525443 	cfldrdmi	mvd5, [r2], {67}	; 0x43
 a64:	41454400 	cmpmi	r5, r0, lsl #8
 a68:	4d495444 	cfstrdmi	mvd5, [r9, #-272]	; 0xfffffef0
 a6c:	4f430045 	svcmi	0x00430045
 a70:	4e49424d 	cdpmi	2, 4, cr4, cr9, cr13, {2}
 a74:	68630045 	stmdavs	r3!, {r0, r2, r6}^
 a78:	4d326e61 	ldcmi	14, cr6, [r2, #-388]!	; 0xfffffe7c
 a7c:	4f00646f 	svcmi	0x0000646f
 a80:	414d5455 	cmpmi	sp, r5, asr r4
 a84:	46004b53 			; <UNDEFINED> instruction: 0x46004b53
 a88:	45544c49 	ldrbmi	r4, [r4, #-3145]	; 0xfffff3b7
 a8c:	68630052 	stmdavs	r3!, {r1, r4, r6}^
 a90:	46326e61 	ldrtmi	r6, [r2], -r1, ror #28
 a94:	00716572 	rsbseq	r6, r1, r2, ror r5
 a98:	544e4f43 	strbpl	r4, [lr], #-3907	; 0xfffff0bd
 a9c:	534c4f52 	movtpl	r4, #53074	; 0xcf52
 aa0:	536e4300 	cmnpl	lr, #0, 6
 aa4:	4c460043 	mcrrmi	0, 4, r0, r6, cr3
 aa8:	52544354 	subspl	r4, r4, #84, 6	; 0x50000001
 aac:	6f66004c 	svcvs	0x0066004c
 ab0:	00646e75 	rsbeq	r6, r4, r5, ror lr
 ab4:	49544e43 	ldmdbmi	r4, {r0, r1, r6, r9, sl, fp, lr}^
 ab8:	7266004e 	rsbvc	r0, r6, #78	; 0x4e
 abc:	65757165 	ldrbvs	r7, [r5, #-357]!	; 0xfffffe9b
 ac0:	0079636e 	rsbseq	r6, r9, lr, ror #6
 ac4:	50544c46 	subspl	r4, r4, r6, asr #24
 ac8:	4d004c4f 	stcmi	12, cr4, [r0, #-316]	; 0xfffffec4
 acc:	0045444f 	subeq	r4, r5, pc, asr #8
 ad0:	54434451 	strbpl	r4, [r3], #-1105	; 0xfffffbaf
 ad4:	53004c52 	movwpl	r4, #3154	; 0xc52
 ad8:	55544154 	ldrbpl	r4, [r4, #-340]	; 0xfffffeac
 adc:	59530053 	ldmdbpl	r3, {r0, r1, r4, r6}^
 ae0:	6400434e 	strvs	r4, [r0], #-846	; 0xfffffcb2
 ae4:	64697669 	strbtvs	r7, [r9], #-1641	; 0xfffff997
 ae8:	50007265 	andpl	r7, r0, r5, ror #4
 aec:	00524f43 	subseq	r4, r2, r3, asr #30
 af0:	524f5450 	subpl	r5, pc, #80, 8	; 0x50000000
 af4:	6d757000 	ldclvs	0, cr7, [r5, #-0]
 af8:	72754370 	rsbsvc	r4, r5, #112, 6	; 0xc0000001
 afc:	746e6572 	strbtvc	r6, [lr], #-1394	; 0xfffffa8e
 b00:	69736544 	ldmdbvs	r3!, {r2, r6, r8, sl, sp, lr}^
 b04:	00646572 	rsbeq	r6, r4, r2, ror r5
 b08:	72617473 	rsbvc	r7, r1, #1929379840	; 0x73000000
 b0c:	73655274 	cmnvc	r5, #116, 4	; 0x40000007
 b10:	61747369 	cmnvs	r4, r9, ror #6
 b14:	4d65636e 	stclmi	3, cr6, [r5, #-440]!	; 0xfffffe48
 b18:	75736165 	ldrbvc	r6, [r3, #-357]!	; 0xfffffe9b
 b1c:	656d6572 	strbvs	r6, [sp, #-1394]!	; 0xfffffa8e
 b20:	6d00746e 	cfstrsvs	mvf7, [r0, #-440]	; 0xfffffe48
 b24:	006e6961 	rsbeq	r6, lr, r1, ror #18
 b28:	524f5350 	subpl	r5, pc, #80, 6	; 0x40000001
 b2c:	72656e00 	rsbvc	r6, r5, #0, 28
 b30:	5674736e 	ldrbtpl	r7, [r4], -lr, ror #6
 b34:	61746c6f 	cmnvs	r4, pc, ror #24
 b38:	50006567 	andpl	r6, r0, r7, ror #10
 b3c:	00524944 	subseq	r4, r2, r4, asr #18
 b40:	74616568 	strbtvc	r6, [r1], #-1384	; 0xfffffa98
 b44:	49507265 	ldmdbmi	r0, {r0, r2, r5, r6, r9, ip, sp, lr}^
 b48:	656e0044 	strbvs	r0, [lr, #-68]!	; 0xffffffbc
 b4c:	74736e72 	ldrbtvc	r6, [r3], #-3698	; 0xfffff18e
 b50:	70730052 	rsbsvc	r0, r3, r2, asr r0
 b54:	746e6972 	strbtvc	r6, [lr], #-2418	; 0xfffff68e
 b58:	75700066 	ldrbvc	r0, [r0, #-102]!	; 0xffffff9a
 b5c:	7543706d 	strbvc	r7, [r3, #-109]	; 0xffffff93
 b60:	6e657272 	mcrvs	2, 3, r7, cr5, cr2, {3}
 b64:	44495074 	strbmi	r5, [r9], #-116	; 0xffffff8c
 b68:	43444100 	movtmi	r4, #16640	; 0x4100
 b6c:	4e495f31 	mcrmi	15, 2, r5, cr9, cr1, {1}
 b70:	70005449 	andvc	r5, r0, r9, asr #8
 b74:	43706d75 	cmnmi	r0, #7488	; 0x1d40
 b78:	65727275 	ldrbvs	r7, [r2, #-629]!	; 0xfffffd8b
 b7c:	654d746e 	strbvs	r7, [sp, #-1134]	; 0xfffffb92
 b80:	72757361 	rsbsvc	r7, r5, #-2080374783	; 0x84000001
 b84:	47006465 	strmi	r6, [r0, -r5, ror #8]
 b88:	5f4f4950 	svcpl	0x004f4950
 b8c:	65707954 	ldrbvs	r7, [r0, #-2388]!	; 0xfffff6ac
 b90:	69616d00 	stmdbvs	r1!, {r8, sl, fp, sp, lr}^
 b94:	00632e6e 	rsbeq	r2, r3, lr, ror #28
 b98:	61647075 	smcvs	18181	; 0x4705
 b9c:	49506574 	ldmdbmi	r0, {r2, r4, r5, r6, r8, sl, sp, lr}^
 ba0:	70007344 	andvc	r7, r0, r4, asr #6
 ba4:	43706d75 	cmnmi	r0, #7488	; 0x1d40
 ba8:	65727275 	ldrbvs	r7, [r2, #-629]!	; 0xfffffd8b
 bac:	7544746e 	strbvc	r7, [r4, #-1134]	; 0xfffffb92
 bb0:	79437974 	stmdbvc	r3, {r2, r4, r5, r6, r8, fp, ip, sp, lr}^
 bb4:	00656c63 	rsbeq	r6, r5, r3, ror #24
 bb8:	31434441 	cmpcc	r3, r1, asr #8
 bbc:	75736552 	ldrbvc	r6, [r3, #-1362]!	; 0xfffffaae
 bc0:	0073746c 	rsbseq	r7, r3, ip, ror #8
 bc4:	6c746970 	ldclvs	9, cr6, [r4], #-448	; 0xfffffe40
 bc8:	6c617664 	stclvs	6, cr7, [r1], #-400	; 0xfffffe70
 bcc:	72656e00 	rsbvc	r6, r5, #0, 28
 bd0:	4f74736e 	svcmi	0x0074736e
 bd4:	70007475 	andvc	r7, r0, r5, ror r4
 bd8:	6c437469 	cfstrdvs	mvd7, [r3], {105}	; 0x69
 bdc:	006b636f 	rsbeq	r6, fp, pc, ror #6
 be0:	6e695f5f 	mcrvs	15, 3, r5, cr9, cr15, {2}
 be4:	5f363174 	svcpl	0x00363174
 be8:	65680074 	strbvs	r0, [r8, #-116]!	; 0xffffff8c
 bec:	72657461 	rsbvc	r7, r5, #1627389952	; 0x61000000
 bf0:	79747544 	ldmdbvc	r4!, {r2, r6, r8, sl, ip, sp, lr}^
 bf4:	6c637943 	stclvs	9, cr7, [r3], #-268	; 0xfffffef4
 bf8:	656e0065 	strbvs	r0, [lr, #-101]!	; 0xffffff9b
 bfc:	74736e72 	ldrbtvc	r6, [r3], #-3698	; 0xfffff18e
 c00:	746c6f56 	strbtvc	r6, [ip], #-3926	; 0xfffff0aa
 c04:	50656761 	rsbpl	r6, r5, r1, ror #14
 c08:	70004449 	andvc	r4, r0, r9, asr #8
 c0c:	43706d75 	cmnmi	r0, #7488	; 0x1d40
 c10:	65727275 	ldrbvs	r7, [r2, #-629]!	; 0xfffffd8b
 c14:	5000746e 	andpl	r7, r0, lr, ror #8
 c18:	00524f44 	subseq	r4, r2, r4, asr #30
 c1c:	52444450 	subpl	r4, r4, #80, 8	; 0x50000000
 c20:	504c4300 	subpl	r4, ip, r0, lsl #6
 c24:	4c430044 	mcrrmi	0, 4, r0, r3, cr4
 c28:	61005350 	tstvs	r0, r0, asr r3
 c2c:	632e6364 	teqvs	lr, #100, 6	; 0x90000001
 c30:	43414400 	movtmi	r4, #5120	; 0x1400
 c34:	4e495f30 	mcrmi	15, 2, r5, cr9, cr0, {1}
 c38:	41005449 	tstmi	r0, r9, asr #8
 c3c:	53314344 	teqpl	r1, #68, 6	; 0x10000001
 c40:	6372756f 	cmnvs	r2, #465567744	; 0x1bc00000
 c44:	74794265 	ldrbtvc	r4, [r9], #-613	; 0xfffffd9b
 c48:	50007365 	andpl	r7, r0, r5, ror #6
 c4c:	004e454f 	subeq	r4, lr, pc, asr #10
 c50:	48544144 	ldmdami	r4, {r2, r6, r8, lr}^
 c54:	54414400 	strbpl	r4, [r1], #-1024	; 0xfffffc00
 c58:	4441004c 	strbmi	r0, [r1], #-76	; 0xffffffb4
 c5c:	495f3143 	ldmdbmi	pc, {r0, r1, r6, r8, ip, sp}^	; <UNPREDICTABLE>
 c60:	61485152 	cmpvs	r8, r2, asr r1
 c64:	656c646e 	strbvs	r6, [ip, #-1134]!	; 0xfffffb92
 c68:	61630072 	smcvs	12290	; 0x3002
 c6c:	0062696c 	rsbeq	r6, r2, ip, ror #18
 c70:	31434441 	cmpcc	r3, r1, asr #8
 c74:	75736552 	ldrbvc	r6, [r3, #-1362]!	; 0xfffffaae
 c78:	6e49746c 	cdpvs	4, 4, cr7, cr9, cr12, {3}
 c7c:	00786564 	rsbseq	r6, r8, r4, ror #10
 c80:	5f424450 	svcpl	0x00424450
 c84:	54494e49 	strbpl	r4, [r9], #-3657	; 0xfffff1b7
 c88:	4d4c4300 	stclmi	3, cr4, [ip, #-0]
 c8c:	4c430030 	mcrrmi	0, 3, r0, r3, cr0
 c90:	4300314d 	movwmi	r3, #333	; 0x14d
 c94:	00324d4c 	eorseq	r4, r2, ip, asr #26
 c98:	334d4c43 	movtcc	r4, #56387	; 0xdc43
 c9c:	4d4c4300 	stclmi	3, cr4, [ip, #-0]
 ca0:	4c430034 	mcrrmi	0, 3, r0, r3, cr4
 ca4:	5000534d 	andpl	r5, r0, sp, asr #6
 ca8:	545f4244 	ldrbpl	r4, [pc], #-580	; cb0 <__adddf3+0x94>
 cac:	00657079 	rsbeq	r7, r5, r9, ror r0
 cb0:	5f434144 	svcpl	0x00434144
 cb4:	65707954 	ldrbvs	r7, [r0, #-2388]!	; 0xfffff6ac
 cb8:	43444100 	movtmi	r4, #16640	; 0x4100
 cbc:	7079545f 	rsbsvc	r5, r9, pc, asr r4
 cc0:	4c430065 	mcrrmi	0, 6, r0, r3, cr5
 cc4:	5000444d 	andpl	r4, r0, sp, asr #8
 cc8:	594c444f 	stmdbpl	ip, {r0, r1, r2, r3, r6, sl, lr}^
 ccc:	504c4300 	subpl	r4, ip, r0, lsl #6
 cd0:	4c430030 	mcrrmi	0, 3, r0, r3, cr0
 cd4:	43003150 	movwmi	r3, #336	; 0x150
 cd8:	0032504c 	eorseq	r5, r2, ip, asr #32
 cdc:	33504c43 	cmpcc	r0, #17152	; 0x4300
 ce0:	504c4300 	subpl	r4, ip, r0, lsl #6
 ce4:	4e490034 	mcrmi	0, 2, r0, cr9, cr4, {1}
 ce8:	49004354 	stmdbmi	r0, {r2, r4, r6, r8, r9, lr}
 cec:	00594c44 	subseq	r4, r9, r4, asr #24

Disassembly of section .debug_frame:

00000000 <.debug_frame>:
   0:	0000000c 	andeq	r0, r0, ip
   4:	ffffffff 			; <UNDEFINED> instruction: 0xffffffff
   8:	7c020001 	stcvc	0, cr0, [r2], {1}
   c:	000d0c0e 	andeq	r0, sp, lr, lsl #24
  10:	0000000c 	andeq	r0, r0, ip
  14:	00000000 	andeq	r0, r0, r0
  18:	000004d4 	ldrdeq	r0, [r0], -r4
  1c:	000000e8 	andeq	r0, r0, r8, ror #1
  20:	0000000c 	andeq	r0, r0, ip
	...
  2c:	00000128 	andeq	r0, r0, r8, lsr #2
  30:	0000000c 	andeq	r0, r0, ip
  34:	ffffffff 			; <UNDEFINED> instruction: 0xffffffff
  38:	7c020001 	stcvc	0, cr0, [r2], {1}
  3c:	000d0c0e 	andeq	r0, sp, lr, lsl #24
  40:	00000018 	andeq	r0, r0, r8, lsl r0
  44:	00000030 	andeq	r0, r0, r0, lsr r0
  48:	000005bc 			; <UNDEFINED> instruction: 0x000005bc
  4c:	0000006a 	andeq	r0, r0, sl, rrx
  50:	84100e41 	ldrhi	r0, [r0], #-3649	; 0xfffff1bf
  54:	86038504 	strhi	r8, [r3], -r4, lsl #10
  58:	00018e02 	andeq	r8, r1, r2, lsl #28
  5c:	0000001c 	andeq	r0, r0, ip, lsl r0
  60:	00000030 	andeq	r0, r0, r0, lsr r0
  64:	00000626 	andeq	r0, r0, r6, lsr #12
  68:	000000a4 	andeq	r0, r0, r4, lsr #1
  6c:	84180e42 	ldrhi	r0, [r8], #-3650	; 0xfffff1be
  70:	86058506 	strhi	r8, [r5], -r6, lsl #10
  74:	88038704 	stmdahi	r3, {r2, r8, r9, sl, pc}
  78:	00018e02 	andeq	r8, r1, r2, lsl #28
  7c:	0000001c 	andeq	r0, r0, ip, lsl r0
  80:	00000030 	andeq	r0, r0, r0, lsr r0
  84:	000006ca 	andeq	r0, r0, sl, asr #13
  88:	000000aa 	andeq	r0, r0, sl, lsr #1
  8c:	84180e42 	ldrhi	r0, [r8], #-3650	; 0xfffff1be
  90:	86058506 	strhi	r8, [r5], -r6, lsl #10
  94:	88038704 	stmdahi	r3, {r2, r8, r9, sl, pc}
  98:	00018e02 	andeq	r8, r1, r2, lsl #28
  9c:	0000000c 	andeq	r0, r0, ip
  a0:	ffffffff 			; <UNDEFINED> instruction: 0xffffffff
  a4:	7c020001 	stcvc	0, cr0, [r2], {1}
  a8:	000d0c0e 	andeq	r0, sp, lr, lsl #24
  ac:	0000000c 	andeq	r0, r0, ip
  b0:	0000009c 	muleq	r0, ip, r0
  b4:	00000774 	andeq	r0, r0, r4, ror r7
  b8:	00000050 	andeq	r0, r0, r0, asr r0
  bc:	0000000c 	andeq	r0, r0, ip
  c0:	0000009c 	muleq	r0, ip, r0
  c4:	00000000 	andeq	r0, r0, r0
  c8:	00000050 	andeq	r0, r0, r0, asr r0
  cc:	0000000c 	andeq	r0, r0, ip
  d0:	0000009c 	muleq	r0, ip, r0
  d4:	00000000 	andeq	r0, r0, r0
  d8:	00000010 	andeq	r0, r0, r0, lsl r0
  dc:	0000000c 	andeq	r0, r0, ip
  e0:	0000009c 	muleq	r0, ip, r0
  e4:	00000000 	andeq	r0, r0, r0
  e8:	00000010 	andeq	r0, r0, r0, lsl r0
  ec:	00000014 	andeq	r0, r0, r4, lsl r0
  f0:	0000009c 	muleq	r0, ip, r0
  f4:	000007c4 	andeq	r0, r0, r4, asr #15
  f8:	00000020 	andeq	r0, r0, r0, lsr #32
  fc:	83080e41 	movwhi	r0, #36417	; 0x8e41
 100:	00018e02 	andeq	r8, r1, r2, lsl #28
 104:	00000014 	andeq	r0, r0, r4, lsl r0
 108:	0000009c 	muleq	r0, ip, r0
 10c:	000007e4 	andeq	r0, r0, r4, ror #15
 110:	00000020 	andeq	r0, r0, r0, lsr #32
 114:	83080e41 	movwhi	r0, #36417	; 0x8e41
 118:	00018e02 	andeq	r8, r1, r2, lsl #28
 11c:	0000000c 	andeq	r0, r0, ip
 120:	ffffffff 			; <UNDEFINED> instruction: 0xffffffff
 124:	7c020001 	stcvc	0, cr0, [r2], {1}
 128:	000d0c0e 	andeq	r0, sp, lr, lsl #24
 12c:	0000000c 	andeq	r0, r0, ip
 130:	0000011c 	andeq	r0, r0, ip, lsl r1
 134:	00000804 	andeq	r0, r0, r4, lsl #16
 138:	00000034 	andeq	r0, r0, r4, lsr r0
 13c:	0000001c 	andeq	r0, r0, ip, lsl r0
 140:	0000011c 	andeq	r0, r0, ip, lsl r1
 144:	00000000 	andeq	r0, r0, r0
 148:	000000a4 	andeq	r0, r0, r4, lsr #1
 14c:	84140e41 	ldrhi	r0, [r4], #-3649	; 0xfffff1bf
 150:	86048505 	strhi	r8, [r4], -r5, lsl #10
 154:	8e028703 	cdphi	7, 0, cr8, cr2, cr3, {0}
 158:	00000001 	andeq	r0, r0, r1
 15c:	0000000c 	andeq	r0, r0, ip
 160:	0000011c 	andeq	r0, r0, ip, lsl r1
 164:	00000838 	andeq	r0, r0, r8, lsr r8
 168:	00000024 	andeq	r0, r0, r4, lsr #32
 16c:	0000000c 	andeq	r0, r0, ip
 170:	ffffffff 			; <UNDEFINED> instruction: 0xffffffff
 174:	7c020001 	stcvc	0, cr0, [r2], {1}
 178:	000d0c0e 	andeq	r0, sp, lr, lsl #24
 17c:	00000020 	andeq	r0, r0, r0, lsr #32
 180:	0000016c 	andeq	r0, r0, ip, ror #2
 184:	00000860 	andeq	r0, r0, r0, ror #16
 188:	000000b0 	strheq	r0, [r0], -r0	; <UNPREDICTABLE>
 18c:	83100e41 	tsthi	r0, #1040	; 0x410
 190:	85038404 	strhi	r8, [r3, #-1028]	; 0xfffffbfc
 194:	7e018e02 	cdpvc	14, 0, cr8, cr1, cr2, {0}
 198:	c3c4c5ce 	bicgt	ip, r4, #864026624	; 0x33800000
 19c:	0000000e 	andeq	r0, r0, lr
 1a0:	00000028 	andeq	r0, r0, r8, lsr #32
 1a4:	0000016c 	andeq	r0, r0, ip, ror #2
 1a8:	00000910 	andeq	r0, r0, r0, lsl r9
 1ac:	000001e0 	andeq	r0, r0, r0, ror #3
 1b0:	84240e42 	strthi	r0, [r4], #-3650	; 0xfffff1be
 1b4:	86088509 	strhi	r8, [r8], -r9, lsl #10
 1b8:	88068707 	stmdahi	r6, {r0, r1, r2, r8, r9, sl, pc}
 1bc:	8a048905 	bhi	1225d8 <__exidx_end+0x120020>
 1c0:	8e028b03 	vmlahi.f64	d8, d2, d3
 1c4:	b00e7101 	andlt	r7, lr, r1, lsl #2
 1c8:	00000008 	andeq	r0, r0, r8
 1cc:	0000000c 	andeq	r0, r0, ip
 1d0:	0000016c 	andeq	r0, r0, ip, ror #2
 1d4:	00000000 	andeq	r0, r0, r0
 1d8:	00000002 	andeq	r0, r0, r2
 1dc:	0000000c 	andeq	r0, r0, ip
 1e0:	ffffffff 			; <UNDEFINED> instruction: 0xffffffff
 1e4:	7c020001 	stcvc	0, cr0, [r2], {1}
 1e8:	000d0c0e 	andeq	r0, sp, lr, lsl #24
 1ec:	0000000c 	andeq	r0, r0, ip
 1f0:	000001dc 	ldrdeq	r0, [r0], -ip
 1f4:	00000000 	andeq	r0, r0, r0
 1f8:	00000028 	andeq	r0, r0, r8, lsr #32
 1fc:	0000000c 	andeq	r0, r0, ip
 200:	000001dc 	ldrdeq	r0, [r0], -ip
 204:	00000000 	andeq	r0, r0, r0
 208:	0000002c 	andeq	r0, r0, ip, lsr #32
 20c:	00000014 	andeq	r0, r0, r4, lsl r0
 210:	000001dc 	ldrdeq	r0, [r0], -ip
 214:	00000af0 	strdeq	r0, [r0], -r0	; <UNPREDICTABLE>
 218:	0000009c 	muleq	r0, ip, r0
 21c:	84080e41 	strhi	r0, [r8], #-3649	; 0xfffff1bf
 220:	00018e02 	andeq	r8, r1, r2, lsl #28
 224:	0000000c 	andeq	r0, r0, ip
 228:	000001dc 	ldrdeq	r0, [r0], -ip
 22c:	00000b8c 	andeq	r0, r0, ip, lsl #23
 230:	0000002c 	andeq	r0, r0, ip, lsr #32
 234:	0000000c 	andeq	r0, r0, ip
 238:	ffffffff 			; <UNDEFINED> instruction: 0xffffffff
 23c:	7c020001 	stcvc	0, cr0, [r2], {1}
 240:	000d0c0e 	andeq	r0, sp, lr, lsl #24
 244:	0000000c 	andeq	r0, r0, ip
 248:	00000234 	andeq	r0, r0, r4, lsr r2
 24c:	00001a38 	andeq	r1, r0, r8, lsr sl
 250:	0000000c 	andeq	r0, r0, ip
 254:	0000000c 	andeq	r0, r0, ip
 258:	ffffffff 			; <UNDEFINED> instruction: 0xffffffff
 25c:	7c020001 	stcvc	0, cr0, [r2], {1}
 260:	000d0c0e 	andeq	r0, sp, lr, lsl #24
 264:	00000014 	andeq	r0, r0, r4, lsl r0
 268:	00000254 	andeq	r0, r0, r4, asr r2
 26c:	00001a44 	andeq	r1, r0, r4, asr #20
 270:	00000028 	andeq	r0, r0, r8, lsr #32
 274:	83080e41 	movwhi	r0, #36417	; 0x8e41
 278:	00018e02 	andeq	r8, r1, r2, lsl #28
 27c:	0000000c 	andeq	r0, r0, ip
 280:	ffffffff 			; <UNDEFINED> instruction: 0xffffffff
 284:	7c020001 	stcvc	0, cr0, [r2], {1}
 288:	000d0c0e 	andeq	r0, sp, lr, lsl #24
 28c:	00000020 	andeq	r0, r0, r0, lsr #32
 290:	0000027c 	andeq	r0, r0, ip, ror r2
 294:	00001a6c 	andeq	r1, r0, ip, ror #20
 298:	00000028 	andeq	r0, r0, r8, lsr #32
 29c:	83100e41 	tsthi	r0, #1040	; 0x410
 2a0:	85038404 	strhi	r8, [r3, #-1028]	; 0xfffffbfc
 2a4:	4d018e02 	stcmi	14, cr8, [r1, #-8]
 2a8:	c3c4c5ce 	bicgt	ip, r4, #864026624	; 0x33800000
 2ac:	0000000e 	andeq	r0, r0, lr
 2b0:	0000000c 	andeq	r0, r0, ip
 2b4:	ffffffff 			; <UNDEFINED> instruction: 0xffffffff
 2b8:	7c020001 	stcvc	0, cr0, [r2], {1}
 2bc:	000d0c0e 	andeq	r0, sp, lr, lsl #24
 2c0:	00000018 	andeq	r0, r0, r8, lsl r0
 2c4:	000002b0 			; <UNDEFINED> instruction: 0x000002b0
 2c8:	00001a94 	muleq	r0, r4, sl
 2cc:	0000004c 	andeq	r0, r0, ip, asr #32
 2d0:	84100e41 	ldrhi	r0, [r0], #-3649	; 0xfffff1bf
 2d4:	86038504 	strhi	r8, [r3], -r4, lsl #10
 2d8:	00018e02 	andeq	r8, r1, r2, lsl #28
 2dc:	0000000c 	andeq	r0, r0, ip
 2e0:	ffffffff 			; <UNDEFINED> instruction: 0xffffffff
 2e4:	7c020001 	stcvc	0, cr0, [r2], {1}
 2e8:	000d0c0e 	andeq	r0, sp, lr, lsl #24
 2ec:	0000000c 	andeq	r0, r0, ip
 2f0:	000002dc 	ldrdeq	r0, [r0], -ip
 2f4:	00001ae0 	andeq	r1, r0, r0, ror #21
 2f8:	00000010 	andeq	r0, r0, r0, lsl r0
 2fc:	0000000c 	andeq	r0, r0, ip
 300:	000002dc 	ldrdeq	r0, [r0], -ip
 304:	00001af0 	strdeq	r1, [r0], -r0
 308:	00000010 	andeq	r0, r0, r0, lsl r0
 30c:	0000000c 	andeq	r0, r0, ip
 310:	ffffffff 			; <UNDEFINED> instruction: 0xffffffff
 314:	7c020001 	stcvc	0, cr0, [r2], {1}
 318:	000d0c0e 	andeq	r0, sp, lr, lsl #24
 31c:	0000000c 	andeq	r0, r0, ip
 320:	0000030c 	andeq	r0, r0, ip, lsl #6
 324:	00001b00 	andeq	r1, r0, r0, lsl #22
 328:	00000010 	andeq	r0, r0, r0, lsl r0
 32c:	0000000c 	andeq	r0, r0, ip
 330:	ffffffff 			; <UNDEFINED> instruction: 0xffffffff
 334:	7c020001 	stcvc	0, cr0, [r2], {1}
 338:	000d0c0e 	andeq	r0, sp, lr, lsl #24
 33c:	00000018 	andeq	r0, r0, r8, lsl r0
 340:	0000032c 	andeq	r0, r0, ip, lsr #6
 344:	00001b10 	andeq	r1, r0, r0, lsl fp
 348:	0000008c 	andeq	r0, r0, ip, lsl #1
 34c:	840c0e41 	strhi	r0, [ip], #-3649	; 0xfffff1bf
 350:	8e028503 	cfsh32hi	mvfx8, mvfx2, #3
 354:	00000001 	andeq	r0, r0, r1
 358:	0000000c 	andeq	r0, r0, ip
 35c:	ffffffff 			; <UNDEFINED> instruction: 0xffffffff
 360:	7c020001 	stcvc	0, cr0, [r2], {1}
 364:	000d0c0e 	andeq	r0, sp, lr, lsl #24
 368:	00000018 	andeq	r0, r0, r8, lsl r0
 36c:	00000358 	andeq	r0, r0, r8, asr r3
 370:	00001b9c 	muleq	r0, ip, fp
 374:	000000a8 	andeq	r0, r0, r8, lsr #1
 378:	84100e41 	ldrhi	r0, [r0], #-3649	; 0xfffff1bf
 37c:	86038504 	strhi	r8, [r3], -r4, lsl #10
 380:	00018e02 	andeq	r8, r1, r2, lsl #28
 384:	0000000c 	andeq	r0, r0, ip
 388:	ffffffff 			; <UNDEFINED> instruction: 0xffffffff
 38c:	7c020001 	stcvc	0, cr0, [r2], {1}
 390:	000d0c0e 	andeq	r0, sp, lr, lsl #24
 394:	00000018 	andeq	r0, r0, r8, lsl r0
 398:	00000384 	andeq	r0, r0, r4, lsl #7
 39c:	00001c44 	andeq	r1, r0, r4, asr #24
 3a0:	00000020 	andeq	r0, r0, r0, lsr #32
 3a4:	83100e41 	tsthi	r0, #1040	; 0x410
 3a8:	85038404 	strhi	r8, [r3, #-1028]	; 0xfffffbfc
 3ac:	00018e02 	andeq	r8, r1, r2, lsl #28
 3b0:	0000000c 	andeq	r0, r0, ip
 3b4:	ffffffff 			; <UNDEFINED> instruction: 0xffffffff
 3b8:	7c020001 	stcvc	0, cr0, [r2], {1}
 3bc:	000d0c0e 	andeq	r0, sp, lr, lsl #24
 3c0:	0000002c 	andeq	r0, r0, ip, lsr #32
 3c4:	000003b0 			; <UNDEFINED> instruction: 0x000003b0
 3c8:	00000000 	andeq	r0, r0, r0
 3cc:	00000040 	andeq	r0, r0, r0, asr #32
 3d0:	82080e41 	andhi	r0, r8, #1040	; 0x410
 3d4:	41018302 	tstmi	r1, r2, lsl #6
 3d8:	0484100e 	streq	r1, [r4], #14
 3dc:	0e41038e 	cdpeq	3, 4, cr0, cr1, cr14, {4}
 3e0:	0e590180 	rdfeq<illegal precision>	f0, f1, f0
 3e4:	c4ce4210 	strbgt	r4, [lr], #528	; 0x210
 3e8:	c341080e 	movtgt	r0, #6158	; 0x180e
 3ec:	00000ec2 	andeq	r0, r0, r2, asr #29
 3f0:	0000002c 	andeq	r0, r0, ip, lsr #32
 3f4:	000003b0 			; <UNDEFINED> instruction: 0x000003b0
 3f8:	00001c64 	andeq	r1, r0, r4, ror #24
 3fc:	00000048 	andeq	r0, r0, r8, asr #32
 400:	810c0e41 	tsthi	ip, r1, asr #28
 404:	83028203 	movwhi	r8, #8707	; 0x2203
 408:	100e4101 	andne	r4, lr, r1, lsl #2
 40c:	0e41048e 	cdpeq	4, 4, cr0, cr1, cr14, {4}
 410:	0e5b0180 	rdfeq<illegal precision>	f0, f3, f0
 414:	0ece4210 	mcreq	2, 6, r4, cr14, cr0, {0}
 418:	c2c3410c 	sbcgt	r4, r3, #12, 2
 41c:	00000ec1 	andeq	r0, r0, r1, asr #29
 420:	0000000c 	andeq	r0, r0, ip
 424:	ffffffff 			; <UNDEFINED> instruction: 0xffffffff
 428:	7c020001 	stcvc	0, cr0, [r2], {1}
 42c:	000d0c0e 	andeq	r0, sp, lr, lsl #24
 430:	00000020 	andeq	r0, r0, r0, lsr #32
 434:	00000420 	andeq	r0, r0, r0, lsr #8
 438:	00001cac 	andeq	r1, r0, ip, lsr #25
 43c:	000000b8 	strheq	r0, [r0], -r8
 440:	83200e42 	teqhi	r0, #1056	; 0x420
 444:	85078408 	strhi	r8, [r7, #-1032]	; 0xfffffbf8
 448:	87058606 	strhi	r8, [r5, -r6, lsl #12]
 44c:	89038804 	stmdbhi	r3, {r2, fp, pc}
 450:	00018e02 	andeq	r8, r1, r2, lsl #28
 454:	0000000c 	andeq	r0, r0, ip
 458:	ffffffff 			; <UNDEFINED> instruction: 0xffffffff
 45c:	7c020001 	stcvc	0, cr0, [r2], {1}
 460:	000d0c0e 	andeq	r0, sp, lr, lsl #24
 464:	00000028 	andeq	r0, r0, r8, lsr #32
 468:	00000454 	andeq	r0, r0, r4, asr r4
 46c:	00001d64 	andeq	r1, r0, r4, ror #26
 470:	000000d4 	ldrdeq	r0, [r0], -r4
 474:	84300e42 	ldrthi	r0, [r0], #-3650	; 0xfffff1be
 478:	86088509 	strhi	r8, [r8], -r9, lsl #10
 47c:	88068707 	stmdahi	r6, {r0, r1, r2, r8, r9, sl, pc}
 480:	8a048905 	bhi	12289c <__exidx_end+0x1202e4>
 484:	8e028b03 	vmlahi.f64	d8, d2, d3
 488:	0e610201 	cdpeq	2, 6, cr0, cr1, cr1, {0}
 48c:	00000024 	andeq	r0, r0, r4, lsr #32
 490:	0000000c 	andeq	r0, r0, ip
 494:	ffffffff 			; <UNDEFINED> instruction: 0xffffffff
 498:	7c020001 	stcvc	0, cr0, [r2], {1}
 49c:	000d0c0e 	andeq	r0, sp, lr, lsl #24
 4a0:	00000020 	andeq	r0, r0, r0, lsr #32
 4a4:	00000490 	muleq	r0, r0, r4
 4a8:	00001e38 	andeq	r1, r0, r8, lsr lr
 4ac:	000000b2 	strheq	r0, [r0], -r2
 4b0:	84200e42 	strthi	r0, [r0], #-3650	; 0xfffff1be
 4b4:	86078508 	strhi	r8, [r7], -r8, lsl #10
 4b8:	88058706 	stmdahi	r5, {r1, r2, r8, r9, sl, pc}
 4bc:	8a038904 	bhi	e28d4 <__exidx_end+0xe031c>
 4c0:	00018e02 	andeq	r8, r1, r2, lsl #28
 4c4:	00000028 	andeq	r0, r0, r8, lsr #32
 4c8:	00000490 	muleq	r0, r0, r4
 4cc:	00000000 	andeq	r0, r0, r0
 4d0:	000000fe 	strdeq	r0, [r0], -lr
 4d4:	84300e42 	ldrthi	r0, [r0], #-3650	; 0xfffff1be
 4d8:	86088509 	strhi	r8, [r8], -r9, lsl #10
 4dc:	88068707 	stmdahi	r6, {r0, r1, r2, r8, r9, sl, pc}
 4e0:	8a048905 	bhi	1228fc <__exidx_end+0x120344>
 4e4:	8e028b03 	vmlahi.f64	d8, d2, d3
 4e8:	0e7b0201 	cdpeq	2, 7, cr0, cr11, cr1, {0}
 4ec:	00000024 	andeq	r0, r0, r4, lsr #32
 4f0:	0000002c 	andeq	r0, r0, ip, lsr #32
 4f4:	00000490 	muleq	r0, r0, r4
 4f8:	00001eec 	andeq	r1, r0, ip, ror #29
 4fc:	000001e8 	andeq	r0, r0, r8, ror #3
 500:	84240e42 	strthi	r0, [r4], #-3650	; 0xfffff1be
 504:	86088509 	strhi	r8, [r8], -r9, lsl #10
 508:	88068707 	stmdahi	r6, {r0, r1, r2, r8, r9, sl, pc}
 50c:	8a048905 	bhi	122928 <__exidx_end+0x120370>
 510:	8e028b03 	vmlahi.f64	d8, d2, d3
 514:	980e4101 	stmdals	lr, {r0, r8, lr}
 518:	0ee40201 	cdpeq	2, 14, cr0, cr4, cr1, {0}
 51c:	00000024 	andeq	r0, r0, r4, lsr #32
 520:	0000000c 	andeq	r0, r0, ip
 524:	ffffffff 			; <UNDEFINED> instruction: 0xffffffff
 528:	7c020001 	stcvc	0, cr0, [r2], {1}
 52c:	000d0c0e 	andeq	r0, sp, lr, lsl #24
 530:	00000020 	andeq	r0, r0, r0, lsr #32
 534:	00000520 	andeq	r0, r0, r0, lsr #10
 538:	000020d4 	ldrdeq	r2, [r0], -r4
 53c:	000000ec 	andeq	r0, r0, ip, ror #1
 540:	84200e42 	strthi	r0, [r0], #-3650	; 0xfffff1be
 544:	86078508 	strhi	r8, [r7], -r8, lsl #10
 548:	88058706 	stmdahi	r5, {r1, r2, r8, r9, sl, pc}
 54c:	8a038904 	bhi	e2964 <__exidx_end+0xe03ac>
 550:	00018e02 	andeq	r8, r1, r2, lsl #28
 554:	00000028 	andeq	r0, r0, r8, lsr #32
 558:	00000520 	andeq	r0, r0, r0, lsr #10
 55c:	000021c0 	andeq	r2, r0, r0, asr #3
 560:	0000024c 	andeq	r0, r0, ip, asr #4
 564:	841c0e42 	ldrhi	r0, [ip], #-3650	; 0xfffff1be
 568:	86068507 	strhi	r8, [r6], -r7, lsl #10
 56c:	88048705 	stmdahi	r4, {r0, r2, r8, r9, sl, pc}
 570:	8e028903 	cdphi	9, 0, cr8, cr2, cr3, {0}
 574:	300e4301 	andcc	r4, lr, r1, lsl #6
 578:	0e011b03 	vmlaeq.f64	d1, d1, d3
 57c:	0000001c 	andeq	r0, r0, ip, lsl r0
 580:	0000000c 	andeq	r0, r0, ip
 584:	ffffffff 			; <UNDEFINED> instruction: 0xffffffff
 588:	7c020001 	stcvc	0, cr0, [r2], {1}
 58c:	000d0c0e 	andeq	r0, sp, lr, lsl #24
 590:	00000020 	andeq	r0, r0, r0, lsr #32
 594:	00000580 	andeq	r0, r0, r0, lsl #11
 598:	00000000 	andeq	r0, r0, r0
 59c:	0000001a 	andeq	r0, r0, sl, lsl r0
 5a0:	83100e41 	tsthi	r0, #1040	; 0x410
 5a4:	85038404 	strhi	r8, [r3, #-1028]	; 0xfffffbfc
 5a8:	4a018e02 	bmi	63db8 <__exidx_end+0x61800>
 5ac:	c3c4c5ce 	bicgt	ip, r4, #864026624	; 0x33800000
 5b0:	0000000e 	andeq	r0, r0, lr
 5b4:	00000024 	andeq	r0, r0, r4, lsr #32
 5b8:	00000580 	andeq	r0, r0, r0, lsl #11
 5bc:	00000000 	andeq	r0, r0, r0
 5c0:	000000b4 	strheq	r0, [r0], -r4
 5c4:	84100e44 	ldrhi	r0, [r0], #-3652	; 0xfffff1bc
 5c8:	86038504 	strhi	r8, [r3], -r4, lsl #10
 5cc:	02018e02 	andeq	r8, r1, #2, 28
 5d0:	c6ce0a51 			; <UNDEFINED> instruction: 0xc6ce0a51
 5d4:	000ec4c5 	andeq	ip, lr, r5, asr #9
 5d8:	00000b42 	andeq	r0, r0, r2, asr #22
 5dc:	0000000c 	andeq	r0, r0, ip
 5e0:	ffffffff 			; <UNDEFINED> instruction: 0xffffffff
 5e4:	7c020001 	stcvc	0, cr0, [r2], {1}
 5e8:	000d0c0e 	andeq	r0, sp, lr, lsl #24
 5ec:	00000014 	andeq	r0, r0, r4, lsl r0
 5f0:	000005dc 	ldrdeq	r0, [r0], -ip
 5f4:	0000240c 	andeq	r2, r0, ip, lsl #8
 5f8:	0000001e 	andeq	r0, r0, lr, lsl r0
 5fc:	84080e41 	strhi	r0, [r8], #-3649	; 0xfffff1bf
 600:	00018e02 	andeq	r8, r1, r2, lsl #28
 604:	0000000c 	andeq	r0, r0, ip
 608:	ffffffff 			; <UNDEFINED> instruction: 0xffffffff
 60c:	7c020001 	stcvc	0, cr0, [r2], {1}
 610:	000d0c0e 	andeq	r0, sp, lr, lsl #24
 614:	00000014 	andeq	r0, r0, r4, lsl r0
 618:	00000604 	andeq	r0, r0, r4, lsl #12
 61c:	0000242a 	andeq	r2, r0, sl, lsr #8
 620:	00000016 	andeq	r0, r0, r6, lsl r0
 624:	84080e41 	strhi	r0, [r8], #-3649	; 0xfffff1bf
 628:	00018e02 	andeq	r8, r1, r2, lsl #28
 62c:	0000000c 	andeq	r0, r0, ip
 630:	ffffffff 			; <UNDEFINED> instruction: 0xffffffff
 634:	7c020001 	stcvc	0, cr0, [r2], {1}
 638:	000d0c0e 	andeq	r0, sp, lr, lsl #24
 63c:	00000014 	andeq	r0, r0, r4, lsl r0
 640:	0000062c 	andeq	r0, r0, ip, lsr #12
 644:	00002440 	andeq	r2, r0, r0, asr #8
 648:	00000036 	andeq	r0, r0, r6, lsr r0
 64c:	84080e42 	strhi	r0, [r8], #-3650	; 0xfffff1be
 650:	00018e02 	andeq	r8, r1, r2, lsl #28
 654:	0000000c 	andeq	r0, r0, ip
 658:	ffffffff 			; <UNDEFINED> instruction: 0xffffffff
 65c:	7c020001 	stcvc	0, cr0, [r2], {1}
 660:	000d0c0e 	andeq	r0, sp, lr, lsl #24
 664:	00000028 	andeq	r0, r0, r8, lsr #32
 668:	00000654 	andeq	r0, r0, r4, asr r6
 66c:	00002476 	andeq	r2, r0, r6, ror r4
 670:	0000004c 	andeq	r0, r0, ip, asr #32
 674:	83180e41 	tsthi	r8, #1040	; 0x410
 678:	85058406 	strhi	r8, [r5, #-1030]	; 0xfffffbfa
 67c:	87038604 	strhi	r8, [r3, -r4, lsl #12]
 680:	47018e02 	strmi	r8, [r1, -r2, lsl #28]
 684:	c6c7ce0a 	strbgt	ip, [r7], sl, lsl #28
 688:	0ec3c4c5 	cdpeq	4, 12, cr12, cr3, cr5, {6}
 68c:	000b4200 	andeq	r4, fp, r0, lsl #4
 690:	0000000c 	andeq	r0, r0, ip
 694:	ffffffff 			; <UNDEFINED> instruction: 0xffffffff
 698:	7c020001 	stcvc	0, cr0, [r2], {1}
 69c:	000d0c0e 	andeq	r0, sp, lr, lsl #24
 6a0:	0000000c 	andeq	r0, r0, ip
 6a4:	00000690 	muleq	r0, r0, r6
 6a8:	000024c2 	andeq	r2, r0, r2, asr #9
 6ac:	00000014 	andeq	r0, r0, r4, lsl r0
 6b0:	0000000c 	andeq	r0, r0, ip
 6b4:	ffffffff 			; <UNDEFINED> instruction: 0xffffffff
 6b8:	7c020001 	stcvc	0, cr0, [r2], {1}
 6bc:	000d0c0e 	andeq	r0, sp, lr, lsl #24
 6c0:	0000000c 	andeq	r0, r0, ip
 6c4:	000006b0 			; <UNDEFINED> instruction: 0x000006b0
 6c8:	000024d8 	ldrdeq	r2, [r0], -r8
 6cc:	0000001c 	andeq	r0, r0, ip, lsl r0
 6d0:	0000000c 	andeq	r0, r0, ip
 6d4:	ffffffff 			; <UNDEFINED> instruction: 0xffffffff
 6d8:	7c020001 	stcvc	0, cr0, [r2], {1}
 6dc:	000d0c0e 	andeq	r0, sp, lr, lsl #24
 6e0:	0000000c 	andeq	r0, r0, ip
 6e4:	000006d0 	ldrdeq	r0, [r0], -r0	; <UNPREDICTABLE>
 6e8:	000024f4 	strdeq	r2, [r0], -r4
 6ec:	00000002 	andeq	r0, r0, r2
