
build/wideband.elf:     file format elf32-littlearm


Disassembly of section .isr_vector:

00000000 <__isr_vector>:
   0:	20030000 	andcs	r0, r3, r0
   4:	00000d51 	andeq	r0, r0, r1, asr sp
   8:	00000d81 	andeq	r0, r0, r1, lsl #27
   c:	00000d85 	andeq	r0, r0, r5, lsl #27
  10:	00000d89 	andeq	r0, r0, r9, lsl #27
  14:	00000d8d 	andeq	r0, r0, sp, lsl #27
  18:	00000d91 	muleq	r0, r1, sp
	...
  2c:	00000d95 	muleq	r0, r5, sp
  30:	00000d99 	muleq	r0, r9, sp
  34:	00000000 	andeq	r0, r0, r0
  38:	00000d9d 	muleq	r0, sp, sp
  3c:	00000da1 	andeq	r0, r0, r1, lsr #27
  40:	00000da5 	andeq	r0, r0, r5, lsr #27
  44:	00000da5 	andeq	r0, r0, r5, lsr #27
  48:	00000da5 	andeq	r0, r0, r5, lsr #27
  4c:	00000da5 	andeq	r0, r0, r5, lsr #27
  50:	00000da5 	andeq	r0, r0, r5, lsr #27
  54:	00000da5 	andeq	r0, r0, r5, lsr #27
  58:	00000da5 	andeq	r0, r0, r5, lsr #27
  5c:	00000da5 	andeq	r0, r0, r5, lsr #27
  60:	00000da5 	andeq	r0, r0, r5, lsr #27
  64:	00000da5 	andeq	r0, r0, r5, lsr #27
  68:	00000da5 	andeq	r0, r0, r5, lsr #27
  6c:	00000da5 	andeq	r0, r0, r5, lsr #27
  70:	00000da5 	andeq	r0, r0, r5, lsr #27
  74:	00000da5 	andeq	r0, r0, r5, lsr #27
  78:	00000da5 	andeq	r0, r0, r5, lsr #27
  7c:	00000da5 	andeq	r0, r0, r5, lsr #27
  80:	00000da5 	andeq	r0, r0, r5, lsr #27
  84:	00000da5 	andeq	r0, r0, r5, lsr #27
  88:	00000da5 	andeq	r0, r0, r5, lsr #27
  8c:	00000da5 	andeq	r0, r0, r5, lsr #27
  90:	00000da5 	andeq	r0, r0, r5, lsr #27
  94:	00000da5 	andeq	r0, r0, r5, lsr #27
  98:	00000da5 	andeq	r0, r0, r5, lsr #27
  9c:	00000da5 	andeq	r0, r0, r5, lsr #27
  a0:	00000da5 	andeq	r0, r0, r5, lsr #27
  a4:	00000da5 	andeq	r0, r0, r5, lsr #27
  a8:	00000da5 	andeq	r0, r0, r5, lsr #27
  ac:	00000da5 	andeq	r0, r0, r5, lsr #27
  b0:	00000da5 	andeq	r0, r0, r5, lsr #27
  b4:	00000da5 	andeq	r0, r0, r5, lsr #27
  b8:	00000da5 	andeq	r0, r0, r5, lsr #27
  bc:	00000da5 	andeq	r0, r0, r5, lsr #27
  c0:	00000da5 	andeq	r0, r0, r5, lsr #27
  c4:	00000da5 	andeq	r0, r0, r5, lsr #27
  c8:	00000da5 	andeq	r0, r0, r5, lsr #27
  cc:	00000da5 	andeq	r0, r0, r5, lsr #27
  d0:	00000da5 	andeq	r0, r0, r5, lsr #27
  d4:	00000da5 	andeq	r0, r0, r5, lsr #27
  d8:	00000da5 	andeq	r0, r0, r5, lsr #27
  dc:	00000da5 	andeq	r0, r0, r5, lsr #27
  e0:	00000da5 	andeq	r0, r0, r5, lsr #27
  e4:	00000da5 	andeq	r0, r0, r5, lsr #27
  e8:	000008cd 	andeq	r0, r0, sp, asr #17
  ec:	00000da5 	andeq	r0, r0, r5, lsr #27
  f0:	00000da5 	andeq	r0, r0, r5, lsr #27
  f4:	00000da5 	andeq	r0, r0, r5, lsr #27
  f8:	00000da5 	andeq	r0, r0, r5, lsr #27
  fc:	00000da5 	andeq	r0, r0, r5, lsr #27
 100:	000005bd 			; <UNDEFINED> instruction: 0x000005bd
 104:	000005dd 	ldrdeq	r0, [r0], -sp
 108:	00000da5 	andeq	r0, r0, r5, lsr #27
 10c:	00000da5 	andeq	r0, r0, r5, lsr #27
 110:	00000da5 	andeq	r0, r0, r5, lsr #27
 114:	00000da5 	andeq	r0, r0, r5, lsr #27
 118:	00000da5 	andeq	r0, r0, r5, lsr #27
 11c:	00000da5 	andeq	r0, r0, r5, lsr #27
 120:	00000da5 	andeq	r0, r0, r5, lsr #27
 124:	00000da5 	andeq	r0, r0, r5, lsr #27
 128:	00000da5 	andeq	r0, r0, r5, lsr #27
 12c:	00000da5 	andeq	r0, r0, r5, lsr #27
 130:	00000da5 	andeq	r0, r0, r5, lsr #27
 134:	00000da5 	andeq	r0, r0, r5, lsr #27
 138:	00000da5 	andeq	r0, r0, r5, lsr #27
 13c:	00000da5 	andeq	r0, r0, r5, lsr #27
 140:	00000da5 	andeq	r0, r0, r5, lsr #27
 144:	00000da5 	andeq	r0, r0, r5, lsr #27
 148:	00000da5 	andeq	r0, r0, r5, lsr #27
 14c:	00000da5 	andeq	r0, r0, r5, lsr #27
 150:	00000da5 	andeq	r0, r0, r5, lsr #27
 154:	00000da5 	andeq	r0, r0, r5, lsr #27
 158:	00000da5 	andeq	r0, r0, r5, lsr #27
 15c:	00000da5 	andeq	r0, r0, r5, lsr #27
 160:	00000da5 	andeq	r0, r0, r5, lsr #27
 164:	00000cf9 	strdeq	r0, [r0], -r9
 168:	00000da5 	andeq	r0, r0, r5, lsr #27
 16c:	00000da5 	andeq	r0, r0, r5, lsr #27
 170:	00000da5 	andeq	r0, r0, r5, lsr #27
 174:	00000da5 	andeq	r0, r0, r5, lsr #27
 178:	00000da5 	andeq	r0, r0, r5, lsr #27
 17c:	00000da5 	andeq	r0, r0, r5, lsr #27
 180:	00000da5 	andeq	r0, r0, r5, lsr #27
 184:	00000da5 	andeq	r0, r0, r5, lsr #27
 188:	00000da5 	andeq	r0, r0, r5, lsr #27
 18c:	00000da5 	andeq	r0, r0, r5, lsr #27
 190:	00000da5 	andeq	r0, r0, r5, lsr #27
 194:	00000da5 	andeq	r0, r0, r5, lsr #27

Disassembly of section .flash_protect:

00000400 <kinetis_flash_config>:
 400:	ffffffff 			; <UNDEFINED> instruction: 0xffffffff
 404:	ffffffff 			; <UNDEFINED> instruction: 0xffffffff
 408:	ffffffff 			; <UNDEFINED> instruction: 0xffffffff
 40c:	fffffffe 			; <UNDEFINED> instruction: 0xfffffffe

Disassembly of section .text:

00000410 <__do_global_dtors_aux>:
     410:	4b06      	ldr	r3, [pc, #24]	; (42c <__do_global_dtors_aux+0x1c>)
     412:	781a      	ldrb	r2, [r3, #0]
     414:	b510      	push	{r4, lr}
     416:	461c      	mov	r4, r3
     418:	b932      	cbnz	r2, 428 <__do_global_dtors_aux+0x18>
     41a:	4b05      	ldr	r3, [pc, #20]	; (430 <__do_global_dtors_aux+0x20>)
     41c:	b113      	cbz	r3, 424 <__do_global_dtors_aux+0x14>
     41e:	4805      	ldr	r0, [pc, #20]	; (434 <__do_global_dtors_aux+0x24>)
     420:	f3af 8000 	nop.w
     424:	2301      	movs	r3, #1
     426:	7023      	strb	r3, [r4, #0]
     428:	bd10      	pop	{r4, pc}
     42a:	bf00      	nop
     42c:	1fff0208 	svcne	0x00ff0208
     430:	00000000 	andeq	r0, r0, r0
     434:	0000230c 	andeq	r2, r0, ip, lsl #6

00000438 <frame_dummy>:
     438:	4b07      	ldr	r3, [pc, #28]	; (458 <frame_dummy+0x20>)
     43a:	b510      	push	{r4, lr}
     43c:	b11b      	cbz	r3, 446 <frame_dummy+0xe>
     43e:	4907      	ldr	r1, [pc, #28]	; (45c <frame_dummy+0x24>)
     440:	4807      	ldr	r0, [pc, #28]	; (460 <frame_dummy+0x28>)
     442:	f3af 8000 	nop.w
     446:	4807      	ldr	r0, [pc, #28]	; (464 <frame_dummy+0x2c>)
     448:	6803      	ldr	r3, [r0, #0]
     44a:	b123      	cbz	r3, 456 <frame_dummy+0x1e>
     44c:	4b06      	ldr	r3, [pc, #24]	; (468 <frame_dummy+0x30>)
     44e:	b113      	cbz	r3, 456 <frame_dummy+0x1e>
     450:	e8bd 4010 	ldmia.w	sp!, {r4, lr}
     454:	4718      	bx	r3
     456:	bd10      	pop	{r4, pc}
     458:	00000000 	andeq	r0, r0, r0
     45c:	1fff020c 	svcne	0x00ff020c
     460:	0000230c 	andeq	r2, r0, ip, lsl #6
     464:	1fff0208 	svcne	0x00ff0208
     468:	00000000 	andeq	r0, r0, r0

0000046c <_mainCRTStartup>:
     46c:	4b13      	ldr	r3, [pc, #76]	; (4bc <_mainCRTStartup+0x50>)
     46e:	2b00      	cmp	r3, #0
     470:	bf08      	it	eq
     472:	4b11      	ldreq	r3, [pc, #68]	; (4b8 <_mainCRTStartup+0x4c>)
     474:	469d      	mov	sp, r3
     476:	f5a3 3a80 	sub.w	sl, r3, #65536	; 0x10000
     47a:	2100      	movs	r1, #0
     47c:	468b      	mov	fp, r1
     47e:	460f      	mov	r7, r1
     480:	4811      	ldr	r0, [pc, #68]	; (4c8 <_mainCRTStartup+0x5c>)
     482:	4a12      	ldr	r2, [pc, #72]	; (4cc <_mainCRTStartup+0x60>)
     484:	1a12      	subs	r2, r2, r0
     486:	f001 f9a5 	bl	17d4 <memset>
     48a:	4b0d      	ldr	r3, [pc, #52]	; (4c0 <_mainCRTStartup+0x54>)
     48c:	2b00      	cmp	r3, #0
     48e:	d000      	beq.n	492 <_mainCRTStartup+0x26>
     490:	4798      	blx	r3
     492:	4b0c      	ldr	r3, [pc, #48]	; (4c4 <_mainCRTStartup+0x58>)
     494:	2b00      	cmp	r3, #0
     496:	d000      	beq.n	49a <_mainCRTStartup+0x2e>
     498:	4798      	blx	r3
     49a:	2000      	movs	r0, #0
     49c:	2100      	movs	r1, #0
     49e:	0004      	movs	r4, r0
     4a0:	000d      	movs	r5, r1
     4a2:	480b      	ldr	r0, [pc, #44]	; (4d0 <_mainCRTStartup+0x64>)
     4a4:	f001 f932 	bl	170c <atexit>
     4a8:	f001 f95e 	bl	1768 <__libc_init_array>
     4ac:	0020      	movs	r0, r4
     4ae:	0029      	movs	r1, r5
     4b0:	f000 fa1e 	bl	8f0 <main>
     4b4:	f001 f930 	bl	1718 <exit>
     4b8:	00080000 	andeq	r0, r8, r0
     4bc:	20030000 	andcs	r0, r3, r0
	...
     4c8:	1fff0208 	svcne	0x00ff0208
     4cc:	1fff0378 	svcne	0x00ff0378
     4d0:	00001741 	andeq	r1, r0, r1, asr #14

000004d4 <SystemInit>:
     4d4:	4b34      	ldr	r3, [pc, #208]	; (5a8 <SystemInit+0xd4>)
     4d6:	f24c 5220 	movw	r2, #50464	; 0xc520
     4da:	81da      	strh	r2, [r3, #14]
     4dc:	f64d 1228 	movw	r2, #55592	; 0xd928
     4e0:	81da      	strh	r2, [r3, #14]
     4e2:	f44f 72e9 	mov.w	r2, #466	; 0x1d2
     4e6:	801a      	strh	r2, [r3, #0]
     4e8:	f503 332c 	add.w	r3, r3, #176128	; 0x2b000
     4ec:	f241 0138 	movw	r1, #4152	; 0x1038
     4f0:	789a      	ldrb	r2, [r3, #2]
     4f2:	0710      	lsls	r0, r2, #28
     4f4:	bf42      	ittt	mi
     4f6:	789a      	ldrbmi	r2, [r3, #2]
     4f8:	f042 0208 	orrmi.w	r2, r2, #8
     4fc:	709a      	strbmi	r2, [r3, #2]
     4fe:	4b2b      	ldr	r3, [pc, #172]	; (5ac <SystemInit+0xd8>)
     500:	585a      	ldr	r2, [r3, r1]
     502:	f442 7200 	orr.w	r2, r2, #512	; 0x200
     506:	505a      	str	r2, [r3, r1]
     508:	f241 0244 	movw	r2, #4164	; 0x1044
     50c:	f04f 7192 	mov.w	r1, #19136512	; 0x1240000
     510:	5099      	str	r1, [r3, r2]
     512:	f241 0104 	movw	r1, #4100	; 0x1004
     516:	585a      	ldr	r2, [r3, r1]
     518:	f442 3280 	orr.w	r2, r2, #65536	; 0x10000
     51c:	505a      	str	r2, [r3, r1]
     51e:	681a      	ldr	r2, [r3, #0]
     520:	f442 2240 	orr.w	r2, r2, #786432	; 0xc0000
     524:	601a      	str	r2, [r3, #0]
     526:	4a22      	ldr	r2, [pc, #136]	; (5b0 <SystemInit+0xdc>)
     528:	6c93      	ldr	r3, [r2, #72]	; 0x48
     52a:	f023 7380 	bic.w	r3, r3, #16777216	; 0x1000000
     52e:	f423 63e0 	bic.w	r3, r3, #1792	; 0x700
     532:	6493      	str	r3, [r2, #72]	; 0x48
     534:	4b1f      	ldr	r3, [pc, #124]	; (5b4 <SystemInit+0xe0>)
     536:	2220      	movs	r2, #32
     538:	705a      	strb	r2, [r3, #1]
     53a:	4a1f      	ldr	r2, [pc, #124]	; (5b8 <SystemInit+0xe4>)
     53c:	2180      	movs	r1, #128	; 0x80
     53e:	7011      	strb	r1, [r2, #0]
     540:	7b1a      	ldrb	r2, [r3, #12]
     542:	f002 02fc 	and.w	r2, r2, #252	; 0xfc
     546:	731a      	strb	r2, [r3, #12]
     548:	22ba      	movs	r2, #186	; 0xba
     54a:	701a      	strb	r2, [r3, #0]
     54c:	78da      	ldrb	r2, [r3, #3]
     54e:	f002 021f 	and.w	r2, r2, #31
     552:	70da      	strb	r2, [r3, #3]
     554:	2213      	movs	r2, #19
     556:	711a      	strb	r2, [r3, #4]
     558:	2218      	movs	r2, #24
     55a:	715a      	strb	r2, [r3, #5]
     55c:	799a      	ldrb	r2, [r3, #6]
     55e:	06d1      	lsls	r1, r2, #27
     560:	d4fc      	bmi.n	55c <SystemInit+0x88>
     562:	7999      	ldrb	r1, [r3, #6]
     564:	4a13      	ldr	r2, [pc, #76]	; (5b4 <SystemInit+0xe0>)
     566:	f001 010c 	and.w	r1, r1, #12
     56a:	2908      	cmp	r1, #8
     56c:	d1f9      	bne.n	562 <SystemInit+0x8e>
     56e:	2358      	movs	r3, #88	; 0x58
     570:	7153      	strb	r3, [r2, #5]
     572:	7993      	ldrb	r3, [r2, #6]
     574:	490f      	ldr	r1, [pc, #60]	; (5b4 <SystemInit+0xe0>)
     576:	f003 030c 	and.w	r3, r3, #12
     57a:	2b08      	cmp	r3, #8
     57c:	d1f9      	bne.n	572 <SystemInit+0x9e>
     57e:	798a      	ldrb	r2, [r1, #6]
     580:	4b0c      	ldr	r3, [pc, #48]	; (5b4 <SystemInit+0xe0>)
     582:	0652      	lsls	r2, r2, #25
     584:	d5fb      	bpl.n	57e <SystemInit+0xaa>
     586:	222a      	movs	r2, #42	; 0x2a
     588:	701a      	strb	r2, [r3, #0]
     58a:	799a      	ldrb	r2, [r3, #6]
     58c:	f002 020c 	and.w	r2, r2, #12
     590:	2a0c      	cmp	r2, #12
     592:	d1fa      	bne.n	58a <SystemInit+0xb6>
     594:	4905      	ldr	r1, [pc, #20]	; (5ac <SystemInit+0xd8>)
     596:	f241 0248 	movw	r2, #4168	; 0x1048
     59a:	588b      	ldr	r3, [r1, r2]
     59c:	f023 030f 	bic.w	r3, r3, #15
     5a0:	f043 0309 	orr.w	r3, r3, #9
     5a4:	508b      	str	r3, [r1, r2]
     5a6:	4770      	bx	lr
     5a8:	40052000 	andmi	r2, r5, r0
     5ac:	40047000 	andmi	r7, r4, r0
     5b0:	40049000 	andmi	r9, r4, r0
     5b4:	40064000 	andmi	r4, r6, r0
     5b8:	40065000 	andmi	r5, r6, r0

000005bc <PIT0_IRQHandler>:
     5bc:	b508      	push	{r3, lr}
     5be:	b672      	cpsid	i
     5c0:	4b04      	ldr	r3, [pc, #16]	; (5d4 <PIT0_IRQHandler+0x18>)
     5c2:	2201      	movs	r2, #1
     5c4:	f8c3 210c 	str.w	r2, [r3, #268]	; 0x10c
     5c8:	4b03      	ldr	r3, [pc, #12]	; (5d8 <PIT0_IRQHandler+0x1c>)
     5ca:	681b      	ldr	r3, [r3, #0]
     5cc:	4798      	blx	r3
     5ce:	b662      	cpsie	i
     5d0:	bd08      	pop	{r3, pc}
     5d2:	bf00      	nop
     5d4:	40037000 	andmi	r7, r3, r0
     5d8:	1fff02cc 	svcne	0x00ff02cc

000005dc <PIT1_IRQHandler>:
     5dc:	b508      	push	{r3, lr}
     5de:	b672      	cpsid	i
     5e0:	4b04      	ldr	r3, [pc, #16]	; (5f4 <PIT1_IRQHandler+0x18>)
     5e2:	2201      	movs	r2, #1
     5e4:	f8c3 211c 	str.w	r2, [r3, #284]	; 0x11c
     5e8:	4b03      	ldr	r3, [pc, #12]	; (5f8 <PIT1_IRQHandler+0x1c>)
     5ea:	685b      	ldr	r3, [r3, #4]
     5ec:	4798      	blx	r3
     5ee:	b662      	cpsie	i
     5f0:	bd08      	pop	{r3, pc}
     5f2:	bf00      	nop
     5f4:	40037000 	andmi	r7, r3, r0
     5f8:	1fff02cc 	svcne	0x00ff02cc

000005fc <PIDInitialize>:
     5fc:	e92d 41f0 	stmdb	sp!, {r4, r5, r6, r7, r8, lr}
     600:	9e08      	ldr	r6, [sp, #32]
     602:	6001      	str	r1, [r0, #0]
     604:	4604      	mov	r4, r0
     606:	6042      	str	r2, [r0, #4]
     608:	4631      	mov	r1, r6
     60a:	6083      	str	r3, [r0, #8]
     60c:	9806      	ldr	r0, [sp, #24]
     60e:	9f07      	ldr	r7, [sp, #28]
     610:	f000 fd86 	bl	1120 <__aeabi_fsub>
     614:	4631      	mov	r1, r6
     616:	4605      	mov	r5, r0
     618:	4638      	mov	r0, r7
     61a:	f000 fd81 	bl	1120 <__aeabi_fsub>
     61e:	f04f 517e 	mov.w	r1, #1065353216	; 0x3f800000
     622:	4680      	mov	r8, r0
     624:	f001 f842 	bl	16ac <__aeabi_fcmpgt>
     628:	4641      	mov	r1, r8
     62a:	b118      	cbz	r0, 634 <PIDInitialize+0x38>
     62c:	4628      	mov	r0, r5
     62e:	f000 ff35 	bl	149c <__aeabi_fdiv>
     632:	e002      	b.n	63a <PIDInitialize+0x3e>
     634:	4628      	mov	r0, r5
     636:	f000 fe7d 	bl	1334 <__aeabi_fmul>
     63a:	4639      	mov	r1, r7
     63c:	4605      	mov	r5, r0
     63e:	f001 f835 	bl	16ac <__aeabi_fcmpgt>
     642:	b930      	cbnz	r0, 652 <PIDInitialize+0x56>
     644:	4631      	mov	r1, r6
     646:	4628      	mov	r0, r5
     648:	f001 f812 	bl	1670 <__aeabi_fcmplt>
     64c:	b110      	cbz	r0, 654 <PIDInitialize+0x58>
     64e:	4635      	mov	r5, r6
     650:	e000      	b.n	654 <PIDInitialize+0x58>
     652:	463d      	mov	r5, r7
     654:	9b0a      	ldr	r3, [sp, #40]	; 0x28
     656:	60e5      	str	r5, [r4, #12]
     658:	6127      	str	r7, [r4, #16]
     65a:	6166      	str	r6, [r4, #20]
     65c:	61a3      	str	r3, [r4, #24]
     65e:	9b09      	ldr	r3, [sp, #36]	; 0x24
     660:	61e3      	str	r3, [r4, #28]
     662:	9b0b      	ldr	r3, [sp, #44]	; 0x2c
     664:	6223      	str	r3, [r4, #32]
     666:	2300      	movs	r3, #0
     668:	6263      	str	r3, [r4, #36]	; 0x24
     66a:	2000      	movs	r0, #0
     66c:	e8bd 81f0 	ldmia.w	sp!, {r4, r5, r6, r7, r8, pc}

00000670 <PIDUpdate>:
     670:	e92d 43f8 	stmdb	sp!, {r3, r4, r5, r6, r7, r8, r9, lr}
     674:	4604      	mov	r4, r0
     676:	6900      	ldr	r0, [r0, #16]
     678:	460d      	mov	r5, r1
     67a:	f000 fff9 	bl	1670 <__aeabi_fcmplt>
     67e:	b108      	cbz	r0, 684 <PIDUpdate+0x14>
     680:	6925      	ldr	r5, [r4, #16]
     682:	e005      	b.n	690 <PIDUpdate+0x20>
     684:	6961      	ldr	r1, [r4, #20]
     686:	4628      	mov	r0, r5
     688:	f000 fff2 	bl	1670 <__aeabi_fcmplt>
     68c:	b100      	cbz	r0, 690 <PIDUpdate+0x20>
     68e:	6965      	ldr	r5, [r4, #20]
     690:	6961      	ldr	r1, [r4, #20]
     692:	4628      	mov	r0, r5
     694:	f000 fd44 	bl	1120 <__aeabi_fsub>
     698:	4605      	mov	r5, r0
     69a:	6920      	ldr	r0, [r4, #16]
     69c:	6961      	ldr	r1, [r4, #20]
     69e:	6920      	ldr	r0, [r4, #16]
     6a0:	6961      	ldr	r1, [r4, #20]
     6a2:	f000 fd3d 	bl	1120 <__aeabi_fsub>
     6a6:	4601      	mov	r1, r0
     6a8:	4628      	mov	r0, r5
     6aa:	f000 fef7 	bl	149c <__aeabi_fdiv>
     6ae:	4601      	mov	r1, r0
     6b0:	68e0      	ldr	r0, [r4, #12]
     6b2:	f000 fd35 	bl	1120 <__aeabi_fsub>
     6b6:	f8d4 9024 	ldr.w	r9, [r4, #36]	; 0x24
     6ba:	6a27      	ldr	r7, [r4, #32]
     6bc:	6260      	str	r0, [r4, #36]	; 0x24
     6be:	6821      	ldr	r1, [r4, #0]
     6c0:	4605      	mov	r5, r0
     6c2:	f000 fe37 	bl	1334 <__aeabi_fmul>
     6c6:	f8d4 8004 	ldr.w	r8, [r4, #4]
     6ca:	4606      	mov	r6, r0
     6cc:	4649      	mov	r1, r9
     6ce:	4628      	mov	r0, r5
     6d0:	f000 fd26 	bl	1120 <__aeabi_fsub>
     6d4:	4641      	mov	r1, r8
     6d6:	f000 fe2d 	bl	1334 <__aeabi_fmul>
     6da:	4631      	mov	r1, r6
     6dc:	f000 fd22 	bl	1124 <__addsf3>
     6e0:	68a6      	ldr	r6, [r4, #8]
     6e2:	4605      	mov	r5, r0
     6e4:	2100      	movs	r1, #0
     6e6:	4638      	mov	r0, r7
     6e8:	f000 fe24 	bl	1334 <__aeabi_fmul>
     6ec:	4631      	mov	r1, r6
     6ee:	f000 fe21 	bl	1334 <__aeabi_fmul>
     6f2:	4629      	mov	r1, r5
     6f4:	f000 fd16 	bl	1124 <__addsf3>
     6f8:	f04f 517e 	mov.w	r1, #1065353216	; 0x3f800000
     6fc:	f000 fd12 	bl	1124 <__addsf3>
     700:	f04f 517c 	mov.w	r1, #1056964608	; 0x3f000000
     704:	f000 fe16 	bl	1334 <__aeabi_fmul>
     708:	4605      	mov	r5, r0
     70a:	69a0      	ldr	r0, [r4, #24]
     70c:	69e1      	ldr	r1, [r4, #28]
     70e:	f000 fd07 	bl	1120 <__aeabi_fsub>
     712:	4629      	mov	r1, r5
     714:	f000 fe0e 	bl	1334 <__aeabi_fmul>
     718:	69e1      	ldr	r1, [r4, #28]
     71a:	f000 fd03 	bl	1124 <__addsf3>
     71e:	69a1      	ldr	r1, [r4, #24]
     720:	4605      	mov	r5, r0
     722:	f000 ffc3 	bl	16ac <__aeabi_fcmpgt>
     726:	b108      	cbz	r0, 72c <PIDUpdate+0xbc>
     728:	69a5      	ldr	r5, [r4, #24]
     72a:	e005      	b.n	738 <PIDUpdate+0xc8>
     72c:	69e1      	ldr	r1, [r4, #28]
     72e:	4628      	mov	r0, r5
     730:	f000 ff9e 	bl	1670 <__aeabi_fcmplt>
     734:	b100      	cbz	r0, 738 <PIDUpdate+0xc8>
     736:	69e5      	ldr	r5, [r4, #28]
     738:	4628      	mov	r0, r5
     73a:	e8bd 83f8 	ldmia.w	sp!, {r3, r4, r5, r6, r7, r8, r9, pc}

0000073e <PIDSetGoal>:
     73e:	b538      	push	{r3, r4, r5, lr}
     740:	4604      	mov	r4, r0
     742:	6900      	ldr	r0, [r0, #16]
     744:	460d      	mov	r5, r1
     746:	f000 ff93 	bl	1670 <__aeabi_fcmplt>
     74a:	b108      	cbz	r0, 750 <PIDSetGoal+0x12>
     74c:	6925      	ldr	r5, [r4, #16]
     74e:	e005      	b.n	75c <PIDSetGoal+0x1e>
     750:	6961      	ldr	r1, [r4, #20]
     752:	4628      	mov	r0, r5
     754:	f000 ff8c 	bl	1670 <__aeabi_fcmplt>
     758:	b100      	cbz	r0, 75c <PIDSetGoal+0x1e>
     75a:	6965      	ldr	r5, [r4, #20]
     75c:	6961      	ldr	r1, [r4, #20]
     75e:	4628      	mov	r0, r5
     760:	f000 fcde 	bl	1120 <__aeabi_fsub>
     764:	4605      	mov	r5, r0
     766:	6920      	ldr	r0, [r4, #16]
     768:	6961      	ldr	r1, [r4, #20]
     76a:	f000 fcd9 	bl	1120 <__aeabi_fsub>
     76e:	4601      	mov	r1, r0
     770:	4628      	mov	r0, r5
     772:	f000 fe93 	bl	149c <__aeabi_fdiv>
     776:	60e0      	str	r0, [r4, #12]
     778:	2000      	movs	r0, #0
     77a:	bd38      	pop	{r3, r4, r5, pc}

0000077c <uartInit>:
     77c:	4b1b      	ldr	r3, [pc, #108]	; (7ec <uartInit+0x70>)
     77e:	4298      	cmp	r0, r3
     780:	b530      	push	{r4, r5, lr}
     782:	d131      	bne.n	7e8 <uartInit+0x6c>
     784:	f5a3 330c 	sub.w	r3, r3, #143360	; 0x23000
     788:	f241 0134 	movw	r1, #4148	; 0x1034
     78c:	4c18      	ldr	r4, [pc, #96]	; (7f0 <uartInit+0x74>)
     78e:	585a      	ldr	r2, [r3, r1]
     790:	f442 6280 	orr.w	r2, r2, #1024	; 0x400
     794:	505a      	str	r2, [r3, r1]
     796:	f241 0138 	movw	r1, #4152	; 0x1038
     79a:	585a      	ldr	r2, [r3, r1]
     79c:	f442 6280 	orr.w	r2, r2, #1024	; 0x400
     7a0:	505a      	str	r2, [r3, r1]
     7a2:	f503 5340 	add.w	r3, r3, #12288	; 0x3000
     7a6:	f44f 7240 	mov.w	r2, #768	; 0x300
     7aa:	641a      	str	r2, [r3, #64]	; 0x40
     7ac:	645a      	str	r2, [r3, #68]	; 0x44
     7ae:	4b11      	ldr	r3, [pc, #68]	; (7f4 <uartInit+0x78>)
     7b0:	6821      	ldr	r1, [r4, #0]
     7b2:	6018      	str	r0, [r3, #0]
     7b4:	2203      	movs	r2, #3
     7b6:	f44f 3316 	mov.w	r3, #153600	; 0x25800
     7ba:	fbb1 f1f3 	udiv	r1, r1, r3
     7be:	b2cd      	uxtb	r5, r1
     7c0:	7045      	strb	r5, [r0, #1]
     7c2:	7002      	strb	r2, [r0, #0]
     7c4:	7002      	strb	r2, [r0, #0]
     7c6:	7002      	strb	r2, [r0, #0]
     7c8:	7002      	strb	r2, [r0, #0]
     7ca:	7002      	strb	r2, [r0, #0]
     7cc:	7002      	strb	r2, [r0, #0]
     7ce:	7002      	strb	r2, [r0, #0]
     7d0:	7045      	strb	r5, [r0, #1]
     7d2:	6822      	ldr	r2, [r4, #0]
     7d4:	0152      	lsls	r2, r2, #5
     7d6:	fbb2 f3f3 	udiv	r3, r2, r3
     7da:	eba3 1341 	sub.w	r3, r3, r1, lsl #5
     7de:	f003 03ff 	and.w	r3, r3, #255	; 0xff
     7e2:	7283      	strb	r3, [r0, #10]
     7e4:	230c      	movs	r3, #12
     7e6:	70c3      	strb	r3, [r0, #3]
     7e8:	bd30      	pop	{r4, r5, pc}
     7ea:	bf00      	nop
     7ec:	4006a000 	andmi	sl, r6, r0
     7f0:	1fff0198 	svcne	0x00ff0198
     7f4:	1fff02d4 	svcne	0x00ff02d4

000007f8 <uartPutCharBlock>:
     7f8:	78c3      	ldrb	r3, [r0, #3]
     7fa:	f003 037f 	and.w	r3, r3, #127	; 0x7f
     7fe:	70c3      	strb	r3, [r0, #3]
     800:	7903      	ldrb	r3, [r0, #4]
     802:	061b      	lsls	r3, r3, #24
     804:	d5fc      	bpl.n	800 <uartPutCharBlock+0x8>
     806:	71c1      	strb	r1, [r0, #7]
     808:	4770      	bx	lr

0000080a <uartPutString>:
     80a:	b510      	push	{r4, lr}
     80c:	460a      	mov	r2, r1
     80e:	7809      	ldrb	r1, [r1, #0]
     810:	4604      	mov	r4, r0
     812:	b129      	cbz	r1, 820 <uartPutString+0x16>
     814:	4620      	mov	r0, r4
     816:	f7ff ffef 	bl	7f8 <uartPutCharBlock>
     81a:	f812 1f01 	ldrb.w	r1, [r2, #1]!
     81e:	e7f8      	b.n	812 <uartPutString+0x8>
     820:	bd10      	pop	{r4, pc}
	...

00000824 <InitPWM2>:
     824:	b5f0      	push	{r4, r5, r6, r7, lr}
     826:	4b24      	ldr	r3, [pc, #144]	; (8b8 <InitPWM2+0x94>)
     828:	f241 023c 	movw	r2, #4156	; 0x103c
     82c:	5899      	ldr	r1, [r3, r2]
     82e:	f041 7180 	orr.w	r1, r1, #16777216	; 0x1000000
     832:	5099      	str	r1, [r3, r2]
     834:	f241 0238 	movw	r2, #4152	; 0x1038
     838:	5899      	ldr	r1, [r3, r2]
     83a:	f441 6160 	orr.w	r1, r1, #3584	; 0xe00
     83e:	5099      	str	r1, [r3, r2]
     840:	f503 4380 	add.w	r3, r3, #16384	; 0x4000
     844:	491d      	ldr	r1, [pc, #116]	; (8bc <InitPWM2+0x98>)
     846:	f44f 6288 	mov.w	r2, #1088	; 0x440
     84a:	60da      	str	r2, [r3, #12]
     84c:	6d4b      	ldr	r3, [r1, #84]	; 0x54
     84e:	4a1c      	ldr	r2, [pc, #112]	; (8c0 <InitPWM2+0x9c>)
     850:	f043 0304 	orr.w	r3, r3, #4
     854:	654b      	str	r3, [r1, #84]	; 0x54
     856:	2300      	movs	r3, #0
     858:	604b      	str	r3, [r1, #4]
     85a:	64cb      	str	r3, [r1, #76]	; 0x4c
     85c:	6812      	ldr	r2, [r2, #0]
     85e:	fbb2 f1f0 	udiv	r1, r2, r0
     862:	f5b1 3f80 	cmp.w	r1, #65536	; 0x10000
     866:	d30f      	bcc.n	888 <InitPWM2+0x64>
     868:	2501      	movs	r5, #1
     86a:	f64f 76fe 	movw	r6, #65534	; 0xfffe
     86e:	fa05 f403 	lsl.w	r4, r5, r3
     872:	fbb1 f7f4 	udiv	r7, r1, r4
     876:	42b7      	cmp	r7, r6
     878:	d903      	bls.n	882 <InitPWM2+0x5e>
     87a:	3301      	adds	r3, #1
     87c:	2b08      	cmp	r3, #8
     87e:	d1f6      	bne.n	86e <InitPWM2+0x4a>
     880:	e000      	b.n	884 <InitPWM2+0x60>
     882:	b90b      	cbnz	r3, 888 <InitPWM2+0x64>
     884:	2001      	movs	r0, #1
     886:	bdf0      	pop	{r4, r5, r6, r7, pc}
     888:	490e      	ldr	r1, [pc, #56]	; (8c4 <InitPWM2+0xa0>)
     88a:	fbb2 f2f4 	udiv	r2, r2, r4
     88e:	6008      	str	r0, [r1, #0]
     890:	fbb2 f0f0 	udiv	r0, r2, r0
     894:	490c      	ldr	r1, [pc, #48]	; (8c8 <InitPWM2+0xa4>)
     896:	4a09      	ldr	r2, [pc, #36]	; (8bc <InitPWM2+0x98>)
     898:	6008      	str	r0, [r1, #0]
     89a:	f043 0348 	orr.w	r3, r3, #72	; 0x48
     89e:	6013      	str	r3, [r2, #0]
     8a0:	680b      	ldr	r3, [r1, #0]
     8a2:	6093      	str	r3, [r2, #8]
     8a4:	69d3      	ldr	r3, [r2, #28]
     8a6:	f043 0328 	orr.w	r3, r3, #40	; 0x28
     8aa:	61d3      	str	r3, [r2, #28]
     8ac:	69d3      	ldr	r3, [r2, #28]
     8ae:	f023 0304 	bic.w	r3, r3, #4
     8b2:	61d3      	str	r3, [r2, #28]
     8b4:	bdf0      	pop	{r4, r5, r6, r7, pc}
     8b6:	bf00      	nop
     8b8:	40047000 	andmi	r7, r4, r0
     8bc:	40038000 	andmi	r8, r3, r0
     8c0:	1fff0198 	svcne	0x00ff0198
     8c4:	1fff022c 	svcne	0x00ff022c
     8c8:	1fff0224 	svcne	0x00ff0224

000008cc <FTM0_IRQHandler>:
     8cc:	4a06      	ldr	r2, [pc, #24]	; (8e8 <FTM0_IRQHandler+0x1c>)
     8ce:	6813      	ldr	r3, [r2, #0]
     8d0:	f023 0380 	bic.w	r3, r3, #128	; 0x80
     8d4:	6013      	str	r3, [r2, #0]
     8d6:	4b05      	ldr	r3, [pc, #20]	; (8ec <FTM0_IRQHandler+0x20>)
     8d8:	681a      	ldr	r2, [r3, #0]
     8da:	2afe      	cmp	r2, #254	; 0xfe
     8dc:	bf9e      	ittt	ls
     8de:	681a      	ldrls	r2, [r3, #0]
     8e0:	3201      	addls	r2, #1
     8e2:	601a      	strls	r2, [r3, #0]
     8e4:	4770      	bx	lr
     8e6:	bf00      	nop
     8e8:	40038000 	andmi	r8, r3, r0
     8ec:	1fff0228 	svcne	0x00ff0228

000008f0 <main>:
     8f0:	e92d 4ff0 	stmdb	sp!, {r4, r5, r6, r7, r8, r9, sl, fp, lr}
     8f4:	f44f 707a 	mov.w	r0, #1000	; 0x3e8
     8f8:	f2ad 4d04 	subw	sp, sp, #1028	; 0x404
     8fc:	f7ff ff92 	bl	824 <InitPWM2>
     900:	f241 0238 	movw	r2, #4152	; 0x1038
     904:	4bb5      	ldr	r3, [pc, #724]	; (bdc <main+0x2ec>)
     906:	4eb6      	ldr	r6, [pc, #728]	; (be0 <main+0x2f0>)
     908:	589b      	ldr	r3, [r3, r2]
     90a:	4ab4      	ldr	r2, [pc, #720]	; (bdc <main+0x2ec>)
     90c:	4db5      	ldr	r5, [pc, #724]	; (be4 <main+0x2f4>)
     90e:	f8df a328 	ldr.w	sl, [pc, #808]	; c38 <main+0x348>
     912:	4cb5      	ldr	r4, [pc, #724]	; (be8 <main+0x2f8>)
     914:	4fb5      	ldr	r7, [pc, #724]	; (bec <main+0x2fc>)
     916:	f8df b324 	ldr.w	fp, [pc, #804]	; c3c <main+0x34c>
     91a:	f8df 9324 	ldr.w	r9, [pc, #804]	; c40 <main+0x350>
     91e:	f241 0138 	movw	r1, #4152	; 0x1038
     922:	f443 5310 	orr.w	r3, r3, #9216	; 0x2400
     926:	5053      	str	r3, [r2, r1]
     928:	6973      	ldr	r3, [r6, #20]
     92a:	f443 03c0 	orr.w	r3, r3, #6291456	; 0x600000
     92e:	6173      	str	r3, [r6, #20]
     930:	696b      	ldr	r3, [r5, #20]
     932:	f043 6380 	orr.w	r3, r3, #67108864	; 0x4000000
     936:	616b      	str	r3, [r5, #20]
     938:	4bad      	ldr	r3, [pc, #692]	; (bf0 <main+0x300>)
     93a:	f44f 7280 	mov.w	r2, #256	; 0x100
     93e:	659a      	str	r2, [r3, #88]	; 0x58
     940:	655a      	str	r2, [r3, #84]	; 0x54
     942:	f503 5340 	add.w	r3, r3, #12288	; 0x3000
     946:	f04f 0800 	mov.w	r8, #0
     94a:	669a      	str	r2, [r3, #104]	; 0x68
     94c:	6973      	ldr	r3, [r6, #20]
     94e:	f443 03c0 	orr.w	r3, r3, #6291456	; 0x600000
     952:	6173      	str	r3, [r6, #20]
     954:	696b      	ldr	r3, [r5, #20]
     956:	f043 6380 	orr.w	r3, r3, #67108864	; 0x4000000
     95a:	616b      	str	r3, [r5, #20]
     95c:	68ab      	ldr	r3, [r5, #8]
     95e:	f043 6380 	orr.w	r3, r3, #67108864	; 0x4000000
     962:	60ab      	str	r3, [r5, #8]
     964:	68b3      	ldr	r3, [r6, #8]
     966:	f443 1300 	orr.w	r3, r3, #2097152	; 0x200000
     96a:	60b3      	str	r3, [r6, #8]
     96c:	f000 f97a 	bl	c64 <ADC1_INIT>
     970:	4ba0      	ldr	r3, [pc, #640]	; (bf4 <main+0x304>)
     972:	9302      	str	r3, [sp, #8]
     974:	4ba0      	ldr	r3, [pc, #640]	; (bf8 <main+0x308>)
     976:	9301      	str	r3, [sp, #4]
     978:	4ba0      	ldr	r3, [pc, #640]	; (bfc <main+0x30c>)
     97a:	9405      	str	r4, [sp, #20]
     97c:	4642      	mov	r2, r8
     97e:	9704      	str	r7, [sp, #16]
     980:	f8cd 800c 	str.w	r8, [sp, #12]
     984:	9300      	str	r3, [sp, #0]
     986:	f04f 517c 	mov.w	r1, #1056964608	; 0x3f000000
     98a:	4653      	mov	r3, sl
     98c:	489c      	ldr	r0, [pc, #624]	; (c00 <main+0x310>)
     98e:	f7ff fe35 	bl	5fc <PIDInitialize>
     992:	4b9c      	ldr	r3, [pc, #624]	; (c04 <main+0x314>)
     994:	9301      	str	r3, [sp, #4]
     996:	4b9c      	ldr	r3, [pc, #624]	; (c08 <main+0x318>)
     998:	9405      	str	r4, [sp, #20]
     99a:	4642      	mov	r2, r8
     99c:	f8cd 8008 	str.w	r8, [sp, #8]
     9a0:	9300      	str	r3, [sp, #0]
     9a2:	f04f 517e 	mov.w	r1, #1065353216	; 0x3f800000
     9a6:	4643      	mov	r3, r8
     9a8:	f8cd a010 	str.w	sl, [sp, #16]
     9ac:	f8cd b00c 	str.w	fp, [sp, #12]
     9b0:	4896      	ldr	r0, [pc, #600]	; (c0c <main+0x31c>)
     9b2:	f7ff fe23 	bl	5fc <PIDInitialize>
     9b6:	4643      	mov	r3, r8
     9b8:	4642      	mov	r2, r8
     9ba:	9405      	str	r4, [sp, #20]
     9bc:	9704      	str	r7, [sp, #16]
     9be:	f8cd 800c 	str.w	r8, [sp, #12]
     9c2:	f8cd 8000 	str.w	r8, [sp]
     9c6:	f04f 517e 	mov.w	r1, #1065353216	; 0x3f800000
     9ca:	f8cd b008 	str.w	fp, [sp, #8]
     9ce:	f8cd a004 	str.w	sl, [sp, #4]
     9d2:	488f      	ldr	r0, [pc, #572]	; (c10 <main+0x320>)
     9d4:	4c8f      	ldr	r4, [pc, #572]	; (c14 <main+0x324>)
     9d6:	4f90      	ldr	r7, [pc, #576]	; (c18 <main+0x328>)
     9d8:	f7ff fe10 	bl	5fc <PIDInitialize>
     9dc:	4a8f      	ldr	r2, [pc, #572]	; (c1c <main+0x32c>)
     9de:	4990      	ldr	r1, [pc, #576]	; (c20 <main+0x330>)
     9e0:	488a      	ldr	r0, [pc, #552]	; (c0c <main+0x31c>)
     9e2:	f8c4 8000 	str.w	r8, [r4]
     9e6:	2300      	movs	r3, #0
     9e8:	6013      	str	r3, [r2, #0]
     9ea:	4a8e      	ldr	r2, [pc, #568]	; (c24 <main+0x334>)
     9ec:	603b      	str	r3, [r7, #0]
     9ee:	6013      	str	r3, [r2, #0]
     9f0:	f7ff fe3e 	bl	670 <PIDUpdate>
     9f4:	4601      	mov	r1, r0
     9f6:	f8c9 0000 	str.w	r0, [r9]
     9fa:	4885      	ldr	r0, [pc, #532]	; (c10 <main+0x320>)
     9fc:	f8c4 a000 	str.w	sl, [r4]
     a00:	f7ff fe9d 	bl	73e <PIDSetGoal>
     a04:	6821      	ldr	r1, [r4, #0]
     a06:	4882      	ldr	r0, [pc, #520]	; (c10 <main+0x320>)
     a08:	f7ff fe32 	bl	670 <PIDUpdate>
     a0c:	f000 fe58 	bl	16c0 <__aeabi_f2iz>
     a10:	497d      	ldr	r1, [pc, #500]	; (c08 <main+0x318>)
     a12:	6038      	str	r0, [r7, #0]
     a14:	487d      	ldr	r0, [pc, #500]	; (c0c <main+0x31c>)
     a16:	f7ff fe2b 	bl	670 <PIDUpdate>
     a1a:	4601      	mov	r1, r0
     a1c:	f8c9 0000 	str.w	r0, [r9]
     a20:	487b      	ldr	r0, [pc, #492]	; (c10 <main+0x320>)
     a22:	f8c4 a000 	str.w	sl, [r4]
     a26:	f7ff fe8a 	bl	73e <PIDSetGoal>
     a2a:	6821      	ldr	r1, [r4, #0]
     a2c:	4878      	ldr	r0, [pc, #480]	; (c10 <main+0x320>)
     a2e:	f7ff fe1f 	bl	670 <PIDUpdate>
     a32:	f000 fe45 	bl	16c0 <__aeabi_f2iz>
     a36:	f04f 517e 	mov.w	r1, #1065353216	; 0x3f800000
     a3a:	6038      	str	r0, [r7, #0]
     a3c:	4873      	ldr	r0, [pc, #460]	; (c0c <main+0x31c>)
     a3e:	f7ff fe17 	bl	670 <PIDUpdate>
     a42:	4601      	mov	r1, r0
     a44:	f8c9 0000 	str.w	r0, [r9]
     a48:	4871      	ldr	r0, [pc, #452]	; (c10 <main+0x320>)
     a4a:	f8c4 a000 	str.w	sl, [r4]
     a4e:	f7ff fe76 	bl	73e <PIDSetGoal>
     a52:	6821      	ldr	r1, [r4, #0]
     a54:	486e      	ldr	r0, [pc, #440]	; (c10 <main+0x320>)
     a56:	f7ff fe0b 	bl	670 <PIDUpdate>
     a5a:	f000 fe31 	bl	16c0 <__aeabi_f2iz>
     a5e:	4970      	ldr	r1, [pc, #448]	; (c20 <main+0x330>)
     a60:	6038      	str	r0, [r7, #0]
     a62:	486a      	ldr	r0, [pc, #424]	; (c0c <main+0x31c>)
     a64:	f7ff fe04 	bl	670 <PIDUpdate>
     a68:	4601      	mov	r1, r0
     a6a:	f8c9 0000 	str.w	r0, [r9]
     a6e:	4868      	ldr	r0, [pc, #416]	; (c10 <main+0x320>)
     a70:	f8c4 b000 	str.w	fp, [r4]
     a74:	f7ff fe63 	bl	73e <PIDSetGoal>
     a78:	6821      	ldr	r1, [r4, #0]
     a7a:	4865      	ldr	r0, [pc, #404]	; (c10 <main+0x320>)
     a7c:	f7ff fdf8 	bl	670 <PIDUpdate>
     a80:	f000 fe1e 	bl	16c0 <__aeabi_f2iz>
     a84:	4960      	ldr	r1, [pc, #384]	; (c08 <main+0x318>)
     a86:	6038      	str	r0, [r7, #0]
     a88:	4860      	ldr	r0, [pc, #384]	; (c0c <main+0x31c>)
     a8a:	f7ff fdf1 	bl	670 <PIDUpdate>
     a8e:	4601      	mov	r1, r0
     a90:	f8c9 0000 	str.w	r0, [r9]
     a94:	485e      	ldr	r0, [pc, #376]	; (c10 <main+0x320>)
     a96:	f8c4 b000 	str.w	fp, [r4]
     a9a:	f7ff fe50 	bl	73e <PIDSetGoal>
     a9e:	6821      	ldr	r1, [r4, #0]
     aa0:	485b      	ldr	r0, [pc, #364]	; (c10 <main+0x320>)
     aa2:	f7ff fde5 	bl	670 <PIDUpdate>
     aa6:	f000 fe0b 	bl	16c0 <__aeabi_f2iz>
     aaa:	f04f 517e 	mov.w	r1, #1065353216	; 0x3f800000
     aae:	6038      	str	r0, [r7, #0]
     ab0:	4856      	ldr	r0, [pc, #344]	; (c0c <main+0x31c>)
     ab2:	f7ff fddd 	bl	670 <PIDUpdate>
     ab6:	4601      	mov	r1, r0
     ab8:	f8c9 0000 	str.w	r0, [r9]
     abc:	4854      	ldr	r0, [pc, #336]	; (c10 <main+0x320>)
     abe:	f8c4 b000 	str.w	fp, [r4]
     ac2:	f7ff fe3c 	bl	73e <PIDSetGoal>
     ac6:	6821      	ldr	r1, [r4, #0]
     ac8:	4851      	ldr	r0, [pc, #324]	; (c10 <main+0x320>)
     aca:	f7ff fdd1 	bl	670 <PIDUpdate>
     ace:	f000 fdf7 	bl	16c0 <__aeabi_f2iz>
     ad2:	4953      	ldr	r1, [pc, #332]	; (c20 <main+0x330>)
     ad4:	6038      	str	r0, [r7, #0]
     ad6:	484d      	ldr	r0, [pc, #308]	; (c0c <main+0x31c>)
     ad8:	f7ff fdca 	bl	670 <PIDUpdate>
     adc:	4601      	mov	r1, r0
     ade:	f8c9 0000 	str.w	r0, [r9]
     ae2:	484b      	ldr	r0, [pc, #300]	; (c10 <main+0x320>)
     ae4:	f8c4 8000 	str.w	r8, [r4]
     ae8:	f7ff fe29 	bl	73e <PIDSetGoal>
     aec:	6821      	ldr	r1, [r4, #0]
     aee:	4848      	ldr	r0, [pc, #288]	; (c10 <main+0x320>)
     af0:	f7ff fdbe 	bl	670 <PIDUpdate>
     af4:	f000 fde4 	bl	16c0 <__aeabi_f2iz>
     af8:	4943      	ldr	r1, [pc, #268]	; (c08 <main+0x318>)
     afa:	6038      	str	r0, [r7, #0]
     afc:	4843      	ldr	r0, [pc, #268]	; (c0c <main+0x31c>)
     afe:	f7ff fdb7 	bl	670 <PIDUpdate>
     b02:	4601      	mov	r1, r0
     b04:	f8c9 0000 	str.w	r0, [r9]
     b08:	4841      	ldr	r0, [pc, #260]	; (c10 <main+0x320>)
     b0a:	f8c4 8000 	str.w	r8, [r4]
     b0e:	f7ff fe16 	bl	73e <PIDSetGoal>
     b12:	6821      	ldr	r1, [r4, #0]
     b14:	483e      	ldr	r0, [pc, #248]	; (c10 <main+0x320>)
     b16:	f7ff fdab 	bl	670 <PIDUpdate>
     b1a:	f000 fdd1 	bl	16c0 <__aeabi_f2iz>
     b1e:	f04f 517e 	mov.w	r1, #1065353216	; 0x3f800000
     b22:	6038      	str	r0, [r7, #0]
     b24:	4839      	ldr	r0, [pc, #228]	; (c0c <main+0x31c>)
     b26:	f7ff fda3 	bl	670 <PIDUpdate>
     b2a:	4601      	mov	r1, r0
     b2c:	f8c9 0000 	str.w	r0, [r9]
     b30:	4837      	ldr	r0, [pc, #220]	; (c10 <main+0x320>)
     b32:	f8c4 8000 	str.w	r8, [r4]
     b36:	f7ff fe02 	bl	73e <PIDSetGoal>
     b3a:	6821      	ldr	r1, [r4, #0]
     b3c:	4834      	ldr	r0, [pc, #208]	; (c10 <main+0x320>)
     b3e:	f8df 8104 	ldr.w	r8, [pc, #260]	; c44 <main+0x354>
     b42:	4c39      	ldr	r4, [pc, #228]	; (c28 <main+0x338>)
     b44:	f7ff fd94 	bl	670 <PIDUpdate>
     b48:	f000 fdba 	bl	16c0 <__aeabi_f2iz>
     b4c:	f241 0238 	movw	r2, #4152	; 0x1038
     b50:	4b22      	ldr	r3, [pc, #136]	; (bdc <main+0x2ec>)
     b52:	6038      	str	r0, [r7, #0]
     b54:	589b      	ldr	r3, [r3, r2]
     b56:	4a21      	ldr	r2, [pc, #132]	; (bdc <main+0x2ec>)
     b58:	4834      	ldr	r0, [pc, #208]	; (c2c <main+0x33c>)
     b5a:	f241 0138 	movw	r1, #4152	; 0x1038
     b5e:	f443 5310 	orr.w	r3, r3, #9216	; 0x2400
     b62:	5053      	str	r3, [r2, r1]
     b64:	6973      	ldr	r3, [r6, #20]
     b66:	f443 03c0 	orr.w	r3, r3, #6291456	; 0x600000
     b6a:	6173      	str	r3, [r6, #20]
     b6c:	696b      	ldr	r3, [r5, #20]
     b6e:	f043 6380 	orr.w	r3, r3, #67108864	; 0x4000000
     b72:	616b      	str	r3, [r5, #20]
     b74:	4b1e      	ldr	r3, [pc, #120]	; (bf0 <main+0x300>)
     b76:	f44f 7280 	mov.w	r2, #256	; 0x100
     b7a:	659a      	str	r2, [r3, #88]	; 0x58
     b7c:	655a      	str	r2, [r3, #84]	; 0x54
     b7e:	f503 5340 	add.w	r3, r3, #12288	; 0x3000
     b82:	f44f 5116 	mov.w	r1, #9600	; 0x2580
     b86:	669a      	str	r2, [r3, #104]	; 0x68
     b88:	6973      	ldr	r3, [r6, #20]
     b8a:	f443 03c0 	orr.w	r3, r3, #6291456	; 0x600000
     b8e:	6173      	str	r3, [r6, #20]
     b90:	696b      	ldr	r3, [r5, #20]
     b92:	f043 6380 	orr.w	r3, r3, #67108864	; 0x4000000
     b96:	616b      	str	r3, [r5, #20]
     b98:	f7ff fdf0 	bl	77c <uartInit>
     b9c:	68ab      	ldr	r3, [r5, #8]
     b9e:	f043 6380 	orr.w	r3, r3, #67108864	; 0x4000000
     ba2:	60ab      	str	r3, [r5, #8]
     ba4:	f8d8 0000 	ldr.w	r0, [r8]
     ba8:	f000 fa62 	bl	1070 <__aeabi_f2d>
     bac:	4682      	mov	sl, r0
     bae:	f8d9 0000 	ldr.w	r0, [r9]
     bb2:	468b      	mov	fp, r1
     bb4:	f000 fa5c 	bl	1070 <__aeabi_f2d>
     bb8:	e9cd ab02 	strd	sl, fp, [sp, #8]
     bbc:	e9cd 0104 	strd	r0, r1, [sp, #16]
     bc0:	683b      	ldr	r3, [r7, #0]
     bc2:	9300      	str	r3, [sp, #0]
     bc4:	4652      	mov	r2, sl
     bc6:	465b      	mov	r3, fp
     bc8:	4919      	ldr	r1, [pc, #100]	; (c30 <main+0x340>)
     bca:	a806      	add	r0, sp, #24
     bcc:	f000 feb4 	bl	1938 <siprintf>
     bd0:	4918      	ldr	r1, [pc, #96]	; (c34 <main+0x344>)
     bd2:	6820      	ldr	r0, [r4, #0]
     bd4:	f7ff fe19 	bl	80a <uartPutString>
     bd8:	e036      	b.n	c48 <main+0x358>
     bda:	bf00      	nop
     bdc:	40047000 	andmi	r7, r4, r0
     be0:	400ff040 	andmi	pc, pc, r0, asr #32
     be4:	400ff100 	andmi	pc, pc, r0, lsl #2
     be8:	3a83126f 	bcc	fe0c55ac <__StackTop+0xde0955ac>
     bec:	42c80000 	sbcmi	r0, r8, #0
     bf0:	4004a000 	andmi	sl, r4, r0
     bf4:	42200000 	eormi	r0, r0, #0
     bf8:	42f00000 	rscsmi	r0, r0, #0
     bfc:	42a00000 	adcmi	r0, r0, #0
     c00:	1fff030c 	svcne	0x00ff030c
     c04:	40533333 	subsmi	r3, r3, r3, lsr r3
     c08:	3ee66666 	cdpcc	6, 14, cr6, cr6, cr6, {3}
     c0c:	1fff033c 	svcne	0x00ff033c
     c10:	1fff02dc 	svcne	0x00ff02dc
     c14:	1fff0338 	svcne	0x00ff0338
     c18:	1fff0334 	svcne	0x00ff0334
     c1c:	1fff0304 	svcne	0x00ff0304
     c20:	3dcccccd 	stclcc	12, cr12, [ip, #820]	; 0x334
     c24:	1fff0364 	svcne	0x00ff0364
     c28:	1fff02d4 	svcne	0x00ff02d4
     c2c:	4006a000 	andmi	sl, r6, r0
     c30:	000021e4 	andeq	r2, r0, r4, ror #3
     c34:	00002241 	andeq	r2, r0, r1, asr #4
     c38:	3c23d70a 	stccc	7, cr13, [r3], #-40	; 0xffffffd8
     c3c:	bc23d70a 	stclt	7, cr13, [r3], #-40	; 0xffffffd8
     c40:	1fff0308 	svcne	0x00ff0308
     c44:	1fff02d8 	svcne	0x00ff02d8
     c48:	a906      	add	r1, sp, #24
     c4a:	6820      	ldr	r0, [r4, #0]
     c4c:	f7ff fddd 	bl	80a <uartPutString>
     c50:	68f3      	ldr	r3, [r6, #12]
     c52:	f443 0380 	orr.w	r3, r3, #4194304	; 0x400000
     c56:	60f3      	str	r3, [r6, #12]
     c58:	686b      	ldr	r3, [r5, #4]
     c5a:	f043 6380 	orr.w	r3, r3, #67108864	; 0x4000000
     c5e:	606b      	str	r3, [r5, #4]
     c60:	e79c      	b.n	b9c <main+0x2ac>
     c62:	bf00      	nop

00000c64 <ADC1_INIT>:
     c64:	b510      	push	{r4, lr}
     c66:	f241 0230 	movw	r2, #4144	; 0x1030
     c6a:	491e      	ldr	r1, [pc, #120]	; (ce4 <ADC1_INIT+0x80>)
     c6c:	481e      	ldr	r0, [pc, #120]	; (ce8 <ADC1_INIT+0x84>)
     c6e:	588b      	ldr	r3, [r1, r2]
     c70:	f043 6300 	orr.w	r3, r3, #134217728	; 0x8000000
     c74:	508b      	str	r3, [r1, r2]
     c76:	2300      	movs	r3, #0
     c78:	6003      	str	r3, [r0, #0]
     c7a:	4b1c      	ldr	r3, [pc, #112]	; (cec <ADC1_INIT+0x88>)
     c7c:	226c      	movs	r2, #108	; 0x6c
     c7e:	609a      	str	r2, [r3, #8]
     c80:	2280      	movs	r2, #128	; 0x80
     c82:	625a      	str	r2, [r3, #36]	; 0x24
     c84:	461a      	mov	r2, r3
     c86:	6a54      	ldr	r4, [r2, #36]	; 0x24
     c88:	4b18      	ldr	r3, [pc, #96]	; (cec <ADC1_INIT+0x88>)
     c8a:	f014 0480 	ands.w	r4, r4, #128	; 0x80
     c8e:	d1fa      	bne.n	c86 <ADC1_INIT+0x22>
     c90:	6cd9      	ldr	r1, [r3, #76]	; 0x4c
     c92:	6c9a      	ldr	r2, [r3, #72]	; 0x48
     c94:	440a      	add	r2, r1
     c96:	6c59      	ldr	r1, [r3, #68]	; 0x44
     c98:	440a      	add	r2, r1
     c9a:	6c19      	ldr	r1, [r3, #64]	; 0x40
     c9c:	440a      	add	r2, r1
     c9e:	6bd9      	ldr	r1, [r3, #60]	; 0x3c
     ca0:	440a      	add	r2, r1
     ca2:	6b99      	ldr	r1, [r3, #56]	; 0x38
     ca4:	440a      	add	r2, r1
     ca6:	0852      	lsrs	r2, r2, #1
     ca8:	f442 4200 	orr.w	r2, r2, #32768	; 0x8000
     cac:	62da      	str	r2, [r3, #44]	; 0x2c
     cae:	6ed9      	ldr	r1, [r3, #108]	; 0x6c
     cb0:	6e9a      	ldr	r2, [r3, #104]	; 0x68
     cb2:	440a      	add	r2, r1
     cb4:	6e59      	ldr	r1, [r3, #100]	; 0x64
     cb6:	440a      	add	r2, r1
     cb8:	6e19      	ldr	r1, [r3, #96]	; 0x60
     cba:	440a      	add	r2, r1
     cbc:	6dd9      	ldr	r1, [r3, #92]	; 0x5c
     cbe:	440a      	add	r2, r1
     cc0:	6d99      	ldr	r1, [r3, #88]	; 0x58
     cc2:	440a      	add	r2, r1
     cc4:	0852      	lsrs	r2, r2, #1
     cc6:	f442 4200 	orr.w	r2, r2, #32768	; 0x8000
     cca:	631a      	str	r2, [r3, #48]	; 0x30
     ccc:	6004      	str	r4, [r0, #0]
     cce:	6802      	ldr	r2, [r0, #0]
     cd0:	4907      	ldr	r1, [pc, #28]	; (cf0 <ADC1_INIT+0x8c>)
     cd2:	5c8a      	ldrb	r2, [r1, r2]
     cd4:	601a      	str	r2, [r3, #0]
     cd6:	4b07      	ldr	r3, [pc, #28]	; (cf4 <ADC1_INIT+0x90>)
     cd8:	f44f 7200 	mov.w	r2, #512	; 0x200
     cdc:	609a      	str	r2, [r3, #8]
     cde:	b662      	cpsie	i
     ce0:	bd10      	pop	{r4, pc}
     ce2:	bf00      	nop
     ce4:	40047000 	andmi	r7, r4, r0
     ce8:	1fff0368 	svcne	0x00ff0368
     cec:	400bb000 	andmi	fp, fp, r0
     cf0:	000022ce 	andeq	r2, r0, lr, asr #5
     cf4:	e000e100 	and	lr, r0, r0, lsl #2

00000cf8 <ADC1_IRQHandler>:
     cf8:	b530      	push	{r4, r5, lr}
     cfa:	b672      	cpsid	i
     cfc:	4b10      	ldr	r3, [pc, #64]	; (d40 <ADC1_IRQHandler+0x48>)
     cfe:	4811      	ldr	r0, [pc, #68]	; (d44 <ADC1_IRQHandler+0x4c>)
     d00:	681a      	ldr	r2, [r3, #0]
     d02:	2a04      	cmp	r2, #4
     d04:	461a      	mov	r2, r3
     d06:	dc02      	bgt.n	d0e <ADC1_IRQHandler+0x16>
     d08:	6819      	ldr	r1, [r3, #0]
     d0a:	2900      	cmp	r1, #0
     d0c:	da05      	bge.n	d1a <ADC1_IRQHandler+0x22>
     d0e:	2300      	movs	r3, #0
     d10:	6013      	str	r3, [r2, #0]
     d12:	6813      	ldr	r3, [r2, #0]
     d14:	5cc2      	ldrb	r2, [r0, r3]
     d16:	4b0c      	ldr	r3, [pc, #48]	; (d48 <ADC1_IRQHandler+0x50>)
     d18:	e010      	b.n	d3c <ADC1_IRQHandler+0x44>
     d1a:	681c      	ldr	r4, [r3, #0]
     d1c:	490a      	ldr	r1, [pc, #40]	; (d48 <ADC1_IRQHandler+0x50>)
     d1e:	4d0b      	ldr	r5, [pc, #44]	; (d4c <ADC1_IRQHandler+0x54>)
     d20:	1c62      	adds	r2, r4, #1
     d22:	601a      	str	r2, [r3, #0]
     d24:	690a      	ldr	r2, [r1, #16]
     d26:	b292      	uxth	r2, r2
     d28:	f825 2014 	strh.w	r2, [r5, r4, lsl #1]
     d2c:	681a      	ldr	r2, [r3, #0]
     d2e:	5c82      	ldrb	r2, [r0, r2]
     d30:	600a      	str	r2, [r1, #0]
     d32:	b662      	cpsie	i
     d34:	681a      	ldr	r2, [r3, #0]
     d36:	2a04      	cmp	r2, #4
     d38:	d101      	bne.n	d3e <ADC1_IRQHandler+0x46>
     d3a:	2200      	movs	r2, #0
     d3c:	601a      	str	r2, [r3, #0]
     d3e:	bd30      	pop	{r4, r5, pc}
     d40:	1fff0368 	svcne	0x00ff0368
     d44:	000022ce 	andeq	r2, r0, lr, asr #5
     d48:	400bb000 	andmi	fp, fp, r0
     d4c:	1fff036c 	svcne	0x00ff036c

00000d50 <Reset_Handler>:
     d50:	4906      	ldr	r1, [pc, #24]	; (d6c <Reset_Handler+0x1c>)
     d52:	4a07      	ldr	r2, [pc, #28]	; (d70 <Reset_Handler+0x20>)
     d54:	4b07      	ldr	r3, [pc, #28]	; (d74 <Reset_Handler+0x24>)
     d56:	1a9b      	subs	r3, r3, r2
     d58:	dd03      	ble.n	d62 <Reset_Handler+0x12>
     d5a:	3b04      	subs	r3, #4
     d5c:	58c8      	ldr	r0, [r1, r3]
     d5e:	50d0      	str	r0, [r2, r3]
     d60:	dcfb      	bgt.n	d5a <Reset_Handler+0xa>
     d62:	4805      	ldr	r0, [pc, #20]	; (d78 <Reset_Handler+0x28>)
     d64:	4780      	blx	r0
     d66:	4805      	ldr	r0, [pc, #20]	; (d7c <Reset_Handler+0x2c>)
     d68:	4700      	bx	r0
     d6a:	23180000 	tstcs	r8, #0
     d6e:	01980000 	orrseq	r0, r8, r0
     d72:	02081fff 	andeq	r1, r8, #1020	; 0x3fc
     d76:	04d51fff 	ldrbeq	r1, [r5], #4095	; 0xfff
     d7a:	046d0000 	strbteq	r0, [sp], #-0
	...

00000d80 <NMI_Handler>:
     d80:	e7fe      	b.n	d80 <NMI_Handler>
     d82:	bf00      	nop

00000d84 <HardFault_Handler>:
     d84:	e7fe      	b.n	d84 <HardFault_Handler>
     d86:	bf00      	nop

00000d88 <MemManage_Handler>:
     d88:	e7fe      	b.n	d88 <MemManage_Handler>
     d8a:	bf00      	nop

00000d8c <BusFault_Handler>:
     d8c:	e7fe      	b.n	d8c <BusFault_Handler>
     d8e:	bf00      	nop

00000d90 <UsageFault_Handler>:
     d90:	e7fe      	b.n	d90 <UsageFault_Handler>
     d92:	bf00      	nop

00000d94 <SVC_Handler>:
     d94:	e7fe      	b.n	d94 <SVC_Handler>
     d96:	bf00      	nop

00000d98 <DebugMon_Handler>:
     d98:	e7fe      	b.n	d98 <DebugMon_Handler>
     d9a:	bf00      	nop

00000d9c <PendSV_Handler>:
     d9c:	e7fe      	b.n	d9c <PendSV_Handler>
     d9e:	bf00      	nop

00000da0 <SysTick_Handler>:
     da0:	e7fe      	b.n	da0 <SysTick_Handler>
     da2:	bf00      	nop

00000da4 <ADC0_IRQHandler>:
     da4:	e7fe      	b.n	da4 <ADC0_IRQHandler>
     da6:	bf00      	nop

00000da8 <__aeabi_drsub>:
     da8:	f081 4100 	eor.w	r1, r1, #2147483648	; 0x80000000
     dac:	e002      	b.n	db4 <__adddf3>
     dae:	bf00      	nop

00000db0 <__aeabi_dsub>:
     db0:	f083 4300 	eor.w	r3, r3, #2147483648	; 0x80000000

00000db4 <__adddf3>:
     db4:	b530      	push	{r4, r5, lr}
     db6:	ea4f 0441 	mov.w	r4, r1, lsl #1
     dba:	ea4f 0543 	mov.w	r5, r3, lsl #1
     dbe:	ea94 0f05 	teq	r4, r5
     dc2:	bf08      	it	eq
     dc4:	ea90 0f02 	teqeq	r0, r2
     dc8:	bf1f      	itttt	ne
     dca:	ea54 0c00 	orrsne.w	ip, r4, r0
     dce:	ea55 0c02 	orrsne.w	ip, r5, r2
     dd2:	ea7f 5c64 	mvnsne.w	ip, r4, asr #21
     dd6:	ea7f 5c65 	mvnsne.w	ip, r5, asr #21
     dda:	f000 80e2 	beq.w	fa2 <__adddf3+0x1ee>
     dde:	ea4f 5454 	mov.w	r4, r4, lsr #21
     de2:	ebd4 5555 	rsbs	r5, r4, r5, lsr #21
     de6:	bfb8      	it	lt
     de8:	426d      	neglt	r5, r5
     dea:	dd0c      	ble.n	e06 <__adddf3+0x52>
     dec:	442c      	add	r4, r5
     dee:	ea80 0202 	eor.w	r2, r0, r2
     df2:	ea81 0303 	eor.w	r3, r1, r3
     df6:	ea82 0000 	eor.w	r0, r2, r0
     dfa:	ea83 0101 	eor.w	r1, r3, r1
     dfe:	ea80 0202 	eor.w	r2, r0, r2
     e02:	ea81 0303 	eor.w	r3, r1, r3
     e06:	2d36      	cmp	r5, #54	; 0x36
     e08:	bf88      	it	hi
     e0a:	bd30      	pophi	{r4, r5, pc}
     e0c:	f011 4f00 	tst.w	r1, #2147483648	; 0x80000000
     e10:	ea4f 3101 	mov.w	r1, r1, lsl #12
     e14:	f44f 1c80 	mov.w	ip, #1048576	; 0x100000
     e18:	ea4c 3111 	orr.w	r1, ip, r1, lsr #12
     e1c:	d002      	beq.n	e24 <__adddf3+0x70>
     e1e:	4240      	negs	r0, r0
     e20:	eb61 0141 	sbc.w	r1, r1, r1, lsl #1
     e24:	f013 4f00 	tst.w	r3, #2147483648	; 0x80000000
     e28:	ea4f 3303 	mov.w	r3, r3, lsl #12
     e2c:	ea4c 3313 	orr.w	r3, ip, r3, lsr #12
     e30:	d002      	beq.n	e38 <__adddf3+0x84>
     e32:	4252      	negs	r2, r2
     e34:	eb63 0343 	sbc.w	r3, r3, r3, lsl #1
     e38:	ea94 0f05 	teq	r4, r5
     e3c:	f000 80a7 	beq.w	f8e <__adddf3+0x1da>
     e40:	f1a4 0401 	sub.w	r4, r4, #1
     e44:	f1d5 0e20 	rsbs	lr, r5, #32
     e48:	db0d      	blt.n	e66 <__adddf3+0xb2>
     e4a:	fa02 fc0e 	lsl.w	ip, r2, lr
     e4e:	fa22 f205 	lsr.w	r2, r2, r5
     e52:	1880      	adds	r0, r0, r2
     e54:	f141 0100 	adc.w	r1, r1, #0
     e58:	fa03 f20e 	lsl.w	r2, r3, lr
     e5c:	1880      	adds	r0, r0, r2
     e5e:	fa43 f305 	asr.w	r3, r3, r5
     e62:	4159      	adcs	r1, r3
     e64:	e00e      	b.n	e84 <__adddf3+0xd0>
     e66:	f1a5 0520 	sub.w	r5, r5, #32
     e6a:	f10e 0e20 	add.w	lr, lr, #32
     e6e:	2a01      	cmp	r2, #1
     e70:	fa03 fc0e 	lsl.w	ip, r3, lr
     e74:	bf28      	it	cs
     e76:	f04c 0c02 	orrcs.w	ip, ip, #2
     e7a:	fa43 f305 	asr.w	r3, r3, r5
     e7e:	18c0      	adds	r0, r0, r3
     e80:	eb51 71e3 	adcs.w	r1, r1, r3, asr #31
     e84:	f001 4500 	and.w	r5, r1, #2147483648	; 0x80000000
     e88:	d507      	bpl.n	e9a <__adddf3+0xe6>
     e8a:	f04f 0e00 	mov.w	lr, #0
     e8e:	f1dc 0c00 	rsbs	ip, ip, #0
     e92:	eb7e 0000 	sbcs.w	r0, lr, r0
     e96:	eb6e 0101 	sbc.w	r1, lr, r1
     e9a:	f5b1 1f80 	cmp.w	r1, #1048576	; 0x100000
     e9e:	d31b      	bcc.n	ed8 <__adddf3+0x124>
     ea0:	f5b1 1f00 	cmp.w	r1, #2097152	; 0x200000
     ea4:	d30c      	bcc.n	ec0 <__adddf3+0x10c>
     ea6:	0849      	lsrs	r1, r1, #1
     ea8:	ea5f 0030 	movs.w	r0, r0, rrx
     eac:	ea4f 0c3c 	mov.w	ip, ip, rrx
     eb0:	f104 0401 	add.w	r4, r4, #1
     eb4:	ea4f 5244 	mov.w	r2, r4, lsl #21
     eb8:	f512 0f80 	cmn.w	r2, #4194304	; 0x400000
     ebc:	f080 809a 	bcs.w	ff4 <__adddf3+0x240>
     ec0:	f1bc 4f00 	cmp.w	ip, #2147483648	; 0x80000000
     ec4:	bf08      	it	eq
     ec6:	ea5f 0c50 	movseq.w	ip, r0, lsr #1
     eca:	f150 0000 	adcs.w	r0, r0, #0
     ece:	eb41 5104 	adc.w	r1, r1, r4, lsl #20
     ed2:	ea41 0105 	orr.w	r1, r1, r5
     ed6:	bd30      	pop	{r4, r5, pc}
     ed8:	ea5f 0c4c 	movs.w	ip, ip, lsl #1
     edc:	4140      	adcs	r0, r0
     ede:	eb41 0101 	adc.w	r1, r1, r1
     ee2:	f411 1f80 	tst.w	r1, #1048576	; 0x100000
     ee6:	f1a4 0401 	sub.w	r4, r4, #1
     eea:	d1e9      	bne.n	ec0 <__adddf3+0x10c>
     eec:	f091 0f00 	teq	r1, #0
     ef0:	bf04      	itt	eq
     ef2:	4601      	moveq	r1, r0
     ef4:	2000      	moveq	r0, #0
     ef6:	fab1 f381 	clz	r3, r1
     efa:	bf08      	it	eq
     efc:	3320      	addeq	r3, #32
     efe:	f1a3 030b 	sub.w	r3, r3, #11
     f02:	f1b3 0220 	subs.w	r2, r3, #32
     f06:	da0c      	bge.n	f22 <__adddf3+0x16e>
     f08:	320c      	adds	r2, #12
     f0a:	dd08      	ble.n	f1e <__adddf3+0x16a>
     f0c:	f102 0c14 	add.w	ip, r2, #20
     f10:	f1c2 020c 	rsb	r2, r2, #12
     f14:	fa01 f00c 	lsl.w	r0, r1, ip
     f18:	fa21 f102 	lsr.w	r1, r1, r2
     f1c:	e00c      	b.n	f38 <__adddf3+0x184>
     f1e:	f102 0214 	add.w	r2, r2, #20
     f22:	bfd8      	it	le
     f24:	f1c2 0c20 	rsble	ip, r2, #32
     f28:	fa01 f102 	lsl.w	r1, r1, r2
     f2c:	fa20 fc0c 	lsr.w	ip, r0, ip
     f30:	bfdc      	itt	le
     f32:	ea41 010c 	orrle.w	r1, r1, ip
     f36:	4090      	lslle	r0, r2
     f38:	1ae4      	subs	r4, r4, r3
     f3a:	bfa2      	ittt	ge
     f3c:	eb01 5104 	addge.w	r1, r1, r4, lsl #20
     f40:	4329      	orrge	r1, r5
     f42:	bd30      	popge	{r4, r5, pc}
     f44:	ea6f 0404 	mvn.w	r4, r4
     f48:	3c1f      	subs	r4, #31
     f4a:	da1c      	bge.n	f86 <__adddf3+0x1d2>
     f4c:	340c      	adds	r4, #12
     f4e:	dc0e      	bgt.n	f6e <__adddf3+0x1ba>
     f50:	f104 0414 	add.w	r4, r4, #20
     f54:	f1c4 0220 	rsb	r2, r4, #32
     f58:	fa20 f004 	lsr.w	r0, r0, r4
     f5c:	fa01 f302 	lsl.w	r3, r1, r2
     f60:	ea40 0003 	orr.w	r0, r0, r3
     f64:	fa21 f304 	lsr.w	r3, r1, r4
     f68:	ea45 0103 	orr.w	r1, r5, r3
     f6c:	bd30      	pop	{r4, r5, pc}
     f6e:	f1c4 040c 	rsb	r4, r4, #12
     f72:	f1c4 0220 	rsb	r2, r4, #32
     f76:	fa20 f002 	lsr.w	r0, r0, r2
     f7a:	fa01 f304 	lsl.w	r3, r1, r4
     f7e:	ea40 0003 	orr.w	r0, r0, r3
     f82:	4629      	mov	r1, r5
     f84:	bd30      	pop	{r4, r5, pc}
     f86:	fa21 f004 	lsr.w	r0, r1, r4
     f8a:	4629      	mov	r1, r5
     f8c:	bd30      	pop	{r4, r5, pc}
     f8e:	f094 0f00 	teq	r4, #0
     f92:	f483 1380 	eor.w	r3, r3, #1048576	; 0x100000
     f96:	bf06      	itte	eq
     f98:	f481 1180 	eoreq.w	r1, r1, #1048576	; 0x100000
     f9c:	3401      	addeq	r4, #1
     f9e:	3d01      	subne	r5, #1
     fa0:	e74e      	b.n	e40 <__adddf3+0x8c>
     fa2:	ea7f 5c64 	mvns.w	ip, r4, asr #21
     fa6:	bf18      	it	ne
     fa8:	ea7f 5c65 	mvnsne.w	ip, r5, asr #21
     fac:	d029      	beq.n	1002 <__adddf3+0x24e>
     fae:	ea94 0f05 	teq	r4, r5
     fb2:	bf08      	it	eq
     fb4:	ea90 0f02 	teqeq	r0, r2
     fb8:	d005      	beq.n	fc6 <__adddf3+0x212>
     fba:	ea54 0c00 	orrs.w	ip, r4, r0
     fbe:	bf04      	itt	eq
     fc0:	4619      	moveq	r1, r3
     fc2:	4610      	moveq	r0, r2
     fc4:	bd30      	pop	{r4, r5, pc}
     fc6:	ea91 0f03 	teq	r1, r3
     fca:	bf1e      	ittt	ne
     fcc:	2100      	movne	r1, #0
     fce:	2000      	movne	r0, #0
     fd0:	bd30      	popne	{r4, r5, pc}
     fd2:	ea5f 5c54 	movs.w	ip, r4, lsr #21
     fd6:	d105      	bne.n	fe4 <__adddf3+0x230>
     fd8:	0040      	lsls	r0, r0, #1
     fda:	4149      	adcs	r1, r1
     fdc:	bf28      	it	cs
     fde:	f041 4100 	orrcs.w	r1, r1, #2147483648	; 0x80000000
     fe2:	bd30      	pop	{r4, r5, pc}
     fe4:	f514 0480 	adds.w	r4, r4, #4194304	; 0x400000
     fe8:	bf3c      	itt	cc
     fea:	f501 1180 	addcc.w	r1, r1, #1048576	; 0x100000
     fee:	bd30      	popcc	{r4, r5, pc}
     ff0:	f001 4500 	and.w	r5, r1, #2147483648	; 0x80000000
     ff4:	f045 41fe 	orr.w	r1, r5, #2130706432	; 0x7f000000
     ff8:	f441 0170 	orr.w	r1, r1, #15728640	; 0xf00000
     ffc:	f04f 0000 	mov.w	r0, #0
    1000:	bd30      	pop	{r4, r5, pc}
    1002:	ea7f 5c64 	mvns.w	ip, r4, asr #21
    1006:	bf1a      	itte	ne
    1008:	4619      	movne	r1, r3
    100a:	4610      	movne	r0, r2
    100c:	ea7f 5c65 	mvnseq.w	ip, r5, asr #21
    1010:	bf1c      	itt	ne
    1012:	460b      	movne	r3, r1
    1014:	4602      	movne	r2, r0
    1016:	ea50 3401 	orrs.w	r4, r0, r1, lsl #12
    101a:	bf06      	itte	eq
    101c:	ea52 3503 	orrseq.w	r5, r2, r3, lsl #12
    1020:	ea91 0f03 	teqeq	r1, r3
    1024:	f441 2100 	orrne.w	r1, r1, #524288	; 0x80000
    1028:	bd30      	pop	{r4, r5, pc}
    102a:	bf00      	nop

0000102c <__aeabi_ui2d>:
    102c:	f090 0f00 	teq	r0, #0
    1030:	bf04      	itt	eq
    1032:	2100      	moveq	r1, #0
    1034:	4770      	bxeq	lr
    1036:	b530      	push	{r4, r5, lr}
    1038:	f44f 6480 	mov.w	r4, #1024	; 0x400
    103c:	f104 0432 	add.w	r4, r4, #50	; 0x32
    1040:	f04f 0500 	mov.w	r5, #0
    1044:	f04f 0100 	mov.w	r1, #0
    1048:	e750      	b.n	eec <__adddf3+0x138>
    104a:	bf00      	nop

0000104c <__aeabi_i2d>:
    104c:	f090 0f00 	teq	r0, #0
    1050:	bf04      	itt	eq
    1052:	2100      	moveq	r1, #0
    1054:	4770      	bxeq	lr
    1056:	b530      	push	{r4, r5, lr}
    1058:	f44f 6480 	mov.w	r4, #1024	; 0x400
    105c:	f104 0432 	add.w	r4, r4, #50	; 0x32
    1060:	f010 4500 	ands.w	r5, r0, #2147483648	; 0x80000000
    1064:	bf48      	it	mi
    1066:	4240      	negmi	r0, r0
    1068:	f04f 0100 	mov.w	r1, #0
    106c:	e73e      	b.n	eec <__adddf3+0x138>
    106e:	bf00      	nop

00001070 <__aeabi_f2d>:
    1070:	0042      	lsls	r2, r0, #1
    1072:	ea4f 01e2 	mov.w	r1, r2, asr #3
    1076:	ea4f 0131 	mov.w	r1, r1, rrx
    107a:	ea4f 7002 	mov.w	r0, r2, lsl #28
    107e:	bf1f      	itttt	ne
    1080:	f012 437f 	andsne.w	r3, r2, #4278190080	; 0xff000000
    1084:	f093 4f7f 	teqne	r3, #4278190080	; 0xff000000
    1088:	f081 5160 	eorne.w	r1, r1, #939524096	; 0x38000000
    108c:	4770      	bxne	lr
    108e:	f092 0f00 	teq	r2, #0
    1092:	bf14      	ite	ne
    1094:	f093 4f7f 	teqne	r3, #4278190080	; 0xff000000
    1098:	4770      	bxeq	lr
    109a:	b530      	push	{r4, r5, lr}
    109c:	f44f 7460 	mov.w	r4, #896	; 0x380
    10a0:	f001 4500 	and.w	r5, r1, #2147483648	; 0x80000000
    10a4:	f021 4100 	bic.w	r1, r1, #2147483648	; 0x80000000
    10a8:	e720      	b.n	eec <__adddf3+0x138>
    10aa:	bf00      	nop

000010ac <__aeabi_ul2d>:
    10ac:	ea50 0201 	orrs.w	r2, r0, r1
    10b0:	bf08      	it	eq
    10b2:	4770      	bxeq	lr
    10b4:	b530      	push	{r4, r5, lr}
    10b6:	f04f 0500 	mov.w	r5, #0
    10ba:	e00a      	b.n	10d2 <__aeabi_l2d+0x16>

000010bc <__aeabi_l2d>:
    10bc:	ea50 0201 	orrs.w	r2, r0, r1
    10c0:	bf08      	it	eq
    10c2:	4770      	bxeq	lr
    10c4:	b530      	push	{r4, r5, lr}
    10c6:	f011 4500 	ands.w	r5, r1, #2147483648	; 0x80000000
    10ca:	d502      	bpl.n	10d2 <__aeabi_l2d+0x16>
    10cc:	4240      	negs	r0, r0
    10ce:	eb61 0141 	sbc.w	r1, r1, r1, lsl #1
    10d2:	f44f 6480 	mov.w	r4, #1024	; 0x400
    10d6:	f104 0432 	add.w	r4, r4, #50	; 0x32
    10da:	ea5f 5c91 	movs.w	ip, r1, lsr #22
    10de:	f43f aedc 	beq.w	e9a <__adddf3+0xe6>
    10e2:	f04f 0203 	mov.w	r2, #3
    10e6:	ea5f 0cdc 	movs.w	ip, ip, lsr #3
    10ea:	bf18      	it	ne
    10ec:	3203      	addne	r2, #3
    10ee:	ea5f 0cdc 	movs.w	ip, ip, lsr #3
    10f2:	bf18      	it	ne
    10f4:	3203      	addne	r2, #3
    10f6:	eb02 02dc 	add.w	r2, r2, ip, lsr #3
    10fa:	f1c2 0320 	rsb	r3, r2, #32
    10fe:	fa00 fc03 	lsl.w	ip, r0, r3
    1102:	fa20 f002 	lsr.w	r0, r0, r2
    1106:	fa01 fe03 	lsl.w	lr, r1, r3
    110a:	ea40 000e 	orr.w	r0, r0, lr
    110e:	fa21 f102 	lsr.w	r1, r1, r2
    1112:	4414      	add	r4, r2
    1114:	e6c1      	b.n	e9a <__adddf3+0xe6>
    1116:	bf00      	nop

00001118 <__aeabi_frsub>:
    1118:	f080 4000 	eor.w	r0, r0, #2147483648	; 0x80000000
    111c:	e002      	b.n	1124 <__addsf3>
    111e:	bf00      	nop

00001120 <__aeabi_fsub>:
    1120:	f081 4100 	eor.w	r1, r1, #2147483648	; 0x80000000

00001124 <__addsf3>:
    1124:	0042      	lsls	r2, r0, #1
    1126:	bf1f      	itttt	ne
    1128:	ea5f 0341 	movsne.w	r3, r1, lsl #1
    112c:	ea92 0f03 	teqne	r2, r3
    1130:	ea7f 6c22 	mvnsne.w	ip, r2, asr #24
    1134:	ea7f 6c23 	mvnsne.w	ip, r3, asr #24
    1138:	d06a      	beq.n	1210 <__addsf3+0xec>
    113a:	ea4f 6212 	mov.w	r2, r2, lsr #24
    113e:	ebd2 6313 	rsbs	r3, r2, r3, lsr #24
    1142:	bfc1      	itttt	gt
    1144:	18d2      	addgt	r2, r2, r3
    1146:	4041      	eorgt	r1, r0
    1148:	4048      	eorgt	r0, r1
    114a:	4041      	eorgt	r1, r0
    114c:	bfb8      	it	lt
    114e:	425b      	neglt	r3, r3
    1150:	2b19      	cmp	r3, #25
    1152:	bf88      	it	hi
    1154:	4770      	bxhi	lr
    1156:	f010 4f00 	tst.w	r0, #2147483648	; 0x80000000
    115a:	f440 0000 	orr.w	r0, r0, #8388608	; 0x800000
    115e:	f020 407f 	bic.w	r0, r0, #4278190080	; 0xff000000
    1162:	bf18      	it	ne
    1164:	4240      	negne	r0, r0
    1166:	f011 4f00 	tst.w	r1, #2147483648	; 0x80000000
    116a:	f441 0100 	orr.w	r1, r1, #8388608	; 0x800000
    116e:	f021 417f 	bic.w	r1, r1, #4278190080	; 0xff000000
    1172:	bf18      	it	ne
    1174:	4249      	negne	r1, r1
    1176:	ea92 0f03 	teq	r2, r3
    117a:	d03f      	beq.n	11fc <__addsf3+0xd8>
    117c:	f1a2 0201 	sub.w	r2, r2, #1
    1180:	fa41 fc03 	asr.w	ip, r1, r3
    1184:	eb10 000c 	adds.w	r0, r0, ip
    1188:	f1c3 0320 	rsb	r3, r3, #32
    118c:	fa01 f103 	lsl.w	r1, r1, r3
    1190:	f000 4300 	and.w	r3, r0, #2147483648	; 0x80000000
    1194:	d502      	bpl.n	119c <__addsf3+0x78>
    1196:	4249      	negs	r1, r1
    1198:	eb60 0040 	sbc.w	r0, r0, r0, lsl #1
    119c:	f5b0 0f00 	cmp.w	r0, #8388608	; 0x800000
    11a0:	d313      	bcc.n	11ca <__addsf3+0xa6>
    11a2:	f1b0 7f80 	cmp.w	r0, #16777216	; 0x1000000
    11a6:	d306      	bcc.n	11b6 <__addsf3+0x92>
    11a8:	0840      	lsrs	r0, r0, #1
    11aa:	ea4f 0131 	mov.w	r1, r1, rrx
    11ae:	f102 0201 	add.w	r2, r2, #1
    11b2:	2afe      	cmp	r2, #254	; 0xfe
    11b4:	d251      	bcs.n	125a <__addsf3+0x136>
    11b6:	f1b1 4f00 	cmp.w	r1, #2147483648	; 0x80000000
    11ba:	eb40 50c2 	adc.w	r0, r0, r2, lsl #23
    11be:	bf08      	it	eq
    11c0:	f020 0001 	biceq.w	r0, r0, #1
    11c4:	ea40 0003 	orr.w	r0, r0, r3
    11c8:	4770      	bx	lr
    11ca:	0049      	lsls	r1, r1, #1
    11cc:	eb40 0000 	adc.w	r0, r0, r0
    11d0:	f410 0f00 	tst.w	r0, #8388608	; 0x800000
    11d4:	f1a2 0201 	sub.w	r2, r2, #1
    11d8:	d1ed      	bne.n	11b6 <__addsf3+0x92>
    11da:	fab0 fc80 	clz	ip, r0
    11de:	f1ac 0c08 	sub.w	ip, ip, #8
    11e2:	ebb2 020c 	subs.w	r2, r2, ip
    11e6:	fa00 f00c 	lsl.w	r0, r0, ip
    11ea:	bfaa      	itet	ge
    11ec:	eb00 50c2 	addge.w	r0, r0, r2, lsl #23
    11f0:	4252      	neglt	r2, r2
    11f2:	4318      	orrge	r0, r3
    11f4:	bfbc      	itt	lt
    11f6:	40d0      	lsrlt	r0, r2
    11f8:	4318      	orrlt	r0, r3
    11fa:	4770      	bx	lr
    11fc:	f092 0f00 	teq	r2, #0
    1200:	f481 0100 	eor.w	r1, r1, #8388608	; 0x800000
    1204:	bf06      	itte	eq
    1206:	f480 0000 	eoreq.w	r0, r0, #8388608	; 0x800000
    120a:	3201      	addeq	r2, #1
    120c:	3b01      	subne	r3, #1
    120e:	e7b5      	b.n	117c <__addsf3+0x58>
    1210:	ea4f 0341 	mov.w	r3, r1, lsl #1
    1214:	ea7f 6c22 	mvns.w	ip, r2, asr #24
    1218:	bf18      	it	ne
    121a:	ea7f 6c23 	mvnsne.w	ip, r3, asr #24
    121e:	d021      	beq.n	1264 <__addsf3+0x140>
    1220:	ea92 0f03 	teq	r2, r3
    1224:	d004      	beq.n	1230 <__addsf3+0x10c>
    1226:	f092 0f00 	teq	r2, #0
    122a:	bf08      	it	eq
    122c:	4608      	moveq	r0, r1
    122e:	4770      	bx	lr
    1230:	ea90 0f01 	teq	r0, r1
    1234:	bf1c      	itt	ne
    1236:	2000      	movne	r0, #0
    1238:	4770      	bxne	lr
    123a:	f012 4f7f 	tst.w	r2, #4278190080	; 0xff000000
    123e:	d104      	bne.n	124a <__addsf3+0x126>
    1240:	0040      	lsls	r0, r0, #1
    1242:	bf28      	it	cs
    1244:	f040 4000 	orrcs.w	r0, r0, #2147483648	; 0x80000000
    1248:	4770      	bx	lr
    124a:	f112 7200 	adds.w	r2, r2, #33554432	; 0x2000000
    124e:	bf3c      	itt	cc
    1250:	f500 0000 	addcc.w	r0, r0, #8388608	; 0x800000
    1254:	4770      	bxcc	lr
    1256:	f000 4300 	and.w	r3, r0, #2147483648	; 0x80000000
    125a:	f043 40fe 	orr.w	r0, r3, #2130706432	; 0x7f000000
    125e:	f440 0000 	orr.w	r0, r0, #8388608	; 0x800000
    1262:	4770      	bx	lr
    1264:	ea7f 6222 	mvns.w	r2, r2, asr #24
    1268:	bf16      	itet	ne
    126a:	4608      	movne	r0, r1
    126c:	ea7f 6323 	mvnseq.w	r3, r3, asr #24
    1270:	4601      	movne	r1, r0
    1272:	0242      	lsls	r2, r0, #9
    1274:	bf06      	itte	eq
    1276:	ea5f 2341 	movseq.w	r3, r1, lsl #9
    127a:	ea90 0f01 	teqeq	r0, r1
    127e:	f440 0080 	orrne.w	r0, r0, #4194304	; 0x400000
    1282:	4770      	bx	lr

00001284 <__aeabi_ui2f>:
    1284:	f04f 0300 	mov.w	r3, #0
    1288:	e004      	b.n	1294 <__aeabi_i2f+0x8>
    128a:	bf00      	nop

0000128c <__aeabi_i2f>:
    128c:	f010 4300 	ands.w	r3, r0, #2147483648	; 0x80000000
    1290:	bf48      	it	mi
    1292:	4240      	negmi	r0, r0
    1294:	ea5f 0c00 	movs.w	ip, r0
    1298:	bf08      	it	eq
    129a:	4770      	bxeq	lr
    129c:	f043 4396 	orr.w	r3, r3, #1258291200	; 0x4b000000
    12a0:	4601      	mov	r1, r0
    12a2:	f04f 0000 	mov.w	r0, #0
    12a6:	e01c      	b.n	12e2 <__aeabi_l2f+0x2a>

000012a8 <__aeabi_ul2f>:
    12a8:	ea50 0201 	orrs.w	r2, r0, r1
    12ac:	bf08      	it	eq
    12ae:	4770      	bxeq	lr
    12b0:	f04f 0300 	mov.w	r3, #0
    12b4:	e00a      	b.n	12cc <__aeabi_l2f+0x14>
    12b6:	bf00      	nop

000012b8 <__aeabi_l2f>:
    12b8:	ea50 0201 	orrs.w	r2, r0, r1
    12bc:	bf08      	it	eq
    12be:	4770      	bxeq	lr
    12c0:	f011 4300 	ands.w	r3, r1, #2147483648	; 0x80000000
    12c4:	d502      	bpl.n	12cc <__aeabi_l2f+0x14>
    12c6:	4240      	negs	r0, r0
    12c8:	eb61 0141 	sbc.w	r1, r1, r1, lsl #1
    12cc:	ea5f 0c01 	movs.w	ip, r1
    12d0:	bf02      	ittt	eq
    12d2:	4684      	moveq	ip, r0
    12d4:	4601      	moveq	r1, r0
    12d6:	2000      	moveq	r0, #0
    12d8:	f043 43b6 	orr.w	r3, r3, #1526726656	; 0x5b000000
    12dc:	bf08      	it	eq
    12de:	f1a3 5380 	subeq.w	r3, r3, #268435456	; 0x10000000
    12e2:	f5a3 0300 	sub.w	r3, r3, #8388608	; 0x800000
    12e6:	fabc f28c 	clz	r2, ip
    12ea:	3a08      	subs	r2, #8
    12ec:	eba3 53c2 	sub.w	r3, r3, r2, lsl #23
    12f0:	db10      	blt.n	1314 <__aeabi_l2f+0x5c>
    12f2:	fa01 fc02 	lsl.w	ip, r1, r2
    12f6:	4463      	add	r3, ip
    12f8:	fa00 fc02 	lsl.w	ip, r0, r2
    12fc:	f1c2 0220 	rsb	r2, r2, #32
    1300:	f1bc 4f00 	cmp.w	ip, #2147483648	; 0x80000000
    1304:	fa20 f202 	lsr.w	r2, r0, r2
    1308:	eb43 0002 	adc.w	r0, r3, r2
    130c:	bf08      	it	eq
    130e:	f020 0001 	biceq.w	r0, r0, #1
    1312:	4770      	bx	lr
    1314:	f102 0220 	add.w	r2, r2, #32
    1318:	fa01 fc02 	lsl.w	ip, r1, r2
    131c:	f1c2 0220 	rsb	r2, r2, #32
    1320:	ea50 004c 	orrs.w	r0, r0, ip, lsl #1
    1324:	fa21 f202 	lsr.w	r2, r1, r2
    1328:	eb43 0002 	adc.w	r0, r3, r2
    132c:	bf08      	it	eq
    132e:	ea20 70dc 	biceq.w	r0, r0, ip, lsr #31
    1332:	4770      	bx	lr

00001334 <__aeabi_fmul>:
    1334:	f04f 0cff 	mov.w	ip, #255	; 0xff
    1338:	ea1c 52d0 	ands.w	r2, ip, r0, lsr #23
    133c:	bf1e      	ittt	ne
    133e:	ea1c 53d1 	andsne.w	r3, ip, r1, lsr #23
    1342:	ea92 0f0c 	teqne	r2, ip
    1346:	ea93 0f0c 	teqne	r3, ip
    134a:	d06f      	beq.n	142c <__aeabi_fmul+0xf8>
    134c:	441a      	add	r2, r3
    134e:	ea80 0c01 	eor.w	ip, r0, r1
    1352:	0240      	lsls	r0, r0, #9
    1354:	bf18      	it	ne
    1356:	ea5f 2141 	movsne.w	r1, r1, lsl #9
    135a:	d01e      	beq.n	139a <__aeabi_fmul+0x66>
    135c:	f04f 6300 	mov.w	r3, #134217728	; 0x8000000
    1360:	ea43 1050 	orr.w	r0, r3, r0, lsr #5
    1364:	ea43 1151 	orr.w	r1, r3, r1, lsr #5
    1368:	fba0 3101 	umull	r3, r1, r0, r1
    136c:	f00c 4000 	and.w	r0, ip, #2147483648	; 0x80000000
    1370:	f5b1 0f00 	cmp.w	r1, #8388608	; 0x800000
    1374:	bf3e      	ittt	cc
    1376:	0049      	lslcc	r1, r1, #1
    1378:	ea41 71d3 	orrcc.w	r1, r1, r3, lsr #31
    137c:	005b      	lslcc	r3, r3, #1
    137e:	ea40 0001 	orr.w	r0, r0, r1
    1382:	f162 027f 	sbc.w	r2, r2, #127	; 0x7f
    1386:	2afd      	cmp	r2, #253	; 0xfd
    1388:	d81d      	bhi.n	13c6 <__aeabi_fmul+0x92>
    138a:	f1b3 4f00 	cmp.w	r3, #2147483648	; 0x80000000
    138e:	eb40 50c2 	adc.w	r0, r0, r2, lsl #23
    1392:	bf08      	it	eq
    1394:	f020 0001 	biceq.w	r0, r0, #1
    1398:	4770      	bx	lr
    139a:	f090 0f00 	teq	r0, #0
    139e:	f00c 4c00 	and.w	ip, ip, #2147483648	; 0x80000000
    13a2:	bf08      	it	eq
    13a4:	0249      	lsleq	r1, r1, #9
    13a6:	ea4c 2050 	orr.w	r0, ip, r0, lsr #9
    13aa:	ea40 2051 	orr.w	r0, r0, r1, lsr #9
    13ae:	3a7f      	subs	r2, #127	; 0x7f
    13b0:	bfc2      	ittt	gt
    13b2:	f1d2 03ff 	rsbsgt	r3, r2, #255	; 0xff
    13b6:	ea40 50c2 	orrgt.w	r0, r0, r2, lsl #23
    13ba:	4770      	bxgt	lr
    13bc:	f440 0000 	orr.w	r0, r0, #8388608	; 0x800000
    13c0:	f04f 0300 	mov.w	r3, #0
    13c4:	3a01      	subs	r2, #1
    13c6:	dc5d      	bgt.n	1484 <__aeabi_fmul+0x150>
    13c8:	f112 0f19 	cmn.w	r2, #25
    13cc:	bfdc      	itt	le
    13ce:	f000 4000 	andle.w	r0, r0, #2147483648	; 0x80000000
    13d2:	4770      	bxle	lr
    13d4:	f1c2 0200 	rsb	r2, r2, #0
    13d8:	0041      	lsls	r1, r0, #1
    13da:	fa21 f102 	lsr.w	r1, r1, r2
    13de:	f1c2 0220 	rsb	r2, r2, #32
    13e2:	fa00 fc02 	lsl.w	ip, r0, r2
    13e6:	ea5f 0031 	movs.w	r0, r1, rrx
    13ea:	f140 0000 	adc.w	r0, r0, #0
    13ee:	ea53 034c 	orrs.w	r3, r3, ip, lsl #1
    13f2:	bf08      	it	eq
    13f4:	ea20 70dc 	biceq.w	r0, r0, ip, lsr #31
    13f8:	4770      	bx	lr
    13fa:	f092 0f00 	teq	r2, #0
    13fe:	f000 4c00 	and.w	ip, r0, #2147483648	; 0x80000000
    1402:	bf02      	ittt	eq
    1404:	0040      	lsleq	r0, r0, #1
    1406:	f410 0f00 	tsteq.w	r0, #8388608	; 0x800000
    140a:	3a01      	subeq	r2, #1
    140c:	d0f9      	beq.n	1402 <__aeabi_fmul+0xce>
    140e:	ea40 000c 	orr.w	r0, r0, ip
    1412:	f093 0f00 	teq	r3, #0
    1416:	f001 4c00 	and.w	ip, r1, #2147483648	; 0x80000000
    141a:	bf02      	ittt	eq
    141c:	0049      	lsleq	r1, r1, #1
    141e:	f411 0f00 	tsteq.w	r1, #8388608	; 0x800000
    1422:	3b01      	subeq	r3, #1
    1424:	d0f9      	beq.n	141a <__aeabi_fmul+0xe6>
    1426:	ea41 010c 	orr.w	r1, r1, ip
    142a:	e78f      	b.n	134c <__aeabi_fmul+0x18>
    142c:	ea0c 53d1 	and.w	r3, ip, r1, lsr #23
    1430:	ea92 0f0c 	teq	r2, ip
    1434:	bf18      	it	ne
    1436:	ea93 0f0c 	teqne	r3, ip
    143a:	d00a      	beq.n	1452 <__aeabi_fmul+0x11e>
    143c:	f030 4c00 	bics.w	ip, r0, #2147483648	; 0x80000000
    1440:	bf18      	it	ne
    1442:	f031 4c00 	bicsne.w	ip, r1, #2147483648	; 0x80000000
    1446:	d1d8      	bne.n	13fa <__aeabi_fmul+0xc6>
    1448:	ea80 0001 	eor.w	r0, r0, r1
    144c:	f000 4000 	and.w	r0, r0, #2147483648	; 0x80000000
    1450:	4770      	bx	lr
    1452:	f090 0f00 	teq	r0, #0
    1456:	bf17      	itett	ne
    1458:	f090 4f00 	teqne	r0, #2147483648	; 0x80000000
    145c:	4608      	moveq	r0, r1
    145e:	f091 0f00 	teqne	r1, #0
    1462:	f091 4f00 	teqne	r1, #2147483648	; 0x80000000
    1466:	d014      	beq.n	1492 <__aeabi_fmul+0x15e>
    1468:	ea92 0f0c 	teq	r2, ip
    146c:	d101      	bne.n	1472 <__aeabi_fmul+0x13e>
    146e:	0242      	lsls	r2, r0, #9
    1470:	d10f      	bne.n	1492 <__aeabi_fmul+0x15e>
    1472:	ea93 0f0c 	teq	r3, ip
    1476:	d103      	bne.n	1480 <__aeabi_fmul+0x14c>
    1478:	024b      	lsls	r3, r1, #9
    147a:	bf18      	it	ne
    147c:	4608      	movne	r0, r1
    147e:	d108      	bne.n	1492 <__aeabi_fmul+0x15e>
    1480:	ea80 0001 	eor.w	r0, r0, r1
    1484:	f000 4000 	and.w	r0, r0, #2147483648	; 0x80000000
    1488:	f040 40fe 	orr.w	r0, r0, #2130706432	; 0x7f000000
    148c:	f440 0000 	orr.w	r0, r0, #8388608	; 0x800000
    1490:	4770      	bx	lr
    1492:	f040 40fe 	orr.w	r0, r0, #2130706432	; 0x7f000000
    1496:	f440 0040 	orr.w	r0, r0, #12582912	; 0xc00000
    149a:	4770      	bx	lr

0000149c <__aeabi_fdiv>:
    149c:	f04f 0cff 	mov.w	ip, #255	; 0xff
    14a0:	ea1c 52d0 	ands.w	r2, ip, r0, lsr #23
    14a4:	bf1e      	ittt	ne
    14a6:	ea1c 53d1 	andsne.w	r3, ip, r1, lsr #23
    14aa:	ea92 0f0c 	teqne	r2, ip
    14ae:	ea93 0f0c 	teqne	r3, ip
    14b2:	d069      	beq.n	1588 <__aeabi_fdiv+0xec>
    14b4:	eba2 0203 	sub.w	r2, r2, r3
    14b8:	ea80 0c01 	eor.w	ip, r0, r1
    14bc:	0249      	lsls	r1, r1, #9
    14be:	ea4f 2040 	mov.w	r0, r0, lsl #9
    14c2:	d037      	beq.n	1534 <__aeabi_fdiv+0x98>
    14c4:	f04f 5380 	mov.w	r3, #268435456	; 0x10000000
    14c8:	ea43 1111 	orr.w	r1, r3, r1, lsr #4
    14cc:	ea43 1310 	orr.w	r3, r3, r0, lsr #4
    14d0:	f00c 4000 	and.w	r0, ip, #2147483648	; 0x80000000
    14d4:	428b      	cmp	r3, r1
    14d6:	bf38      	it	cc
    14d8:	005b      	lslcc	r3, r3, #1
    14da:	f142 027d 	adc.w	r2, r2, #125	; 0x7d
    14de:	f44f 0c00 	mov.w	ip, #8388608	; 0x800000
    14e2:	428b      	cmp	r3, r1
    14e4:	bf24      	itt	cs
    14e6:	1a5b      	subcs	r3, r3, r1
    14e8:	ea40 000c 	orrcs.w	r0, r0, ip
    14ec:	ebb3 0f51 	cmp.w	r3, r1, lsr #1
    14f0:	bf24      	itt	cs
    14f2:	eba3 0351 	subcs.w	r3, r3, r1, lsr #1
    14f6:	ea40 005c 	orrcs.w	r0, r0, ip, lsr #1
    14fa:	ebb3 0f91 	cmp.w	r3, r1, lsr #2
    14fe:	bf24      	itt	cs
    1500:	eba3 0391 	subcs.w	r3, r3, r1, lsr #2
    1504:	ea40 009c 	orrcs.w	r0, r0, ip, lsr #2
    1508:	ebb3 0fd1 	cmp.w	r3, r1, lsr #3
    150c:	bf24      	itt	cs
    150e:	eba3 03d1 	subcs.w	r3, r3, r1, lsr #3
    1512:	ea40 00dc 	orrcs.w	r0, r0, ip, lsr #3
    1516:	011b      	lsls	r3, r3, #4
    1518:	bf18      	it	ne
    151a:	ea5f 1c1c 	movsne.w	ip, ip, lsr #4
    151e:	d1e0      	bne.n	14e2 <__aeabi_fdiv+0x46>
    1520:	2afd      	cmp	r2, #253	; 0xfd
    1522:	f63f af50 	bhi.w	13c6 <__aeabi_fmul+0x92>
    1526:	428b      	cmp	r3, r1
    1528:	eb40 50c2 	adc.w	r0, r0, r2, lsl #23
    152c:	bf08      	it	eq
    152e:	f020 0001 	biceq.w	r0, r0, #1
    1532:	4770      	bx	lr
    1534:	f00c 4c00 	and.w	ip, ip, #2147483648	; 0x80000000
    1538:	ea4c 2050 	orr.w	r0, ip, r0, lsr #9
    153c:	327f      	adds	r2, #127	; 0x7f
    153e:	bfc2      	ittt	gt
    1540:	f1d2 03ff 	rsbsgt	r3, r2, #255	; 0xff
    1544:	ea40 50c2 	orrgt.w	r0, r0, r2, lsl #23
    1548:	4770      	bxgt	lr
    154a:	f440 0000 	orr.w	r0, r0, #8388608	; 0x800000
    154e:	f04f 0300 	mov.w	r3, #0
    1552:	3a01      	subs	r2, #1
    1554:	e737      	b.n	13c6 <__aeabi_fmul+0x92>
    1556:	f092 0f00 	teq	r2, #0
    155a:	f000 4c00 	and.w	ip, r0, #2147483648	; 0x80000000
    155e:	bf02      	ittt	eq
    1560:	0040      	lsleq	r0, r0, #1
    1562:	f410 0f00 	tsteq.w	r0, #8388608	; 0x800000
    1566:	3a01      	subeq	r2, #1
    1568:	d0f9      	beq.n	155e <__aeabi_fdiv+0xc2>
    156a:	ea40 000c 	orr.w	r0, r0, ip
    156e:	f093 0f00 	teq	r3, #0
    1572:	f001 4c00 	and.w	ip, r1, #2147483648	; 0x80000000
    1576:	bf02      	ittt	eq
    1578:	0049      	lsleq	r1, r1, #1
    157a:	f411 0f00 	tsteq.w	r1, #8388608	; 0x800000
    157e:	3b01      	subeq	r3, #1
    1580:	d0f9      	beq.n	1576 <__aeabi_fdiv+0xda>
    1582:	ea41 010c 	orr.w	r1, r1, ip
    1586:	e795      	b.n	14b4 <__aeabi_fdiv+0x18>
    1588:	ea0c 53d1 	and.w	r3, ip, r1, lsr #23
    158c:	ea92 0f0c 	teq	r2, ip
    1590:	d108      	bne.n	15a4 <__aeabi_fdiv+0x108>
    1592:	0242      	lsls	r2, r0, #9
    1594:	f47f af7d 	bne.w	1492 <__aeabi_fmul+0x15e>
    1598:	ea93 0f0c 	teq	r3, ip
    159c:	f47f af70 	bne.w	1480 <__aeabi_fmul+0x14c>
    15a0:	4608      	mov	r0, r1
    15a2:	e776      	b.n	1492 <__aeabi_fmul+0x15e>
    15a4:	ea93 0f0c 	teq	r3, ip
    15a8:	d104      	bne.n	15b4 <__aeabi_fdiv+0x118>
    15aa:	024b      	lsls	r3, r1, #9
    15ac:	f43f af4c 	beq.w	1448 <__aeabi_fmul+0x114>
    15b0:	4608      	mov	r0, r1
    15b2:	e76e      	b.n	1492 <__aeabi_fmul+0x15e>
    15b4:	f030 4c00 	bics.w	ip, r0, #2147483648	; 0x80000000
    15b8:	bf18      	it	ne
    15ba:	f031 4c00 	bicsne.w	ip, r1, #2147483648	; 0x80000000
    15be:	d1ca      	bne.n	1556 <__aeabi_fdiv+0xba>
    15c0:	f030 4200 	bics.w	r2, r0, #2147483648	; 0x80000000
    15c4:	f47f af5c 	bne.w	1480 <__aeabi_fmul+0x14c>
    15c8:	f031 4300 	bics.w	r3, r1, #2147483648	; 0x80000000
    15cc:	f47f af3c 	bne.w	1448 <__aeabi_fmul+0x114>
    15d0:	e75f      	b.n	1492 <__aeabi_fmul+0x15e>
    15d2:	bf00      	nop

000015d4 <__gesf2>:
    15d4:	f04f 3cff 	mov.w	ip, #4294967295	; 0xffffffff
    15d8:	e006      	b.n	15e8 <__cmpsf2+0x4>
    15da:	bf00      	nop

000015dc <__lesf2>:
    15dc:	f04f 0c01 	mov.w	ip, #1
    15e0:	e002      	b.n	15e8 <__cmpsf2+0x4>
    15e2:	bf00      	nop

000015e4 <__cmpsf2>:
    15e4:	f04f 0c01 	mov.w	ip, #1
    15e8:	f84d cd04 	str.w	ip, [sp, #-4]!
    15ec:	ea4f 0240 	mov.w	r2, r0, lsl #1
    15f0:	ea4f 0341 	mov.w	r3, r1, lsl #1
    15f4:	ea7f 6c22 	mvns.w	ip, r2, asr #24
    15f8:	bf18      	it	ne
    15fa:	ea7f 6c23 	mvnsne.w	ip, r3, asr #24
    15fe:	d011      	beq.n	1624 <__cmpsf2+0x40>
    1600:	b001      	add	sp, #4
    1602:	ea52 0c53 	orrs.w	ip, r2, r3, lsr #1
    1606:	bf18      	it	ne
    1608:	ea90 0f01 	teqne	r0, r1
    160c:	bf58      	it	pl
    160e:	ebb2 0003 	subspl.w	r0, r2, r3
    1612:	bf88      	it	hi
    1614:	17c8      	asrhi	r0, r1, #31
    1616:	bf38      	it	cc
    1618:	ea6f 70e1 	mvncc.w	r0, r1, asr #31
    161c:	bf18      	it	ne
    161e:	f040 0001 	orrne.w	r0, r0, #1
    1622:	4770      	bx	lr
    1624:	ea7f 6c22 	mvns.w	ip, r2, asr #24
    1628:	d102      	bne.n	1630 <__cmpsf2+0x4c>
    162a:	ea5f 2c40 	movs.w	ip, r0, lsl #9
    162e:	d105      	bne.n	163c <__cmpsf2+0x58>
    1630:	ea7f 6c23 	mvns.w	ip, r3, asr #24
    1634:	d1e4      	bne.n	1600 <__cmpsf2+0x1c>
    1636:	ea5f 2c41 	movs.w	ip, r1, lsl #9
    163a:	d0e1      	beq.n	1600 <__cmpsf2+0x1c>
    163c:	f85d 0b04 	ldr.w	r0, [sp], #4
    1640:	4770      	bx	lr
    1642:	bf00      	nop

00001644 <__aeabi_cfrcmple>:
    1644:	4684      	mov	ip, r0
    1646:	4608      	mov	r0, r1
    1648:	4661      	mov	r1, ip
    164a:	e7ff      	b.n	164c <__aeabi_cfcmpeq>

0000164c <__aeabi_cfcmpeq>:
    164c:	b50f      	push	{r0, r1, r2, r3, lr}
    164e:	f7ff ffc9 	bl	15e4 <__cmpsf2>
    1652:	2800      	cmp	r0, #0
    1654:	bf48      	it	mi
    1656:	f110 0f00 	cmnmi.w	r0, #0
    165a:	bd0f      	pop	{r0, r1, r2, r3, pc}

0000165c <__aeabi_fcmpeq>:
    165c:	f84d ed08 	str.w	lr, [sp, #-8]!
    1660:	f7ff fff4 	bl	164c <__aeabi_cfcmpeq>
    1664:	bf0c      	ite	eq
    1666:	2001      	moveq	r0, #1
    1668:	2000      	movne	r0, #0
    166a:	f85d fb08 	ldr.w	pc, [sp], #8
    166e:	bf00      	nop

00001670 <__aeabi_fcmplt>:
    1670:	f84d ed08 	str.w	lr, [sp, #-8]!
    1674:	f7ff ffea 	bl	164c <__aeabi_cfcmpeq>
    1678:	bf34      	ite	cc
    167a:	2001      	movcc	r0, #1
    167c:	2000      	movcs	r0, #0
    167e:	f85d fb08 	ldr.w	pc, [sp], #8
    1682:	bf00      	nop

00001684 <__aeabi_fcmple>:
    1684:	f84d ed08 	str.w	lr, [sp, #-8]!
    1688:	f7ff ffe0 	bl	164c <__aeabi_cfcmpeq>
    168c:	bf94      	ite	ls
    168e:	2001      	movls	r0, #1
    1690:	2000      	movhi	r0, #0
    1692:	f85d fb08 	ldr.w	pc, [sp], #8
    1696:	bf00      	nop

00001698 <__aeabi_fcmpge>:
    1698:	f84d ed08 	str.w	lr, [sp, #-8]!
    169c:	f7ff ffd2 	bl	1644 <__aeabi_cfrcmple>
    16a0:	bf94      	ite	ls
    16a2:	2001      	movls	r0, #1
    16a4:	2000      	movhi	r0, #0
    16a6:	f85d fb08 	ldr.w	pc, [sp], #8
    16aa:	bf00      	nop

000016ac <__aeabi_fcmpgt>:
    16ac:	f84d ed08 	str.w	lr, [sp, #-8]!
    16b0:	f7ff ffc8 	bl	1644 <__aeabi_cfrcmple>
    16b4:	bf34      	ite	cc
    16b6:	2001      	movcc	r0, #1
    16b8:	2000      	movcs	r0, #0
    16ba:	f85d fb08 	ldr.w	pc, [sp], #8
    16be:	bf00      	nop

000016c0 <__aeabi_f2iz>:
    16c0:	ea4f 0240 	mov.w	r2, r0, lsl #1
    16c4:	f1b2 4ffe 	cmp.w	r2, #2130706432	; 0x7f000000
    16c8:	d30f      	bcc.n	16ea <__aeabi_f2iz+0x2a>
    16ca:	f04f 039e 	mov.w	r3, #158	; 0x9e
    16ce:	ebb3 6212 	subs.w	r2, r3, r2, lsr #24
    16d2:	d90d      	bls.n	16f0 <__aeabi_f2iz+0x30>
    16d4:	ea4f 2300 	mov.w	r3, r0, lsl #8
    16d8:	f043 4300 	orr.w	r3, r3, #2147483648	; 0x80000000
    16dc:	f010 4f00 	tst.w	r0, #2147483648	; 0x80000000
    16e0:	fa23 f002 	lsr.w	r0, r3, r2
    16e4:	bf18      	it	ne
    16e6:	4240      	negne	r0, r0
    16e8:	4770      	bx	lr
    16ea:	f04f 0000 	mov.w	r0, #0
    16ee:	4770      	bx	lr
    16f0:	f112 0f61 	cmn.w	r2, #97	; 0x61
    16f4:	d101      	bne.n	16fa <__aeabi_f2iz+0x3a>
    16f6:	0242      	lsls	r2, r0, #9
    16f8:	d105      	bne.n	1706 <__aeabi_f2iz+0x46>
    16fa:	f010 4000 	ands.w	r0, r0, #2147483648	; 0x80000000
    16fe:	bf08      	it	eq
    1700:	f06f 4000 	mvneq.w	r0, #2147483648	; 0x80000000
    1704:	4770      	bx	lr
    1706:	f04f 0000 	mov.w	r0, #0
    170a:	4770      	bx	lr

0000170c <atexit>:
    170c:	2300      	movs	r3, #0
    170e:	4601      	mov	r1, r0
    1710:	461a      	mov	r2, r3
    1712:	4618      	mov	r0, r3
    1714:	f000 b934 	b.w	1980 <__register_exitproc>

00001718 <exit>:
    1718:	b508      	push	{r3, lr}
    171a:	4b07      	ldr	r3, [pc, #28]	; (1738 <exit+0x20>)
    171c:	4604      	mov	r4, r0
    171e:	b113      	cbz	r3, 1726 <exit+0xe>
    1720:	2100      	movs	r1, #0
    1722:	f000 f989 	bl	1a38 <__call_exitprocs>
    1726:	4b05      	ldr	r3, [pc, #20]	; (173c <exit+0x24>)
    1728:	6818      	ldr	r0, [r3, #0]
    172a:	6a83      	ldr	r3, [r0, #40]	; 0x28
    172c:	b103      	cbz	r3, 1730 <exit+0x18>
    172e:	4798      	blx	r3
    1730:	4620      	mov	r0, r4
    1732:	f000 fd49 	bl	21c8 <_exit>
    1736:	bf00      	nop
    1738:	00001a39 	andeq	r1, r0, r9, lsr sl
    173c:	000022d4 	ldrdeq	r2, [r0], -r4

00001740 <__libc_fini_array>:
    1740:	b538      	push	{r3, r4, r5, lr}
    1742:	4b07      	ldr	r3, [pc, #28]	; (1760 <__libc_fini_array+0x20>)
    1744:	4c07      	ldr	r4, [pc, #28]	; (1764 <__libc_fini_array+0x24>)
    1746:	1ae4      	subs	r4, r4, r3
    1748:	10a4      	asrs	r4, r4, #2
    174a:	461d      	mov	r5, r3
    174c:	b124      	cbz	r4, 1758 <__libc_fini_array+0x18>
    174e:	3c01      	subs	r4, #1
    1750:	f855 3024 	ldr.w	r3, [r5, r4, lsl #2]
    1754:	4798      	blx	r3
    1756:	e7f9      	b.n	174c <__libc_fini_array+0xc>
    1758:	e8bd 4038 	ldmia.w	sp!, {r3, r4, r5, lr}
    175c:	f000 bd3c 	b.w	21d8 <_fini>
    1760:	1fff0204 	svcne	0x00ff0204
    1764:	1fff0208 	svcne	0x00ff0208

00001768 <__libc_init_array>:
    1768:	b570      	push	{r4, r5, r6, lr}
    176a:	4b0e      	ldr	r3, [pc, #56]	; (17a4 <__libc_init_array+0x3c>)
    176c:	4c0e      	ldr	r4, [pc, #56]	; (17a8 <__libc_init_array+0x40>)
    176e:	1ae4      	subs	r4, r4, r3
    1770:	10a4      	asrs	r4, r4, #2
    1772:	2500      	movs	r5, #0
    1774:	461e      	mov	r6, r3
    1776:	42a5      	cmp	r5, r4
    1778:	d004      	beq.n	1784 <__libc_init_array+0x1c>
    177a:	f856 3025 	ldr.w	r3, [r6, r5, lsl #2]
    177e:	4798      	blx	r3
    1780:	3501      	adds	r5, #1
    1782:	e7f8      	b.n	1776 <__libc_init_array+0xe>
    1784:	f000 fd22 	bl	21cc <_init>
    1788:	4c08      	ldr	r4, [pc, #32]	; (17ac <__libc_init_array+0x44>)
    178a:	4b09      	ldr	r3, [pc, #36]	; (17b0 <__libc_init_array+0x48>)
    178c:	1ae4      	subs	r4, r4, r3
    178e:	10a4      	asrs	r4, r4, #2
    1790:	2500      	movs	r5, #0
    1792:	461e      	mov	r6, r3
    1794:	42a5      	cmp	r5, r4
    1796:	d004      	beq.n	17a2 <__libc_init_array+0x3a>
    1798:	f856 3025 	ldr.w	r3, [r6, r5, lsl #2]
    179c:	4798      	blx	r3
    179e:	3501      	adds	r5, #1
    17a0:	e7f8      	b.n	1794 <__libc_init_array+0x2c>
    17a2:	bd70      	pop	{r4, r5, r6, pc}
    17a4:	1fff0200 	svcne	0x00ff0200
    17a8:	1fff0200 	svcne	0x00ff0200
    17ac:	1fff0204 	svcne	0x00ff0204
    17b0:	1fff0200 	svcne	0x00ff0200

000017b4 <malloc>:
    17b4:	4b02      	ldr	r3, [pc, #8]	; (17c0 <malloc+0xc>)
    17b6:	4601      	mov	r1, r0
    17b8:	6818      	ldr	r0, [r3, #0]
    17ba:	f000 b859 	b.w	1870 <_malloc_r>
    17be:	bf00      	nop
    17c0:	1fff01fc 	svcne	0x00ff01fc

000017c4 <free>:
    17c4:	4b02      	ldr	r3, [pc, #8]	; (17d0 <free+0xc>)
    17c6:	4601      	mov	r1, r0
    17c8:	6818      	ldr	r0, [r3, #0]
    17ca:	f000 b80b 	b.w	17e4 <_free_r>
    17ce:	bf00      	nop
    17d0:	1fff01fc 	svcne	0x00ff01fc

000017d4 <memset>:
    17d4:	4402      	add	r2, r0
    17d6:	4603      	mov	r3, r0
    17d8:	4293      	cmp	r3, r2
    17da:	d002      	beq.n	17e2 <memset+0xe>
    17dc:	f803 1b01 	strb.w	r1, [r3], #1
    17e0:	e7fa      	b.n	17d8 <memset+0x4>
    17e2:	4770      	bx	lr

000017e4 <_free_r>:
    17e4:	b530      	push	{r4, r5, lr}
    17e6:	2900      	cmp	r1, #0
    17e8:	d03e      	beq.n	1868 <_free_r+0x84>
    17ea:	f851 2c04 	ldr.w	r2, [r1, #-4]
    17ee:	1f0b      	subs	r3, r1, #4
    17f0:	491e      	ldr	r1, [pc, #120]	; (186c <_free_r+0x88>)
    17f2:	2a00      	cmp	r2, #0
    17f4:	bfb8      	it	lt
    17f6:	189b      	addlt	r3, r3, r2
    17f8:	680a      	ldr	r2, [r1, #0]
    17fa:	460c      	mov	r4, r1
    17fc:	b912      	cbnz	r2, 1804 <_free_r+0x20>
    17fe:	605a      	str	r2, [r3, #4]
    1800:	600b      	str	r3, [r1, #0]
    1802:	bd30      	pop	{r4, r5, pc}
    1804:	429a      	cmp	r2, r3
    1806:	d90e      	bls.n	1826 <_free_r+0x42>
    1808:	6819      	ldr	r1, [r3, #0]
    180a:	1858      	adds	r0, r3, r1
    180c:	4282      	cmp	r2, r0
    180e:	bf04      	itt	eq
    1810:	6810      	ldreq	r0, [r2, #0]
    1812:	6852      	ldreq	r2, [r2, #4]
    1814:	605a      	str	r2, [r3, #4]
    1816:	bf04      	itt	eq
    1818:	1809      	addeq	r1, r1, r0
    181a:	6019      	streq	r1, [r3, #0]
    181c:	6023      	str	r3, [r4, #0]
    181e:	bd30      	pop	{r4, r5, pc}
    1820:	4299      	cmp	r1, r3
    1822:	d803      	bhi.n	182c <_free_r+0x48>
    1824:	460a      	mov	r2, r1
    1826:	6851      	ldr	r1, [r2, #4]
    1828:	2900      	cmp	r1, #0
    182a:	d1f9      	bne.n	1820 <_free_r+0x3c>
    182c:	6814      	ldr	r4, [r2, #0]
    182e:	1915      	adds	r5, r2, r4
    1830:	429d      	cmp	r5, r3
    1832:	d10a      	bne.n	184a <_free_r+0x66>
    1834:	681b      	ldr	r3, [r3, #0]
    1836:	4423      	add	r3, r4
    1838:	18d0      	adds	r0, r2, r3
    183a:	4281      	cmp	r1, r0
    183c:	6013      	str	r3, [r2, #0]
    183e:	d113      	bne.n	1868 <_free_r+0x84>
    1840:	6808      	ldr	r0, [r1, #0]
    1842:	4403      	add	r3, r0
    1844:	6013      	str	r3, [r2, #0]
    1846:	684b      	ldr	r3, [r1, #4]
    1848:	e00d      	b.n	1866 <_free_r+0x82>
    184a:	d902      	bls.n	1852 <_free_r+0x6e>
    184c:	230c      	movs	r3, #12
    184e:	6003      	str	r3, [r0, #0]
    1850:	bd30      	pop	{r4, r5, pc}
    1852:	6818      	ldr	r0, [r3, #0]
    1854:	181c      	adds	r4, r3, r0
    1856:	42a1      	cmp	r1, r4
    1858:	bf04      	itt	eq
    185a:	680c      	ldreq	r4, [r1, #0]
    185c:	6849      	ldreq	r1, [r1, #4]
    185e:	6059      	str	r1, [r3, #4]
    1860:	bf04      	itt	eq
    1862:	1900      	addeq	r0, r0, r4
    1864:	6018      	streq	r0, [r3, #0]
    1866:	6053      	str	r3, [r2, #4]
    1868:	bd30      	pop	{r4, r5, pc}
    186a:	bf00      	nop
    186c:	1fff0234 	svcne	0x00ff0234

00001870 <_malloc_r>:
    1870:	b570      	push	{r4, r5, r6, lr}
    1872:	1ccd      	adds	r5, r1, #3
    1874:	f025 0503 	bic.w	r5, r5, #3
    1878:	3508      	adds	r5, #8
    187a:	2d0c      	cmp	r5, #12
    187c:	bf38      	it	cc
    187e:	250c      	movcc	r5, #12
    1880:	2d00      	cmp	r5, #0
    1882:	4606      	mov	r6, r0
    1884:	da03      	bge.n	188e <_malloc_r+0x1e>
    1886:	230c      	movs	r3, #12
    1888:	6033      	str	r3, [r6, #0]
    188a:	2000      	movs	r0, #0
    188c:	bd70      	pop	{r4, r5, r6, pc}
    188e:	42a9      	cmp	r1, r5
    1890:	d8f9      	bhi.n	1886 <_malloc_r+0x16>
    1892:	4b1f      	ldr	r3, [pc, #124]	; (1910 <_malloc_r+0xa0>)
    1894:	681c      	ldr	r4, [r3, #0]
    1896:	461a      	mov	r2, r3
    1898:	4621      	mov	r1, r4
    189a:	b1a1      	cbz	r1, 18c6 <_malloc_r+0x56>
    189c:	680b      	ldr	r3, [r1, #0]
    189e:	1b5b      	subs	r3, r3, r5
    18a0:	d40e      	bmi.n	18c0 <_malloc_r+0x50>
    18a2:	2b0b      	cmp	r3, #11
    18a4:	d903      	bls.n	18ae <_malloc_r+0x3e>
    18a6:	600b      	str	r3, [r1, #0]
    18a8:	18cc      	adds	r4, r1, r3
    18aa:	50cd      	str	r5, [r1, r3]
    18ac:	e01e      	b.n	18ec <_malloc_r+0x7c>
    18ae:	428c      	cmp	r4, r1
    18b0:	bf0d      	iteet	eq
    18b2:	6863      	ldreq	r3, [r4, #4]
    18b4:	684b      	ldrne	r3, [r1, #4]
    18b6:	6063      	strne	r3, [r4, #4]
    18b8:	6013      	streq	r3, [r2, #0]
    18ba:	bf18      	it	ne
    18bc:	460c      	movne	r4, r1
    18be:	e015      	b.n	18ec <_malloc_r+0x7c>
    18c0:	460c      	mov	r4, r1
    18c2:	6849      	ldr	r1, [r1, #4]
    18c4:	e7e9      	b.n	189a <_malloc_r+0x2a>
    18c6:	4c13      	ldr	r4, [pc, #76]	; (1914 <_malloc_r+0xa4>)
    18c8:	6823      	ldr	r3, [r4, #0]
    18ca:	b91b      	cbnz	r3, 18d4 <_malloc_r+0x64>
    18cc:	4630      	mov	r0, r6
    18ce:	f000 f823 	bl	1918 <_sbrk_r>
    18d2:	6020      	str	r0, [r4, #0]
    18d4:	4629      	mov	r1, r5
    18d6:	4630      	mov	r0, r6
    18d8:	f000 f81e 	bl	1918 <_sbrk_r>
    18dc:	1c43      	adds	r3, r0, #1
    18de:	d0d2      	beq.n	1886 <_malloc_r+0x16>
    18e0:	1cc4      	adds	r4, r0, #3
    18e2:	f024 0403 	bic.w	r4, r4, #3
    18e6:	42a0      	cmp	r0, r4
    18e8:	d10a      	bne.n	1900 <_malloc_r+0x90>
    18ea:	6025      	str	r5, [r4, #0]
    18ec:	f104 000b 	add.w	r0, r4, #11
    18f0:	1d23      	adds	r3, r4, #4
    18f2:	f020 0007 	bic.w	r0, r0, #7
    18f6:	1ac3      	subs	r3, r0, r3
    18f8:	d009      	beq.n	190e <_malloc_r+0x9e>
    18fa:	425a      	negs	r2, r3
    18fc:	50e2      	str	r2, [r4, r3]
    18fe:	bd70      	pop	{r4, r5, r6, pc}
    1900:	1a21      	subs	r1, r4, r0
    1902:	4630      	mov	r0, r6
    1904:	f000 f808 	bl	1918 <_sbrk_r>
    1908:	3001      	adds	r0, #1
    190a:	d1ee      	bne.n	18ea <_malloc_r+0x7a>
    190c:	e7bb      	b.n	1886 <_malloc_r+0x16>
    190e:	bd70      	pop	{r4, r5, r6, pc}
    1910:	1fff0234 	svcne	0x00ff0234
    1914:	1fff0230 	svcne	0x00ff0230

00001918 <_sbrk_r>:
    1918:	b538      	push	{r3, r4, r5, lr}
    191a:	4c06      	ldr	r4, [pc, #24]	; (1934 <_sbrk_r+0x1c>)
    191c:	2300      	movs	r3, #0
    191e:	4605      	mov	r5, r0
    1920:	4608      	mov	r0, r1
    1922:	6023      	str	r3, [r4, #0]
    1924:	f000 fc42 	bl	21ac <_sbrk>
    1928:	1c43      	adds	r3, r0, #1
    192a:	d102      	bne.n	1932 <_sbrk_r+0x1a>
    192c:	6823      	ldr	r3, [r4, #0]
    192e:	b103      	cbz	r3, 1932 <_sbrk_r+0x1a>
    1930:	602b      	str	r3, [r5, #0]
    1932:	bd38      	pop	{r3, r4, r5, pc}
    1934:	1fff0374 	svcne	0x00ff0374

00001938 <siprintf>:
    1938:	b40e      	push	{r1, r2, r3}
    193a:	b500      	push	{lr}
    193c:	b09c      	sub	sp, #112	; 0x70
    193e:	f44f 7102 	mov.w	r1, #520	; 0x208
    1942:	ab1d      	add	r3, sp, #116	; 0x74
    1944:	f8ad 1014 	strh.w	r1, [sp, #20]
    1948:	9002      	str	r0, [sp, #8]
    194a:	9006      	str	r0, [sp, #24]
    194c:	f06f 4100 	mvn.w	r1, #2147483648	; 0x80000000
    1950:	480a      	ldr	r0, [pc, #40]	; (197c <siprintf+0x44>)
    1952:	9104      	str	r1, [sp, #16]
    1954:	9107      	str	r1, [sp, #28]
    1956:	f64f 71ff 	movw	r1, #65535	; 0xffff
    195a:	f853 2b04 	ldr.w	r2, [r3], #4
    195e:	f8ad 1016 	strh.w	r1, [sp, #22]
    1962:	6800      	ldr	r0, [r0, #0]
    1964:	9301      	str	r3, [sp, #4]
    1966:	a902      	add	r1, sp, #8
    1968:	f000 f92a 	bl	1bc0 <_svfiprintf_r>
    196c:	9b02      	ldr	r3, [sp, #8]
    196e:	2200      	movs	r2, #0
    1970:	701a      	strb	r2, [r3, #0]
    1972:	b01c      	add	sp, #112	; 0x70
    1974:	f85d eb04 	ldr.w	lr, [sp], #4
    1978:	b003      	add	sp, #12
    197a:	4770      	bx	lr
    197c:	1fff01fc 	svcne	0x00ff01fc

00001980 <__register_exitproc>:
    1980:	e92d 43f8 	stmdb	sp!, {r3, r4, r5, r6, r7, r8, r9, lr}
    1984:	4d29      	ldr	r5, [pc, #164]	; (1a2c <__register_exitproc+0xac>)
    1986:	682c      	ldr	r4, [r5, #0]
    1988:	4606      	mov	r6, r0
    198a:	460f      	mov	r7, r1
    198c:	4691      	mov	r9, r2
    198e:	4698      	mov	r8, r3
    1990:	b90c      	cbnz	r4, 1996 <__register_exitproc+0x16>
    1992:	4c27      	ldr	r4, [pc, #156]	; (1a30 <__register_exitproc+0xb0>)
    1994:	602c      	str	r4, [r5, #0]
    1996:	6863      	ldr	r3, [r4, #4]
    1998:	2b1f      	cmp	r3, #31
    199a:	dd14      	ble.n	19c6 <__register_exitproc+0x46>
    199c:	4b25      	ldr	r3, [pc, #148]	; (1a34 <__register_exitproc+0xb4>)
    199e:	b91b      	cbnz	r3, 19a8 <__register_exitproc+0x28>
    19a0:	f04f 30ff 	mov.w	r0, #4294967295	; 0xffffffff
    19a4:	e8bd 83f8 	ldmia.w	sp!, {r3, r4, r5, r6, r7, r8, r9, pc}
    19a8:	208c      	movs	r0, #140	; 0x8c
    19aa:	f7ff ff03 	bl	17b4 <malloc>
    19ae:	4604      	mov	r4, r0
    19b0:	2800      	cmp	r0, #0
    19b2:	d0f5      	beq.n	19a0 <__register_exitproc+0x20>
    19b4:	2300      	movs	r3, #0
    19b6:	682a      	ldr	r2, [r5, #0]
    19b8:	6002      	str	r2, [r0, #0]
    19ba:	6043      	str	r3, [r0, #4]
    19bc:	6028      	str	r0, [r5, #0]
    19be:	f8c0 3088 	str.w	r3, [r0, #136]	; 0x88
    19c2:	b34e      	cbz	r6, 1a18 <__register_exitproc+0x98>
    19c4:	e006      	b.n	19d4 <__register_exitproc+0x54>
    19c6:	b33e      	cbz	r6, 1a18 <__register_exitproc+0x98>
    19c8:	f8d4 0088 	ldr.w	r0, [r4, #136]	; 0x88
    19cc:	b978      	cbnz	r0, 19ee <__register_exitproc+0x6e>
    19ce:	4b19      	ldr	r3, [pc, #100]	; (1a34 <__register_exitproc+0xb4>)
    19d0:	2b00      	cmp	r3, #0
    19d2:	d0e5      	beq.n	19a0 <__register_exitproc+0x20>
    19d4:	f44f 7084 	mov.w	r0, #264	; 0x108
    19d8:	f7ff feec 	bl	17b4 <malloc>
    19dc:	2800      	cmp	r0, #0
    19de:	d0df      	beq.n	19a0 <__register_exitproc+0x20>
    19e0:	2300      	movs	r3, #0
    19e2:	f8c0 3100 	str.w	r3, [r0, #256]	; 0x100
    19e6:	f8c0 3104 	str.w	r3, [r0, #260]	; 0x104
    19ea:	f8c4 0088 	str.w	r0, [r4, #136]	; 0x88
    19ee:	6862      	ldr	r2, [r4, #4]
    19f0:	f840 9022 	str.w	r9, [r0, r2, lsl #2]
    19f4:	2301      	movs	r3, #1
    19f6:	4093      	lsls	r3, r2
    19f8:	eb00 0182 	add.w	r1, r0, r2, lsl #2
    19fc:	f8d0 2100 	ldr.w	r2, [r0, #256]	; 0x100
    1a00:	431a      	orrs	r2, r3
    1a02:	2e02      	cmp	r6, #2
    1a04:	f8c0 2100 	str.w	r2, [r0, #256]	; 0x100
    1a08:	f8c1 8080 	str.w	r8, [r1, #128]	; 0x80
    1a0c:	bf02      	ittt	eq
    1a0e:	f8d0 2104 	ldreq.w	r2, [r0, #260]	; 0x104
    1a12:	4313      	orreq	r3, r2
    1a14:	f8c0 3104 	streq.w	r3, [r0, #260]	; 0x104
    1a18:	6863      	ldr	r3, [r4, #4]
    1a1a:	1c5a      	adds	r2, r3, #1
    1a1c:	3302      	adds	r3, #2
    1a1e:	6062      	str	r2, [r4, #4]
    1a20:	2000      	movs	r0, #0
    1a22:	f844 7023 	str.w	r7, [r4, r3, lsl #2]
    1a26:	e8bd 83f8 	ldmia.w	sp!, {r3, r4, r5, r6, r7, r8, r9, pc}
    1a2a:	bf00      	nop
    1a2c:	1fff02c4 	svcne	0x00ff02c4
    1a30:	1fff0238 	svcne	0x00ff0238
    1a34:	000017b5 			; <UNDEFINED> instruction: 0x000017b5

00001a38 <__call_exitprocs>:
    1a38:	e92d 4ff7 	stmdb	sp!, {r0, r1, r2, r4, r5, r6, r7, r8, r9, sl, fp, lr}
    1a3c:	4689      	mov	r9, r1
    1a3e:	9001      	str	r0, [sp, #4]
    1a40:	4b30      	ldr	r3, [pc, #192]	; (1b04 <__call_exitprocs+0xcc>)
    1a42:	681c      	ldr	r4, [r3, #0]
    1a44:	4698      	mov	r8, r3
    1a46:	f04f 0b01 	mov.w	fp, #1
    1a4a:	2c00      	cmp	r4, #0
    1a4c:	d056      	beq.n	1afc <__call_exitprocs+0xc4>
    1a4e:	6865      	ldr	r5, [r4, #4]
    1a50:	f8d4 6088 	ldr.w	r6, [r4, #136]	; 0x88
    1a54:	1e6f      	subs	r7, r5, #1
    1a56:	00ad      	lsls	r5, r5, #2
    1a58:	eb06 0a05 	add.w	sl, r6, r5
    1a5c:	3504      	adds	r5, #4
    1a5e:	4425      	add	r5, r4
    1a60:	2f00      	cmp	r7, #0
    1a62:	db36      	blt.n	1ad2 <__call_exitprocs+0x9a>
    1a64:	f1b9 0f00 	cmp.w	r9, #0
    1a68:	d009      	beq.n	1a7e <__call_exitprocs+0x46>
    1a6a:	b926      	cbnz	r6, 1a76 <__call_exitprocs+0x3e>
    1a6c:	3f01      	subs	r7, #1
    1a6e:	f1aa 0a04 	sub.w	sl, sl, #4
    1a72:	3d04      	subs	r5, #4
    1a74:	e7f4      	b.n	1a60 <__call_exitprocs+0x28>
    1a76:	f8da 207c 	ldr.w	r2, [sl, #124]	; 0x7c
    1a7a:	4591      	cmp	r9, r2
    1a7c:	d1f6      	bne.n	1a6c <__call_exitprocs+0x34>
    1a7e:	6861      	ldr	r1, [r4, #4]
    1a80:	682a      	ldr	r2, [r5, #0]
    1a82:	3901      	subs	r1, #1
    1a84:	428f      	cmp	r7, r1
    1a86:	bf16      	itet	ne
    1a88:	2300      	movne	r3, #0
    1a8a:	6067      	streq	r7, [r4, #4]
    1a8c:	602b      	strne	r3, [r5, #0]
    1a8e:	2a00      	cmp	r2, #0
    1a90:	d0ec      	beq.n	1a6c <__call_exitprocs+0x34>
    1a92:	6863      	ldr	r3, [r4, #4]
    1a94:	9300      	str	r3, [sp, #0]
    1a96:	b12e      	cbz	r6, 1aa4 <__call_exitprocs+0x6c>
    1a98:	f8d6 0100 	ldr.w	r0, [r6, #256]	; 0x100
    1a9c:	fa0b f107 	lsl.w	r1, fp, r7
    1aa0:	4201      	tst	r1, r0
    1aa2:	d101      	bne.n	1aa8 <__call_exitprocs+0x70>
    1aa4:	4790      	blx	r2
    1aa6:	e00b      	b.n	1ac0 <__call_exitprocs+0x88>
    1aa8:	f8d6 0104 	ldr.w	r0, [r6, #260]	; 0x104
    1aac:	4201      	tst	r1, r0
    1aae:	d104      	bne.n	1aba <__call_exitprocs+0x82>
    1ab0:	f85a 1c04 	ldr.w	r1, [sl, #-4]
    1ab4:	9801      	ldr	r0, [sp, #4]
    1ab6:	4790      	blx	r2
    1ab8:	e002      	b.n	1ac0 <__call_exitprocs+0x88>
    1aba:	f85a 0c04 	ldr.w	r0, [sl, #-4]
    1abe:	4790      	blx	r2
    1ac0:	6862      	ldr	r2, [r4, #4]
    1ac2:	9b00      	ldr	r3, [sp, #0]
    1ac4:	4293      	cmp	r3, r2
    1ac6:	d1bb      	bne.n	1a40 <__call_exitprocs+0x8>
    1ac8:	f8d8 2000 	ldr.w	r2, [r8]
    1acc:	4294      	cmp	r4, r2
    1ace:	d0cd      	beq.n	1a6c <__call_exitprocs+0x34>
    1ad0:	e7b6      	b.n	1a40 <__call_exitprocs+0x8>
    1ad2:	4b0d      	ldr	r3, [pc, #52]	; (1b08 <__call_exitprocs+0xd0>)
    1ad4:	b193      	cbz	r3, 1afc <__call_exitprocs+0xc4>
    1ad6:	6862      	ldr	r2, [r4, #4]
    1ad8:	6823      	ldr	r3, [r4, #0]
    1ada:	b962      	cbnz	r2, 1af6 <__call_exitprocs+0xbe>
    1adc:	b15b      	cbz	r3, 1af6 <__call_exitprocs+0xbe>
    1ade:	f8c8 3000 	str.w	r3, [r8]
    1ae2:	b116      	cbz	r6, 1aea <__call_exitprocs+0xb2>
    1ae4:	4630      	mov	r0, r6
    1ae6:	f7ff fe6d 	bl	17c4 <free>
    1aea:	4620      	mov	r0, r4
    1aec:	f7ff fe6a 	bl	17c4 <free>
    1af0:	f8d8 4000 	ldr.w	r4, [r8]
    1af4:	e7a9      	b.n	1a4a <__call_exitprocs+0x12>
    1af6:	46a0      	mov	r8, r4
    1af8:	461c      	mov	r4, r3
    1afa:	e7a6      	b.n	1a4a <__call_exitprocs+0x12>
    1afc:	b003      	add	sp, #12
    1afe:	e8bd 8ff0 	ldmia.w	sp!, {r4, r5, r6, r7, r8, r9, sl, fp, pc}
    1b02:	bf00      	nop
    1b04:	1fff02c4 	svcne	0x00ff02c4
    1b08:	000017c5 	andeq	r1, r0, r5, asr #15

00001b0c <__ssputs_r>:
    1b0c:	e92d 47f0 	stmdb	sp!, {r4, r5, r6, r7, r8, r9, sl, lr}
    1b10:	688e      	ldr	r6, [r1, #8]
    1b12:	429e      	cmp	r6, r3
    1b14:	4682      	mov	sl, r0
    1b16:	460c      	mov	r4, r1
    1b18:	4691      	mov	r9, r2
    1b1a:	4698      	mov	r8, r3
    1b1c:	d83e      	bhi.n	1b9c <__ssputs_r+0x90>
    1b1e:	898a      	ldrh	r2, [r1, #12]
    1b20:	f412 6f90 	tst.w	r2, #1152	; 0x480
    1b24:	d03a      	beq.n	1b9c <__ssputs_r+0x90>
    1b26:	6825      	ldr	r5, [r4, #0]
    1b28:	6909      	ldr	r1, [r1, #16]
    1b2a:	1a6f      	subs	r7, r5, r1
    1b2c:	6965      	ldr	r5, [r4, #20]
    1b2e:	2302      	movs	r3, #2
    1b30:	eb05 0545 	add.w	r5, r5, r5, lsl #1
    1b34:	fb95 f5f3 	sdiv	r5, r5, r3
    1b38:	1c7b      	adds	r3, r7, #1
    1b3a:	4443      	add	r3, r8
    1b3c:	429d      	cmp	r5, r3
    1b3e:	bf38      	it	cc
    1b40:	461d      	movcc	r5, r3
    1b42:	0553      	lsls	r3, r2, #21
    1b44:	d50f      	bpl.n	1b66 <__ssputs_r+0x5a>
    1b46:	4629      	mov	r1, r5
    1b48:	f7ff fe92 	bl	1870 <_malloc_r>
    1b4c:	4606      	mov	r6, r0
    1b4e:	b198      	cbz	r0, 1b78 <__ssputs_r+0x6c>
    1b50:	463a      	mov	r2, r7
    1b52:	6921      	ldr	r1, [r4, #16]
    1b54:	f000 fad3 	bl	20fe <memcpy>
    1b58:	89a3      	ldrh	r3, [r4, #12]
    1b5a:	f423 6390 	bic.w	r3, r3, #1152	; 0x480
    1b5e:	f043 0380 	orr.w	r3, r3, #128	; 0x80
    1b62:	81a3      	strh	r3, [r4, #12]
    1b64:	e013      	b.n	1b8e <__ssputs_r+0x82>
    1b66:	462a      	mov	r2, r5
    1b68:	f000 faef 	bl	214a <_realloc_r>
    1b6c:	4606      	mov	r6, r0
    1b6e:	b970      	cbnz	r0, 1b8e <__ssputs_r+0x82>
    1b70:	6921      	ldr	r1, [r4, #16]
    1b72:	4650      	mov	r0, sl
    1b74:	f7ff fe36 	bl	17e4 <_free_r>
    1b78:	230c      	movs	r3, #12
    1b7a:	f8ca 3000 	str.w	r3, [sl]
    1b7e:	89a3      	ldrh	r3, [r4, #12]
    1b80:	f043 0340 	orr.w	r3, r3, #64	; 0x40
    1b84:	81a3      	strh	r3, [r4, #12]
    1b86:	f04f 30ff 	mov.w	r0, #4294967295	; 0xffffffff
    1b8a:	e8bd 87f0 	ldmia.w	sp!, {r4, r5, r6, r7, r8, r9, sl, pc}
    1b8e:	6126      	str	r6, [r4, #16]
    1b90:	6165      	str	r5, [r4, #20]
    1b92:	443e      	add	r6, r7
    1b94:	1bed      	subs	r5, r5, r7
    1b96:	6026      	str	r6, [r4, #0]
    1b98:	60a5      	str	r5, [r4, #8]
    1b9a:	4646      	mov	r6, r8
    1b9c:	4546      	cmp	r6, r8
    1b9e:	bf28      	it	cs
    1ba0:	4646      	movcs	r6, r8
    1ba2:	4632      	mov	r2, r6
    1ba4:	4649      	mov	r1, r9
    1ba6:	6820      	ldr	r0, [r4, #0]
    1ba8:	f000 fab4 	bl	2114 <memmove>
    1bac:	68a3      	ldr	r3, [r4, #8]
    1bae:	1b9b      	subs	r3, r3, r6
    1bb0:	60a3      	str	r3, [r4, #8]
    1bb2:	6823      	ldr	r3, [r4, #0]
    1bb4:	441e      	add	r6, r3
    1bb6:	6026      	str	r6, [r4, #0]
    1bb8:	2000      	movs	r0, #0
    1bba:	e8bd 87f0 	ldmia.w	sp!, {r4, r5, r6, r7, r8, r9, sl, pc}
	...

00001bc0 <_svfiprintf_r>:
    1bc0:	e92d 4ff0 	stmdb	sp!, {r4, r5, r6, r7, r8, r9, sl, fp, lr}
    1bc4:	b09d      	sub	sp, #116	; 0x74
    1bc6:	4680      	mov	r8, r0
    1bc8:	9303      	str	r3, [sp, #12]
    1bca:	898b      	ldrh	r3, [r1, #12]
    1bcc:	061c      	lsls	r4, r3, #24
    1bce:	460d      	mov	r5, r1
    1bd0:	4616      	mov	r6, r2
    1bd2:	d50d      	bpl.n	1bf0 <_svfiprintf_r+0x30>
    1bd4:	690b      	ldr	r3, [r1, #16]
    1bd6:	b95b      	cbnz	r3, 1bf0 <_svfiprintf_r+0x30>
    1bd8:	2140      	movs	r1, #64	; 0x40
    1bda:	f7ff fe49 	bl	1870 <_malloc_r>
    1bde:	6028      	str	r0, [r5, #0]
    1be0:	6128      	str	r0, [r5, #16]
    1be2:	b918      	cbnz	r0, 1bec <_svfiprintf_r+0x2c>
    1be4:	230c      	movs	r3, #12
    1be6:	f8c8 3000 	str.w	r3, [r8]
    1bea:	e0cd      	b.n	1d88 <_svfiprintf_r+0x1c8>
    1bec:	2340      	movs	r3, #64	; 0x40
    1bee:	616b      	str	r3, [r5, #20]
    1bf0:	2300      	movs	r3, #0
    1bf2:	9309      	str	r3, [sp, #36]	; 0x24
    1bf4:	2320      	movs	r3, #32
    1bf6:	f88d 3029 	strb.w	r3, [sp, #41]	; 0x29
    1bfa:	f8df b19c 	ldr.w	fp, [pc, #412]	; 1d98 <_svfiprintf_r+0x1d8>
    1bfe:	2330      	movs	r3, #48	; 0x30
    1c00:	f88d 302a 	strb.w	r3, [sp, #42]	; 0x2a
    1c04:	4637      	mov	r7, r6
    1c06:	463c      	mov	r4, r7
    1c08:	f814 3b01 	ldrb.w	r3, [r4], #1
    1c0c:	b91b      	cbnz	r3, 1c16 <_svfiprintf_r+0x56>
    1c0e:	ebb7 0906 	subs.w	r9, r7, r6
    1c12:	d010      	beq.n	1c36 <_svfiprintf_r+0x76>
    1c14:	e003      	b.n	1c1e <_svfiprintf_r+0x5e>
    1c16:	2b25      	cmp	r3, #37	; 0x25
    1c18:	d0f9      	beq.n	1c0e <_svfiprintf_r+0x4e>
    1c1a:	4627      	mov	r7, r4
    1c1c:	e7f3      	b.n	1c06 <_svfiprintf_r+0x46>
    1c1e:	464b      	mov	r3, r9
    1c20:	4632      	mov	r2, r6
    1c22:	4629      	mov	r1, r5
    1c24:	4640      	mov	r0, r8
    1c26:	f7ff ff71 	bl	1b0c <__ssputs_r>
    1c2a:	3001      	adds	r0, #1
    1c2c:	f000 80a7 	beq.w	1d7e <_svfiprintf_r+0x1be>
    1c30:	9b09      	ldr	r3, [sp, #36]	; 0x24
    1c32:	444b      	add	r3, r9
    1c34:	9309      	str	r3, [sp, #36]	; 0x24
    1c36:	783b      	ldrb	r3, [r7, #0]
    1c38:	2b00      	cmp	r3, #0
    1c3a:	f000 80a0 	beq.w	1d7e <_svfiprintf_r+0x1be>
    1c3e:	2300      	movs	r3, #0
    1c40:	f04f 32ff 	mov.w	r2, #4294967295	; 0xffffffff
    1c44:	9304      	str	r3, [sp, #16]
    1c46:	9307      	str	r3, [sp, #28]
    1c48:	9205      	str	r2, [sp, #20]
    1c4a:	9306      	str	r3, [sp, #24]
    1c4c:	f88d 3053 	strb.w	r3, [sp, #83]	; 0x53
    1c50:	931a      	str	r3, [sp, #104]	; 0x68
    1c52:	2601      	movs	r6, #1
    1c54:	2205      	movs	r2, #5
    1c56:	7821      	ldrb	r1, [r4, #0]
    1c58:	484e      	ldr	r0, [pc, #312]	; (1d94 <_svfiprintf_r+0x1d4>)
    1c5a:	f000 fa41 	bl	20e0 <memchr>
    1c5e:	1c67      	adds	r7, r4, #1
    1c60:	9b04      	ldr	r3, [sp, #16]
    1c62:	b138      	cbz	r0, 1c74 <_svfiprintf_r+0xb4>
    1c64:	4a4b      	ldr	r2, [pc, #300]	; (1d94 <_svfiprintf_r+0x1d4>)
    1c66:	1a80      	subs	r0, r0, r2
    1c68:	fa06 f000 	lsl.w	r0, r6, r0
    1c6c:	4318      	orrs	r0, r3
    1c6e:	9004      	str	r0, [sp, #16]
    1c70:	463c      	mov	r4, r7
    1c72:	e7ef      	b.n	1c54 <_svfiprintf_r+0x94>
    1c74:	06d9      	lsls	r1, r3, #27
    1c76:	bf44      	itt	mi
    1c78:	2220      	movmi	r2, #32
    1c7a:	f88d 2053 	strbmi.w	r2, [sp, #83]	; 0x53
    1c7e:	071a      	lsls	r2, r3, #28
    1c80:	bf44      	itt	mi
    1c82:	222b      	movmi	r2, #43	; 0x2b
    1c84:	f88d 2053 	strbmi.w	r2, [sp, #83]	; 0x53
    1c88:	7822      	ldrb	r2, [r4, #0]
    1c8a:	2a2a      	cmp	r2, #42	; 0x2a
    1c8c:	d003      	beq.n	1c96 <_svfiprintf_r+0xd6>
    1c8e:	9a07      	ldr	r2, [sp, #28]
    1c90:	2100      	movs	r1, #0
    1c92:	200a      	movs	r0, #10
    1c94:	e00b      	b.n	1cae <_svfiprintf_r+0xee>
    1c96:	9a03      	ldr	r2, [sp, #12]
    1c98:	1d11      	adds	r1, r2, #4
    1c9a:	6812      	ldr	r2, [r2, #0]
    1c9c:	9103      	str	r1, [sp, #12]
    1c9e:	2a00      	cmp	r2, #0
    1ca0:	da10      	bge.n	1cc4 <_svfiprintf_r+0x104>
    1ca2:	4252      	negs	r2, r2
    1ca4:	f043 0002 	orr.w	r0, r3, #2
    1ca8:	9207      	str	r2, [sp, #28]
    1caa:	9004      	str	r0, [sp, #16]
    1cac:	e00b      	b.n	1cc6 <_svfiprintf_r+0x106>
    1cae:	4627      	mov	r7, r4
    1cb0:	3401      	adds	r4, #1
    1cb2:	783b      	ldrb	r3, [r7, #0]
    1cb4:	3b30      	subs	r3, #48	; 0x30
    1cb6:	2b09      	cmp	r3, #9
    1cb8:	d803      	bhi.n	1cc2 <_svfiprintf_r+0x102>
    1cba:	fb00 3202 	mla	r2, r0, r2, r3
    1cbe:	2101      	movs	r1, #1
    1cc0:	e7f5      	b.n	1cae <_svfiprintf_r+0xee>
    1cc2:	b101      	cbz	r1, 1cc6 <_svfiprintf_r+0x106>
    1cc4:	9207      	str	r2, [sp, #28]
    1cc6:	783b      	ldrb	r3, [r7, #0]
    1cc8:	2b2e      	cmp	r3, #46	; 0x2e
    1cca:	d11e      	bne.n	1d0a <_svfiprintf_r+0x14a>
    1ccc:	787b      	ldrb	r3, [r7, #1]
    1cce:	2b2a      	cmp	r3, #42	; 0x2a
    1cd0:	d10a      	bne.n	1ce8 <_svfiprintf_r+0x128>
    1cd2:	9b03      	ldr	r3, [sp, #12]
    1cd4:	1d1a      	adds	r2, r3, #4
    1cd6:	681b      	ldr	r3, [r3, #0]
    1cd8:	9203      	str	r2, [sp, #12]
    1cda:	2b00      	cmp	r3, #0
    1cdc:	bfb8      	it	lt
    1cde:	f04f 33ff 	movlt.w	r3, #4294967295	; 0xffffffff
    1ce2:	3702      	adds	r7, #2
    1ce4:	9305      	str	r3, [sp, #20]
    1ce6:	e010      	b.n	1d0a <_svfiprintf_r+0x14a>
    1ce8:	2300      	movs	r3, #0
    1cea:	9305      	str	r3, [sp, #20]
    1cec:	1c78      	adds	r0, r7, #1
    1cee:	4619      	mov	r1, r3
    1cf0:	240a      	movs	r4, #10
    1cf2:	4607      	mov	r7, r0
    1cf4:	3001      	adds	r0, #1
    1cf6:	783a      	ldrb	r2, [r7, #0]
    1cf8:	3a30      	subs	r2, #48	; 0x30
    1cfa:	2a09      	cmp	r2, #9
    1cfc:	d803      	bhi.n	1d06 <_svfiprintf_r+0x146>
    1cfe:	fb04 2101 	mla	r1, r4, r1, r2
    1d02:	2301      	movs	r3, #1
    1d04:	e7f5      	b.n	1cf2 <_svfiprintf_r+0x132>
    1d06:	b103      	cbz	r3, 1d0a <_svfiprintf_r+0x14a>
    1d08:	9105      	str	r1, [sp, #20]
    1d0a:	2203      	movs	r2, #3
    1d0c:	7839      	ldrb	r1, [r7, #0]
    1d0e:	4822      	ldr	r0, [pc, #136]	; (1d98 <_svfiprintf_r+0x1d8>)
    1d10:	f000 f9e6 	bl	20e0 <memchr>
    1d14:	b140      	cbz	r0, 1d28 <_svfiprintf_r+0x168>
    1d16:	2340      	movs	r3, #64	; 0x40
    1d18:	ebcb 0000 	rsb	r0, fp, r0
    1d1c:	fa03 f000 	lsl.w	r0, r3, r0
    1d20:	9b04      	ldr	r3, [sp, #16]
    1d22:	4318      	orrs	r0, r3
    1d24:	9004      	str	r0, [sp, #16]
    1d26:	3701      	adds	r7, #1
    1d28:	7839      	ldrb	r1, [r7, #0]
    1d2a:	481c      	ldr	r0, [pc, #112]	; (1d9c <_svfiprintf_r+0x1dc>)
    1d2c:	f88d 1028 	strb.w	r1, [sp, #40]	; 0x28
    1d30:	2206      	movs	r2, #6
    1d32:	1c7e      	adds	r6, r7, #1
    1d34:	f000 f9d4 	bl	20e0 <memchr>
    1d38:	b188      	cbz	r0, 1d5e <_svfiprintf_r+0x19e>
    1d3a:	4b19      	ldr	r3, [pc, #100]	; (1da0 <_svfiprintf_r+0x1e0>)
    1d3c:	b933      	cbnz	r3, 1d4c <_svfiprintf_r+0x18c>
    1d3e:	9b03      	ldr	r3, [sp, #12]
    1d40:	3307      	adds	r3, #7
    1d42:	f023 0307 	bic.w	r3, r3, #7
    1d46:	3308      	adds	r3, #8
    1d48:	9303      	str	r3, [sp, #12]
    1d4a:	e014      	b.n	1d76 <_svfiprintf_r+0x1b6>
    1d4c:	ab03      	add	r3, sp, #12
    1d4e:	9300      	str	r3, [sp, #0]
    1d50:	462a      	mov	r2, r5
    1d52:	4b14      	ldr	r3, [pc, #80]	; (1da4 <_svfiprintf_r+0x1e4>)
    1d54:	a904      	add	r1, sp, #16
    1d56:	4640      	mov	r0, r8
    1d58:	f3af 8000 	nop.w
    1d5c:	e007      	b.n	1d6e <_svfiprintf_r+0x1ae>
    1d5e:	ab03      	add	r3, sp, #12
    1d60:	9300      	str	r3, [sp, #0]
    1d62:	462a      	mov	r2, r5
    1d64:	4b0f      	ldr	r3, [pc, #60]	; (1da4 <_svfiprintf_r+0x1e4>)
    1d66:	a904      	add	r1, sp, #16
    1d68:	4640      	mov	r0, r8
    1d6a:	f000 f893 	bl	1e94 <_printf_i>
    1d6e:	f1b0 3fff 	cmp.w	r0, #4294967295	; 0xffffffff
    1d72:	4682      	mov	sl, r0
    1d74:	d003      	beq.n	1d7e <_svfiprintf_r+0x1be>
    1d76:	9b09      	ldr	r3, [sp, #36]	; 0x24
    1d78:	4453      	add	r3, sl
    1d7a:	9309      	str	r3, [sp, #36]	; 0x24
    1d7c:	e742      	b.n	1c04 <_svfiprintf_r+0x44>
    1d7e:	89ab      	ldrh	r3, [r5, #12]
    1d80:	065b      	lsls	r3, r3, #25
    1d82:	d401      	bmi.n	1d88 <_svfiprintf_r+0x1c8>
    1d84:	9809      	ldr	r0, [sp, #36]	; 0x24
    1d86:	e001      	b.n	1d8c <_svfiprintf_r+0x1cc>
    1d88:	f04f 30ff 	mov.w	r0, #4294967295	; 0xffffffff
    1d8c:	b01d      	add	sp, #116	; 0x74
    1d8e:	e8bd 8ff0 	ldmia.w	sp!, {r4, r5, r6, r7, r8, r9, sl, fp, pc}
    1d92:	bf00      	nop
    1d94:	000022d8 	ldrdeq	r2, [r0], -r8
    1d98:	000022de 	ldrdeq	r2, [r0], -lr
    1d9c:	000022e2 	andeq	r2, r0, r2, ror #5
    1da0:	00000000 	andeq	r0, r0, r0
    1da4:	00001b0d 	andeq	r1, r0, sp, lsl #22

00001da8 <_printf_common>:
    1da8:	e92d 47f0 	stmdb	sp!, {r4, r5, r6, r7, r8, r9, sl, lr}
    1dac:	4691      	mov	r9, r2
    1dae:	461f      	mov	r7, r3
    1db0:	690a      	ldr	r2, [r1, #16]
    1db2:	688b      	ldr	r3, [r1, #8]
    1db4:	f8dd 8020 	ldr.w	r8, [sp, #32]
    1db8:	4293      	cmp	r3, r2
    1dba:	bfb8      	it	lt
    1dbc:	4613      	movlt	r3, r2
    1dbe:	f8c9 3000 	str.w	r3, [r9]
    1dc2:	f891 2043 	ldrb.w	r2, [r1, #67]	; 0x43
    1dc6:	4606      	mov	r6, r0
    1dc8:	460c      	mov	r4, r1
    1dca:	b112      	cbz	r2, 1dd2 <_printf_common+0x2a>
    1dcc:	3301      	adds	r3, #1
    1dce:	f8c9 3000 	str.w	r3, [r9]
    1dd2:	6823      	ldr	r3, [r4, #0]
    1dd4:	0699      	lsls	r1, r3, #26
    1dd6:	bf42      	ittt	mi
    1dd8:	f8d9 3000 	ldrmi.w	r3, [r9]
    1ddc:	3302      	addmi	r3, #2
    1dde:	f8c9 3000 	strmi.w	r3, [r9]
    1de2:	6825      	ldr	r5, [r4, #0]
    1de4:	f015 0506 	ands.w	r5, r5, #6
    1de8:	d110      	bne.n	1e0c <_printf_common+0x64>
    1dea:	f104 0a19 	add.w	sl, r4, #25
    1dee:	e007      	b.n	1e00 <_printf_common+0x58>
    1df0:	2301      	movs	r3, #1
    1df2:	4652      	mov	r2, sl
    1df4:	4639      	mov	r1, r7
    1df6:	4630      	mov	r0, r6
    1df8:	47c0      	blx	r8
    1dfa:	3001      	adds	r0, #1
    1dfc:	d01a      	beq.n	1e34 <_printf_common+0x8c>
    1dfe:	3501      	adds	r5, #1
    1e00:	68e3      	ldr	r3, [r4, #12]
    1e02:	f8d9 2000 	ldr.w	r2, [r9]
    1e06:	1a9b      	subs	r3, r3, r2
    1e08:	429d      	cmp	r5, r3
    1e0a:	dbf1      	blt.n	1df0 <_printf_common+0x48>
    1e0c:	f894 3043 	ldrb.w	r3, [r4, #67]	; 0x43
    1e10:	6822      	ldr	r2, [r4, #0]
    1e12:	3300      	adds	r3, #0
    1e14:	bf18      	it	ne
    1e16:	2301      	movne	r3, #1
    1e18:	0692      	lsls	r2, r2, #26
    1e1a:	d50f      	bpl.n	1e3c <_printf_common+0x94>
    1e1c:	18e1      	adds	r1, r4, r3
    1e1e:	1c5a      	adds	r2, r3, #1
    1e20:	2030      	movs	r0, #48	; 0x30
    1e22:	f881 0043 	strb.w	r0, [r1, #67]	; 0x43
    1e26:	4422      	add	r2, r4
    1e28:	f894 1045 	ldrb.w	r1, [r4, #69]	; 0x45
    1e2c:	f882 1043 	strb.w	r1, [r2, #67]	; 0x43
    1e30:	3302      	adds	r3, #2
    1e32:	e003      	b.n	1e3c <_printf_common+0x94>
    1e34:	f04f 30ff 	mov.w	r0, #4294967295	; 0xffffffff
    1e38:	e8bd 87f0 	ldmia.w	sp!, {r4, r5, r6, r7, r8, r9, sl, pc}
    1e3c:	f104 0243 	add.w	r2, r4, #67	; 0x43
    1e40:	4639      	mov	r1, r7
    1e42:	4630      	mov	r0, r6
    1e44:	47c0      	blx	r8
    1e46:	3001      	adds	r0, #1
    1e48:	d0f4      	beq.n	1e34 <_printf_common+0x8c>
    1e4a:	6822      	ldr	r2, [r4, #0]
    1e4c:	f8d9 5000 	ldr.w	r5, [r9]
    1e50:	68e3      	ldr	r3, [r4, #12]
    1e52:	f002 0206 	and.w	r2, r2, #6
    1e56:	2a04      	cmp	r2, #4
    1e58:	bf08      	it	eq
    1e5a:	1b5d      	subeq	r5, r3, r5
    1e5c:	6922      	ldr	r2, [r4, #16]
    1e5e:	68a3      	ldr	r3, [r4, #8]
    1e60:	bf0c      	ite	eq
    1e62:	ea25 75e5 	biceq.w	r5, r5, r5, asr #31
    1e66:	2500      	movne	r5, #0
    1e68:	4293      	cmp	r3, r2
    1e6a:	bfc4      	itt	gt
    1e6c:	1a9b      	subgt	r3, r3, r2
    1e6e:	18ed      	addgt	r5, r5, r3
    1e70:	f04f 0900 	mov.w	r9, #0
    1e74:	341a      	adds	r4, #26
    1e76:	454d      	cmp	r5, r9
    1e78:	d009      	beq.n	1e8e <_printf_common+0xe6>
    1e7a:	2301      	movs	r3, #1
    1e7c:	4622      	mov	r2, r4
    1e7e:	4639      	mov	r1, r7
    1e80:	4630      	mov	r0, r6
    1e82:	47c0      	blx	r8
    1e84:	3001      	adds	r0, #1
    1e86:	d0d5      	beq.n	1e34 <_printf_common+0x8c>
    1e88:	f109 0901 	add.w	r9, r9, #1
    1e8c:	e7f3      	b.n	1e76 <_printf_common+0xce>
    1e8e:	2000      	movs	r0, #0
    1e90:	e8bd 87f0 	ldmia.w	sp!, {r4, r5, r6, r7, r8, r9, sl, pc}

00001e94 <_printf_i>:
    1e94:	e92d 43f0 	stmdb	sp!, {r4, r5, r6, r7, r8, r9, lr}
    1e98:	4617      	mov	r7, r2
    1e9a:	7e0a      	ldrb	r2, [r1, #24]
    1e9c:	b085      	sub	sp, #20
    1e9e:	2a6e      	cmp	r2, #110	; 0x6e
    1ea0:	4698      	mov	r8, r3
    1ea2:	4606      	mov	r6, r0
    1ea4:	460c      	mov	r4, r1
    1ea6:	9b0c      	ldr	r3, [sp, #48]	; 0x30
    1ea8:	f101 0e43 	add.w	lr, r1, #67	; 0x43
    1eac:	f000 80ae 	beq.w	200c <_printf_i+0x178>
    1eb0:	d811      	bhi.n	1ed6 <_printf_i+0x42>
    1eb2:	2a63      	cmp	r2, #99	; 0x63
    1eb4:	d022      	beq.n	1efc <_printf_i+0x68>
    1eb6:	d809      	bhi.n	1ecc <_printf_i+0x38>
    1eb8:	2a00      	cmp	r2, #0
    1eba:	f000 80bb 	beq.w	2034 <_printf_i+0x1a0>
    1ebe:	2a58      	cmp	r2, #88	; 0x58
    1ec0:	f040 80ca 	bne.w	2058 <_printf_i+0x1c4>
    1ec4:	f881 2045 	strb.w	r2, [r1, #69]	; 0x45
    1ec8:	4983      	ldr	r1, [pc, #524]	; (20d8 <_printf_i+0x244>)
    1eca:	e055      	b.n	1f78 <_printf_i+0xe4>
    1ecc:	2a64      	cmp	r2, #100	; 0x64
    1ece:	d01e      	beq.n	1f0e <_printf_i+0x7a>
    1ed0:	2a69      	cmp	r2, #105	; 0x69
    1ed2:	d01c      	beq.n	1f0e <_printf_i+0x7a>
    1ed4:	e0c0      	b.n	2058 <_printf_i+0x1c4>
    1ed6:	2a73      	cmp	r2, #115	; 0x73
    1ed8:	f000 80b0 	beq.w	203c <_printf_i+0x1a8>
    1edc:	d809      	bhi.n	1ef2 <_printf_i+0x5e>
    1ede:	2a6f      	cmp	r2, #111	; 0x6f
    1ee0:	d02e      	beq.n	1f40 <_printf_i+0xac>
    1ee2:	2a70      	cmp	r2, #112	; 0x70
    1ee4:	f040 80b8 	bne.w	2058 <_printf_i+0x1c4>
    1ee8:	680a      	ldr	r2, [r1, #0]
    1eea:	f042 0220 	orr.w	r2, r2, #32
    1eee:	600a      	str	r2, [r1, #0]
    1ef0:	e03e      	b.n	1f70 <_printf_i+0xdc>
    1ef2:	2a75      	cmp	r2, #117	; 0x75
    1ef4:	d024      	beq.n	1f40 <_printf_i+0xac>
    1ef6:	2a78      	cmp	r2, #120	; 0x78
    1ef8:	d03a      	beq.n	1f70 <_printf_i+0xdc>
    1efa:	e0ad      	b.n	2058 <_printf_i+0x1c4>
    1efc:	681a      	ldr	r2, [r3, #0]
    1efe:	f101 0542 	add.w	r5, r1, #66	; 0x42
    1f02:	1d11      	adds	r1, r2, #4
    1f04:	6019      	str	r1, [r3, #0]
    1f06:	6813      	ldr	r3, [r2, #0]
    1f08:	f884 3042 	strb.w	r3, [r4, #66]	; 0x42
    1f0c:	e0a8      	b.n	2060 <_printf_i+0x1cc>
    1f0e:	6821      	ldr	r1, [r4, #0]
    1f10:	681a      	ldr	r2, [r3, #0]
    1f12:	f011 0f80 	tst.w	r1, #128	; 0x80
    1f16:	d002      	beq.n	1f1e <_printf_i+0x8a>
    1f18:	1d11      	adds	r1, r2, #4
    1f1a:	6019      	str	r1, [r3, #0]
    1f1c:	e008      	b.n	1f30 <_printf_i+0x9c>
    1f1e:	f011 0f40 	tst.w	r1, #64	; 0x40
    1f22:	f102 0104 	add.w	r1, r2, #4
    1f26:	6019      	str	r1, [r3, #0]
    1f28:	d002      	beq.n	1f30 <_printf_i+0x9c>
    1f2a:	f9b2 3000 	ldrsh.w	r3, [r2]
    1f2e:	e000      	b.n	1f32 <_printf_i+0x9e>
    1f30:	6813      	ldr	r3, [r2, #0]
    1f32:	2b00      	cmp	r3, #0
    1f34:	da3c      	bge.n	1fb0 <_printf_i+0x11c>
    1f36:	222d      	movs	r2, #45	; 0x2d
    1f38:	425b      	negs	r3, r3
    1f3a:	f884 2043 	strb.w	r2, [r4, #67]	; 0x43
    1f3e:	e037      	b.n	1fb0 <_printf_i+0x11c>
    1f40:	6821      	ldr	r1, [r4, #0]
    1f42:	681a      	ldr	r2, [r3, #0]
    1f44:	f011 0f80 	tst.w	r1, #128	; 0x80
    1f48:	d002      	beq.n	1f50 <_printf_i+0xbc>
    1f4a:	1d11      	adds	r1, r2, #4
    1f4c:	6019      	str	r1, [r3, #0]
    1f4e:	e007      	b.n	1f60 <_printf_i+0xcc>
    1f50:	f011 0f40 	tst.w	r1, #64	; 0x40
    1f54:	f102 0104 	add.w	r1, r2, #4
    1f58:	6019      	str	r1, [r3, #0]
    1f5a:	d001      	beq.n	1f60 <_printf_i+0xcc>
    1f5c:	8813      	ldrh	r3, [r2, #0]
    1f5e:	e000      	b.n	1f62 <_printf_i+0xce>
    1f60:	6813      	ldr	r3, [r2, #0]
    1f62:	7e22      	ldrb	r2, [r4, #24]
    1f64:	495c      	ldr	r1, [pc, #368]	; (20d8 <_printf_i+0x244>)
    1f66:	2a6f      	cmp	r2, #111	; 0x6f
    1f68:	bf14      	ite	ne
    1f6a:	220a      	movne	r2, #10
    1f6c:	2208      	moveq	r2, #8
    1f6e:	e01b      	b.n	1fa8 <_printf_i+0x114>
    1f70:	2278      	movs	r2, #120	; 0x78
    1f72:	495a      	ldr	r1, [pc, #360]	; (20dc <_printf_i+0x248>)
    1f74:	f884 2045 	strb.w	r2, [r4, #69]	; 0x45
    1f78:	6822      	ldr	r2, [r4, #0]
    1f7a:	6818      	ldr	r0, [r3, #0]
    1f7c:	f012 0f80 	tst.w	r2, #128	; 0x80
    1f80:	f100 0504 	add.w	r5, r0, #4
    1f84:	601d      	str	r5, [r3, #0]
    1f86:	d103      	bne.n	1f90 <_printf_i+0xfc>
    1f88:	0655      	lsls	r5, r2, #25
    1f8a:	d501      	bpl.n	1f90 <_printf_i+0xfc>
    1f8c:	8803      	ldrh	r3, [r0, #0]
    1f8e:	e000      	b.n	1f92 <_printf_i+0xfe>
    1f90:	6803      	ldr	r3, [r0, #0]
    1f92:	07d0      	lsls	r0, r2, #31
    1f94:	bf44      	itt	mi
    1f96:	f042 0220 	orrmi.w	r2, r2, #32
    1f9a:	6022      	strmi	r2, [r4, #0]
    1f9c:	b91b      	cbnz	r3, 1fa6 <_printf_i+0x112>
    1f9e:	6822      	ldr	r2, [r4, #0]
    1fa0:	f022 0220 	bic.w	r2, r2, #32
    1fa4:	6022      	str	r2, [r4, #0]
    1fa6:	2210      	movs	r2, #16
    1fa8:	2000      	movs	r0, #0
    1faa:	f884 0043 	strb.w	r0, [r4, #67]	; 0x43
    1fae:	e001      	b.n	1fb4 <_printf_i+0x120>
    1fb0:	4949      	ldr	r1, [pc, #292]	; (20d8 <_printf_i+0x244>)
    1fb2:	220a      	movs	r2, #10
    1fb4:	6865      	ldr	r5, [r4, #4]
    1fb6:	60a5      	str	r5, [r4, #8]
    1fb8:	2d00      	cmp	r5, #0
    1fba:	db08      	blt.n	1fce <_printf_i+0x13a>
    1fbc:	6820      	ldr	r0, [r4, #0]
    1fbe:	f020 0004 	bic.w	r0, r0, #4
    1fc2:	6020      	str	r0, [r4, #0]
    1fc4:	b92b      	cbnz	r3, 1fd2 <_printf_i+0x13e>
    1fc6:	2d00      	cmp	r5, #0
    1fc8:	d17d      	bne.n	20c6 <_printf_i+0x232>
    1fca:	4675      	mov	r5, lr
    1fcc:	e00c      	b.n	1fe8 <_printf_i+0x154>
    1fce:	2b00      	cmp	r3, #0
    1fd0:	d079      	beq.n	20c6 <_printf_i+0x232>
    1fd2:	4675      	mov	r5, lr
    1fd4:	fbb3 f0f2 	udiv	r0, r3, r2
    1fd8:	fb02 3310 	mls	r3, r2, r0, r3
    1fdc:	5ccb      	ldrb	r3, [r1, r3]
    1fde:	f805 3d01 	strb.w	r3, [r5, #-1]!
    1fe2:	4603      	mov	r3, r0
    1fe4:	2800      	cmp	r0, #0
    1fe6:	d1f5      	bne.n	1fd4 <_printf_i+0x140>
    1fe8:	2a08      	cmp	r2, #8
    1fea:	d10b      	bne.n	2004 <_printf_i+0x170>
    1fec:	6823      	ldr	r3, [r4, #0]
    1fee:	07da      	lsls	r2, r3, #31
    1ff0:	d508      	bpl.n	2004 <_printf_i+0x170>
    1ff2:	6923      	ldr	r3, [r4, #16]
    1ff4:	6862      	ldr	r2, [r4, #4]
    1ff6:	429a      	cmp	r2, r3
    1ff8:	bfde      	ittt	le
    1ffa:	2330      	movle	r3, #48	; 0x30
    1ffc:	f805 3c01 	strble.w	r3, [r5, #-1]
    2000:	f105 35ff 	addle.w	r5, r5, #4294967295	; 0xffffffff
    2004:	ebc5 030e 	rsb	r3, r5, lr
    2008:	6123      	str	r3, [r4, #16]
    200a:	e02e      	b.n	206a <_printf_i+0x1d6>
    200c:	6808      	ldr	r0, [r1, #0]
    200e:	681a      	ldr	r2, [r3, #0]
    2010:	6949      	ldr	r1, [r1, #20]
    2012:	f010 0f80 	tst.w	r0, #128	; 0x80
    2016:	d003      	beq.n	2020 <_printf_i+0x18c>
    2018:	1d10      	adds	r0, r2, #4
    201a:	6018      	str	r0, [r3, #0]
    201c:	6813      	ldr	r3, [r2, #0]
    201e:	e008      	b.n	2032 <_printf_i+0x19e>
    2020:	f010 0f40 	tst.w	r0, #64	; 0x40
    2024:	f102 0004 	add.w	r0, r2, #4
    2028:	6018      	str	r0, [r3, #0]
    202a:	6813      	ldr	r3, [r2, #0]
    202c:	d001      	beq.n	2032 <_printf_i+0x19e>
    202e:	8019      	strh	r1, [r3, #0]
    2030:	e000      	b.n	2034 <_printf_i+0x1a0>
    2032:	6019      	str	r1, [r3, #0]
    2034:	2300      	movs	r3, #0
    2036:	6123      	str	r3, [r4, #16]
    2038:	4675      	mov	r5, lr
    203a:	e016      	b.n	206a <_printf_i+0x1d6>
    203c:	681a      	ldr	r2, [r3, #0]
    203e:	1d11      	adds	r1, r2, #4
    2040:	6019      	str	r1, [r3, #0]
    2042:	6815      	ldr	r5, [r2, #0]
    2044:	6862      	ldr	r2, [r4, #4]
    2046:	2100      	movs	r1, #0
    2048:	4628      	mov	r0, r5
    204a:	f000 f849 	bl	20e0 <memchr>
    204e:	b108      	cbz	r0, 2054 <_printf_i+0x1c0>
    2050:	1b40      	subs	r0, r0, r5
    2052:	6060      	str	r0, [r4, #4]
    2054:	6863      	ldr	r3, [r4, #4]
    2056:	e004      	b.n	2062 <_printf_i+0x1ce>
    2058:	f104 0542 	add.w	r5, r4, #66	; 0x42
    205c:	f884 2042 	strb.w	r2, [r4, #66]	; 0x42
    2060:	2301      	movs	r3, #1
    2062:	6123      	str	r3, [r4, #16]
    2064:	2300      	movs	r3, #0
    2066:	f884 3043 	strb.w	r3, [r4, #67]	; 0x43
    206a:	f8cd 8000 	str.w	r8, [sp]
    206e:	463b      	mov	r3, r7
    2070:	aa03      	add	r2, sp, #12
    2072:	4621      	mov	r1, r4
    2074:	4630      	mov	r0, r6
    2076:	f7ff fe97 	bl	1da8 <_printf_common>
    207a:	3001      	adds	r0, #1
    207c:	d102      	bne.n	2084 <_printf_i+0x1f0>
    207e:	f04f 30ff 	mov.w	r0, #4294967295	; 0xffffffff
    2082:	e026      	b.n	20d2 <_printf_i+0x23e>
    2084:	6923      	ldr	r3, [r4, #16]
    2086:	462a      	mov	r2, r5
    2088:	4639      	mov	r1, r7
    208a:	4630      	mov	r0, r6
    208c:	47c0      	blx	r8
    208e:	3001      	adds	r0, #1
    2090:	d0f5      	beq.n	207e <_printf_i+0x1ea>
    2092:	6823      	ldr	r3, [r4, #0]
    2094:	079b      	lsls	r3, r3, #30
    2096:	d510      	bpl.n	20ba <_printf_i+0x226>
    2098:	2500      	movs	r5, #0
    209a:	f104 0919 	add.w	r9, r4, #25
    209e:	e007      	b.n	20b0 <_printf_i+0x21c>
    20a0:	2301      	movs	r3, #1
    20a2:	464a      	mov	r2, r9
    20a4:	4639      	mov	r1, r7
    20a6:	4630      	mov	r0, r6
    20a8:	47c0      	blx	r8
    20aa:	3001      	adds	r0, #1
    20ac:	d0e7      	beq.n	207e <_printf_i+0x1ea>
    20ae:	3501      	adds	r5, #1
    20b0:	68e3      	ldr	r3, [r4, #12]
    20b2:	9a03      	ldr	r2, [sp, #12]
    20b4:	1a9b      	subs	r3, r3, r2
    20b6:	429d      	cmp	r5, r3
    20b8:	dbf2      	blt.n	20a0 <_printf_i+0x20c>
    20ba:	68e0      	ldr	r0, [r4, #12]
    20bc:	9b03      	ldr	r3, [sp, #12]
    20be:	4298      	cmp	r0, r3
    20c0:	bfb8      	it	lt
    20c2:	4618      	movlt	r0, r3
    20c4:	e005      	b.n	20d2 <_printf_i+0x23e>
    20c6:	780b      	ldrb	r3, [r1, #0]
    20c8:	f884 3042 	strb.w	r3, [r4, #66]	; 0x42
    20cc:	f104 0542 	add.w	r5, r4, #66	; 0x42
    20d0:	e78a      	b.n	1fe8 <_printf_i+0x154>
    20d2:	b005      	add	sp, #20
    20d4:	e8bd 83f0 	ldmia.w	sp!, {r4, r5, r6, r7, r8, r9, pc}
    20d8:	000022e9 	andeq	r2, r0, r9, ror #5
    20dc:	000022fa 	strdeq	r2, [r0], -sl

000020e0 <memchr>:
    20e0:	b510      	push	{r4, lr}
    20e2:	b2c9      	uxtb	r1, r1
    20e4:	4402      	add	r2, r0
    20e6:	4290      	cmp	r0, r2
    20e8:	4603      	mov	r3, r0
    20ea:	d006      	beq.n	20fa <memchr+0x1a>
    20ec:	781c      	ldrb	r4, [r3, #0]
    20ee:	428c      	cmp	r4, r1
    20f0:	f100 0001 	add.w	r0, r0, #1
    20f4:	d1f7      	bne.n	20e6 <memchr+0x6>
    20f6:	4618      	mov	r0, r3
    20f8:	bd10      	pop	{r4, pc}
    20fa:	2000      	movs	r0, #0
    20fc:	bd10      	pop	{r4, pc}

000020fe <memcpy>:
    20fe:	b510      	push	{r4, lr}
    2100:	1e43      	subs	r3, r0, #1
    2102:	440a      	add	r2, r1
    2104:	4291      	cmp	r1, r2
    2106:	d004      	beq.n	2112 <memcpy+0x14>
    2108:	f811 4b01 	ldrb.w	r4, [r1], #1
    210c:	f803 4f01 	strb.w	r4, [r3, #1]!
    2110:	e7f8      	b.n	2104 <memcpy+0x6>
    2112:	bd10      	pop	{r4, pc}

00002114 <memmove>:
    2114:	4288      	cmp	r0, r1
    2116:	b510      	push	{r4, lr}
    2118:	eb01 0302 	add.w	r3, r1, r2
    211c:	d801      	bhi.n	2122 <memmove+0xe>
    211e:	1e42      	subs	r2, r0, #1
    2120:	e00b      	b.n	213a <memmove+0x26>
    2122:	4298      	cmp	r0, r3
    2124:	d2fb      	bcs.n	211e <memmove+0xa>
    2126:	1881      	adds	r1, r0, r2
    2128:	1ad2      	subs	r2, r2, r3
    212a:	42d3      	cmn	r3, r2
    212c:	d004      	beq.n	2138 <memmove+0x24>
    212e:	f813 4d01 	ldrb.w	r4, [r3, #-1]!
    2132:	f801 4d01 	strb.w	r4, [r1, #-1]!
    2136:	e7f8      	b.n	212a <memmove+0x16>
    2138:	bd10      	pop	{r4, pc}
    213a:	4299      	cmp	r1, r3
    213c:	d004      	beq.n	2148 <memmove+0x34>
    213e:	f811 4b01 	ldrb.w	r4, [r1], #1
    2142:	f802 4f01 	strb.w	r4, [r2, #1]!
    2146:	e7f8      	b.n	213a <memmove+0x26>
    2148:	bd10      	pop	{r4, pc}

0000214a <_realloc_r>:
    214a:	b5f8      	push	{r3, r4, r5, r6, r7, lr}
    214c:	4607      	mov	r7, r0
    214e:	4615      	mov	r5, r2
    2150:	460e      	mov	r6, r1
    2152:	b921      	cbnz	r1, 215e <_realloc_r+0x14>
    2154:	4611      	mov	r1, r2
    2156:	e8bd 40f8 	ldmia.w	sp!, {r3, r4, r5, r6, r7, lr}
    215a:	f7ff bb89 	b.w	1870 <_malloc_r>
    215e:	b91a      	cbnz	r2, 2168 <_realloc_r+0x1e>
    2160:	f7ff fb40 	bl	17e4 <_free_r>
    2164:	4628      	mov	r0, r5
    2166:	bdf8      	pop	{r3, r4, r5, r6, r7, pc}
    2168:	f000 f815 	bl	2196 <_malloc_usable_size_r>
    216c:	4285      	cmp	r5, r0
    216e:	d90e      	bls.n	218e <_realloc_r+0x44>
    2170:	4629      	mov	r1, r5
    2172:	4638      	mov	r0, r7
    2174:	f7ff fb7c 	bl	1870 <_malloc_r>
    2178:	4604      	mov	r4, r0
    217a:	b150      	cbz	r0, 2192 <_realloc_r+0x48>
    217c:	4631      	mov	r1, r6
    217e:	462a      	mov	r2, r5
    2180:	f7ff ffbd 	bl	20fe <memcpy>
    2184:	4631      	mov	r1, r6
    2186:	4638      	mov	r0, r7
    2188:	f7ff fb2c 	bl	17e4 <_free_r>
    218c:	e001      	b.n	2192 <_realloc_r+0x48>
    218e:	4630      	mov	r0, r6
    2190:	bdf8      	pop	{r3, r4, r5, r6, r7, pc}
    2192:	4620      	mov	r0, r4
    2194:	bdf8      	pop	{r3, r4, r5, r6, r7, pc}

00002196 <_malloc_usable_size_r>:
    2196:	f851 0c04 	ldr.w	r0, [r1, #-4]
    219a:	2800      	cmp	r0, #0
    219c:	bfbe      	ittt	lt
    219e:	1809      	addlt	r1, r1, r0
    21a0:	f851 3c04 	ldrlt.w	r3, [r1, #-4]
    21a4:	18c0      	addlt	r0, r0, r3
    21a6:	3804      	subs	r0, #4
    21a8:	4770      	bx	lr
	...

000021ac <_sbrk>:
    21ac:	4a04      	ldr	r2, [pc, #16]	; (21c0 <_sbrk+0x14>)
    21ae:	4905      	ldr	r1, [pc, #20]	; (21c4 <_sbrk+0x18>)
    21b0:	6813      	ldr	r3, [r2, #0]
    21b2:	2b00      	cmp	r3, #0
    21b4:	bf08      	it	eq
    21b6:	460b      	moveq	r3, r1
    21b8:	4418      	add	r0, r3
    21ba:	6010      	str	r0, [r2, #0]
    21bc:	4618      	mov	r0, r3
    21be:	4770      	bx	lr
    21c0:	1fff02c8 	svcne	0x00ff02c8
    21c4:	1fff0378 	svcne	0x00ff0378

000021c8 <_exit>:
    21c8:	e7fe      	b.n	21c8 <_exit>
    21ca:	bf00      	nop

000021cc <_init>:
    21cc:	b5f8      	push	{r3, r4, r5, r6, r7, lr}
    21ce:	bf00      	nop
    21d0:	bcf8      	pop	{r3, r4, r5, r6, r7}
    21d2:	bc08      	pop	{r3}
    21d4:	469e      	mov	lr, r3
    21d6:	4770      	bx	lr

000021d8 <_fini>:
    21d8:	b5f8      	push	{r3, r4, r5, r6, r7, lr}
    21da:	bf00      	nop
    21dc:	bcf8      	pop	{r3, r4, r5, r6, r7}
    21de:	bc08      	pop	{r3}
    21e0:	469e      	mov	lr, r3
    21e2:	4770      	bx	lr
    21e4:	7361654d 	cmnvc	r1, #322961408	; 0x13400000
    21e8:	64657275 	strbtvs	r7, [r5], #-629	; 0xfffffd8b
    21ec:	72654e20 	rsbvc	r4, r5, #32, 28	; 0x200
    21f0:	2074736e 	rsbscs	r7, r4, lr, ror #6
    21f4:	66252056 			; <UNDEFINED> instruction: 0x66252056
    21f8:	75502009 	ldrbvc	r2, [r0, #-9]
    21fc:	7543706d 	strbvc	r7, [r3, #-109]	; 0xffffff93
    2200:	6e657272 	mcrvs	2, 3, r7, cr5, cr2, {3}
    2204:	43442074 	movtmi	r2, #16500	; 0x4074
    2208:	09752520 	ldmdbeq	r5!, {r5, r8, sl, sp}^
    220c:	61654d20 	cmnvs	r5, r0, lsr #26
    2210:	65727573 	ldrbvs	r7, [r2, #-1395]!	; 0xfffffa8d
    2214:	75502064 	ldrbvc	r2, [r0, #-100]	; 0xffffff9c
    2218:	7543706d 	strbvc	r7, [r3, #-109]	; 0xffffff93
    221c:	6e657272 	mcrvs	2, 3, r7, cr5, cr2, {3}
    2220:	25203a74 	strcs	r3, [r0, #-2676]!	; 0xfffff58c
    2224:	20092066 	andcs	r2, r9, r6, rrx
    2228:	69736544 	ldmdbvs	r3!, {r2, r6, r8, sl, sp, lr}^
    222c:	50646572 	rsbpl	r6, r4, r2, ror r5
    2230:	43706d75 	cmnmi	r0, #7488	; 0x1d40
    2234:	65727275 	ldrbvs	r7, [r2, #-629]!	; 0xfffffd8b
    2238:	2520746e 	strcs	r7, [r0, #-1134]!	; 0xfffffb92
    223c:	0d202066 	stceq	0, cr2, [r0, #-408]!	; 0xfffffe68
    2240:	20202000 	eorcs	r2, r0, r0
    2244:	20202020 	eorcs	r2, r0, r0, lsr #32
    2248:	20202020 	eorcs	r2, r0, r0, lsr #32
    224c:	20202020 	eorcs	r2, r0, r0, lsr #32
    2250:	20202020 	eorcs	r2, r0, r0, lsr #32
    2254:	20202020 	eorcs	r2, r0, r0, lsr #32
    2258:	20202020 	eorcs	r2, r0, r0, lsr #32
    225c:	20202020 	eorcs	r2, r0, r0, lsr #32
    2260:	20202020 	eorcs	r2, r0, r0, lsr #32
    2264:	20202020 	eorcs	r2, r0, r0, lsr #32
    2268:	20202020 	eorcs	r2, r0, r0, lsr #32
    226c:	20202020 	eorcs	r2, r0, r0, lsr #32
    2270:	20202020 	eorcs	r2, r0, r0, lsr #32
    2274:	20202020 	eorcs	r2, r0, r0, lsr #32
    2278:	20202020 	eorcs	r2, r0, r0, lsr #32
    227c:	20202020 	eorcs	r2, r0, r0, lsr #32
    2280:	20202020 	eorcs	r2, r0, r0, lsr #32
    2284:	20202020 	eorcs	r2, r0, r0, lsr #32
    2288:	20202020 	eorcs	r2, r0, r0, lsr #32
    228c:	20202020 	eorcs	r2, r0, r0, lsr #32
    2290:	20202020 	eorcs	r2, r0, r0, lsr #32
    2294:	20202020 	eorcs	r2, r0, r0, lsr #32
    2298:	20202020 	eorcs	r2, r0, r0, lsr #32
    229c:	20202020 	eorcs	r2, r0, r0, lsr #32
    22a0:	20202020 	eorcs	r2, r0, r0, lsr #32
    22a4:	20202020 	eorcs	r2, r0, r0, lsr #32
    22a8:	20202020 	eorcs	r2, r0, r0, lsr #32
    22ac:	20202020 	eorcs	r2, r0, r0, lsr #32
    22b0:	20202020 	eorcs	r2, r0, r0, lsr #32
    22b4:	20202020 	eorcs	r2, r0, r0, lsr #32
    22b8:	20202020 	eorcs	r2, r0, r0, lsr #32
    22bc:	20202020 	eorcs	r2, r0, r0, lsr #32
    22c0:	20202020 	eorcs	r2, r0, r0, lsr #32
    22c4:	20202020 	eorcs	r2, r0, r0, lsr #32
    22c8:	20202020 	eorcs	r2, r0, r0, lsr #32
    22cc:	6360000d 	cmnvs	r0, #13

000022ce <ADC1SourceBytes>:
    22ce:	4f4e6360 	svcmi	0x004e6360
    22d2:	019c0043 	orrseq	r0, ip, r3, asr #32

000022d4 <_global_impure_ptr>:
    22d4:	1fff019c 	svcne	0x00ff019c
    22d8:	2b302d23 	blcs	c0d76c <__exidx_end+0xc0b454>
    22dc:	6c680020 	stclvs	0, cr0, [r8], #-128	; 0xffffff80
    22e0:	6665004c 	strbtvs	r0, [r5], -ip, asr #32
    22e4:	47464567 	strbmi	r4, [r6, -r7, ror #10]
    22e8:	32313000 	eorscc	r3, r1, #0
    22ec:	36353433 			; <UNDEFINED> instruction: 0x36353433
    22f0:	41393837 	teqmi	r9, r7, lsr r8
    22f4:	45444342 	strbmi	r4, [r4, #-834]	; 0xfffffcbe
    22f8:	31300046 	teqcc	r0, r6, asr #32
    22fc:	35343332 	ldrcc	r3, [r4, #-818]!	; 0xfffffcce
    2300:	39383736 	ldmdbcc	r8!, {r1, r2, r4, r5, r8, r9, sl, ip, sp}
    2304:	64636261 	strbtvs	r6, [r3], #-609	; 0xfffffd9f
    2308:	00006665 	andeq	r6, r0, r5, ror #12

0000230c <__EH_FRAME_BEGIN__>:
    230c:	00000000 	andeq	r0, r0, r0

Disassembly of section .ARM.exidx:

00002310 <__exidx_end-0x8>:
    2310:	7fffe15c 	svcvc	0x00ffe15c
    2314:	00000001 	andeq	r0, r0, r1

Disassembly of section .data:

1fff0198 <SystemCoreClock>:
1fff0198:	07270e00 	streq	r0, [r7, -r0, lsl #28]!

1fff019c <impure_data>:
	...
1fff01bc:	000022d2 	ldrdeq	r2, [r0], -r2	; <UNPREDICTABLE>
	...

1fff01fc <_impure_ptr>:
1fff01fc:	1fff019c 	svcne	0x00ff019c

1fff0200 <__frame_dummy_init_array_entry>:
1fff0200:	00000439 	andeq	r0, r0, r9, lsr r4

1fff0204 <__do_global_dtors_aux_fini_array_entry>:
1fff0204:	00000411 	andeq	r0, r0, r1, lsl r4

Disassembly of section .bss:

1fff0208 <__bss_start__>:
1fff0208:	00000000 	andeq	r0, r0, r0

1fff020c <object.8363>:
	...

1fff0224 <chan2Mod>:
1fff0224:	00000000 	andeq	r0, r0, r0

1fff0228 <PWMTick>:
1fff0228:	00000000 	andeq	r0, r0, r0

1fff022c <chan2Freq>:
1fff022c:	00000000 	andeq	r0, r0, r0

1fff0230 <__malloc_sbrk_start>:
1fff0230:	00000000 	andeq	r0, r0, r0

1fff0234 <__malloc_free_list>:
1fff0234:	00000000 	andeq	r0, r0, r0

1fff0238 <_global_atexit0>:
	...

1fff02c4 <_global_atexit>:
1fff02c4:	00000000 	andeq	r0, r0, r0

1fff02c8 <heap_end.4167>:
1fff02c8:	00000000 	andeq	r0, r0, r0

1fff02cc <PITData>:
	...

1fff02d4 <uart0Data>:
1fff02d4:	00000000 	andeq	r0, r0, r0

1fff02d8 <nernstVoltage>:
1fff02d8:	00000000 	andeq	r0, r0, r0

1fff02dc <pumpCurrentPID>:
	...

1fff0304 <nernstR>:
1fff0304:	00000000 	andeq	r0, r0, r0

1fff0308 <pumpCurrentDesired>:
1fff0308:	00000000 	andeq	r0, r0, r0

1fff030c <heaterPID>:
	...

1fff0334 <pumpCurrentDutyCycle>:
1fff0334:	00000000 	andeq	r0, r0, r0

1fff0338 <pumpCurrentMeasured>:
1fff0338:	00000000 	andeq	r0, r0, r0

1fff033c <nernstVoltagePID>:
	...

1fff0364 <heaterDutyCycle>:
1fff0364:	00000000 	andeq	r0, r0, r0

1fff0368 <ADC1ResultIndex>:
1fff0368:	00000000 	andeq	r0, r0, r0

1fff036c <ADC1Results>:
	...

1fff0374 <errno>:
1fff0374:	00000000 	andeq	r0, r0, r0

Disassembly of section .heap:

1fff0378 <__HeapBase>:
	...

Disassembly of section .stack_dummy:

1fff0378 <.stack_dummy>:
	...

Disassembly of section .ARM.attributes:

00000000 <.ARM.attributes>:
   0:	00002941 	andeq	r2, r0, r1, asr #18
   4:	61656100 	cmnvs	r5, r0, lsl #2
   8:	01006962 	tsteq	r0, r2, ror #18
   c:	0000001f 	andeq	r0, r0, pc, lsl r0
  10:	2d453705 	stclcs	7, cr3, [r5, #-20]	; 0xffffffec
  14:	0d06004d 	stceq	0, cr0, [r6, #-308]	; 0xfffffecc
  18:	02094d07 	andeq	r4, r9, #448	; 0x1c0
  1c:	01140412 	tsteq	r4, r2, lsl r4
  20:	03170115 	tsteq	r7, #1073741829	; 0x40000005
  24:	011a0118 	tsteq	sl, r8, lsl r1
  28:	Address 0x0000000000000028 is out of bounds.


Disassembly of section .comment:

00000000 <.comment>:
   0:	3a434347 	bcc	10d0d24 <__exidx_end+0x10cea0c>
   4:	72412820 	subvc	r2, r1, #32, 16	; 0x200000
   8:	52206863 	eorpl	r6, r0, #6488064	; 0x630000
   c:	736f7065 	cmnvc	pc, #101	; 0x65
  10:	726f7469 	rsbvc	r7, pc, #1761607680	; 0x69000000
  14:	35202979 	strcc	r2, [r0, #-2425]!	; 0xfffff687
  18:	302e322e 	eorcc	r3, lr, lr, lsr #4
	...

Disassembly of section .debug_info:

00000000 <.debug_info>:
       0:	000005a9 	andeq	r0, r0, r9, lsr #11
       4:	00000004 	andeq	r0, r0, r4
       8:	01040000 	mrseq	r0, (UNDEF: 4)
       c:	000000bc 	strheq	r0, [r0], -ip
      10:	00001a0c 	andeq	r1, r0, ip, lsl #20
      14:	00026d00 	andeq	r6, r2, r0, lsl #26
	...
      24:	06010200 	streq	r0, [r1], -r0, lsl #4
      28:	000001ff 	strdeq	r0, [r0], -pc	; <UNPREDICTABLE>
      2c:	00037003 	andeq	r7, r3, r3
      30:	371d0200 	ldrcc	r0, [sp, -r0, lsl #4]
      34:	02000000 	andeq	r0, r0, #0
      38:	01fd0801 	mvnseq	r0, r1, lsl #16
      3c:	02020000 	andeq	r0, r2, #0
      40:	0000a605 	andeq	sl, r0, r5, lsl #12
      44:	00960300 	addseq	r0, r6, r0, lsl #6
      48:	2b020000 	blcs	80050 <__exidx_end+0x7dd38>
      4c:	00000050 	andeq	r0, r0, r0, asr r0
      50:	52070202 	andpl	r0, r7, #536870912	; 0x20000000
      54:	03000002 	movweq	r0, #2
      58:	00000325 	andeq	r0, r0, r5, lsr #6
      5c:	00623f02 	rsbeq	r3, r2, r2, lsl #30
      60:	04020000 	streq	r0, [r2], #-0
      64:	00019705 	andeq	r9, r1, r5, lsl #14
      68:	007a0300 	rsbseq	r0, sl, r0, lsl #6
      6c:	41020000 	mrsmi	r0, (UNDEF: 2)
      70:	00000074 	andeq	r0, r0, r4, ror r0
      74:	15070402 	strne	r0, [r7, #-1026]	; 0xfffffbfe
      78:	02000002 	andeq	r0, r0, #2
      7c:	01920508 	orrseq	r0, r2, r8, lsl #10
      80:	08020000 	stmdaeq	r2, {}	; <UNPREDICTABLE>
      84:	00021007 	andeq	r1, r2, r7
      88:	05040400 	streq	r0, [r4, #-1024]	; 0xfffffc00
      8c:	00746e69 	rsbseq	r6, r4, r9, ror #28
      90:	1a070402 	bne	1c10a0 <__exidx_end+0x1bed88>
      94:	03000002 	movweq	r0, #2
      98:	00000372 	andeq	r0, r0, r2, ror r3
      9c:	002c1403 	eoreq	r1, ip, r3, lsl #8
      a0:	98030000 	stmdals	r3, {}	; <UNPREDICTABLE>
      a4:	03000000 	movweq	r0, #0
      a8:	0000451a 	andeq	r4, r0, sl, lsl r5
      ac:	03270300 	teqeq	r7, #0, 6
      b0:	1f030000 	svcne	0x00030000
      b4:	00000057 	andeq	r0, r0, r7, asr r0
      b8:	00007c03 	andeq	r7, r0, r3, lsl #24
      bc:	69200300 	stmdbvs	r0!, {r8, r9}
      c0:	02000000 	andeq	r0, r0, #0
      c4:	00550704 	subseq	r0, r5, r4, lsl #14
      c8:	b8050000 	stmdalt	r5, {}	; <UNPREDICTABLE>
      cc:	06000000 	streq	r0, [r0], -r0
      d0:	000000ca 	andeq	r0, r0, sl, asr #1
      d4:	00009705 	andeq	r9, r0, r5, lsl #14
      d8:	00a20500 	adceq	r0, r2, r0, lsl #10
      dc:	97070000 	strls	r0, [r7, -r0]
      e0:	ee000000 	cdp	0, 0, cr0, cr0, cr0, {0}
      e4:	08000000 	stmdaeq	r0, {}	; <UNPREDICTABLE>
      e8:	000000c3 	andeq	r0, r0, r3, asr #1
      ec:	97070003 	strls	r0, [r7, -r3]
      f0:	fe000000 	cdp2	0, 0, cr0, cr0, cr0, {0}
      f4:	08000000 	stmdaeq	r0, {}	; <UNPREDICTABLE>
      f8:	000000c3 	andeq	r0, r0, r3, asr #1
      fc:	9707001b 	smladls	r7, fp, r0, r0
     100:	0e000000 	cdpeq	0, 0, cr0, cr0, cr0, {0}
     104:	08000001 	stmdaeq	r0, {r0}
     108:	000000c3 	andeq	r0, r0, r3, asr #1
     10c:	97070007 	strls	r0, [r7, -r7]
     110:	1e000000 	cdpne	0, 0, cr0, cr0, cr0, {0}
     114:	08000001 	stmdaeq	r0, {r0}
     118:	000000c3 	andeq	r0, r0, r3, asr #1
     11c:	d4060017 	strle	r0, [r6], #-23	; 0xffffffe9
     120:	09000000 	stmdbeq	r0, {}	; <UNPREDICTABLE>
     124:	1ef6040f 	cdpne	4, 15, cr0, cr6, cr15, {0}
     128:	000001e4 	andeq	r0, r0, r4, ror #3
     12c:	0031430a 	eorseq	r4, r1, sl, lsl #6
     130:	d41ef704 	ldrle	pc, [lr], #-1796	; 0xfffff8fc
     134:	00000000 	andeq	r0, r0, r0
     138:	0032430a 	eorseq	r4, r2, sl, lsl #6
     13c:	d41ef804 	ldrle	pc, [lr], #-2052	; 0xfffff7fc
     140:	01000000 	mrseq	r0, (UNDEF: 0)
     144:	0033430a 	eorseq	r4, r3, sl, lsl #6
     148:	d41ef904 	ldrle	pc, [lr], #-2308	; 0xfffff6fc
     14c:	02000000 	andeq	r0, r0, #0
     150:	0034430a 	eorseq	r4, r4, sl, lsl #6
     154:	d41efa04 	ldrle	pc, [lr], #-2564	; 0xfffff5fc
     158:	03000000 	movweq	r0, #0
     15c:	0035430a 	eorseq	r4, r5, sl, lsl #6
     160:	d41efb04 	ldrle	pc, [lr], #-2820	; 0xfffff4fc
     164:	04000000 	streq	r0, [r0], #-0
     168:	0036430a 	eorseq	r4, r6, sl, lsl #6
     16c:	d41efc04 	ldrle	pc, [lr], #-3076	; 0xfffff3fc
     170:	05000000 	streq	r0, [r0, #-0]
     174:	0400530a 	streq	r5, [r0], #-778	; 0xfffffcf6
     178:	00d41efd 	ldrsheq	r1, [r4], #237	; 0xed
     17c:	0b060000 	bleq	180184 <__exidx_end+0x17de6c>
     180:	000002f9 	strdeq	r0, [r0], -r9
     184:	e41efe04 	ldr	pc, [lr], #-3588	; 0xfffff1fc
     188:	07000001 	streq	r0, [r0, -r1]
     18c:	0043530a 	subeq	r5, r3, sl, lsl #6
     190:	d41eff04 	ldrle	pc, [lr], #-3844	; 0xfffff0fc
     194:	08000000 	stmdaeq	r0, {}	; <UNPREDICTABLE>
     198:	0003040b 	andeq	r0, r3, fp, lsl #8
     19c:	1f000400 	svcne	0x00000400
     1a0:	000001e4 	andeq	r0, r0, r4, ror #3
     1a4:	004f0b09 	subeq	r0, pc, r9, lsl #22
     1a8:	01040000 	mrseq	r0, (UNDEF: 4)
     1ac:	0000d41f 	andeq	sp, r0, pc, lsl r4
     1b0:	2f0b0a00 	svccs	0x000b0a00
     1b4:	04000003 	streq	r0, [r0], #-3
     1b8:	00d41f02 	sbcseq	r1, r4, r2, lsl #30
     1bc:	0a0b0000 	beq	2c01c4 <__exidx_end+0x2bdeac>
     1c0:	04003743 	streq	r3, [r0], #-1859	; 0xfffff8bd
     1c4:	00d41f03 	sbcseq	r1, r4, r3, lsl #30
     1c8:	0a0c0000 	beq	3001d0 <__exidx_end+0x2fdeb8>
     1cc:	04003843 	streq	r3, [r0], #-2115	; 0xfffff7bd
     1d0:	00d41f04 	sbcseq	r1, r4, r4, lsl #30
     1d4:	0a0d0000 	beq	3401dc <__exidx_end+0x33dec4>
     1d8:	04003943 	streq	r3, [r0], #-2371	; 0xfffff6bd
     1dc:	011e1f05 	tsteq	lr, r5, lsl #30
     1e0:	000e0000 	andeq	r0, lr, r0
     1e4:	00009707 	andeq	r9, r0, r7, lsl #14
     1e8:	0001f400 	andeq	pc, r1, r0, lsl #8
     1ec:	00c30800 	sbceq	r0, r3, r0, lsl #16
     1f0:	00000000 	andeq	r0, r0, r0
     1f4:	0002b00c 	andeq	fp, r2, ip
     1f8:	1f060400 	svcne	0x00060400
     1fc:	00000123 	andeq	r0, r0, r3, lsr #2
     200:	88040109 	stmdahi	r4, {r0, r3, r8}
     204:	00021622 	andeq	r1, r2, r2, lsr #12
     208:	52430a00 	subpl	r0, r3, #0, 20
     20c:	22890400 	addcs	r0, r9, #0, 8
     210:	000000d4 	ldrdeq	r0, [r0], -r4
     214:	d50c0000 	strle	r0, [ip, #-0]
     218:	04000002 	streq	r0, [r0], #-2
     21c:	0200228a 	andeq	r2, r0, #-1610612728	; 0xa0000008
     220:	03090000 	movweq	r0, #36864	; 0x9000
     224:	53244504 	teqpl	r4, #4, 10	; 0x1000000
     228:	0b000002 	bleq	238 <Heap_Size+0x138>
     22c:	00000234 	andeq	r0, r0, r4, lsr r2
     230:	d4244604 	strtle	r4, [r4], #-1540	; 0xfffff9fc
     234:	00000000 	andeq	r0, r0, r0
     238:	00023b0b 	andeq	r3, r2, fp, lsl #22
     23c:	24470400 	strbcs	r0, [r7], #-1024	; 0xfffffc00
     240:	000000d4 	ldrdeq	r0, [r0], -r4
     244:	00740b01 	rsbseq	r0, r4, r1, lsl #22
     248:	48040000 	stmdami	r4, {}	; <UNPREDICTABLE>
     24c:	0000d424 	andeq	sp, r0, r4, lsr #8
     250:	0c000200 	sfmeq	f0, 4, [r0], {-0}
     254:	00000346 	andeq	r0, r0, r6, asr #6
     258:	22244904 	eorcs	r4, r4, #4, 18	; 0x10000
     25c:	09000002 	stmdbeq	r0, {r1}
     260:	24ba04cc 	ldrtcs	r0, [sl], #1228	; 0x4cc
     264:	000002de 	ldrdeq	r0, [r0], -lr
     268:	5243500a 	subpl	r5, r3, #10
     26c:	24bb0400 	ldrtcs	r0, [fp], #1024	; 0x400
     270:	000002ee 	andeq	r0, r0, lr, ror #5
     274:	02270b00 	eoreq	r0, r7, #0, 22
     278:	bc040000 	stclt	0, cr0, [r4], {-0}
     27c:	0000ca24 	andeq	ip, r0, r4, lsr #20
     280:	e10b8000 	mrs	r8, (UNDEF: 11)
     284:	04000001 	streq	r0, [r0], #-1
     288:	00ca24bd 	strheq	r2, [sl], #77	; 0x4d
     28c:	0b840000 	bleq	fe100294 <__StackTop+0xde0d0294>
     290:	000002f9 	strdeq	r0, [r0], -r9
     294:	0e24be04 	cdpeq	14, 2, cr11, cr4, cr4, {0}
     298:	88000001 	stmdahi	r0, {r0}
     29c:	00020b0b 	andeq	r0, r2, fp, lsl #22
     2a0:	24bf0400 	ldrtcs	r0, [pc], #1024	; 2a8 <Heap_Size+0x1a8>
     2a4:	000000ca 	andeq	r0, r0, sl, asr #1
     2a8:	03040ba0 	movweq	r0, #19360	; 0x4ba0
     2ac:	c0040000 	andgt	r0, r4, r0
     2b0:	0000ee24 	andeq	lr, r0, r4, lsr #28
     2b4:	610ba400 	tstvs	fp, r0, lsl #8
     2b8:	04000003 	streq	r0, [r0], #-3
     2bc:	00ca24c1 	sbceq	r2, sl, r1, asr #9
     2c0:	0bc00000 	bleq	ff0002c8 <__StackTop+0xdefd02c8>
     2c4:	00000242 	andeq	r0, r0, r2, asr #4
     2c8:	ca24c204 	bgt	930ae0 <__exidx_end+0x92e7c8>
     2cc:	c4000000 	strgt	r0, [r0], #-0
     2d0:	0002ee0b 	andeq	lr, r2, fp, lsl #28
     2d4:	24c30400 	strbcs	r0, [r3], #1024	; 0x400
     2d8:	000000ca 	andeq	r0, r0, sl, asr #1
     2dc:	b80700c8 	stmdalt	r7, {r3, r6, r7}
     2e0:	ee000000 	cdp	0, 0, cr0, cr0, cr0, {0}
     2e4:	08000002 	stmdaeq	r0, {r1}
     2e8:	000000c3 	andeq	r0, r0, r3, asr #1
     2ec:	de05001f 	mcrle	0, 0, r0, cr5, cr15, {0}
     2f0:	0c000002 	stceq	0, cr0, [r0], {2}
     2f4:	00000366 	andeq	r0, r0, r6, ror #6
     2f8:	5f24c404 	svcpl	0x0024c404
     2fc:	0d000002 	stceq	0, cr0, [r0, #-8]
     300:	ce041064 	cdpgt	0, 0, cr1, cr4, cr4, {3}
     304:	0004732a 	andeq	r7, r4, sl, lsr #6
     308:	02b90b00 	adcseq	r0, r9, #0, 22
     30c:	cf040000 	svcgt	0x00040000
     310:	0000ca2a 	andeq	ip, r0, sl, lsr #20
     314:	460b0000 	strmi	r0, [fp], -r0
     318:	04000000 	streq	r0, [r0], #-0
     31c:	00ca2ad0 	ldrdeq	r2, [sl], #160	; 0xa0
     320:	0b040000 	bleq	100328 <__exidx_end+0xfe010>
     324:	000002f9 	strdeq	r0, [r0], -r9
     328:	732ad104 	teqvc	sl, #4, 2
     32c:	08000004 	stmdaeq	r0, {r2}
     330:	0002cf0e 	andeq	ip, r2, lr, lsl #30
     334:	2ad20400 	bcs	ff48133c <__StackTop+0xdf45133c>
     338:	000000ca 	andeq	r0, r0, sl, asr #1
     33c:	040e1004 	streq	r1, [lr], #-4
     340:	04000003 	streq	r0, [r0], #-3
     344:	00de2ad3 	ldrsbeq	r2, [lr], #163	; 0xa3
     348:	10080000 	andne	r0, r8, r0
     34c:	00037a0e 	andeq	r7, r3, lr, lsl #20
     350:	2ad40400 	bcs	ff501358 <__StackTop+0xdf4d1358>
     354:	000000ca 	andeq	r0, r0, sl, asr #1
     358:	000e100c 	andeq	r1, lr, ip
     35c:	04000000 	streq	r0, [r0], #-0
     360:	00ca2ad5 	ldrdeq	r2, [sl], #165	; 0xa5
     364:	10100000 	andsne	r0, r0, r0
     368:	00030f0e 	andeq	r0, r3, lr, lsl #30
     36c:	2ad60400 	bcs	ff581374 <__StackTop+0xdf551374>
     370:	000000de 	ldrdeq	r0, [r0], -lr
     374:	e70e1014 	smlad	lr, r4, r0, r1
     378:	04000001 	streq	r0, [r0], #-1
     37c:	00ca2ad7 	ldrdeq	r2, [sl], #167	; 0xa7
     380:	10180000 	andsne	r0, r8, r0
     384:	00031a0e 	andeq	r1, r3, lr, lsl #20
     388:	2ad80400 	bcs	ff601390 <__StackTop+0xdf5d1390>
     38c:	000000fe 	strdeq	r0, [r0], -lr
     390:	410e101c 	tstmi	lr, ip, lsl r0
     394:	04000000 	streq	r0, [r0], #-0
     398:	00cf2ad9 	ldrdeq	r2, [pc], #169	; <UNPREDICTABLE>
     39c:	10240000 	eorne	r0, r4, r0
     3a0:	0001a70e 	andeq	sl, r1, lr, lsl #14
     3a4:	2ada0400 	bcs	ff6813ac <__StackTop+0xdf6513ac>
     3a8:	000000ca 	andeq	r0, r0, sl, asr #1
     3ac:	ad0e1028 	stcge	0, cr1, [lr, #-160]	; 0xffffff60
     3b0:	04000001 	streq	r0, [r0], #-1
     3b4:	00ca2adb 	ldrdeq	r2, [sl], #171	; 0xab
     3b8:	102c0000 	eorne	r0, ip, r0
     3bc:	0001b30e 	andeq	fp, r1, lr, lsl #6
     3c0:	2adc0400 	bcs	ff7013c8 <__StackTop+0xdf6d13c8>
     3c4:	000000ca 	andeq	r0, r0, sl, asr #1
     3c8:	b90e1030 	stmdblt	lr, {r4, r5, ip}
     3cc:	04000001 	streq	r0, [r0], #-1
     3d0:	00ca2add 	ldrdeq	r2, [sl], #173	; 0xad
     3d4:	10340000 	eorsne	r0, r4, r0
     3d8:	0001bf0e 	andeq	fp, r1, lr, lsl #30
     3dc:	2ade0400 	bcs	ff7813e4 <__StackTop+0xdf7513e4>
     3e0:	000000ca 	andeq	r0, r0, sl, asr #1
     3e4:	c50e1038 	strgt	r1, [lr, #-56]	; 0xffffffc8
     3e8:	04000001 	streq	r0, [r0], #-1
     3ec:	00ca2adf 	ldrdeq	r2, [sl], #175	; 0xaf
     3f0:	103c0000 	eorsne	r0, ip, r0
     3f4:	0001cb0e 	andeq	ip, r1, lr, lsl #22
     3f8:	2ae00400 	bcs	ff801400 <__StackTop+0xdf7d1400>
     3fc:	000000ca 	andeq	r0, r0, sl, asr #1
     400:	ed0e1040 	stc	0, cr1, [lr, #-256]	; 0xffffff00
     404:	04000001 	streq	r0, [r0], #-1
     408:	00ca2ae1 	sbceq	r2, sl, r1, ror #21
     40c:	10440000 	subne	r0, r4, r0
     410:	0001f50e 	andeq	pc, r1, lr, lsl #10
     414:	2ae20400 	bcs	ff88141c <__StackTop+0xdf85141c>
     418:	000000ca 	andeq	r0, r0, sl, asr #1
     41c:	060e1048 	streq	r1, [lr], -r8, asr #32
     420:	04000000 	streq	r0, [r0], #-0
     424:	00ca2ae3 	sbceq	r2, sl, r3, ror #21
     428:	104c0000 	subne	r0, ip, r0
     42c:	00000c0e 	andeq	r0, r0, lr, lsl #24
     430:	2ae40400 	bcs	ff901438 <__StackTop+0xdf8d1438>
     434:	000000cf 	andeq	r0, r0, pc, asr #1
     438:	a10e1050 	qaddge	r1, r0, lr
     43c:	04000000 	streq	r0, [r0], #-0
     440:	00cf2ae5 	sbceq	r2, pc, r5, ror #21
     444:	10540000 	subsne	r0, r4, r0
     448:	0001d10e 	andeq	sp, r1, lr, lsl #2
     44c:	2ae60400 	bcs	ff981454 <__StackTop+0xdf951454>
     450:	000000cf 	andeq	r0, r0, pc, asr #1
     454:	f30e1058 	vqadd.u8	<illegal reg q0.5>, q7, q4
     458:	04000002 	streq	r0, [r0], #-2
     45c:	00cf2ae7 	sbceq	r2, pc, r7, ror #21
     460:	105c0000 	subsne	r0, ip, r0
     464:	0000b00e 	andeq	fp, r0, lr
     468:	2ae80400 	bcs	ffa01470 <__StackTop+0xdf9d1470>
     46c:	000000cf 	andeq	r0, r0, pc, asr #1
     470:	07001060 	streq	r1, [r0, -r0, rrx]
     474:	00000097 	muleq	r0, r7, r0
     478:	00000484 	andeq	r0, r0, r4, lsl #9
     47c:	0000c30f 	andeq	ip, r0, pc, lsl #6
     480:	000ffb00 	andeq	pc, pc, r0, lsl #22
     484:	00008d0c 	andeq	r8, r0, ip, lsl #26
     488:	2ae90400 	bcs	ffa41490 <__StackTop+0xdfa11490>
     48c:	000002ff 	strdeq	r0, [r0], -pc	; <UNPREDICTABLE>
     490:	8d041809 	stchi	8, cr1, [r4, #-36]	; 0xffffffdc
     494:	00053633 	andeq	r3, r5, r3, lsr r6
     498:	018a0b00 	orreq	r0, sl, r0, lsl #22
     49c:	8e040000 	cdphi	0, 0, cr0, cr4, cr0, {0}
     4a0:	0000d933 	andeq	sp, r0, r3, lsr r9
     4a4:	e60b0000 	str	r0, [fp], -r0
     4a8:	04000002 	streq	r0, [r0], #-2
     4ac:	00d9338f 	sbcseq	r3, r9, pc, lsl #7
     4b0:	0b020000 	bleq	804b8 <__exidx_end+0x7e1a0>
     4b4:	000000b5 	strheq	r0, [r0], -r5
     4b8:	d9339004 	ldmdble	r3!, {r2, ip, pc}
     4bc:	04000000 	streq	r0, [r0], #-0
     4c0:	0001830b 	andeq	r8, r1, fp, lsl #6
     4c4:	33910400 	orrscc	r0, r1, #0, 8
     4c8:	000000d9 	ldrdeq	r0, [r0], -r9
     4cc:	03410b06 	movteq	r0, #6918	; 0x1b06
     4d0:	92040000 	andls	r0, r4, #0
     4d4:	0000d933 	andeq	sp, r0, r3, lsr r9
     4d8:	4f0b0800 	svcmi	0x000b0800
     4dc:	04000003 	streq	r0, [r0], #-3
     4e0:	00d93393 	smullseq	r3, r9, r3, r3
     4e4:	0b0a0000 	bleq	2804ec <__exidx_end+0x27e1d4>
     4e8:	000002de 	ldrdeq	r0, [r0], -lr
     4ec:	d9339404 	ldmdble	r3!, {r2, sl, ip, pc}
     4f0:	0c000000 	stceq	0, cr0, [r0], {-0}
     4f4:	0001a00b 	andeq	sl, r1, fp
     4f8:	33950400 	orrscc	r0, r5, #0, 8
     4fc:	000000d9 	ldrdeq	r0, [r0], -r9
     500:	00850b0e 	addeq	r0, r5, lr, lsl #22
     504:	96040000 	strls	r0, [r4], -r0
     508:	0000d933 	andeq	sp, r0, r3, lsr r9
     50c:	120b1000 	andne	r1, fp, #0
     510:	04000000 	streq	r0, [r0], #-0
     514:	00d93397 	smullseq	r3, r9, r7, r3
     518:	0b120000 	bleq	480520 <__exidx_end+0x47e208>
     51c:	0000022d 	andeq	r0, r0, sp, lsr #4
     520:	d9339804 	ldmdble	r3!, {r2, fp, ip, pc}
     524:	14000000 	strne	r0, [r0], #-0
     528:	00003b0b 	andeq	r3, r0, fp, lsl #22
     52c:	33990400 	orrscc	r0, r9, #0, 8
     530:	000000d9 	ldrdeq	r0, [r0], -r9
     534:	d70c0016 	smladle	ip, r6, r0, r0
     538:	04000001 	streq	r0, [r0], #-1
     53c:	0490339a 	ldreq	r3, [r0], #922	; 0x39a
     540:	47100000 	ldrmi	r0, [r0, -r0]
     544:	01000002 	tsteq	r0, r2
     548:	0004d481 	andeq	sp, r4, r1, lsl #9
     54c:	0000e800 	andeq	lr, r0, r0, lsl #16
     550:	119c0100 	orrsne	r0, ip, r0, lsl #2
     554:	0000005e 	andeq	r0, r0, lr, asr r0
     558:	00015801 	andeq	r5, r1, r1, lsl #16
     55c:	28000000 	stmdacs	r0, {}	; <UNPREDICTABLE>
     560:	01000001 	tsteq	r0, r1
     564:	00058a9c 	muleq	r5, ip, sl
     568:	03351200 	teqeq	r5, #0, 4
     56c:	59010000 	stmdbpl	r1, {}	; <UNPREDICTABLE>
     570:	0000b801 	andeq	fp, r0, r1, lsl #16
     574:	00000000 	andeq	r0, r0, r0
     578:	02651200 	rsbeq	r1, r5, #0, 4
     57c:	5a010000 	bpl	40584 <__exidx_end+0x3e26c>
     580:	00009701 	andeq	r9, r0, r1, lsl #14
     584:	00005500 	andeq	r5, r0, r0, lsl #10
     588:	54130000 	ldrpl	r0, [r3], #-0
     58c:	05000003 	streq	r0, [r0, #-3]
     590:	059606a7 	ldreq	r0, [r6, #1703]	; 0x6a7
     594:	ad050000 	stcge	0, cr0, [r5, #-0]
     598:	14000000 	strne	r0, [r0], #-0
     59c:	000002bf 			; <UNDEFINED> instruction: 0x000002bf
     5a0:	00b87b01 	adcseq	r7, r8, r1, lsl #22
     5a4:	03050000 	movweq	r0, #20480	; 0x5000
     5a8:	1fff0198 	svcne	0x00ff0198
     5ac:	00085700 	andeq	r5, r8, r0, lsl #14
     5b0:	17000400 	strne	r0, [r0, -r0, lsl #8]
     5b4:	04000001 	streq	r0, [r0], #-1
     5b8:	0000bc01 	andeq	fp, r0, r1, lsl #24
     5bc:	082a0c00 	stmdaeq	sl!, {sl, fp}
     5c0:	026d0000 	rsbeq	r0, sp, #0
     5c4:	00180000 	andseq	r0, r8, r0
     5c8:	00000000 	andeq	r0, r0, r0
     5cc:	014b0000 	mrseq	r0, (UNDEF: 75)
     5d0:	01020000 	mrseq	r0, (UNDEF: 2)
     5d4:	0001ff06 	andeq	pc, r1, r6, lsl #30
     5d8:	03700300 	cmneq	r0, #0, 6
     5dc:	1d040000 	stcne	0, cr0, [r4, #-0]
     5e0:	00000037 	andeq	r0, r0, r7, lsr r0
     5e4:	fd080102 	stc2	1, cr0, [r8, #-8]
     5e8:	02000001 	andeq	r0, r0, #1
     5ec:	00a60502 	adceq	r0, r6, r2, lsl #10
     5f0:	02020000 	andeq	r0, r2, #0
     5f4:	00025207 	andeq	r5, r2, r7, lsl #4
     5f8:	03250300 	teqeq	r5, #0, 6
     5fc:	3f040000 	svccc	0x00040000
     600:	00000057 	andeq	r0, r0, r7, asr r0
     604:	97050402 	strls	r0, [r5, -r2, lsl #8]
     608:	03000001 	movweq	r0, #1
     60c:	0000007a 	andeq	r0, r0, sl, ror r0
     610:	00694104 	rsbeq	r4, r9, r4, lsl #2
     614:	04020000 	streq	r0, [r2], #-0
     618:	00021507 	andeq	r1, r2, r7, lsl #10
     61c:	05080200 	streq	r0, [r8, #-512]	; 0xfffffe00
     620:	00000192 	muleq	r0, r2, r1
     624:	10070802 	andne	r0, r7, r2, lsl #16
     628:	04000002 	streq	r0, [r0], #-2
     62c:	6e690504 	cdpvs	5, 6, cr0, cr9, cr4, {0}
     630:	04020074 	streq	r0, [r2], #-116	; 0xffffff8c
     634:	00021a07 	andeq	r1, r2, r7, lsl #20
     638:	03720300 	cmneq	r2, #0, 6
     63c:	14050000 	strne	r0, [r5], #-0
     640:	0000002c 	andeq	r0, r0, ip, lsr #32
     644:	00032703 	andeq	r2, r3, r3, lsl #14
     648:	4c1f0500 	cfldr32mi	mvfx0, [pc], {-0}
     64c:	03000000 	movweq	r0, #0
     650:	0000007c 	andeq	r0, r0, ip, ror r0
     654:	005e2005 	subseq	r2, lr, r5
     658:	02050000 	andeq	r0, r5, #0
     65c:	01000006 	tsteq	r0, r6
     660:	00000025 	andeq	r0, r0, r5, lsr #32
     664:	02f87906 	rscseq	r7, r8, #98304	; 0x18000
     668:	7b060000 	blvc	180670 <__exidx_end+0x17e358>
     66c:	72000008 	andvc	r0, r0, #8
     670:	0004c606 	andeq	ip, r4, r6, lsl #12
     674:	8e067300 	cdphi	3, 0, cr7, cr6, cr0, {0}
     678:	74000005 	strvc	r0, [r0], #-5
     67c:	0004df06 	andeq	sp, r4, r6, lsl #30
     680:	1a067500 	bne	19da88 <__exidx_end+0x19b770>
     684:	76000008 	strvc	r0, [r0], -r8
     688:	0005e306 	andeq	lr, r5, r6, lsl #6
     68c:	36067b00 	strcc	r7, [r6], -r0, lsl #22
     690:	7c000009 	stcvc	0, cr0, [r0], {9}
     694:	00080e06 	andeq	r0, r8, r6, lsl #28
     698:	69067e00 	stmdbvs	r6, {r9, sl, fp, ip, sp, lr}
     69c:	7f000006 	svcvc	0x00000006
     6a0:	0006ea07 	andeq	lr, r6, r7, lsl #20
     6a4:	ff070000 			; <UNDEFINED> instruction: 0xff070000
     6a8:	01000004 	tsteq	r0, r4
     6ac:	00086807 	andeq	r6, r8, r7, lsl #16
     6b0:	74070200 	strvc	r0, [r7], #-512	; 0xfffffe00
     6b4:	03000004 	movweq	r0, #4
     6b8:	00056607 	andeq	r6, r5, r7, lsl #12
     6bc:	5f070400 	svcpl	0x00070400
     6c0:	05000006 	streq	r0, [r0, #-6]
     6c4:	00090607 	andeq	r0, r9, r7, lsl #12
     6c8:	80070600 	andhi	r0, r7, r0, lsl #12
     6cc:	07000003 	streq	r0, [r0, -r3]
     6d0:	00042807 	andeq	r2, r4, r7, lsl #16
     6d4:	fe070800 	cdp2	8, 0, cr0, cr7, cr0, {0}
     6d8:	09000006 	stmdbeq	r0, {r1, r2}
     6dc:	0005fc07 	andeq	pc, r5, r7, lsl #24
     6e0:	ca070a00 	bgt	1c2ee8 <__exidx_end+0x1c0bd0>
     6e4:	0b000006 	bleq	704 <PIDUpdate+0x94>
     6e8:	00094807 	andeq	r4, r9, r7, lsl #16
     6ec:	c1070c00 	tstgt	r7, r0, lsl #24
     6f0:	0d000003 	stceq	0, cr0, [r0, #-12]
     6f4:	00045407 	andeq	r5, r4, r7, lsl #8
     6f8:	70070e00 	andvc	r0, r7, r0, lsl #28
     6fc:	0f000007 	svceq	0x00000007
     700:	00089c07 	andeq	r9, r8, r7, lsl #24
     704:	72071000 	andvc	r1, r7, #0
     708:	11000008 	tstne	r0, r8
     70c:	0008ab07 	andeq	sl, r8, r7, lsl #22
     710:	26071200 	strcs	r1, [r7], -r0, lsl #4
     714:	13000006 	movwne	r0, #6
     718:	00068207 	andeq	r8, r6, r7, lsl #4
     71c:	23071400 	movwcs	r1, #29696	; 0x7400
     720:	15000009 	strne	r0, [r0, #-9]
     724:	00040007 	andeq	r0, r4, r7
     728:	a3071600 	movwge	r1, #30208	; 0x7600
     72c:	17000004 	strne	r0, [r0, -r4]
     730:	00072c07 	andeq	r2, r7, r7, lsl #24
     734:	d4071800 	strle	r1, [r7], #-2048	; 0xfffff800
     738:	19000007 	stmdbne	r0, {r0, r1, r2}
     73c:	00052407 	andeq	r2, r5, r7, lsl #8
     740:	11071a00 	tstne	r7, r0, lsl #20
     744:	1b000006 	blne	764 <PIDSetGoal+0x26>
     748:	0008d007 	andeq	sp, r8, r7
     74c:	8f071c00 	svchi	0x00071c00
     750:	1d000008 	stcne	0, cr0, [r0, #-32]	; 0xffffffe0
     754:	0008f707 	andeq	pc, r8, r7, lsl #14
     758:	53071e00 	movwpl	r1, #32256	; 0x7e00
     75c:	1f000009 	svcne	0x00000009
     760:	00054807 	andeq	r4, r5, r7, lsl #16
     764:	b3072000 	movwlt	r2, #28672	; 0x7000
     768:	21000005 	tstcs	r0, r5
     76c:	00055707 	andeq	r5, r5, r7, lsl #14
     770:	e3072200 	movw	r2, #29184	; 0x7200
     774:	23000007 	movwcs	r0, #7
     778:	00057007 	andeq	r7, r5, r7
     77c:	cc072400 	cfstrsgt	mvf2, [r7], {-0}
     780:	25000003 	strcs	r0, [r0, #-3]
     784:	00057f07 	andeq	r7, r5, r7, lsl #30
     788:	f4072600 	vst1.8	{d2-d4}, [r7], r0
     78c:	27000006 	strcs	r0, [r0, -r6]
     790:	00065507 	andeq	r5, r6, r7, lsl #10
     794:	36072800 	strcc	r2, [r7], -r0, lsl #16
     798:	29000007 	stmdbcs	r0, {r0, r1, r2}
     79c:	00045f07 	andeq	r5, r4, r7, lsl #30
     7a0:	10072a00 	andne	r2, r7, r0, lsl #20
     7a4:	2b000009 	blcs	7d0 <uartInit+0x54>
     7a8:	00083607 	andeq	r3, r8, r7, lsl #12
     7ac:	4b072c00 	blmi	1cb7b4 <__exidx_end+0x1c949c>
     7b0:	2d000004 	stccs	0, cr0, [r0, #-16]
     7b4:	00079007 	andeq	r9, r7, r7
     7b8:	d2072e00 	andle	r2, r7, #0, 28
     7bc:	2f000005 	svccs	0x00000005
     7c0:	00053e07 	andeq	r3, r5, r7, lsl #28
     7c4:	8f073000 	svchi	0x00073000
     7c8:	31000003 	tstcc	r0, r3
     7cc:	0008e707 	andeq	lr, r8, r7, lsl #14
     7d0:	64073200 	strvs	r3, [r7], #-512	; 0xfffffe00
     7d4:	33000009 	movwcc	r0, #9
     7d8:	0004d507 	andeq	sp, r4, r7, lsl #10
     7dc:	eb073400 	bl	1cd7e4 <__exidx_end+0x1cb4cc>
     7e0:	35000003 	strcc	r0, [r0, #-3]
     7e4:	00067607 	andeq	r7, r6, r7, lsl #12
     7e8:	b1073600 	tstlt	r7, r0, lsl #12
     7ec:	37000003 	strcc	r0, [r0, -r3]
     7f0:	00060707 	andeq	r0, r6, r7, lsl #14
     7f4:	7b073800 	blvc	1ce7fc <__exidx_end+0x1cc4e4>
     7f8:	39000007 	stmdbcc	r0, {r0, r1, r2}
     7fc:	0005ef07 	andeq	lr, r5, r7, lsl #30
     800:	1b073a00 	blne	1cf008 <__exidx_end+0x1cccf0>
     804:	3b000006 	blcc	824 <InitPWM2>
     808:	0006df07 	andeq	sp, r6, r7, lsl #30
     80c:	8e073c00 	cdphi	12, 0, cr3, cr7, cr0, {0}
     810:	3d000007 	stccc	0, cr0, [r0, #-28]	; 0xffffffe4
     814:	0003f507 	andeq	pc, r3, r7, lsl #10
     818:	69073e00 	stmdbvs	r7, {r9, sl, fp, ip, sp}
     81c:	3f000004 	svccc	0x00000004
     820:	0003a307 	andeq	sl, r3, r7, lsl #6
     824:	d5074000 	strle	r4, [r7, #-0]
     828:	41000006 	tstmi	r0, r6
     82c:	00064407 	andeq	r4, r6, r7, lsl #8
     830:	a4074200 	strge	r4, [r7], #-512	; 0xfffffe00
     834:	43000005 	movwmi	r0, #5
     838:	0006a107 	andeq	sl, r6, r7, lsl #2
     83c:	3c074400 	cfstrscc	mvf4, [r7], {-0}
     840:	45000004 	strmi	r0, [r0, #-4]
     844:	00078407 	andeq	r8, r7, r7, lsl #8
     848:	3a074600 	bcc	1d2050 <__exidx_end+0x1cfd38>
     84c:	47000006 	strmi	r0, [r0, -r6]
     850:	00039907 	andeq	r9, r3, r7, lsl #18
     854:	0d074800 	stceq	8, cr4, [r7, #-0]
     858:	49000007 	stmdbmi	r0, {r0, r1, r2}
     85c:	00043207 	andeq	r3, r4, r7, lsl #4
     860:	40074a00 	andmi	r4, r7, r0, lsl #20
     864:	4b000008 	blmi	88c <InitPWM2+0x68>
     868:	00068f07 	andeq	r8, r6, r7, lsl #30
     86c:	8e074c00 	cdphi	12, 0, cr4, cr7, cr0, {0}
     870:	4d000004 	stcmi	0, cr0, [r0, #-16]
     874:	00040e07 	andeq	r0, r4, r7, lsl #28
     878:	bb074e00 	bllt	1d4080 <__exidx_end+0x1d1d68>
     87c:	4f000008 	svcmi	0x00000008
     880:	00050907 	andeq	r0, r5, r7, lsl #18
     884:	2c075000 	stccs	0, cr5, [r7], {-0}
     888:	51000009 	tstpl	r0, r9
     88c:	0004b107 	andeq	fp, r4, r7, lsl #2
     890:	b2075200 	andlt	r5, r7, #0, 4
     894:	53000006 	movwpl	r0, #6
     898:	0004ed07 	andeq	lr, r4, r7, lsl #26
     89c:	7e075400 	cfcpysvc	mvf5, mvf7
     8a0:	55000004 	strpl	r0, [r0, #-4]
     8a4:	07fe0300 	ldrbeq	r0, [lr, r0, lsl #6]!
     8a8:	dc060000 	stcle	0, cr0, [r6], {-0}
     8ac:	000000ad 	andeq	r0, r0, sp, lsr #1
     8b0:	020e0408 	andeq	r0, lr, #8, 8	; 0x8000000
     8b4:	03bf0150 			; <UNDEFINED> instruction: 0x03bf0150
     8b8:	9e090000 	cdpls	0, 0, cr0, cr9, cr0, {0}
     8bc:	02000004 	andeq	r0, r0, #4
     8c0:	03d60152 	bicseq	r0, r6, #-2147483628	; 0x80000014
     8c4:	09000000 	stmdbeq	r0, {}	; <UNPREDICTABLE>
     8c8:	00000740 	andeq	r0, r0, r0, asr #14
     8cc:	db015302 	blle	554dc <__exidx_end+0x531c4>
     8d0:	20000003 	andcs	r0, r0, r3
     8d4:	00070809 	andeq	r0, r7, r9, lsl #16
     8d8:	01540200 	cmpeq	r4, r0, lsl #4
     8dc:	000003eb 	andeq	r0, r0, fp, ror #7
     8e0:	091a0980 	ldmdbeq	sl, {r7, r8, fp}
     8e4:	55020000 	strpl	r0, [r2, #-0]
     8e8:	0003db01 	andeq	sp, r3, r1, lsl #22
     8ec:	230aa000 	movwcs	sl, #40960	; 0xa000
     8f0:	02000004 	andeq	r0, r0, #4
     8f4:	03f00156 	mvnseq	r0, #-2147483627	; 0x80000015
     8f8:	01000000 	mrseq	r0, (UNDEF: 0)
     8fc:	00074a0a 	andeq	r4, r7, sl, lsl #20
     900:	01570200 	cmpeq	r7, r0, lsl #4
     904:	000003db 	ldrdeq	r0, [r0], -fp
     908:	8a0a0120 	bhi	280d90 <__exidx_end+0x27ea78>
     90c:	02000003 	andeq	r0, r0, #3
     910:	03f50158 	mvnseq	r0, #88, 2
     914:	01800000 	orreq	r0, r0, r0
     918:	0007f40a 	andeq	pc, r7, sl, lsl #8
     91c:	01590200 	cmpeq	r9, r0, lsl #4
     920:	000003db 	ldrdeq	r0, [r0], -fp
     924:	c50a01a0 	strgt	r0, [sl, #-416]	; 0xfffffe60
     928:	02000006 	andeq	r0, r0, #6
     92c:	03fa015a 	mvnseq	r0, #-2147483626	; 0x80000016
     930:	02000000 	andeq	r0, r0, #0
     934:	0007540a 	andeq	r5, r7, sl, lsl #8
     938:	015b0200 	cmpeq	fp, r0, lsl #4
     93c:	000003ff 	strdeq	r0, [r0], -pc	; <UNPREDICTABLE>
     940:	490b0220 	stmdbmi	fp, {r5, r9}
     944:	5c020050 	stcpl	0, cr0, [r2], {80}	; 0x50
     948:	00041f01 	andeq	r1, r4, r1, lsl #30
     94c:	0a030000 	beq	c0954 <__exidx_end+0xbe63c>
     950:	0000075e 	andeq	r0, r0, lr, asr r7
     954:	24015d02 	strcs	r5, [r1], #-3330	; 0xfffff2fe
     958:	f0000004 			; <UNDEFINED> instruction: 0xf0000004
     95c:	03ac0a03 			; <UNDEFINED> instruction: 0x03ac0a03
     960:	5e020000 	cdppl	0, 0, cr0, cr2, cr0, {0}
     964:	00043501 	andeq	r3, r4, r1, lsl #10
     968:	000e0000 	andeq	r0, lr, r0
     96c:	0000a20c 	andeq	sl, r0, ip, lsl #4
     970:	0003cf00 	andeq	ip, r3, r0, lsl #30
     974:	03cf0d00 	biceq	r0, pc, #0, 26
     978:	00070000 	andeq	r0, r7, r0
     97c:	55070402 	strpl	r0, [r7, #-1026]	; 0xfffffbfe
     980:	0e000000 	cdpeq	0, 0, cr0, cr0, cr0, {0}
     984:	000003bf 			; <UNDEFINED> instruction: 0x000003bf
     988:	0000a20c 	andeq	sl, r0, ip, lsl #4
     98c:	0003eb00 	andeq	lr, r3, r0, lsl #22
     990:	03cf0d00 	biceq	r0, pc, #0, 26
     994:	00170000 	andseq	r0, r7, r0
     998:	0003bf0e 	andeq	fp, r3, lr, lsl #30
     99c:	03bf0e00 			; <UNDEFINED> instruction: 0x03bf0e00
     9a0:	bf0e0000 	svclt	0x000e0000
     9a4:	0e000003 	cdpeq	0, 0, cr0, cr0, cr3, {0}
     9a8:	000003bf 			; <UNDEFINED> instruction: 0x000003bf
     9ac:	0000a20c 	andeq	sl, r0, ip, lsl #4
     9b0:	00040f00 	andeq	r0, r4, r0, lsl #30
     9b4:	03cf0d00 	biceq	r0, pc, #0, 26
     9b8:	00370000 	eorseq	r0, r7, r0
     9bc:	00008c0c 	andeq	r8, r0, ip, lsl #24
     9c0:	00041f00 	andeq	r1, r4, r0, lsl #30
     9c4:	03cf0d00 	biceq	r0, pc, #0, 26
     9c8:	00ef0000 	rsceq	r0, pc, r0
     9cc:	00040f0e 	andeq	r0, r4, lr, lsl #30
     9d0:	00a20c00 	adceq	r0, r2, r0, lsl #24
     9d4:	04350000 	ldrteq	r0, [r5], #-0
     9d8:	cf0f0000 	svcgt	0x000f0000
     9dc:	83000003 	movwhi	r0, #3
     9e0:	a20e0002 	andge	r0, lr, #2
     9e4:	10000000 	andne	r0, r0, r0
     9e8:	000007a9 	andeq	r0, r0, r9, lsr #15
     9ec:	03015f02 	movweq	r5, #7938	; 0x1f02
     9f0:	11000003 	tstne	r0, r3
     9f4:	00000435 	andeq	r0, r0, r5, lsr r4
     9f8:	00008c0c 	andeq	r8, r0, ip, lsl #24
     9fc:	00045b00 	andeq	r5, r4, r0, lsl #22
     a00:	03cf0d00 	biceq	r0, pc, #0, 26
     a04:	00030000 	andeq	r0, r3, r0
     a08:	00008c0c 	andeq	r8, r0, ip, lsl #24
     a0c:	00046b00 	andeq	r6, r4, r0, lsl #22
     a10:	03cf0d00 	biceq	r0, pc, #0, 26
     a14:	00fb0000 	rscseq	r0, fp, r0
     a18:	00008c0c 	andeq	r8, r0, ip, lsl #24
     a1c:	00047b00 	andeq	r7, r4, r0, lsl #22
     a20:	03cf0d00 	biceq	r0, pc, #0, 26
     a24:	00070000 	andeq	r0, r7, r0
     a28:	c0061012 	andgt	r1, r6, r2, lsl r0
     a2c:	0004b923 	andeq	fp, r4, r3, lsr #18
     a30:	08f10900 	ldmeq	r1!, {r8, fp}^
     a34:	c1060000 	mrsgt	r0, (UNDEF: 6)
     a38:	00043523 	andeq	r3, r4, r3, lsr #10
     a3c:	ac090000 	stcge	0, cr0, [r9], {-0}
     a40:	06000004 	streq	r0, [r0], -r4
     a44:	044623c2 	strbeq	r2, [r6], #-962	; 0xfffffc3e
     a48:	09040000 	stmdbeq	r4, {}	; <UNPREDICTABLE>
     a4c:	00000bdf 	ldrdeq	r0, [r0], -pc	; <UNPREDICTABLE>
     a50:	3523c306 	strcc	ip, [r3, #-774]!	; 0xfffffcfa
     a54:	08000004 	stmdaeq	r0, {r2}
     a58:	0007de09 	andeq	sp, r7, r9, lsl #28
     a5c:	23c40600 	biccs	r0, r4, #0, 12
     a60:	00000435 	andeq	r0, r0, r5, lsr r4
     a64:	4008000c 	andmi	r0, r8, ip
     a68:	23bd0601 			; <UNDEFINED> instruction: 0x23bd0601
     a6c:	000004ec 	andeq	r0, r0, ip, ror #9
     a70:	52434d13 	subpl	r4, r3, #1216	; 0x4c0
     a74:	23be0600 			; <UNDEFINED> instruction: 0x23be0600
     a78:	00000435 	andeq	r0, r0, r5, lsr r4
     a7c:	02f90900 	rscseq	r0, r9, #0, 18
     a80:	bf060000 	svclt	0x00060000
     a84:	00045b23 	andeq	r5, r4, r3, lsr #22
     a88:	680a0400 	stmdavs	sl, {sl}
     a8c:	06000007 	streq	r0, [r0], -r7
     a90:	04ec23c5 	strbteq	r2, [ip], #965	; 0x3c5
     a94:	01000000 	mrseq	r0, (UNDEF: 0)
     a98:	047b0c00 	ldrbteq	r0, [fp], #-3072	; 0xfffff400
     a9c:	04fc0000 	ldrbteq	r0, [ip], #0
     aa0:	cf0d0000 	svcgt	0x000d0000
     aa4:	03000003 	movweq	r0, #3
     aa8:	051b1000 	ldreq	r1, [fp, #-0]
     aac:	c6060000 	strgt	r0, [r6], -r0
     ab0:	0004b923 	andeq	fp, r4, r3, lsr #18
     ab4:	10640800 	rsbne	r0, r4, r0, lsl #16
     ab8:	7c2ace06 	stcvc	14, cr12, [sl], #-24	; 0xffffffe8
     abc:	09000006 	stmdbeq	r0, {r1, r2}
     ac0:	000002b9 			; <UNDEFINED> instruction: 0x000002b9
     ac4:	352acf06 	strcc	ip, [sl, #-3846]!	; 0xfffff0fa
     ac8:	00000004 	andeq	r0, r0, r4
     acc:	00004609 	andeq	r4, r0, r9, lsl #12
     ad0:	2ad00600 	bcs	ff4022d8 <__StackTop+0xdf3d22d8>
     ad4:	00000435 	andeq	r0, r0, r5, lsr r4
     ad8:	02f90904 	rscseq	r0, r9, #4, 18	; 0x10000
     adc:	d1060000 	mrsle	r0, (UNDEF: 6)
     ae0:	00067c2a 	andeq	r7, r6, sl, lsr #24
     ae4:	cf0a0800 	svcgt	0x000a0800
     ae8:	06000002 	streq	r0, [r0], -r2
     aec:	04352ad2 	ldrteq	r2, [r5], #-2770	; 0xfffff52e
     af0:	10040000 	andne	r0, r4, r0
     af4:	0003040a 	andeq	r0, r3, sl, lsl #8
     af8:	2ad30600 	bcs	ff4c2300 <__StackTop+0xdf492300>
     afc:	0000044b 	andeq	r0, r0, fp, asr #8
     b00:	7a0a1008 	bvc	284b28 <__exidx_end+0x282810>
     b04:	06000003 	streq	r0, [r0], -r3
     b08:	04352ad4 	ldrteq	r2, [r5], #-2772	; 0xfffff52c
     b0c:	100c0000 	andne	r0, ip, r0
     b10:	0000000a 	andeq	r0, r0, sl
     b14:	2ad50600 	bcs	ff54231c <__StackTop+0xdf51231c>
     b18:	00000435 	andeq	r0, r0, r5, lsr r4
     b1c:	0f0a1010 	svceq	0x000a1010
     b20:	06000003 	streq	r0, [r0], -r3
     b24:	044b2ad6 	strbeq	r2, [fp], #-2774	; 0xfffff52a
     b28:	10140000 	andsne	r0, r4, r0
     b2c:	0001e70a 	andeq	lr, r1, sl, lsl #14
     b30:	2ad70600 	bcs	ff5c2338 <__StackTop+0xdf592338>
     b34:	00000435 	andeq	r0, r0, r5, lsr r4
     b38:	1a0a1018 	bne	284ba0 <__exidx_end+0x282888>
     b3c:	06000003 	streq	r0, [r0], -r3
     b40:	046b2ad8 	strbteq	r2, [fp], #-2776	; 0xfffff528
     b44:	101c0000 	andsne	r0, ip, r0
     b48:	0000410a 	andeq	r4, r0, sl, lsl #2
     b4c:	2ad90600 	bcs	ff642354 <__StackTop+0xdf612354>
     b50:	00000446 	andeq	r0, r0, r6, asr #8
     b54:	a70a1024 	strge	r1, [sl, -r4, lsr #32]
     b58:	06000001 	streq	r0, [r0], -r1
     b5c:	04352ada 	ldrteq	r2, [r5], #-2778	; 0xfffff526
     b60:	10280000 	eorne	r0, r8, r0
     b64:	0001ad0a 	andeq	sl, r1, sl, lsl #26
     b68:	2adb0600 	bcs	ff6c2370 <__StackTop+0xdf692370>
     b6c:	00000435 	andeq	r0, r0, r5, lsr r4
     b70:	b30a102c 	movwlt	r1, #41004	; 0xa02c
     b74:	06000001 	streq	r0, [r0], -r1
     b78:	04352adc 	ldrteq	r2, [r5], #-2780	; 0xfffff524
     b7c:	10300000 	eorsne	r0, r0, r0
     b80:	0001b90a 	andeq	fp, r1, sl, lsl #18
     b84:	2add0600 	bcs	ff74238c <__StackTop+0xdf71238c>
     b88:	00000435 	andeq	r0, r0, r5, lsr r4
     b8c:	bf0a1034 	svclt	0x000a1034
     b90:	06000001 	streq	r0, [r0], -r1
     b94:	04352ade 	ldrteq	r2, [r5], #-2782	; 0xfffff522
     b98:	10380000 	eorsne	r0, r8, r0
     b9c:	0001c50a 	andeq	ip, r1, sl, lsl #10
     ba0:	2adf0600 	bcs	ff7c23a8 <__StackTop+0xdf7923a8>
     ba4:	00000435 	andeq	r0, r0, r5, lsr r4
     ba8:	cb0a103c 	blgt	284ca0 <__exidx_end+0x282988>
     bac:	06000001 	streq	r0, [r0], -r1
     bb0:	04352ae0 	ldrteq	r2, [r5], #-2784	; 0xfffff520
     bb4:	10400000 	subne	r0, r0, r0
     bb8:	0001ed0a 	andeq	lr, r1, sl, lsl #26
     bbc:	2ae10600 	bcs	ff8423c4 <__StackTop+0xdf8123c4>
     bc0:	00000435 	andeq	r0, r0, r5, lsr r4
     bc4:	f50a1044 			; <UNDEFINED> instruction: 0xf50a1044
     bc8:	06000001 	streq	r0, [r0], -r1
     bcc:	04352ae2 	ldrteq	r2, [r5], #-2786	; 0xfffff51e
     bd0:	10480000 	subne	r0, r8, r0
     bd4:	0000060a 	andeq	r0, r0, sl, lsl #12
     bd8:	2ae30600 	bcs	ff8c23e0 <__StackTop+0xdf8923e0>
     bdc:	00000435 	andeq	r0, r0, r5, lsr r4
     be0:	0c0a104c 	stceq	0, cr1, [sl], {76}	; 0x4c
     be4:	06000000 	streq	r0, [r0], -r0
     be8:	04462ae4 	strbeq	r2, [r6], #-2788	; 0xfffff51c
     bec:	10500000 	subsne	r0, r0, r0
     bf0:	0000a10a 	andeq	sl, r0, sl, lsl #2
     bf4:	2ae50600 	bcs	ff9423fc <__StackTop+0xdf9123fc>
     bf8:	00000446 	andeq	r0, r0, r6, asr #8
     bfc:	d10a1054 	qaddle	r1, r4, sl
     c00:	06000001 	streq	r0, [r0], -r1
     c04:	04462ae6 	strbeq	r2, [r6], #-2790	; 0xfffff51a
     c08:	10580000 	subsne	r0, r8, r0
     c0c:	0002f30a 	andeq	pc, r2, sl, lsl #6
     c10:	2ae70600 	bcs	ff9c2418 <__StackTop+0xdf992418>
     c14:	00000446 	andeq	r0, r0, r6, asr #8
     c18:	b00a105c 	andlt	r1, sl, ip, asr r0
     c1c:	06000000 	streq	r0, [r0], -r0
     c20:	04462ae8 	strbeq	r2, [r6], #-2792	; 0xfffff518
     c24:	10600000 	rsbne	r0, r0, r0
     c28:	008c0c00 	addeq	r0, ip, r0, lsl #24
     c2c:	068d0000 	streq	r0, [sp], r0
     c30:	cf0f0000 	svcgt	0x000f0000
     c34:	fb000003 	blx	c4a <main+0x35a>
     c38:	8d10000f 	ldchi	0, cr0, [r0, #-60]	; 0xffffffc4
     c3c:	06000000 	streq	r0, [r0], -r0
     c40:	05082ae9 	streq	r2, [r8, #-2793]	; 0xfffff517
     c44:	08140000 	ldmdaeq	r4, {}	; <UNPREDICTABLE>
     c48:	06ba0607 	ldrteq	r0, [sl], r7, lsl #12
     c4c:	b5150000 	ldrlt	r0, [r5, #-0]
     c50:	07000008 	streq	r0, [r0, -r8]
     c54:	0006bb07 	andeq	fp, r6, r7, lsl #22
     c58:	08150000 	ldmdaeq	r5, {}	; <UNPREDICTABLE>
     c5c:	07000008 	streq	r0, [r0, -r8]
     c60:	0006bb08 	andeq	fp, r6, r8, lsl #22
     c64:	16000400 	strne	r0, [r0], -r0, lsl #8
     c68:	06ba0417 	ssateq	r0, #27, r7, lsl #8
     c6c:	c4030000 	strgt	r0, [r3], #-0
     c70:	07000005 	streq	r0, [r0, -r5]
     c74:	00069909 	andeq	r9, r6, r9, lsl #18
     c78:	07171800 	ldreq	r1, [r7, -r0, lsl #16]
     c7c:	49030000 	stmdbmi	r3, {}	; <UNPREDICTABLE>
     c80:	c5190301 	ldrgt	r0, [r9, #-769]	; 0xfffffcff
     c84:	02000007 	andeq	r0, r0, #7
     c88:	ef0305bb 	svc	0x000305bb
     c8c:	1a000006 	bne	cac <ADC1_INIT+0x48>
     c90:	00000602 	andeq	r0, r0, r2, lsl #12
     c94:	f805bb02 			; <UNDEFINED> instruction: 0xf805bb02
     c98:	00000002 	andeq	r0, r0, r2
     c9c:	0003dd18 	andeq	sp, r3, r8, lsl sp
     ca0:	01540300 	cmpeq	r4, r0, lsl #6
     ca4:	085e1b03 	ldmdaeq	lr, {r0, r1, r8, r9, fp, ip}^
     ca8:	07010000 	streq	r0, [r1, -r0]
     cac:	00000000 	andeq	r0, r0, r0
     cb0:	00000050 	andeq	r0, r0, r0, asr r0
     cb4:	07539c01 	ldrbeq	r9, [r3, -r1, lsl #24]
     cb8:	b51c0000 	ldrlt	r0, [ip, #-0]
     cbc:	01000008 	tsteq	r0, r8
     cc0:	0006bb07 	andeq	fp, r6, r7, lsl #22
     cc4:	00007f00 	andeq	r7, r0, r0, lsl #30
     cc8:	08301d00 	ldmdaeq	r0!, {r8, sl, fp, ip}
     ccc:	07010000 	streq	r0, [r1, -r0]
     cd0:	0000007e 	andeq	r0, r0, lr, ror r0
     cd4:	d51e5101 	ldrle	r5, [lr, #-257]	; 0xfffffeff
     cd8:	00000006 	andeq	r0, r0, r6
     cdc:	08000000 	stmdaeq	r0, {}	; <UNPREDICTABLE>
     ce0:	01000000 	mrseq	r0, (UNDEF: 0)
     ce4:	00074312 	andeq	r4, r7, r2, lsl r3
     ce8:	06e21f00 	strbteq	r1, [r2], r0, lsl #30
     cec:	00300000 	eorseq	r0, r0, r0
     cf0:	0006cc20 	andeq	ip, r6, r0, lsr #24
     cf4:	00000000 	andeq	r0, r0, r0
     cf8:	00001400 	andeq	r1, r0, r0, lsl #8
     cfc:	00130100 	andseq	r0, r3, r0, lsl #2
     d00:	0008dd1b 	andeq	sp, r8, fp, lsl sp
     d04:	00150100 	andseq	r0, r5, r0, lsl #2
     d08:	50000000 	andpl	r0, r0, r0
     d0c:	01000000 	mrseq	r0, (UNDEF: 0)
     d10:	0007ae9c 	muleq	r7, ip, lr
     d14:	08081c00 	stmdaeq	r8, {sl, fp, ip}
     d18:	15010000 	strne	r0, [r1, #-0]
     d1c:	000006bb 			; <UNDEFINED> instruction: 0x000006bb
     d20:	000000af 	andeq	r0, r0, pc, lsr #1
     d24:	0008301d 	andeq	r3, r8, sp, lsl r0
     d28:	7e150100 	mufvcs	f0, f5, f0
     d2c:	01000000 	mrseq	r0, (UNDEF: 0)
     d30:	06d51e51 			; <UNDEFINED> instruction: 0x06d51e51
     d34:	00000000 	andeq	r0, r0, r0
     d38:	00080000 	andeq	r0, r8, r0
     d3c:	21010000 	mrscs	r0, (UNDEF: 1)
     d40:	0000079e 	muleq	r0, lr, r7
     d44:	0006e21f 	andeq	lr, r6, pc, lsl r2
     d48:	20003100 	andcs	r3, r0, r0, lsl #2
     d4c:	000006cc 	andeq	r0, r0, ip, asr #13
     d50:	00000000 	andeq	r0, r0, r0
     d54:	00000014 	andeq	r0, r0, r4, lsl r0
     d58:	21002201 	tstcs	r0, r1, lsl #4
     d5c:	000007b3 			; <UNDEFINED> instruction: 0x000007b3
     d60:	00002501 	andeq	r2, r0, r1, lsl #10
     d64:	00100000 	andseq	r0, r0, r0
     d68:	9c010000 	stcls	0, cr0, [r1], {-0}
     d6c:	0007bc21 	andeq	fp, r7, r1, lsr #24
     d70:	00290100 	eoreq	r0, r9, r0, lsl #2
     d74:	10000000 	andne	r0, r0, r0
     d78:	01000000 	mrseq	r0, (UNDEF: 0)
     d7c:	052e229c 	streq	r2, [lr, #-668]!	; 0xfffffd64
     d80:	2d010000 	stccs	0, cr0, [r1, #-0]
     d84:	000005bc 			; <UNDEFINED> instruction: 0x000005bc
     d88:	00000020 	andeq	r0, r0, r0, lsr #32
     d8c:	08049c01 	stmdaeq	r4, {r0, sl, fp, ip, pc}
     d90:	ef200000 	svc	0x00200000
     d94:	be000006 	cdplt	0, 0, cr0, cr0, cr6, {0}
     d98:	02000005 	andeq	r0, r0, #5
     d9c:	01000000 	mrseq	r0, (UNDEF: 0)
     da0:	06cc202f 	strbeq	r2, [ip], pc, lsr #32
     da4:	05ce0000 	strbeq	r0, [lr]
     da8:	000e0000 	andeq	r0, lr, r0
     dac:	32010000 	andcc	r0, r1, #0
     db0:	07992200 	ldreq	r2, [r9, r0, lsl #4]
     db4:	34010000 	strcc	r0, [r1], #-0
     db8:	000005dc 	ldrdeq	r0, [r0], -ip
     dbc:	00000020 	andeq	r0, r0, r0, lsr #32
     dc0:	08389c01 	ldmdaeq	r8!, {r0, sl, fp, ip, pc}
     dc4:	ef200000 	svc	0x00200000
     dc8:	de000006 	cdple	0, 0, cr0, cr0, cr6, {0}
     dcc:	02000005 	andeq	r0, r0, #5
     dd0:	01000000 	mrseq	r0, (UNDEF: 0)
     dd4:	06cc2036 			; <UNDEFINED> instruction: 0x06cc2036
     dd8:	05ee0000 	strbeq	r0, [lr, #0]!
     ddc:	000e0000 	andeq	r0, lr, r0
     de0:	39010000 	stmdbcc	r1, {}	; <UNPREDICTABLE>
     de4:	03542300 	cmpeq	r4, #0, 6
     de8:	a7020000 	strge	r0, [r2, -r0]
     dec:	00084406 	andeq	r4, r8, r6, lsl #8
     df0:	00970e00 	addseq	r0, r7, r0, lsl #28
     df4:	24240000 	strtcs	r0, [r4], #-0
     df8:	01000007 	tsteq	r0, r7
     dfc:	0006c106 	andeq	ip, r6, r6, lsl #2
     e00:	cc030500 	cfstr32gt	mvfx0, [r3], {-0}
     e04:	001fff02 	andseq	pc, pc, r2, lsl #30
     e08:	0000023b 	andeq	r0, r0, fp, lsr r2
     e0c:	030b0004 	movweq	r0, #45060	; 0xb004
     e10:	01040000 	mrseq	r0, (UNDEF: 4)
     e14:	000000bc 	strheq	r0, [r0], -ip
     e18:	000a030c 	andeq	r0, sl, ip, lsl #6
     e1c:	00026d00 	andeq	r6, r2, r0, lsl #26
     e20:	00005000 	andeq	r5, r0, r0
     e24:	00000000 	andeq	r0, r0, r0
     e28:	0002cb00 	andeq	ip, r2, r0, lsl #22
     e2c:	04040200 	streq	r0, [r4], #-512	; 0xfffffe00
     e30:	00000a09 	andeq	r0, r0, r9, lsl #20
     e34:	0009ba03 	andeq	fp, r9, r3, lsl #20
     e38:	1e022800 	cdpne	8, 0, cr2, cr2, cr0, {0}
     e3c:	000000ae 	andeq	r0, r0, lr, lsr #1
     e40:	00706b04 	rsbseq	r6, r0, r4, lsl #22
     e44:	00251f02 	eoreq	r1, r5, r2, lsl #30
     e48:	04000000 	streq	r0, [r0], #-0
     e4c:	0200646b 	andeq	r6, r0, #1795162112	; 0x6b000000
     e50:	00002520 	andeq	r2, r0, r0, lsr #10
     e54:	6b040400 	blvs	101e5c <__exidx_end+0xffb44>
     e58:	21020069 	tstcs	r2, r9, rrx
     e5c:	00000025 	andeq	r0, r0, r5, lsr #32
     e60:	09ee0508 	stmibeq	lr!, {r3, r8, sl}^
     e64:	22020000 	andcs	r0, r2, #0
     e68:	00000025 	andeq	r0, r0, r5, lsr #32
     e6c:	09c8050c 	stmibeq	r8, {r2, r3, r8, sl}^
     e70:	23020000 	movwcs	r0, #8192	; 0x2000
     e74:	00000025 	andeq	r0, r0, r5, lsr #32
     e78:	097e0510 	ldmdbeq	lr!, {r4, r8, sl}^
     e7c:	24020000 	strcs	r0, [r2], #-0
     e80:	00000025 	andeq	r0, r0, r5, lsr #32
     e84:	09a10514 	stmibeq	r1!, {r2, r4, r8, sl}
     e88:	25020000 	strcs	r0, [r2, #-0]
     e8c:	00000025 	andeq	r0, r0, r5, lsr #32
     e90:	09f30518 	ldmibeq	r3!, {r3, r4, r8, sl}^
     e94:	26020000 	strcs	r0, [r2], -r0
     e98:	00000025 	andeq	r0, r0, r5, lsr #32
     e9c:	09d2051c 	ldmibeq	r2, {r2, r3, r4, r8, sl}^
     ea0:	27020000 	strcs	r0, [r2, -r0]
     ea4:	00000025 	andeq	r0, r0, r5, lsr #32
     ea8:	09e50520 	stmibeq	r5!, {r5, r8, sl}^
     eac:	28020000 	stmdacs	r2, {}	; <UNPREDICTABLE>
     eb0:	000000ae 	andeq	r0, r0, lr, lsr #1
     eb4:	25060024 	strcs	r0, [r6, #-36]	; 0xffffffdc
     eb8:	be000000 	cdplt	0, 0, cr0, cr0, cr0, {0}
     ebc:	07000000 	streq	r0, [r0, -r0]
     ec0:	000000be 	strheq	r0, [r0], -lr
     ec4:	04020000 	streq	r0, [r2], #-0
     ec8:	00005507 	andeq	r5, r0, r7, lsl #10
     ecc:	09ac0800 	stmibeq	ip!, {fp}
     ed0:	15010000 	strne	r0, [r1, #-0]
     ed4:	0000017a 	andeq	r0, r0, sl, ror r1
     ed8:	000005fc 	strdeq	r0, [r0], -ip
     edc:	00000074 	andeq	r0, r0, r4, ror r0
     ee0:	017a9c01 	cmneq	sl, r1, lsl #24
     ee4:	87090000 	strhi	r0, [r9, -r0]
     ee8:	01000009 	tsteq	r0, r9
     eec:	00018115 	andeq	r8, r1, r5, lsl r1
     ef0:	0000df00 	andeq	sp, r0, r0, lsl #30
     ef4:	706b0a00 	rsbvc	r0, fp, r0, lsl #20
     ef8:	25150100 	ldrcs	r0, [r5, #-256]	; 0xffffff00
     efc:	fd000000 	stc2	0, cr0, [r0, #-0]
     f00:	0a000000 	beq	f08 <__adddf3+0x154>
     f04:	0100646b 	tsteq	r0, fp, ror #8
     f08:	00002515 	andeq	r2, r0, r5, lsl r5
     f0c:	00012000 	andeq	r2, r1, r0
     f10:	696b0a00 	stmdbvs	fp!, {r9, fp}^
     f14:	25160100 	ldrcs	r0, [r6, #-256]	; 0xffffff00
     f18:	43000000 	movwmi	r0, #0
     f1c:	09000001 	stmdbeq	r0, {r0}
     f20:	000009ee 	andeq	r0, r0, lr, ror #19
     f24:	00251601 	eoreq	r1, r5, r1, lsl #12
     f28:	01660000 	cmneq	r6, r0
     f2c:	c80b0000 	stmdagt	fp, {}	; <UNPREDICTABLE>
     f30:	01000009 	tsteq	r0, r9
     f34:	00002516 	andeq	r2, r0, r6, lsl r5
     f38:	04910200 	ldreq	r0, [r1], #512	; 0x200
     f3c:	00097e0b 	andeq	r7, r9, fp, lsl #28
     f40:	25160100 	ldrcs	r0, [r6, #-256]	; 0xffffff00
     f44:	02000000 	andeq	r0, r0, #0
     f48:	f30b0891 	vceq.i8	d0, d27, d1
     f4c:	01000009 	tsteq	r0, r9
     f50:	00002517 	andeq	r2, r0, r7, lsl r5
     f54:	0c910200 	lfmeq	f0, 4, [r1], {0}
     f58:	0009a10b 	andeq	sl, r9, fp, lsl #2
     f5c:	25170100 	ldrcs	r0, [r7, #-256]	; 0xffffff00
     f60:	02000000 	andeq	r0, r0, #0
     f64:	d20b1091 	andle	r1, fp, #145	; 0x91
     f68:	01000009 	tsteq	r0, r9
     f6c:	00002518 	andeq	r2, r0, r8, lsl r5
     f70:	14910200 	ldrne	r0, [r1], #512	; 0x200
     f74:	0100690c 	tsteq	r0, ip, lsl #18
     f78:	00017a19 	andeq	r7, r1, r9, lsl sl
     f7c:	0001b100 	andeq	fp, r1, r0, lsl #2
     f80:	040d0000 	streq	r0, [sp], #-0
     f84:	746e6905 	strbtvc	r6, [lr], #-2309	; 0xfffff6fb
     f88:	87040e00 	strhi	r0, [r4, -r0, lsl #28]
     f8c:	0f000001 	svceq	0x00000001
     f90:	0000002c 	andeq	r0, r0, ip, lsr #32
     f94:	00096e08 	andeq	r6, r9, r8, lsl #28
     f98:	256c0100 	strbcs	r0, [ip, #-256]!	; 0xffffff00
     f9c:	70000000 	andvc	r0, r0, r0
     fa0:	ce000006 	cdpgt	0, 0, cr0, cr0, cr6, {0}
     fa4:	01000000 	mrseq	r0, (UNDEF: 0)
     fa8:	00020a9c 	muleq	r2, ip, sl
     fac:	09870900 	stmibeq	r7, {r8, fp}
     fb0:	6c010000 	stcvs	0, cr0, [r1], {-0}
     fb4:	00000181 	andeq	r0, r0, r1, lsl #3
     fb8:	000001d1 	ldrdeq	r0, [r0], -r1
     fbc:	00097809 	andeq	r7, r9, r9, lsl #16
     fc0:	256c0100 	strbcs	r0, [ip, #-256]!	; 0xffffff00
     fc4:	ef000000 	svc	0x00000000
     fc8:	10000001 	andne	r0, r0, r1
     fcc:	00000a18 	andeq	r0, r0, r8, lsl sl
     fd0:	00256d01 	eoreq	r6, r5, r1, lsl #26
     fd4:	02390000 	eorseq	r0, r9, #0
     fd8:	69110000 	ldmdbvs	r1, {}	; <UNPREDICTABLE>
     fdc:	7a6e0100 	bvc	1b813e4 <__exidx_end+0x1b7f0cc>
     fe0:	00000001 	andeq	r0, r0, r1
     fe4:	00099a10 	andeq	r9, r9, r0, lsl sl
     fe8:	256f0100 	strbcs	r0, [pc, #-256]!	; ef0 <__adddf3+0x13c>
     fec:	57000000 	strpl	r0, [r0, -r0]
     ff0:	10000002 	andne	r0, r0, r2
     ff4:	000009fd 	strdeq	r0, [r0], -sp
     ff8:	00257001 	eoreq	r7, r5, r1
     ffc:	02d80000 	sbcseq	r0, r8, #0
    1000:	0f100000 	svceq	0x00100000
    1004:	0100000a 	tsteq	r0, sl
    1008:	00002571 	andeq	r2, r0, r1, ror r5
    100c:	00030400 	andeq	r0, r3, r0, lsl #8
    1010:	8f120000 	svchi	0x00120000
    1014:	01000009 	tsteq	r0, r9
    1018:	0000259f 	muleq	r0, pc, r5	; <UNPREDICTABLE>
    101c:	00073e00 	andeq	r3, r7, r0, lsl #28
    1020:	00003e00 	andeq	r3, r0, r0, lsl #28
    1024:	099c0100 	ldmibeq	ip, {r8}
    1028:	00000987 	andeq	r0, r0, r7, lsl #19
    102c:	01819f01 	orreq	r9, r1, r1, lsl #30
    1030:	03320000 	teqeq	r2, #0
    1034:	ee090000 	cdp	0, 0, cr0, cr9, cr0, {0}
    1038:	01000009 	tsteq	r0, r9
    103c:	0000259f 	muleq	r0, pc, r5	; <UNPREDICTABLE>
    1040:	00035000 	andeq	r5, r3, r0
    1044:	b2000000 	andlt	r0, r0, #0
    1048:	04000006 	streq	r0, [r0], #-6
    104c:	00041400 	andeq	r1, r4, r0, lsl #8
    1050:	bc010400 	cfstrslt	mvf0, [r1], {-0}
    1054:	0c000000 	stceq	0, cr0, [r0], {-0}
    1058:	00000ae3 	andeq	r0, r0, r3, ror #21
    105c:	0000026d 	andeq	r0, r0, sp, ror #4
    1060:	00000070 	andeq	r0, r0, r0, ror r0
    1064:	00000000 	andeq	r0, r0, r0
    1068:	0000037d 	andeq	r0, r0, sp, ror r3
    106c:	1a070402 	bne	1c207c <__exidx_end+0x1bfd64>
    1070:	02000002 	andeq	r0, r0, #2
    1074:	01ff0601 	mvnseq	r0, r1, lsl #12
    1078:	70030000 	andvc	r0, r3, r0
    107c:	02000003 	andeq	r0, r0, #3
    1080:	00003e1d 	andeq	r3, r0, sp, lsl lr
    1084:	08010200 	stmdaeq	r1, {r9}
    1088:	000001fd 	strdeq	r0, [r0], -sp
    108c:	a6050202 	strge	r0, [r5], -r2, lsl #4
    1090:	03000000 	movweq	r0, #0
    1094:	00000096 	muleq	r0, r6, r0
    1098:	00572b02 	subseq	r2, r7, r2, lsl #22
    109c:	02020000 	andeq	r0, r2, #0
    10a0:	00025207 	andeq	r5, r2, r7, lsl #4
    10a4:	03250300 	teqeq	r5, #0, 6
    10a8:	3f020000 	svccc	0x00020000
    10ac:	00000069 	andeq	r0, r0, r9, rrx
    10b0:	97050402 	strls	r0, [r5, -r2, lsl #8]
    10b4:	03000001 	movweq	r0, #1
    10b8:	0000007a 	andeq	r0, r0, sl, ror r0
    10bc:	007b4102 	rsbseq	r4, fp, r2, lsl #2
    10c0:	04020000 	streq	r0, [r2], #-0
    10c4:	00021507 	andeq	r1, r2, r7, lsl #10
    10c8:	05080200 	streq	r0, [r8, #-512]	; 0xfffffe00
    10cc:	00000192 	muleq	r0, r2, r1
    10d0:	10070802 	andne	r0, r7, r2, lsl #16
    10d4:	04000002 	streq	r0, [r0], #-2
    10d8:	6e690504 	cdpvs	5, 6, cr0, cr9, cr4, {0}
    10dc:	72030074 	andvc	r0, r3, #116	; 0x74
    10e0:	03000003 	movweq	r0, #3
    10e4:	00003314 	andeq	r3, r0, r4, lsl r3
    10e8:	00980300 	addseq	r0, r8, r0, lsl #6
    10ec:	1a030000 	bne	c10f4 <__exidx_end+0xbeddc>
    10f0:	0000004c 	andeq	r0, r0, ip, asr #32
    10f4:	00032703 	andeq	r2, r3, r3, lsl #14
    10f8:	5e1f0300 	cdppl	3, 1, cr0, cr15, cr0, {0}
    10fc:	03000000 	movweq	r0, #0
    1100:	0000007c 	andeq	r0, r0, ip, ror r0
    1104:	00702003 	rsbseq	r2, r0, r3
    1108:	04020000 	streq	r0, [r2], #-0
    110c:	00005507 	andeq	r5, r0, r7, lsl #10
    1110:	00b80500 	adcseq	r0, r8, r0, lsl #10
    1114:	ca060000 	bgt	18111c <__exidx_end+0x17ee04>
    1118:	05000000 	streq	r0, [r0, #-0]
    111c:	00000097 	muleq	r0, r7, r0
    1120:	00009707 	andeq	r9, r0, r7, lsl #14
    1124:	0000e900 	andeq	lr, r0, r0, lsl #18
    1128:	00c30800 	sbceq	r0, r3, r0, lsl #16
    112c:	00030000 	andeq	r0, r3, r0
    1130:	00009707 	andeq	r9, r0, r7, lsl #14
    1134:	0000f900 	andeq	pc, r0, r0, lsl #18
    1138:	00c30800 	sbceq	r0, r3, r0, lsl #16
    113c:	001b0000 	andseq	r0, fp, r0
    1140:	00009707 	andeq	r9, r0, r7, lsl #14
    1144:	00010900 	andeq	r0, r1, r0, lsl #18
    1148:	00c30800 	sbceq	r0, r3, r0, lsl #16
    114c:	00070000 	andeq	r0, r7, r0
    1150:	00009707 	andeq	r9, r0, r7, lsl #14
    1154:	00011900 	andeq	r1, r1, r0, lsl #18
    1158:	00c30800 	sbceq	r0, r3, r0, lsl #16
    115c:	00170000 	andseq	r0, r7, r0
    1160:	0000d406 	andeq	sp, r0, r6, lsl #8
    1164:	00970700 	addseq	r0, r7, r0, lsl #14
    1168:	012e0000 	teqeq	lr, r0
    116c:	c3080000 	movwgt	r0, #32768	; 0x8000
    1170:	00000000 	andeq	r0, r0, r0
    1174:	04cc0900 	strbeq	r0, [ip], #2304	; 0x900
    1178:	01ad24ba 			; <UNDEFINED> instruction: 0x01ad24ba
    117c:	500a0000 	andpl	r0, sl, r0
    1180:	04005243 	streq	r5, [r0], #-579	; 0xfffffdbd
    1184:	01bd24bb 			; <UNDEFINED> instruction: 0x01bd24bb
    1188:	0b000000 	bleq	1190 <__addsf3+0x6c>
    118c:	00000227 	andeq	r0, r0, r7, lsr #4
    1190:	ca24bc04 	bgt	9301a8 <__exidx_end+0x92de90>
    1194:	80000000 	andhi	r0, r0, r0
    1198:	0001e10b 	andeq	lr, r1, fp, lsl #2
    119c:	24bd0400 	ldrtcs	r0, [sp], #1024	; 0x400
    11a0:	000000ca 	andeq	r0, r0, sl, asr #1
    11a4:	02f90b84 	rscseq	r0, r9, #132, 22	; 0x21000
    11a8:	be040000 	cdplt	0, 0, cr0, cr4, cr0, {0}
    11ac:	00010924 	andeq	r0, r1, r4, lsr #18
    11b0:	0b0b8800 	bleq	2e31b8 <__exidx_end+0x2e0ea0>
    11b4:	04000002 	streq	r0, [r0], #-2
    11b8:	00ca24bf 	strheq	r2, [sl], #79	; 0x4f
    11bc:	0ba00000 	bleq	fe8011c4 <__StackTop+0xde7d11c4>
    11c0:	00000304 	andeq	r0, r0, r4, lsl #6
    11c4:	e924c004 	stmdb	r4!, {r2, lr, pc}
    11c8:	a4000000 	strge	r0, [r0], #-0
    11cc:	0003610b 	andeq	r6, r3, fp, lsl #2
    11d0:	24c10400 	strbcs	r0, [r1], #1024	; 0x400
    11d4:	000000ca 	andeq	r0, r0, sl, asr #1
    11d8:	02420bc0 	subeq	r0, r2, #192, 22	; 0x30000
    11dc:	c2040000 	andgt	r0, r4, #0
    11e0:	0000ca24 	andeq	ip, r0, r4, lsr #20
    11e4:	ee0bc400 	cfcpys	mvf12, mvf11
    11e8:	04000002 	streq	r0, [r0], #-2
    11ec:	00ca24c3 	sbceq	r2, sl, r3, asr #9
    11f0:	00c80000 	sbceq	r0, r8, r0
    11f4:	0000b807 	andeq	fp, r0, r7, lsl #16
    11f8:	0001bd00 	andeq	fp, r1, r0, lsl #26
    11fc:	00c30800 	sbceq	r0, r3, r0, lsl #16
    1200:	001f0000 	andseq	r0, pc, r0
    1204:	0001ad05 	andeq	sl, r1, r5, lsl #26
    1208:	03660c00 	cmneq	r6, #0, 24
    120c:	c4040000 	strgt	r0, [r4], #-0
    1210:	00012e24 	andeq	r2, r1, r4, lsr #28
    1214:	10640d00 	rsbne	r0, r4, r0, lsl #26
    1218:	422ace04 	eormi	ip, sl, #4, 28	; 0x40
    121c:	0b000003 	bleq	1230 <__addsf3+0x10c>
    1220:	000002b9 			; <UNDEFINED> instruction: 0x000002b9
    1224:	ca2acf04 	bgt	ab4e3c <__exidx_end+0xab2b24>
    1228:	00000000 	andeq	r0, r0, r0
    122c:	0000460b 	andeq	r4, r0, fp, lsl #12
    1230:	2ad00400 	bcs	ff402238 <__StackTop+0xdf3d2238>
    1234:	000000ca 	andeq	r0, r0, sl, asr #1
    1238:	02f90b04 	rscseq	r0, r9, #4, 22	; 0x1000
    123c:	d1040000 	mrsle	r0, (UNDEF: 4)
    1240:	0003422a 	andeq	r4, r3, sl, lsr #4
    1244:	cf0e0800 	svcgt	0x000e0800
    1248:	04000002 	streq	r0, [r0], #-2
    124c:	00ca2ad2 	ldrdeq	r2, [sl], #162	; 0xa2
    1250:	10040000 	andne	r0, r4, r0
    1254:	0003040e 	andeq	r0, r3, lr, lsl #8
    1258:	2ad30400 	bcs	ff4c2260 <__StackTop+0xdf492260>
    125c:	000000d9 	ldrdeq	r0, [r0], -r9
    1260:	7a0e1008 	bvc	385288 <__exidx_end+0x382f70>
    1264:	04000003 	streq	r0, [r0], #-3
    1268:	00ca2ad4 	ldrdeq	r2, [sl], #164	; 0xa4
    126c:	100c0000 	andne	r0, ip, r0
    1270:	0000000e 	andeq	r0, r0, lr
    1274:	2ad50400 	bcs	ff54227c <__StackTop+0xdf51227c>
    1278:	000000ca 	andeq	r0, r0, sl, asr #1
    127c:	0f0e1010 	svceq	0x000e1010
    1280:	04000003 	streq	r0, [r0], #-3
    1284:	00d92ad6 	ldrsbeq	r2, [r9], #166	; 0xa6
    1288:	10140000 	andsne	r0, r4, r0
    128c:	0001e70e 	andeq	lr, r1, lr, lsl #14
    1290:	2ad70400 	bcs	ff5c2298 <__StackTop+0xdf592298>
    1294:	000000ca 	andeq	r0, r0, sl, asr #1
    1298:	1a0e1018 	bne	385300 <__exidx_end+0x382fe8>
    129c:	04000003 	streq	r0, [r0], #-3
    12a0:	00f92ad8 	ldrsbteq	r2, [r9], #168	; 0xa8
    12a4:	101c0000 	andsne	r0, ip, r0
    12a8:	0000410e 	andeq	r4, r0, lr, lsl #2
    12ac:	2ad90400 	bcs	ff6422b4 <__StackTop+0xdf6122b4>
    12b0:	000000cf 	andeq	r0, r0, pc, asr #1
    12b4:	a70e1024 	strge	r1, [lr, -r4, lsr #32]
    12b8:	04000001 	streq	r0, [r0], #-1
    12bc:	00ca2ada 	ldrdeq	r2, [sl], #170	; 0xaa
    12c0:	10280000 	eorne	r0, r8, r0
    12c4:	0001ad0e 	andeq	sl, r1, lr, lsl #26
    12c8:	2adb0400 	bcs	ff6c22d0 <__StackTop+0xdf6922d0>
    12cc:	000000ca 	andeq	r0, r0, sl, asr #1
    12d0:	b30e102c 	movwlt	r1, #57388	; 0xe02c
    12d4:	04000001 	streq	r0, [r0], #-1
    12d8:	00ca2adc 	ldrdeq	r2, [sl], #172	; 0xac
    12dc:	10300000 	eorsne	r0, r0, r0
    12e0:	0001b90e 	andeq	fp, r1, lr, lsl #18
    12e4:	2add0400 	bcs	ff7422ec <__StackTop+0xdf7122ec>
    12e8:	000000ca 	andeq	r0, r0, sl, asr #1
    12ec:	bf0e1034 	svclt	0x000e1034
    12f0:	04000001 	streq	r0, [r0], #-1
    12f4:	00ca2ade 	ldrdeq	r2, [sl], #174	; 0xae
    12f8:	10380000 	eorsne	r0, r8, r0
    12fc:	0001c50e 	andeq	ip, r1, lr, lsl #10
    1300:	2adf0400 	bcs	ff7c2308 <__StackTop+0xdf792308>
    1304:	000000ca 	andeq	r0, r0, sl, asr #1
    1308:	cb0e103c 	blgt	385400 <__exidx_end+0x3830e8>
    130c:	04000001 	streq	r0, [r0], #-1
    1310:	00ca2ae0 	sbceq	r2, sl, r0, ror #21
    1314:	10400000 	subne	r0, r0, r0
    1318:	0001ed0e 	andeq	lr, r1, lr, lsl #26
    131c:	2ae10400 	bcs	ff842324 <__StackTop+0xdf812324>
    1320:	000000ca 	andeq	r0, r0, sl, asr #1
    1324:	f50e1044 			; <UNDEFINED> instruction: 0xf50e1044
    1328:	04000001 	streq	r0, [r0], #-1
    132c:	00ca2ae2 	sbceq	r2, sl, r2, ror #21
    1330:	10480000 	subne	r0, r8, r0
    1334:	0000060e 	andeq	r0, r0, lr, lsl #12
    1338:	2ae30400 	bcs	ff8c2340 <__StackTop+0xdf892340>
    133c:	000000ca 	andeq	r0, r0, sl, asr #1
    1340:	0c0e104c 	stceq	0, cr1, [lr], {76}	; 0x4c
    1344:	04000000 	streq	r0, [r0], #-0
    1348:	00cf2ae4 	sbceq	r2, pc, r4, ror #21
    134c:	10500000 	subsne	r0, r0, r0
    1350:	0000a10e 	andeq	sl, r0, lr, lsl #2
    1354:	2ae50400 	bcs	ff94235c <__StackTop+0xdf91235c>
    1358:	000000cf 	andeq	r0, r0, pc, asr #1
    135c:	d10e1054 	qaddle	r1, r4, lr
    1360:	04000001 	streq	r0, [r0], #-1
    1364:	00cf2ae6 	sbceq	r2, pc, r6, ror #21
    1368:	10580000 	subsne	r0, r8, r0
    136c:	0002f30e 	andeq	pc, r2, lr, lsl #6
    1370:	2ae70400 	bcs	ff9c2378 <__StackTop+0xdf992378>
    1374:	000000cf 	andeq	r0, r0, pc, asr #1
    1378:	b00e105c 	andlt	r1, lr, ip, asr r0
    137c:	04000000 	streq	r0, [r0], #-0
    1380:	00cf2ae8 	sbceq	r2, pc, r8, ror #21
    1384:	10600000 	rsbne	r0, r0, r0
    1388:	00970700 	addseq	r0, r7, r0, lsl #14
    138c:	03530000 	cmpeq	r3, #0
    1390:	c30f0000 	movwgt	r0, #61440	; 0xf000
    1394:	fb000000 	blx	139e <__aeabi_fmul+0x6a>
    1398:	8d0c000f 	stchi	0, cr0, [ip, #-60]	; 0xffffffc4
    139c:	04000000 	streq	r0, [r0], #-0
    13a0:	01ce2ae9 	biceq	r2, lr, r9, ror #21
    13a4:	01100000 	tsteq	r0, r0
    13a8:	812e9e04 	teqhi	lr, r4, lsl #28
    13ac:	11000003 	tstne	r0, r3
    13b0:	00000aea 	andeq	r0, r0, sl, ror #21
    13b4:	d42e9f04 	strtle	r9, [lr], #-3844	; 0xfffff0fc
    13b8:	11000000 	mrsne	r0, (UNDEF: 0)
    13bc:	00000af9 	strdeq	r0, [r0], -r9
    13c0:	d42ea004 	strtle	sl, [lr], #-4
    13c4:	00000000 	andeq	r0, r0, r0
    13c8:	82042009 	andhi	r2, r4, #9
    13cc:	0005192e 	andeq	r1, r5, lr, lsr #18
    13d0:	44420a00 	strbmi	r0, [r2], #-2560	; 0xfffff600
    13d4:	83040048 	movwhi	r0, #16456	; 0x4048
    13d8:	0000d42e 	andeq	sp, r0, lr, lsr #8
    13dc:	420a0000 	andmi	r0, sl, #0
    13e0:	04004c44 	streq	r4, [r0], #-3140	; 0xfffff3bc
    13e4:	00d42e84 	sbcseq	r2, r4, r4, lsl #29
    13e8:	0a010000 	beq	413f0 <__exidx_end+0x3f0d8>
    13ec:	04003143 	streq	r3, [r0], #-323	; 0xfffffebd
    13f0:	00d42e85 	sbcseq	r2, r4, r5, lsl #29
    13f4:	0a020000 	beq	813fc <__exidx_end+0x7f0e4>
    13f8:	04003243 	streq	r3, [r0], #-579	; 0xfffffdbd
    13fc:	00d42e86 	sbcseq	r2, r4, r6, lsl #29
    1400:	0a030000 	beq	c1408 <__exidx_end+0xbf0f0>
    1404:	04003153 	streq	r3, [r0], #-339	; 0xfffffead
    1408:	01192e87 	tsteq	r9, r7, lsl #29
    140c:	0a040000 	beq	101414 <__exidx_end+0xff0fc>
    1410:	04003253 	streq	r3, [r0], #-595	; 0xfffffdad
    1414:	00d42e88 	sbcseq	r2, r4, r8, lsl #29
    1418:	0a050000 	beq	141420 <__exidx_end+0x13f108>
    141c:	04003343 	streq	r3, [r0], #-835	; 0xfffffcbd
    1420:	00d42e89 	sbcseq	r2, r4, r9, lsl #29
    1424:	0a060000 	beq	18142c <__exidx_end+0x17f114>
    1428:	8a040044 	bhi	101540 <__exidx_end+0xff228>
    142c:	0000d42e 	andeq	sp, r0, lr, lsr #8
    1430:	4d0a0700 	stcmi	7, cr0, [sl, #-0]
    1434:	04003141 	streq	r3, [r0], #-321	; 0xfffffebf
    1438:	00d42e8b 	sbcseq	r2, r4, fp, lsl #29
    143c:	0a080000 	beq	201444 <__exidx_end+0x1ff12c>
    1440:	0032414d 	eorseq	r4, r2, sp, asr #2
    1444:	d42e8c04 	strtle	r8, [lr], #-3076	; 0xfffff3fc
    1448:	09000000 	stmdbeq	r0, {}	; <UNPREDICTABLE>
    144c:	0034430a 	eorseq	r4, r4, sl, lsl #6
    1450:	d42e8d04 	strtle	r8, [lr], #-3332	; 0xfffff2fc
    1454:	0a000000 	beq	145c <__aeabi_fmul+0x128>
    1458:	0035430a 	eorseq	r4, r5, sl, lsl #6
    145c:	d42e8e04 	strtle	r8, [lr], #-3588	; 0xfffff1fc
    1460:	0b000000 	bleq	1468 <__aeabi_fmul+0x134>
    1464:	0044450a 	subeq	r4, r4, sl, lsl #10
    1468:	192e8f04 	stmdbne	lr!, {r2, r8, r9, sl, fp, pc}
    146c:	0c000001 	stceq	0, cr0, [r0], {1}
    1470:	000a430b 	andeq	r4, sl, fp, lsl #6
    1474:	2e900400 	cdpcs	4, 9, cr0, cr0, cr0, {0}
    1478:	000000d4 	ldrdeq	r0, [r0], -r4
    147c:	52490a0d 	subpl	r0, r9, #53248	; 0xd000
    1480:	2e910400 	cdpcs	4, 9, cr0, cr1, cr0, {0}
    1484:	000000d4 	ldrdeq	r0, [r0], -r4
    1488:	02f90b0e 	rscseq	r0, r9, #14336	; 0x3800
    148c:	92040000 	andls	r0, r4, #0
    1490:	00011e2e 	andeq	r1, r1, lr, lsr #28
    1494:	c90b0f00 	stmdbgt	fp, {r8, r9, sl, fp}
    1498:	0400000a 	streq	r0, [r0], #-10
    149c:	00d42e93 	smullseq	r2, r4, r3, lr
    14a0:	0b100000 	bleq	4014a8 <__exidx_end+0x3ff190>
    14a4:	00000a58 	andeq	r0, r0, r8, asr sl
    14a8:	d42e9404 	strtle	r9, [lr], #-1028	; 0xfffffbfc
    14ac:	11000000 	mrsne	r0, (UNDEF: 0)
    14b0:	000b080b 	andeq	r0, fp, fp, lsl #16
    14b4:	2e950400 	cdpcs	4, 9, cr0, cr5, cr0, {0}
    14b8:	000000d4 	ldrdeq	r0, [r0], -r4
    14bc:	0a880b12 	beq	fe20410c <__StackTop+0xde1d410c>
    14c0:	96040000 	strls	r0, [r4], -r0
    14c4:	0000d42e 	andeq	sp, r0, lr, lsr #8
    14c8:	490b1300 	stmdbmi	fp, {r8, r9, ip}
    14cc:	0400000a 	streq	r0, [r0], #-10
    14d0:	01192e97 			; <UNDEFINED> instruction: 0x01192e97
    14d4:	0b140000 	bleq	5014dc <__exidx_end+0x4ff1c4>
    14d8:	00000a5e 	andeq	r0, r0, lr, asr sl
    14dc:	d42e9804 	strtle	r9, [lr], #-2052	; 0xfffff7fc
    14e0:	15000000 	strne	r0, [r0, #-0]
    14e4:	000a570b 	andeq	r5, sl, fp, lsl #14
    14e8:	2e990400 	cdpcs	4, 9, cr0, cr9, cr0, {0}
    14ec:	00000119 	andeq	r0, r0, r9, lsl r1
    14f0:	03040b16 	movweq	r0, #19222	; 0x4b16
    14f4:	9a040000 	bls	1014fc <__exidx_end+0xff1e4>
    14f8:	00011e2e 	andeq	r1, r1, lr, lsr #28
    14fc:	9f0b1700 	svcls	0x000b1700
    1500:	0400000a 	streq	r0, [r0], #-10
    1504:	00d42e9b 	smullseq	r2, r4, fp, lr
    1508:	0b180000 	bleq	601510 <__exidx_end+0x5ff1f8>
    150c:	00000a8f 	andeq	r0, r0, pc, lsl #21
    1510:	d42e9c04 	strtle	r9, [lr], #-3076	; 0xfffff3fc
    1514:	19000000 	stmdbne	r0, {}	; <UNPREDICTABLE>
    1518:	000a810b 	andeq	r8, sl, fp, lsl #2
    151c:	2e9d0400 	cdpcs	4, 9, cr0, cr13, cr0, {0}
    1520:	000000d4 	ldrdeq	r0, [r0], -r4
    1524:	035f121a 	cmpeq	pc, #-1610612735	; 0xa0000001
    1528:	0b1b0000 	bleq	6c1530 <__exidx_end+0x6bf218>
    152c:	00000abd 			; <UNDEFINED> instruction: 0x00000abd
    1530:	d42ea204 	strtle	sl, [lr], #-516	; 0xfffffdfc
    1534:	1c000000 	stcne	0, cr0, [r0], {-0}
    1538:	000a2c0b 	andeq	r2, sl, fp, lsl #24
    153c:	2ea30400 	cdpcs	4, 10, cr0, cr3, cr0, {0}
    1540:	000000d4 	ldrdeq	r0, [r0], -r4
    1544:	0a330b1d 	beq	cc41c0 <__exidx_end+0xcc1ea8>
    1548:	a4040000 	strge	r0, [r4], #-0
    154c:	0000d42e 	andeq	sp, r0, lr, lsr #8
    1550:	500b1e00 	andpl	r1, fp, r0, lsl #28
    1554:	0400000a 	streq	r0, [r0], #-10
    1558:	00d42ea5 	sbcseq	r2, r4, r5, lsr #29
    155c:	001f0000 	andseq	r0, pc, r0
    1560:	000ad90c 	andeq	sp, sl, ip, lsl #18
    1564:	2ea60400 	cdpcs	4, 10, cr0, cr6, cr0, {0}
    1568:	00000381 	andeq	r0, r0, r1, lsl #7
    156c:	07050413 	smladeq	r5, r3, r4, r0
    1570:	0000053a 	andeq	r0, r0, sl, lsr r5
    1574:	000a7c14 	andeq	r7, sl, r4, lsl ip
    1578:	3a090500 	bcc	242980 <__exidx_end+0x240668>
    157c:	00000005 	andeq	r0, r0, r5
    1580:	40041500 	andmi	r1, r4, r0, lsl #10
    1584:	05000005 	streq	r0, [r0, #-5]
    1588:	00000519 	andeq	r0, r0, r9, lsl r5
    158c:	000b1f03 	andeq	r1, fp, r3, lsl #30
    1590:	250b0500 	strcs	r0, [fp, #-1280]	; 0xfffffb00
    1594:	16000005 	strne	r0, [r0], -r5
    1598:	00000a96 	muleq	r0, r6, sl
    159c:	077c0d01 	ldrbeq	r0, [ip, -r1, lsl #26]!
    15a0:	007c0000 	rsbseq	r0, ip, r0
    15a4:	9c010000 	stcls	0, cr0, [r1], {-0}
    15a8:	000005a0 	andeq	r0, r0, r0, lsr #11
    15ac:	000a6a17 	andeq	r6, sl, r7, lsl sl
    15b0:	a00d0100 	andge	r0, sp, r0, lsl #2
    15b4:	01000005 	tsteq	r0, r5
    15b8:	0a651850 	beq	1947700 <__exidx_end+0x19453e8>
    15bc:	0d010000 	stceq	0, cr0, [r1, #-0]
    15c0:	00000090 	muleq	r0, r0, r0
    15c4:	0000039b 	muleq	r0, fp, r3
    15c8:	64627519 	strbtvs	r7, [r2], #-1305	; 0xfffffae7
    15cc:	a2100100 	andsge	r0, r0, #0, 2
    15d0:	bc000000 	stclt	0, cr0, [r0], {-0}
    15d4:	1a000003 	bne	15e8 <__cmpsf2+0x4>
    15d8:	00000a77 	andeq	r0, r0, r7, ror sl
    15dc:	00a21001 	adceq	r1, r2, r1
    15e0:	03cf0000 	biceq	r0, pc, #0
    15e4:	15000000 	strne	r0, [r0, #-0]
    15e8:	00051904 	andeq	r1, r5, r4, lsl #18
    15ec:	0b0e1600 	bleq	386df4 <__exidx_end+0x384adc>
    15f0:	65010000 	strvs	r0, [r1, #-0]
    15f4:	000007f8 	strdeq	r0, [r0], -r8
    15f8:	00000012 	andeq	r0, r0, r2, lsl r0
    15fc:	05d59c01 	ldrbeq	r9, [r5, #3073]	; 0xc01
    1600:	3a170000 	bcc	5c1608 <__exidx_end+0x5bf2f0>
    1604:	0100000a 	tsteq	r0, sl
    1608:	00054565 	andeq	r4, r5, r5, ror #10
    160c:	1b500100 	blne	1401a14 <__exidx_end+0x13ff6fc>
    1610:	01006863 	tsteq	r0, r3, ror #16
    1614:	0005d565 	andeq	sp, r5, r5, ror #10
    1618:	00510100 	subseq	r0, r1, r0, lsl #2
    161c:	06080102 	streq	r0, [r8], -r2, lsl #2
    1620:	16000002 	strne	r0, [r0], -r2
    1624:	00000a1e 	andeq	r0, r0, lr, lsl sl
    1628:	080a4d01 	stmdaeq	sl, {r0, r8, sl, fp, lr}
    162c:	00180000 	andseq	r0, r8, r0
    1630:	9c010000 	stcls	0, cr0, [r1], {-0}
    1634:	00000638 	andeq	r0, r0, r8, lsr r6
    1638:	000a3a18 	andeq	r3, sl, r8, lsl sl
    163c:	454d0100 	strbmi	r0, [sp, #-256]	; 0xffffff00
    1640:	f8000005 			; <UNDEFINED> instruction: 0xf8000005
    1644:	1c000003 	stcne	0, cr0, [r0], {3}
    1648:	00727473 	rsbseq	r7, r2, r3, ror r4
    164c:	06384d01 	ldrteq	r4, [r8], -r1, lsl #26
    1650:	04160000 	ldreq	r0, [r6], #-0
    1654:	691d0000 	ldmdbvs	sp, {}	; <UNPREDICTABLE>
    1658:	90510100 	subsls	r0, r1, r0, lsl #2
    165c:	1a000000 	bne	1664 <__aeabi_fcmpeq+0x8>
    1660:	00000ac4 	andeq	r0, r0, r4, asr #21
    1664:	05d55301 	ldrbeq	r5, [r5, #769]	; 0x301
    1668:	04420000 	strbeq	r0, [r2], #-0
    166c:	1a1e0000 	bne	781674 <__exidx_end+0x77f35c>
    1670:	a6000008 	strge	r0, [r0], -r8
    1674:	1f000005 	svcne	0x00000005
    1678:	74025001 	strvc	r5, [r2], #-1
    167c:	15000000 	strne	r0, [r0, #-0]
    1680:	0005d504 	andeq	sp, r5, r4, lsl #10
    1684:	0aac2000 	beq	feb0968c <__StackTop+0xdead968c>
    1688:	73010000 	movwvc	r0, #4096	; 0x1000
    168c:	000005d5 	ldrdeq	r0, [r0], -r5
    1690:	00000000 	andeq	r0, r0, r0
    1694:	00000014 	andeq	r0, r0, r4, lsl r0
    1698:	06839c01 	streq	r9, [r3], r1, lsl #24
    169c:	3a180000 	bcc	6016a4 <__exidx_end+0x5ff38c>
    16a0:	0100000a 	tsteq	r0, sl
    16a4:	00054573 	andeq	r4, r5, r3, ror r5
    16a8:	00046000 	andeq	r6, r4, r0
    16ac:	65722100 	ldrbvs	r2, [r2, #-256]!	; 0xffffff00
    16b0:	77010074 	smlsdxvc	r1, r4, r0, r0
    16b4:	000005d5 	ldrdeq	r0, [r0], -r5
    16b8:	a51a5001 	ldrge	r5, [sl, #-1]
    16bc:	0100000a 	tsteq	r0, sl
    16c0:	0005d579 	andeq	sp, r5, r9, ror r5
    16c4:	00047300 	andeq	r7, r4, r0, lsl #6
    16c8:	54220000 	strtpl	r0, [r2], #-0
    16cc:	06000003 	streq	r0, [r0], -r3
    16d0:	068f06a7 	streq	r0, [pc], r7, lsr #13
    16d4:	ad050000 	stcge	0, cr0, [r5, #-0]
    16d8:	23000000 	movwcs	r0, #0
    16dc:	000002bf 			; <UNDEFINED> instruction: 0x000002bf
    16e0:	00b84407 	adcseq	r4, r8, r7, lsl #8
    16e4:	cf240000 	svcgt	0x00240000
    16e8:	0100000a 	tsteq	r0, sl
    16ec:	0006b00a 	andeq	fp, r6, sl
    16f0:	d4030500 	strle	r0, [r3], #-1280	; 0xfffffb00
    16f4:	051fff02 	ldreq	pc, [pc, #-3842]	; 7fa <uartPutCharBlock+0x2>
    16f8:	00000545 	andeq	r0, r0, r5, asr #10
    16fc:	0005b000 	andeq	fp, r5, r0
    1700:	06000400 	streq	r0, [r0], -r0, lsl #8
    1704:	04000006 	streq	r0, [r0], #-6
    1708:	0000bc01 	andeq	fp, r0, r1, lsl #24
    170c:	0b470c00 	bleq	11c4714 <__exidx_end+0x11c23fc>
    1710:	026d0000 	rsbeq	r0, sp, #0
    1714:	00980000 	addseq	r0, r8, r0
    1718:	00000000 	andeq	r0, r0, r0
    171c:	04d70000 	ldrbeq	r0, [r7], #0
    1720:	04020000 	streq	r0, [r2], #-0
    1724:	00021a07 	andeq	r1, r2, r7, lsl #20
    1728:	06010200 	streq	r0, [r1], -r0, lsl #4
    172c:	000001ff 	strdeq	r0, [r0], -pc	; <UNPREDICTABLE>
    1730:	00037003 	andeq	r7, r3, r3
    1734:	3e1d0200 	cdpcc	2, 1, cr0, cr13, cr0, {0}
    1738:	02000000 	andeq	r0, r0, #0
    173c:	01fd0801 	mvnseq	r0, r1, lsl #16
    1740:	02020000 	andeq	r0, r2, #0
    1744:	0000a605 	andeq	sl, r0, r5, lsl #12
    1748:	00960300 	addseq	r0, r6, r0, lsl #6
    174c:	2b020000 	blcs	81754 <__exidx_end+0x7f43c>
    1750:	00000057 	andeq	r0, r0, r7, asr r0
    1754:	52070202 	andpl	r0, r7, #536870912	; 0x20000000
    1758:	03000002 	movweq	r0, #2
    175c:	00000325 	andeq	r0, r0, r5, lsr #6
    1760:	00693f02 	rsbeq	r3, r9, r2, lsl #30
    1764:	04020000 	streq	r0, [r2], #-0
    1768:	00019705 	andeq	r9, r1, r5, lsl #14
    176c:	007a0300 	rsbseq	r0, sl, r0, lsl #6
    1770:	41020000 	mrsmi	r0, (UNDEF: 2)
    1774:	0000007b 	andeq	r0, r0, fp, ror r0
    1778:	15070402 	strne	r0, [r7, #-1026]	; 0xfffffbfe
    177c:	02000002 	andeq	r0, r0, #2
    1780:	01920508 	orrseq	r0, r2, r8, lsl #10
    1784:	08020000 	stmdaeq	r2, {}	; <UNPREDICTABLE>
    1788:	00021007 	andeq	r1, r2, r7
    178c:	05040400 	streq	r0, [r4, #-1024]	; 0xfffffc00
    1790:	00746e69 	rsbseq	r6, r4, r9, ror #28
    1794:	00037203 	andeq	r7, r3, r3, lsl #4
    1798:	33140300 	tstcc	r4, #0, 6
    179c:	03000000 	movweq	r0, #0
    17a0:	00000098 	muleq	r0, r8, r0
    17a4:	004c1a03 	subeq	r1, ip, r3, lsl #20
    17a8:	27030000 	strcs	r0, [r3, -r0]
    17ac:	03000003 	movweq	r0, #3
    17b0:	00005e1f 	andeq	r5, r0, pc, lsl lr
    17b4:	007c0300 	rsbseq	r0, ip, r0, lsl #6
    17b8:	20030000 	andcs	r0, r3, r0
    17bc:	00000070 	andeq	r0, r0, r0, ror r0
    17c0:	55070402 	strpl	r0, [r7, #-1026]	; 0xfffffbfe
    17c4:	05000000 	streq	r0, [r0, #-0]
    17c8:	000000b8 	strheq	r0, [r0], -r8
    17cc:	0000ca06 	andeq	ip, r0, r6, lsl #20
    17d0:	00970700 	addseq	r0, r7, r0, lsl #14
    17d4:	00e40000 	rsceq	r0, r4, r0
    17d8:	c3080000 	movwgt	r0, #32768	; 0x8000
    17dc:	03000000 	movweq	r0, #0
    17e0:	00970700 	addseq	r0, r7, r0, lsl #14
    17e4:	00f40000 	rscseq	r0, r4, r0
    17e8:	c3080000 	movwgt	r0, #32768	; 0x8000
    17ec:	1b000000 	blne	17f4 <_free_r+0x10>
    17f0:	00970700 	addseq	r0, r7, r0, lsl #14
    17f4:	01040000 	mrseq	r0, (UNDEF: 4)
    17f8:	c3080000 	movwgt	r0, #32768	; 0x8000
    17fc:	07000000 	streq	r0, [r0, -r0]
    1800:	00970700 	addseq	r0, r7, r0, lsl #14
    1804:	01140000 	tsteq	r4, r0
    1808:	c3080000 	movwgt	r0, #32768	; 0x8000
    180c:	17000000 	strne	r0, [r0, -r0]
    1810:	04080900 	streq	r0, [r8], #-2304	; 0xfffff700
    1814:	013817a9 	teqeq	r8, r9, lsr #15
    1818:	d80a0000 	stmdale	sl, {}	; <UNPREDICTABLE>
    181c:	0400000b 	streq	r0, [r0], #-11
    1820:	00ca17aa 	sbceq	r1, sl, sl, lsr #15
    1824:	0b000000 	bleq	182c <_free_r+0x48>
    1828:	00566e43 	subseq	r6, r6, r3, asr #28
    182c:	ca17ab04 	bgt	5ec444 <__exidx_end+0x5ea12c>
    1830:	04000000 	streq	r0, [r0], #-0
    1834:	049c0900 	ldreq	r0, [ip], #2304	; 0x900
    1838:	027917a5 	rsbseq	r1, r9, #43253760	; 0x2940000
    183c:	530b0000 	movwpl	r0, #45056	; 0xb000
    1840:	a6040043 	strge	r0, [r4], -r3, asr #32
    1844:	0000ca17 	andeq	ip, r0, r7, lsl sl
    1848:	430b0000 	movwmi	r0, #45056	; 0xb000
    184c:	0400544e 	streq	r5, [r0], #-1102	; 0xfffffbb2
    1850:	00ca17a7 	sbceq	r1, sl, r7, lsr #15
    1854:	0b040000 	bleq	10185c <__exidx_end+0xff544>
    1858:	00444f4d 	subeq	r4, r4, sp, asr #30
    185c:	ca17a804 	bgt	5eb874 <__exidx_end+0x5e955c>
    1860:	08000000 	stmdaeq	r0, {}	; <UNPREDICTABLE>
    1864:	000bcf0a 	andeq	ip, fp, sl, lsl #30
    1868:	17ac0400 	strne	r0, [ip, r0, lsl #8]!
    186c:	00000279 	andeq	r0, r0, r9, ror r2
    1870:	0beb0a0c 	bleq	ffac40a8 <__StackTop+0xdfa940a8>
    1874:	ad040000 	stcge	0, cr0, [r4, #-0]
    1878:	0000ca17 	andeq	ip, r0, r7, lsl sl
    187c:	0e0a4c00 	cdpeq	12, 0, cr4, cr10, cr0, {0}
    1880:	0400000c 	streq	r0, [r0], #-12
    1884:	00ca17ae 	sbceq	r1, sl, lr, lsr #15
    1888:	0a500000 	beq	1401890 <__exidx_end+0x13ff578>
    188c:	00000c02 	andeq	r0, r0, r2, lsl #24
    1890:	ca17af04 	bgt	5ed4a8 <__exidx_end+0x5eb190>
    1894:	54000000 	strpl	r0, [r0], #-0
    1898:	000c150a 	andeq	r1, ip, sl, lsl #10
    189c:	17b00400 	ldrne	r0, [r0, r0, lsl #8]!
    18a0:	000000ca 	andeq	r0, r0, sl, asr #1
    18a4:	0b7c0a58 	bleq	1f0420c <__exidx_end+0x1f01ef4>
    18a8:	b1040000 	mrslt	r0, (UNDEF: 4)
    18ac:	0000ca17 	andeq	ip, r0, r7, lsl sl
    18b0:	b60a5c00 	strlt	r5, [sl], -r0, lsl #24
    18b4:	0400000b 	streq	r0, [r0], #-11
    18b8:	00ca17b2 	strheq	r1, [sl], #114	; 0x72
    18bc:	0a600000 	beq	18018c4 <__exidx_end+0x17ff5ac>
    18c0:	00000ba5 	andeq	r0, r0, r5, lsr #23
    18c4:	ca17b304 	bgt	5ee4dc <__exidx_end+0x5ec1c4>
    18c8:	64000000 	strvs	r0, [r0], #-0
    18cc:	000b9c0a 	andeq	r9, fp, sl, lsl #24
    18d0:	17b40400 	ldrne	r0, [r4, r0, lsl #8]!
    18d4:	000000ca 	andeq	r0, r0, sl, asr #1
    18d8:	0b660a68 	bleq	1984280 <__exidx_end+0x1981f68>
    18dc:	b5040000 	strlt	r0, [r4, #-0]
    18e0:	0000ca17 	andeq	ip, r0, r7, lsl sl
    18e4:	500b6c00 	andpl	r6, fp, r0, lsl #24
    18e8:	04004c4f 	streq	r4, [r0], #-3151	; 0xfffff3b1
    18ec:	00ca17b6 	strheq	r1, [sl], #118	; 0x76
    18f0:	0b700000 	bleq	1c018f8 <__exidx_end+0x1bff5e0>
    18f4:	00534d46 	subseq	r4, r3, r6, asr #26
    18f8:	ca17b704 	bgt	5ef510 <__exidx_end+0x5ed1f8>
    18fc:	74000000 	strvc	r0, [r0], #-0
    1900:	000bbe0a 	andeq	fp, fp, sl, lsl #28
    1904:	17b80400 	ldrne	r0, [r8, r0, lsl #8]!
    1908:	000000ca 	andeq	r0, r0, sl, asr #1
    190c:	0bdd0a78 	bleq	ff7442f4 <__StackTop+0xdf7142f4>
    1910:	b9040000 	stmdblt	r4, {}	; <UNPREDICTABLE>
    1914:	0000ca17 	andeq	ip, r0, r7, lsl sl
    1918:	070a7c00 	streq	r7, [sl, -r0, lsl #24]
    191c:	0400000c 	streq	r0, [r0], #-12
    1920:	00ca17ba 	strheq	r1, [sl], #122	; 0x7a
    1924:	0a800000 	beq	fe00192c <__StackTop+0xddfd192c>
    1928:	00000b31 	andeq	r0, r0, r1, lsr fp
    192c:	ca17bb04 	bgt	5f0544 <__exidx_end+0x5ee22c>
    1930:	84000000 	strhi	r0, [r0], #-0
    1934:	000bfb0a 	andeq	pc, fp, sl, lsl #22
    1938:	17bc0400 	ldrne	r0, [ip, r0, lsl #8]!
    193c:	000000ca 	andeq	r0, r0, sl, asr #1
    1940:	0b2e0a88 	bleq	b84368 <__exidx_end+0xb82050>
    1944:	bd040000 	stclt	0, cr0, [r4, #-0]
    1948:	0000ca17 	andeq	ip, r0, r7, lsl sl
    194c:	940a8c00 	strls	r8, [sl], #-3072	; 0xfffff400
    1950:	0400000b 	streq	r0, [r0], #-11
    1954:	00ca17be 	strheq	r1, [sl], #126	; 0x7e
    1958:	0a900000 	beq	fe401960 <__StackTop+0xde3d1960>
    195c:	00000b84 	andeq	r0, r0, r4, lsl #23
    1960:	ca17bf04 	bgt	5f1578 <__exidx_end+0x5ef260>
    1964:	94000000 	strls	r0, [r0], #-0
    1968:	000b8c0a 	andeq	r8, fp, sl, lsl #24
    196c:	17c00400 	strbne	r0, [r0, r0, lsl #8]
    1970:	000000ca 	andeq	r0, r0, sl, asr #1
    1974:	14070098 	strne	r0, [r7], #-152	; 0xffffff68
    1978:	89000001 	stmdbhi	r0, {r0}
    197c:	08000002 	stmdaeq	r0, {r1}
    1980:	000000c3 	andeq	r0, r0, r3, asr #1
    1984:	360c0007 	strcc	r0, [ip], -r7
    1988:	0400000b 	streq	r0, [r0], #-11
    198c:	013817c1 	teqeq	r8, r1, asr #15
    1990:	cc090000 	stcgt	0, cr0, [r9], {-0}
    1994:	1424ba04 	strtne	fp, [r4], #-2564	; 0xfffff5fc
    1998:	0b000003 	bleq	19ac <__register_exitproc+0x2c>
    199c:	00524350 	subseq	r4, r2, r0, asr r3
    19a0:	2424bb04 	strtcs	fp, [r4], #-2820	; 0xfffff4fc
    19a4:	00000003 	andeq	r0, r0, r3
    19a8:	0002270a 	andeq	r2, r2, sl, lsl #14
    19ac:	24bc0400 	ldrtcs	r0, [ip], #1024	; 0x400
    19b0:	000000ca 	andeq	r0, r0, sl, asr #1
    19b4:	01e10a80 	mvneq	r0, r0, lsl #21
    19b8:	bd040000 	stclt	0, cr0, [r4, #-0]
    19bc:	0000ca24 	andeq	ip, r0, r4, lsr #20
    19c0:	f90a8400 			; <UNDEFINED> instruction: 0xf90a8400
    19c4:	04000002 	streq	r0, [r0], #-2
    19c8:	010424be 			; <UNDEFINED> instruction: 0x010424be
    19cc:	0a880000 	beq	fe2019d4 <__StackTop+0xde1d19d4>
    19d0:	0000020b 	andeq	r0, r0, fp, lsl #4
    19d4:	ca24bf04 	bgt	9315ec <__exidx_end+0x92f2d4>
    19d8:	a0000000 	andge	r0, r0, r0
    19dc:	0003040a 	andeq	r0, r3, sl, lsl #8
    19e0:	24c00400 	strbcs	r0, [r0], #1024	; 0x400
    19e4:	000000e4 	andeq	r0, r0, r4, ror #1
    19e8:	03610aa4 	cmneq	r1, #164, 20	; 0xa4000
    19ec:	c1040000 	mrsgt	r0, (UNDEF: 4)
    19f0:	0000ca24 	andeq	ip, r0, r4, lsr #20
    19f4:	420ac000 	andmi	ip, sl, #0
    19f8:	04000002 	streq	r0, [r0], #-2
    19fc:	00ca24c2 	sbceq	r2, sl, r2, asr #9
    1a00:	0ac40000 	beq	ff101a08 <__StackTop+0xdf0d1a08>
    1a04:	000002ee 	andeq	r0, r0, lr, ror #5
    1a08:	ca24c304 	bgt	932620 <__exidx_end+0x930308>
    1a0c:	c8000000 	stmdagt	r0, {}	; <UNPREDICTABLE>
    1a10:	00b80700 	adcseq	r0, r8, r0, lsl #14
    1a14:	03240000 	teqeq	r4, #0
    1a18:	c3080000 	movwgt	r0, #32768	; 0x8000
    1a1c:	1f000000 	svcne	0x00000000
    1a20:	03140500 	tsteq	r4, #0, 10
    1a24:	660c0000 	strvs	r0, [ip], -r0
    1a28:	04000003 	streq	r0, [r0], #-3
    1a2c:	029524c4 	addseq	r2, r5, #196, 8	; 0xc4000000
    1a30:	640d0000 	strvs	r0, [sp], #-0
    1a34:	2ace0410 	bcs	ff382a7c <__StackTop+0xdf352a7c>
    1a38:	000004a9 	andeq	r0, r0, r9, lsr #9
    1a3c:	0002b90a 	andeq	fp, r2, sl, lsl #18
    1a40:	2acf0400 	bcs	ff3c2a48 <__StackTop+0xdf392a48>
    1a44:	000000ca 	andeq	r0, r0, sl, asr #1
    1a48:	00460a00 	subeq	r0, r6, r0, lsl #20
    1a4c:	d0040000 	andle	r0, r4, r0
    1a50:	0000ca2a 	andeq	ip, r0, sl, lsr #20
    1a54:	f90a0400 			; <UNDEFINED> instruction: 0xf90a0400
    1a58:	04000002 	streq	r0, [r0], #-2
    1a5c:	04a92ad1 	strteq	r2, [r9], #2769	; 0xad1
    1a60:	0e080000 	cdpeq	0, 0, cr0, cr8, cr0, {0}
    1a64:	000002cf 	andeq	r0, r0, pc, asr #5
    1a68:	ca2ad204 	bgt	ab6280 <__exidx_end+0xab3f68>
    1a6c:	04000000 	streq	r0, [r0], #-0
    1a70:	03040e10 	movweq	r0, #19984	; 0x4e10
    1a74:	d3040000 	movwle	r0, #16384	; 0x4000
    1a78:	0000d42a 	andeq	sp, r0, sl, lsr #8
    1a7c:	0e100800 	cdpeq	8, 1, cr0, cr0, cr0, {0}
    1a80:	0000037a 	andeq	r0, r0, sl, ror r3
    1a84:	ca2ad404 	bgt	ab6a9c <__exidx_end+0xab4784>
    1a88:	0c000000 	stceq	0, cr0, [r0], {-0}
    1a8c:	00000e10 	andeq	r0, r0, r0, lsl lr
    1a90:	d5040000 	strle	r0, [r4, #-0]
    1a94:	0000ca2a 	andeq	ip, r0, sl, lsr #20
    1a98:	0e101000 	cdpeq	0, 1, cr1, cr0, cr0, {0}
    1a9c:	0000030f 	andeq	r0, r0, pc, lsl #6
    1aa0:	d42ad604 	strtle	sp, [sl], #-1540	; 0xfffff9fc
    1aa4:	14000000 	strne	r0, [r0], #-0
    1aa8:	01e70e10 	mvneq	r0, r0, lsl lr
    1aac:	d7040000 	strle	r0, [r4, -r0]
    1ab0:	0000ca2a 	andeq	ip, r0, sl, lsr #20
    1ab4:	0e101800 	cdpeq	8, 1, cr1, cr0, cr0, {0}
    1ab8:	0000031a 	andeq	r0, r0, sl, lsl r3
    1abc:	f42ad804 	vld2.8	{d13-d14}, [sl], r4
    1ac0:	1c000000 	stcne	0, cr0, [r0], {-0}
    1ac4:	00410e10 	subeq	r0, r1, r0, lsl lr
    1ac8:	d9040000 	stmdble	r4, {}	; <UNPREDICTABLE>
    1acc:	0000cf2a 	andeq	ip, r0, sl, lsr #30
    1ad0:	0e102400 	cfmulseq	mvf2, mvf0, mvf0
    1ad4:	000001a7 	andeq	r0, r0, r7, lsr #3
    1ad8:	ca2ada04 	bgt	ab82f0 <__exidx_end+0xab5fd8>
    1adc:	28000000 	stmdacs	r0, {}	; <UNPREDICTABLE>
    1ae0:	01ad0e10 			; <UNDEFINED> instruction: 0x01ad0e10
    1ae4:	db040000 	blle	101aec <__exidx_end+0xff7d4>
    1ae8:	0000ca2a 	andeq	ip, r0, sl, lsr #20
    1aec:	0e102c00 	cdpeq	12, 1, cr2, cr0, cr0, {0}
    1af0:	000001b3 			; <UNDEFINED> instruction: 0x000001b3
    1af4:	ca2adc04 	bgt	ab8b0c <__exidx_end+0xab67f4>
    1af8:	30000000 	andcc	r0, r0, r0
    1afc:	01b90e10 			; <UNDEFINED> instruction: 0x01b90e10
    1b00:	dd040000 	stcle	0, cr0, [r4, #-0]
    1b04:	0000ca2a 	andeq	ip, r0, sl, lsr #20
    1b08:	0e103400 	cfmulseq	mvf3, mvf0, mvf0
    1b0c:	000001bf 			; <UNDEFINED> instruction: 0x000001bf
    1b10:	ca2ade04 	bgt	ab9328 <__exidx_end+0xab7010>
    1b14:	38000000 	stmdacc	r0, {}	; <UNPREDICTABLE>
    1b18:	01c50e10 	biceq	r0, r5, r0, lsl lr
    1b1c:	df040000 	svcle	0x00040000
    1b20:	0000ca2a 	andeq	ip, r0, sl, lsr #20
    1b24:	0e103c00 	cdpeq	12, 1, cr3, cr0, cr0, {0}
    1b28:	000001cb 	andeq	r0, r0, fp, asr #3
    1b2c:	ca2ae004 	bgt	ab9b44 <__exidx_end+0xab782c>
    1b30:	40000000 	andmi	r0, r0, r0
    1b34:	01ed0e10 	mvneq	r0, r0, lsl lr
    1b38:	e1040000 	mrs	r0, (UNDEF: 4)
    1b3c:	0000ca2a 	andeq	ip, r0, sl, lsr #20
    1b40:	0e104400 	cfmulseq	mvf4, mvf0, mvf0
    1b44:	000001f5 	strdeq	r0, [r0], -r5
    1b48:	ca2ae204 	bgt	aba360 <__exidx_end+0xab8048>
    1b4c:	48000000 	stmdami	r0, {}	; <UNPREDICTABLE>
    1b50:	00060e10 	andeq	r0, r6, r0, lsl lr
    1b54:	e3040000 	movw	r0, #16384	; 0x4000
    1b58:	0000ca2a 	andeq	ip, r0, sl, lsr #20
    1b5c:	0e104c00 	cdpeq	12, 1, cr4, cr0, cr0, {0}
    1b60:	0000000c 	andeq	r0, r0, ip
    1b64:	cf2ae404 	svcgt	0x002ae404
    1b68:	50000000 	andpl	r0, r0, r0
    1b6c:	00a10e10 	adceq	r0, r1, r0, lsl lr
    1b70:	e5040000 	str	r0, [r4, #-0]
    1b74:	0000cf2a 	andeq	ip, r0, sl, lsr #30
    1b78:	0e105400 	cfmulseq	mvf5, mvf0, mvf0
    1b7c:	000001d1 	ldrdeq	r0, [r0], -r1
    1b80:	cf2ae604 	svcgt	0x002ae604
    1b84:	58000000 	stmdapl	r0, {}	; <UNPREDICTABLE>
    1b88:	02f30e10 	rscseq	r0, r3, #16, 28	; 0x100
    1b8c:	e7040000 	str	r0, [r4, -r0]
    1b90:	0000cf2a 	andeq	ip, r0, sl, lsr #30
    1b94:	0e105c00 	cdpeq	12, 1, cr5, cr0, cr0, {0}
    1b98:	000000b0 	strheq	r0, [r0], -r0	; <UNPREDICTABLE>
    1b9c:	cf2ae804 	svcgt	0x002ae804
    1ba0:	60000000 	andvs	r0, r0, r0
    1ba4:	97070010 	smladls	r7, r0, r0, r0
    1ba8:	ba000000 	blt	1bb0 <__ssputs_r+0xa4>
    1bac:	0f000004 	svceq	0x00000004
    1bb0:	000000c3 	andeq	r0, r0, r3, asr #1
    1bb4:	0c000ffb 	stceq	15, cr0, [r0], {251}	; 0xfb
    1bb8:	0000008d 	andeq	r0, r0, sp, lsl #1
    1bbc:	352ae904 	strcc	lr, [sl, #-2308]!	; 0xfffff6fc
    1bc0:	10000003 	andne	r0, r0, r3
    1bc4:	00000b6e 	andeq	r0, r0, lr, ror #22
    1bc8:	00002401 	andeq	r2, r0, r1, lsl #8
    1bcc:	00340000 	eorseq	r0, r4, r0
    1bd0:	9c010000 	stcls	0, cr0, [r1], {-0}
    1bd4:	000004fa 	strdeq	r0, [r0], -sl
    1bd8:	000c3c11 	andeq	r3, ip, r1, lsl ip
    1bdc:	25240100 	strcs	r0, [r4, #-256]!	; 0xffffff00
    1be0:	86000000 	strhi	r0, [r0], -r0
    1be4:	12000004 	andne	r0, r0, #4
    1be8:	00646f6d 	rsbeq	r6, r4, sp, ror #30
    1bec:	00a22801 	adceq	r2, r2, r1, lsl #16
    1bf0:	04a70000 	strteq	r0, [r7], #0
    1bf4:	13000000 	movwne	r0, #0
    1bf8:	00000b4d 	andeq	r0, r0, sp, asr #22
    1bfc:	00903401 	addseq	r3, r0, r1, lsl #8
    1c00:	08240000 	stmdaeq	r4!, {}	; <UNPREDICTABLE>
    1c04:	00a80000 	adceq	r0, r8, r0
    1c08:	9c010000 	stcls	0, cr0, [r1], {-0}
    1c0c:	0000054e 	andeq	r0, r0, lr, asr #10
    1c10:	000bf111 	andeq	pc, fp, r1, lsl r1	; <UNPREDICTABLE>
    1c14:	b8340100 	ldmdalt	r4!, {r8}
    1c18:	f4000000 	vst4.8	{d0-d3}, [r0], r0
    1c1c:	12000004 	andne	r0, r0, #4
    1c20:	36010069 	strcc	r0, [r1], -r9, rrx
    1c24:	00000090 	muleq	r0, r0, r0
    1c28:	0000053d 	andeq	r0, r0, sp, lsr r5
    1c2c:	000c1a14 	andeq	r1, ip, r4, lsl sl
    1c30:	90370100 	eorsls	r0, r7, r0, lsl #2
    1c34:	50000000 	andpl	r0, r0, r0
    1c38:	14000005 	strne	r0, [r0], #-5
    1c3c:	00000be5 	andeq	r0, r0, r5, ror #23
    1c40:	00903801 	addseq	r3, r0, r1, lsl #16
    1c44:	05850000 	streq	r0, [r5]
    1c48:	15000000 	strne	r0, [r0, #-0]
    1c4c:	00000b56 	andeq	r0, r0, r6, asr fp
    1c50:	08cc7c01 	stmiaeq	ip, {r0, sl, fp, ip, sp, lr}^
    1c54:	00240000 	eoreq	r0, r4, r0
    1c58:	9c010000 	stcls	0, cr0, [r1], {-0}
    1c5c:	000b3f16 	andeq	r3, fp, r6, lsl pc
    1c60:	70190100 	andsvc	r0, r9, r0, lsl #2
    1c64:	05000005 	streq	r0, [r0, #-5]
    1c68:	ff022803 			; <UNDEFINED> instruction: 0xff022803
    1c6c:	0025051f 	eoreq	r0, r5, pc, lsl r5
    1c70:	ad160000 	ldcge	0, cr0, [r6, #-0]
    1c74:	0100000b 	tsteq	r0, fp
    1c78:	0000251a 	andeq	r2, r0, sl, lsl r5
    1c7c:	24030500 	strcs	r0, [r3], #-1280	; 0xfffffb00
    1c80:	161fff02 	ldrne	pc, [pc], -r2, lsl #30
    1c84:	00000bc5 	andeq	r0, r0, r5, asr #23
    1c88:	00251b01 	eoreq	r1, r5, r1, lsl #22
    1c8c:	03050000 	movweq	r0, #20480	; 0x5000
    1c90:	1fff022c 	svcne	0x00ff022c
    1c94:	00035417 	andeq	r5, r3, r7, lsl r4
    1c98:	06a70500 	strteq	r0, [r7], r0, lsl #10
    1c9c:	000005a3 	andeq	r0, r0, r3, lsr #11
    1ca0:	0000ad05 	andeq	sl, r0, r5, lsl #26
    1ca4:	02bf1800 	adcseq	r1, pc, #0, 16
    1ca8:	44060000 	strmi	r0, [r6], #-0
    1cac:	000000b8 	strheq	r0, [r0], -r8
    1cb0:	000e2300 	andeq	r2, lr, r0, lsl #6
    1cb4:	66000400 	strvs	r0, [r0], -r0, lsl #8
    1cb8:	04000007 	streq	r0, [r0], #-7
    1cbc:	0000bc01 	andeq	fp, r0, r1, lsl #24
    1cc0:	0cb20c00 	ldceq	12, cr0, [r2]
    1cc4:	026d0000 	rsbeq	r0, sp, #0
    1cc8:	00b80000 	adcseq	r0, r8, r0
    1ccc:	00000000 	andeq	r0, r0, r0
    1cd0:	06020000 	streq	r0, [r2], -r0
    1cd4:	04020000 	streq	r0, [r2], #-0
    1cd8:	000a0904 	andeq	r0, sl, r4, lsl #18
    1cdc:	04080200 	streq	r0, [r8], #-512	; 0xfffffe00
    1ce0:	00000d14 	andeq	r0, r0, r4, lsl sp
    1ce4:	ff060102 			; <UNDEFINED> instruction: 0xff060102
    1ce8:	03000001 	movweq	r0, #1
    1cec:	00000370 	andeq	r0, r0, r0, ror r3
    1cf0:	00451d02 	subeq	r1, r5, r2, lsl #26
    1cf4:	01020000 	mrseq	r0, (UNDEF: 2)
    1cf8:	0001fd08 	andeq	pc, r1, r8, lsl #26
    1cfc:	0c820300 	stceq	3, cr0, [r2], {0}
    1d00:	29020000 	stmdbcs	r2, {}	; <UNPREDICTABLE>
    1d04:	00000057 	andeq	r0, r0, r7, asr r0
    1d08:	a6050202 	strge	r0, [r5], -r2, lsl #4
    1d0c:	03000000 	movweq	r0, #0
    1d10:	00000096 	muleq	r0, r6, r0
    1d14:	00692b02 	rsbeq	r2, r9, r2, lsl #22
    1d18:	02020000 	andeq	r0, r2, #0
    1d1c:	00025207 	andeq	r5, r2, r7, lsl #4
    1d20:	03250300 	teqeq	r5, #0, 6
    1d24:	3f020000 	svccc	0x00020000
    1d28:	0000007b 	andeq	r0, r0, fp, ror r0
    1d2c:	97050402 	strls	r0, [r5, -r2, lsl #8]
    1d30:	03000001 	movweq	r0, #1
    1d34:	0000007a 	andeq	r0, r0, sl, ror r0
    1d38:	008d4102 	addeq	r4, sp, r2, lsl #2
    1d3c:	04020000 	streq	r0, [r2], #-0
    1d40:	00021507 	andeq	r1, r2, r7, lsl #10
    1d44:	05080200 	streq	r0, [r8, #-512]	; 0xfffffe00
    1d48:	00000192 	muleq	r0, r2, r1
    1d4c:	10070802 	andne	r0, r7, r2, lsl #16
    1d50:	04000002 	streq	r0, [r0], #-2
    1d54:	6e690504 	cdpvs	5, 6, cr0, cr9, cr4, {0}
    1d58:	04020074 	streq	r0, [r2], #-116	; 0xffffff8c
    1d5c:	00021a07 	andeq	r1, r2, r7, lsl #20
    1d60:	03720300 	cmneq	r2, #0, 6
    1d64:	14030000 	strne	r0, [r3], #-0
    1d68:	0000003a 	andeq	r0, r0, sl, lsr r0
    1d6c:	000c8403 	andeq	r8, ip, r3, lsl #8
    1d70:	4c190300 	ldcmi	3, cr0, [r9], {-0}
    1d74:	03000000 	movweq	r0, #0
    1d78:	00000098 	muleq	r0, r8, r0
    1d7c:	005e1a03 	subseq	r1, lr, r3, lsl #20
    1d80:	27030000 	strcs	r0, [r3, -r0]
    1d84:	03000003 	movweq	r0, #3
    1d88:	0000701f 	andeq	r7, r0, pc, lsl r0
    1d8c:	007c0300 	rsbseq	r0, ip, r0, lsl #6
    1d90:	20030000 	andcs	r0, r3, r0
    1d94:	00000082 	andeq	r0, r0, r2, lsl #1
    1d98:	55070402 	strpl	r0, [r7, #-1026]	; 0xfffffbfe
    1d9c:	05000000 	streq	r0, [r0, #-0]
    1da0:	000000dc 	ldrdeq	r0, [r0], -ip
    1da4:	0000ee06 	andeq	lr, r0, r6, lsl #28
    1da8:	00dc0700 	sbcseq	r0, ip, r0, lsl #14
    1dac:	01080000 	mrseq	r0, (UNDEF: 8)
    1db0:	e7080000 	str	r0, [r8, -r0]
    1db4:	01000000 	mrseq	r0, (UNDEF: 0)
    1db8:	00b00500 	adcseq	r0, r0, r0, lsl #10
    1dbc:	70090000 	andvc	r0, r9, r0
    1dc0:	65011f04 	strvs	r1, [r1, #-3844]	; 0xfffff0fc
    1dc4:	0a000002 	beq	1dd4 <_printf_common+0x2c>
    1dc8:	00314353 	eorseq	r4, r1, r3, asr r3
    1dcc:	65012004 	strvs	r2, [r1, #-4]
    1dd0:	00000002 	andeq	r0, r0, r2
    1dd4:	0000070b 	andeq	r0, r0, fp, lsl #14
    1dd8:	01210400 	teqeq	r1, r0, lsl #8
    1ddc:	000000ee 	andeq	r0, r0, lr, ror #1
    1de0:	000d0b08 	andeq	r0, sp, r8, lsl #22
    1de4:	22040000 	andcs	r0, r4, #0
    1de8:	0000ee01 	andeq	lr, r0, r1, lsl #28
    1dec:	520a0c00 	andpl	r0, sl, #0, 24
    1df0:	01230400 	teqeq	r3, r0, lsl #8
    1df4:	0000026f 	andeq	r0, r0, pc, ror #4
    1df8:	56430a10 			; <UNDEFINED> instruction: 0x56430a10
    1dfc:	24040031 	strcs	r0, [r4], #-49	; 0xffffffcf
    1e00:	0000ee01 	andeq	lr, r0, r1, lsl #28
    1e04:	430a1800 	movwmi	r1, #43008	; 0xa800
    1e08:	04003256 	streq	r3, [r0], #-598	; 0xfffffdaa
    1e0c:	00ee0125 	rsceq	r0, lr, r5, lsr #2
    1e10:	0a1c0000 	beq	701e18 <__exidx_end+0x6ffb00>
    1e14:	00324353 	eorseq	r4, r2, r3, asr r3
    1e18:	ee012604 	cfmadd32	mvax0, mvfx2, mvfx1, mvfx4
    1e1c:	20000000 	andcs	r0, r0, r0
    1e20:	3343530a 	movtcc	r5, #13066	; 0x330a
    1e24:	01270400 	teqeq	r7, r0, lsl #8
    1e28:	000000ee 	andeq	r0, r0, lr, ror #1
    1e2c:	464f0a24 	strbmi	r0, [pc], -r4, lsr #20
    1e30:	28040053 	stmdacs	r4, {r0, r1, r4, r6}
    1e34:	0000ee01 	andeq	lr, r0, r1, lsl #28
    1e38:	500a2800 	andpl	r2, sl, r0, lsl #16
    1e3c:	29040047 	stmdbcs	r4, {r0, r1, r2, r6}
    1e40:	0000ee01 	andeq	lr, r0, r1, lsl #28
    1e44:	4d0a2c00 	stcmi	12, cr2, [sl, #-0]
    1e48:	2a040047 	bcs	101f6c <__exidx_end+0xffc54>
    1e4c:	0000ee01 	andeq	lr, r0, r1, lsl #28
    1e50:	220b3000 	andcs	r3, fp, #0
    1e54:	0400000c 	streq	r0, [r0], #-12
    1e58:	00ee012b 	rsceq	r0, lr, fp, lsr #2
    1e5c:	0b340000 	bleq	d01e64 <__exidx_end+0xcffb4c>
    1e60:	00000d1b 	andeq	r0, r0, fp, lsl sp
    1e64:	ee012c04 	cdp	12, 0, cr2, cr1, cr4, {0}
    1e68:	38000000 	stmdacc	r0, {}	; <UNPREDICTABLE>
    1e6c:	000cfb0b 	andeq	pc, ip, fp, lsl #22
    1e70:	012d0400 	teqeq	sp, r0, lsl #8
    1e74:	000000ee 	andeq	r0, r0, lr, ror #1
    1e78:	0dc90b3c 	vstreq	d16, [r9, #240]	; 0xf0
    1e7c:	2e040000 	cdpcs	0, 0, cr0, cr4, cr0, {0}
    1e80:	0000ee01 	andeq	lr, r0, r1, lsl #28
    1e84:	c40b4000 	strgt	r4, [fp], #-0
    1e88:	0400000d 	streq	r0, [r0], #-13
    1e8c:	00ee012f 	rsceq	r0, lr, pc, lsr #2
    1e90:	0b440000 	bleq	1101e98 <__exidx_end+0x10ffb80>
    1e94:	00000dbf 			; <UNDEFINED> instruction: 0x00000dbf
    1e98:	ee013004 	cdp	0, 0, cr3, cr1, cr4, {0}
    1e9c:	48000000 	stmdami	r0, {}	; <UNPREDICTABLE>
    1ea0:	000dba0b 	andeq	fp, sp, fp, lsl #20
    1ea4:	01310400 	teqeq	r1, r0, lsl #8
    1ea8:	000000ee 	andeq	r0, r0, lr, ror #1
    1eac:	02f90b4c 	rscseq	r0, r9, #76, 22	; 0x13000
    1eb0:	32040000 	andcc	r0, r4, #0
    1eb4:	00027401 	andeq	r7, r2, r1, lsl #8
    1eb8:	7c0b5000 	stcvc	0, cr5, [fp], {-0}
    1ebc:	0400000d 	streq	r0, [r0], #-13
    1ec0:	00ee0133 	rsceq	r0, lr, r3, lsr r1
    1ec4:	0b540000 	bleq	1501ecc <__exidx_end+0x14ffbb4>
    1ec8:	00000db0 			; <UNDEFINED> instruction: 0x00000db0
    1ecc:	ee013404 	cdp	4, 0, cr3, cr1, cr4, {0}
    1ed0:	58000000 	stmdapl	r0, {}	; <UNPREDICTABLE>
    1ed4:	000cf60b 	andeq	pc, ip, fp, lsl #12
    1ed8:	01350400 	teqeq	r5, r0, lsl #8
    1edc:	000000ee 	andeq	r0, r0, lr, ror #1
    1ee0:	0cf10b5c 	vldmiaeq	r1!, {d16-<overflow reg d61>}
    1ee4:	36040000 	strcc	r0, [r4], -r0
    1ee8:	0000ee01 	andeq	lr, r0, r1, lsl #28
    1eec:	ec0b6000 	stc	0, cr6, [fp], {-0}
    1ef0:	0400000c 	streq	r0, [r0], #-12
    1ef4:	00ee0137 	rsceq	r0, lr, r7, lsr r1
    1ef8:	0b640000 	bleq	1901f00 <__exidx_end+0x18ffbe8>
    1efc:	00000ce7 	andeq	r0, r0, r7, ror #25
    1f00:	ee013804 	cdp	8, 0, cr3, cr1, cr4, {0}
    1f04:	68000000 	stmdavs	r0, {}	; <UNPREDICTABLE>
    1f08:	000ce20b 	andeq	lr, ip, fp, lsl #4
    1f0c:	01390400 	teqeq	r9, r0, lsl #8
    1f10:	000000ee 	andeq	r0, r0, lr, ror #1
    1f14:	f805006c 			; <UNDEFINED> instruction: 0xf805006c
    1f18:	05000000 	streq	r0, [r0, #-0]
    1f1c:	000000f8 	strdeq	r0, [r0], -r8
    1f20:	00026a06 	andeq	r6, r2, r6, lsl #20
    1f24:	00b00700 	adcseq	r0, r0, r0, lsl #14
    1f28:	02840000 	addeq	r0, r4, #0
    1f2c:	e7080000 	str	r0, [r8, -r0]
    1f30:	03000000 	movweq	r0, #0
    1f34:	0c9a0c00 	ldceq	12, cr0, [sl], {0}
    1f38:	3a040000 	bcc	101f40 <__exidx_end+0xffc28>
    1f3c:	00010d01 	andeq	r0, r1, r1, lsl #26
    1f40:	00b00700 	adcseq	r0, r0, r0, lsl #14
    1f44:	02a00000 	adceq	r0, r0, #0
    1f48:	e7080000 	str	r0, [r8, -r0]
    1f4c:	1b000000 	blne	1f54 <_printf_i+0xc0>
    1f50:	00b00700 	adcseq	r0, r0, r0, lsl #14
    1f54:	02b00000 	adcseq	r0, r0, #0
    1f58:	e7080000 	str	r0, [r8, -r0]
    1f5c:	07000000 	streq	r0, [r0, -r0]
    1f60:	00b00700 	adcseq	r0, r0, r0, lsl #14
    1f64:	02c00000 	sbceq	r0, r0, #0
    1f68:	e7080000 	str	r0, [r8, -r0]
    1f6c:	17000000 	strne	r0, [r0, -r0]
    1f70:	01080600 	tsteq	r8, r0, lsl #12
    1f74:	18090000 	stmdane	r9, {}	; <UNPREDICTABLE>
    1f78:	1d1a5904 	ldcne	9, cr5, [sl, #-16]
    1f7c:	0b000003 	bleq	1f90 <_printf_i+0xfc>
    1f80:	00000d8b 	andeq	r0, r0, fp, lsl #27
    1f84:	ee1a5a04 	vnmls.f32	s10, s20, s8
    1f88:	00000000 	andeq	r0, r0, r0
    1f8c:	000c6b0b 	andeq	r6, ip, fp, lsl #22
    1f90:	1a5b0400 	bne	16c2f98 <__exidx_end+0x16c0c80>
    1f94:	000000ee 	andeq	r0, r0, lr, ror #1
    1f98:	0c610b04 	stcleq	11, cr0, [r1], #-16
    1f9c:	5c040000 	stcpl	0, cr0, [r4], {-0}
    1fa0:	0000ee1a 	andeq	lr, r0, sl, lsl lr
    1fa4:	310b0800 	tstcc	fp, r0, lsl #16
    1fa8:	0400000c 	streq	r0, [r0], #-12
    1fac:	00ee1a5d 	rsceq	r1, lr, sp, asr sl
    1fb0:	0b0c0000 	bleq	301fb8 <__exidx_end+0x2ffca0>
    1fb4:	00000c66 	andeq	r0, r0, r6, ror #24
    1fb8:	f31a5e04 	vcge.f<illegal width 64>	d5, d10, d4
    1fbc:	10000000 	andne	r0, r0, r0
    1fc0:	000cdd0b 	andeq	sp, ip, fp, lsl #26
    1fc4:	1a5f0400 	bne	17c2fcc <__exidx_end+0x17c0cb4>
    1fc8:	000000ee 	andeq	r0, r0, lr, ror #1
    1fcc:	810c0014 	tsthi	ip, r4, lsl r0
    1fd0:	0400000d 	streq	r0, [r0], #-13
    1fd4:	02c51a60 	sbceq	r1, r5, #96, 20	; 0x60000
    1fd8:	b0070000 	andlt	r0, r7, r0
    1fdc:	39000000 	stmdbcc	r0, {}	; <UNPREDICTABLE>
    1fe0:	08000003 	stmdaeq	r0, {r0, r1}
    1fe4:	000000e7 	andeq	r0, r0, r7, ror #1
    1fe8:	cc090000 	stcgt	0, cr0, [r9], {-0}
    1fec:	b824ba04 	stmdalt	r4!, {r2, r9, fp, ip, sp, pc}
    1ff0:	0a000003 	beq	2004 <_printf_i+0x170>
    1ff4:	00524350 	subseq	r4, r2, r0, asr r3
    1ff8:	c824bb04 	stmdagt	r4!, {r2, r8, r9, fp, ip, sp, pc}
    1ffc:	00000003 	andeq	r0, r0, r3
    2000:	0002270b 	andeq	r2, r2, fp, lsl #14
    2004:	24bc0400 	ldrtcs	r0, [ip], #1024	; 0x400
    2008:	000000ee 	andeq	r0, r0, lr, ror #1
    200c:	01e10b80 	mvneq	r0, r0, lsl #23
    2010:	bd040000 	stclt	0, cr0, [r4, #-0]
    2014:	0000ee24 	andeq	lr, r0, r4, lsr #28
    2018:	f90b8400 			; <UNDEFINED> instruction: 0xf90b8400
    201c:	04000002 	streq	r0, [r0], #-2
    2020:	02b024be 	adcseq	r2, r0, #-1107296256	; 0xbe000000
    2024:	0b880000 	bleq	fe20202c <__StackTop+0xde1d202c>
    2028:	0000020b 	andeq	r0, r0, fp, lsl #4
    202c:	ee24bf04 	cdp	15, 2, cr11, cr4, cr4, {0}
    2030:	a0000000 	andge	r0, r0, r0
    2034:	0003040b 	andeq	r0, r3, fp, lsl #8
    2038:	24c00400 	strbcs	r0, [r0], #1024	; 0x400
    203c:	00000290 	muleq	r0, r0, r2
    2040:	03610ba4 	cmneq	r1, #164, 22	; 0x29000
    2044:	c1040000 	mrsgt	r0, (UNDEF: 4)
    2048:	0000ee24 	andeq	lr, r0, r4, lsr #28
    204c:	420bc000 	andmi	ip, fp, #0
    2050:	04000002 	streq	r0, [r0], #-2
    2054:	00ee24c2 	rsceq	r2, lr, r2, asr #9
    2058:	0bc40000 	bleq	ff102060 <__StackTop+0xdf0d2060>
    205c:	000002ee 	andeq	r0, r0, lr, ror #5
    2060:	ee24c304 	cdp	3, 2, cr12, cr4, cr4, {0}
    2064:	c8000000 	stmdagt	r0, {}	; <UNPREDICTABLE>
    2068:	00dc0700 	sbcseq	r0, ip, r0, lsl #14
    206c:	03c80000 	biceq	r0, r8, #0
    2070:	e7080000 	str	r0, [r8, -r0]
    2074:	1f000000 	svcne	0x00000000
    2078:	03b80500 			; <UNDEFINED> instruction: 0x03b80500
    207c:	660c0000 	strvs	r0, [ip], -r0
    2080:	04000003 	streq	r0, [r0], #-3
    2084:	033924c4 	teqeq	r9, #196, 8	; 0xc4000000
    2088:	640d0000 	strvs	r0, [sp], #-0
    208c:	2ace0410 	bcs	ff3830d4 <__StackTop+0xdf3530d4>
    2090:	0000054d 	andeq	r0, r0, sp, asr #10
    2094:	0002b90b 	andeq	fp, r2, fp, lsl #18
    2098:	2acf0400 	bcs	ff3c30a0 <__StackTop+0xdf3930a0>
    209c:	000000ee 	andeq	r0, r0, lr, ror #1
    20a0:	00460b00 	subeq	r0, r6, r0, lsl #22
    20a4:	d0040000 	andle	r0, r4, r0
    20a8:	0000ee2a 	andeq	lr, r0, sl, lsr #28
    20ac:	f90b0400 			; <UNDEFINED> instruction: 0xf90b0400
    20b0:	04000002 	streq	r0, [r0], #-2
    20b4:	054d2ad1 	strbeq	r2, [sp, #-2769]	; 0xfffff52f
    20b8:	0e080000 	cdpeq	0, 0, cr0, cr8, cr0, {0}
    20bc:	000002cf 	andeq	r0, r0, pc, asr #5
    20c0:	ee2ad204 	cdp	2, 2, cr13, cr10, cr4, {0}
    20c4:	04000000 	streq	r0, [r0], #-0
    20c8:	03040e10 	movweq	r0, #19984	; 0x4e10
    20cc:	d3040000 	movwle	r0, #16384	; 0x4000
    20d0:	0002742a 	andeq	r7, r2, sl, lsr #8
    20d4:	0e100800 	cdpeq	8, 1, cr0, cr0, cr0, {0}
    20d8:	0000037a 	andeq	r0, r0, sl, ror r3
    20dc:	ee2ad404 	cdp	4, 2, cr13, cr10, cr4, {0}
    20e0:	0c000000 	stceq	0, cr0, [r0], {-0}
    20e4:	00000e10 	andeq	r0, r0, r0, lsl lr
    20e8:	d5040000 	strle	r0, [r4, #-0]
    20ec:	0000ee2a 	andeq	lr, r0, sl, lsr #28
    20f0:	0e101000 	cdpeq	0, 1, cr1, cr0, cr0, {0}
    20f4:	0000030f 	andeq	r0, r0, pc, lsl #6
    20f8:	742ad604 	strtvc	sp, [sl], #-1540	; 0xfffff9fc
    20fc:	14000002 	strne	r0, [r0], #-2
    2100:	01e70e10 	mvneq	r0, r0, lsl lr
    2104:	d7040000 	strle	r0, [r4, -r0]
    2108:	0000ee2a 	andeq	lr, r0, sl, lsr #28
    210c:	0e101800 	cdpeq	8, 1, cr1, cr0, cr0, {0}
    2110:	0000031a 	andeq	r0, r0, sl, lsl r3
    2114:	a02ad804 	eorge	sp, sl, r4, lsl #16
    2118:	1c000002 	stcne	0, cr0, [r0], {2}
    211c:	00410e10 	subeq	r0, r1, r0, lsl lr
    2120:	d9040000 	stmdble	r4, {}	; <UNPREDICTABLE>
    2124:	0000f32a 	andeq	pc, r0, sl, lsr #6
    2128:	0e102400 	cfmulseq	mvf2, mvf0, mvf0
    212c:	000001a7 	andeq	r0, r0, r7, lsr #3
    2130:	ee2ada04 	vmul.f32	s26, s20, s8
    2134:	28000000 	stmdacs	r0, {}	; <UNPREDICTABLE>
    2138:	01ad0e10 			; <UNDEFINED> instruction: 0x01ad0e10
    213c:	db040000 	blle	102144 <__exidx_end+0xffe2c>
    2140:	0000ee2a 	andeq	lr, r0, sl, lsr #28
    2144:	0e102c00 	cdpeq	12, 1, cr2, cr0, cr0, {0}
    2148:	000001b3 			; <UNDEFINED> instruction: 0x000001b3
    214c:	ee2adc04 	cdp	12, 2, cr13, cr10, cr4, {0}
    2150:	30000000 	andcc	r0, r0, r0
    2154:	01b90e10 			; <UNDEFINED> instruction: 0x01b90e10
    2158:	dd040000 	stcle	0, cr0, [r4, #-0]
    215c:	0000ee2a 	andeq	lr, r0, sl, lsr #28
    2160:	0e103400 	cfmulseq	mvf3, mvf0, mvf0
    2164:	000001bf 			; <UNDEFINED> instruction: 0x000001bf
    2168:	ee2ade04 	cdp	14, 2, cr13, cr10, cr4, {0}
    216c:	38000000 	stmdacc	r0, {}	; <UNPREDICTABLE>
    2170:	01c50e10 	biceq	r0, r5, r0, lsl lr
    2174:	df040000 	svcle	0x00040000
    2178:	0000ee2a 	andeq	lr, r0, sl, lsr #28
    217c:	0e103c00 	cdpeq	12, 1, cr3, cr0, cr0, {0}
    2180:	000001cb 	andeq	r0, r0, fp, asr #3
    2184:	ee2ae004 	cdp	0, 2, cr14, cr10, cr4, {0}
    2188:	40000000 	andmi	r0, r0, r0
    218c:	01ed0e10 	mvneq	r0, r0, lsl lr
    2190:	e1040000 	mrs	r0, (UNDEF: 4)
    2194:	0000ee2a 	andeq	lr, r0, sl, lsr #28
    2198:	0e104400 	cfmulseq	mvf4, mvf0, mvf0
    219c:	000001f5 	strdeq	r0, [r0], -r5
    21a0:	ee2ae204 	cdp	2, 2, cr14, cr10, cr4, {0}
    21a4:	48000000 	stmdami	r0, {}	; <UNPREDICTABLE>
    21a8:	00060e10 	andeq	r0, r6, r0, lsl lr
    21ac:	e3040000 	movw	r0, #16384	; 0x4000
    21b0:	0000ee2a 	andeq	lr, r0, sl, lsr #28
    21b4:	0e104c00 	cdpeq	12, 1, cr4, cr0, cr0, {0}
    21b8:	0000000c 	andeq	r0, r0, ip
    21bc:	f32ae404 	vshl.u32	d14, d4, d10
    21c0:	50000000 	andpl	r0, r0, r0
    21c4:	00a10e10 	adceq	r0, r1, r0, lsl lr
    21c8:	e5040000 	str	r0, [r4, #-0]
    21cc:	0000f32a 	andeq	pc, r0, sl, lsr #6
    21d0:	0e105400 	cfmulseq	mvf5, mvf0, mvf0
    21d4:	000001d1 	ldrdeq	r0, [r0], -r1
    21d8:	f32ae604 	vmax.u32	d14, d10, d4
    21dc:	58000000 	stmdapl	r0, {}	; <UNPREDICTABLE>
    21e0:	02f30e10 	rscseq	r0, r3, #16, 28	; 0x100
    21e4:	e7040000 	str	r0, [r4, -r0]
    21e8:	0000f32a 	andeq	pc, r0, sl, lsr #6
    21ec:	0e105c00 	cdpeq	12, 1, cr5, cr0, cr0, {0}
    21f0:	000000b0 	strheq	r0, [r0], -r0	; <UNPREDICTABLE>
    21f4:	f32ae804 	vsub.i32	d14, d10, d4
    21f8:	60000000 	andvs	r0, r0, r0
    21fc:	b0070010 	andlt	r0, r7, r0, lsl r0
    2200:	5e000000 	cdppl	0, 0, cr0, cr0, cr0, {0}
    2204:	0f000005 	svceq	0x00000005
    2208:	000000e7 	andeq	r0, r0, r7, ror #1
    220c:	0c000ffb 	stceq	15, cr0, [r0], {251}	; 0xfb
    2210:	0000008d 	andeq	r0, r0, sp, lsl #1
    2214:	d92ae904 	stmdble	sl!, {r2, r8, fp, sp, lr, pc}
    2218:	10000003 	andne	r0, r0, r3
    221c:	2e9e0401 	cdpcs	4, 9, cr0, cr14, cr1, {0}
    2220:	0000058c 	andeq	r0, r0, ip, lsl #11
    2224:	000aea11 	andeq	lr, sl, r1, lsl sl
    2228:	2e9f0400 	cdpcs	4, 9, cr0, cr15, cr0, {0}
    222c:	00000108 	andeq	r0, r0, r8, lsl #2
    2230:	000af911 	andeq	pc, sl, r1, lsl r9	; <UNPREDICTABLE>
    2234:	2ea00400 	cdpcs	4, 10, cr0, cr0, cr0, {0}
    2238:	00000108 	andeq	r0, r0, r8, lsl #2
    223c:	04200900 	strteq	r0, [r0], #-2304	; 0xfffff700
    2240:	07242e82 	streq	r2, [r4, -r2, lsl #29]!
    2244:	420a0000 	andmi	r0, sl, #0
    2248:	04004844 	streq	r4, [r0], #-2116	; 0xfffff7bc
    224c:	01082e83 	smlabbeq	r8, r3, lr, r2
    2250:	0a000000 	beq	2258 <_fini+0x80>
    2254:	004c4442 	subeq	r4, ip, r2, asr #8
    2258:	082e8404 	stmdaeq	lr!, {r2, sl, pc}
    225c:	01000001 	tsteq	r0, r1
    2260:	0031430a 	eorseq	r4, r1, sl, lsl #6
    2264:	082e8504 	stmdaeq	lr!, {r2, r8, sl, pc}
    2268:	02000001 	andeq	r0, r0, #1
    226c:	0032430a 	eorseq	r4, r2, sl, lsl #6
    2270:	082e8604 	stmdaeq	lr!, {r2, r9, sl, pc}
    2274:	03000001 	movweq	r0, #1
    2278:	0031530a 	eorseq	r5, r1, sl, lsl #6
    227c:	c02e8704 	eorgt	r8, lr, r4, lsl #14
    2280:	04000002 	streq	r0, [r0], #-2
    2284:	0032530a 	eorseq	r5, r2, sl, lsl #6
    2288:	082e8804 	stmdaeq	lr!, {r2, fp, pc}
    228c:	05000001 	streq	r0, [r0, #-1]
    2290:	0033430a 	eorseq	r4, r3, sl, lsl #6
    2294:	082e8904 	stmdaeq	lr!, {r2, r8, fp, pc}
    2298:	06000001 	streq	r0, [r0], -r1
    229c:	0400440a 	streq	r4, [r0], #-1034	; 0xfffffbf6
    22a0:	01082e8a 	smlabbeq	r8, sl, lr, r2
    22a4:	0a070000 	beq	1c22ac <__exidx_end+0x1bff94>
    22a8:	0031414d 	eorseq	r4, r1, sp, asr #2
    22ac:	082e8b04 	stmdaeq	lr!, {r2, r8, r9, fp, pc}
    22b0:	08000001 	stmdaeq	r0, {r0}
    22b4:	32414d0a 	subcc	r4, r1, #640	; 0x280
    22b8:	2e8c0400 	cdpcs	4, 8, cr0, cr12, cr0, {0}
    22bc:	00000108 	andeq	r0, r0, r8, lsl #2
    22c0:	34430a09 	strbcc	r0, [r3], #-2569	; 0xfffff5f7
    22c4:	2e8d0400 	cdpcs	4, 8, cr0, cr13, cr0, {0}
    22c8:	00000108 	andeq	r0, r0, r8, lsl #2
    22cc:	35430a0a 	strbcc	r0, [r3, #-2570]	; 0xfffff5f6
    22d0:	2e8e0400 	cdpcs	4, 8, cr0, cr14, cr0, {0}
    22d4:	00000108 	andeq	r0, r0, r8, lsl #2
    22d8:	44450a0b 	strbmi	r0, [r5], #-2571	; 0xfffff5f5
    22dc:	2e8f0400 	cdpcs	4, 8, cr0, cr15, cr0, {0}
    22e0:	000002c0 	andeq	r0, r0, r0, asr #5
    22e4:	0a430b0c 	beq	10c4f1c <__exidx_end+0x10c2c04>
    22e8:	90040000 	andls	r0, r4, r0
    22ec:	0001082e 	andeq	r0, r1, lr, lsr #16
    22f0:	490a0d00 	stmdbmi	sl, {r8, sl, fp}
    22f4:	91040052 	qaddls	r0, r2, r4
    22f8:	0001082e 	andeq	r0, r1, lr, lsr #16
    22fc:	f90b0e00 			; <UNDEFINED> instruction: 0xf90b0e00
    2300:	04000002 	streq	r0, [r0], #-2
    2304:	03292e92 	teqeq	r9, #2336	; 0x920
    2308:	0b0f0000 	bleq	3c2310 <__exidx_end+0x3bfff8>
    230c:	00000ac9 	andeq	r0, r0, r9, asr #21
    2310:	082e9304 	stmdaeq	lr!, {r2, r8, r9, ip, pc}
    2314:	10000001 	andne	r0, r0, r1
    2318:	000a580b 	andeq	r5, sl, fp, lsl #16
    231c:	2e940400 	cdpcs	4, 9, cr0, cr4, cr0, {0}
    2320:	00000108 	andeq	r0, r0, r8, lsl #2
    2324:	0b080b11 	bleq	204f70 <__exidx_end+0x202c58>
    2328:	95040000 	strls	r0, [r4, #-0]
    232c:	0001082e 	andeq	r0, r1, lr, lsr #16
    2330:	880b1200 	stmdahi	fp, {r9, ip}
    2334:	0400000a 	streq	r0, [r0], #-10
    2338:	01082e96 			; <UNDEFINED> instruction: 0x01082e96
    233c:	0b130000 	bleq	4c2344 <__exidx_end+0x4c002c>
    2340:	00000a49 	andeq	r0, r0, r9, asr #20
    2344:	c02e9704 	eorgt	r9, lr, r4, lsl #14
    2348:	14000002 	strne	r0, [r0], #-2
    234c:	000a5e0b 	andeq	r5, sl, fp, lsl #28
    2350:	2e980400 	cdpcs	4, 9, cr0, cr8, cr0, {0}
    2354:	00000108 	andeq	r0, r0, r8, lsl #2
    2358:	0a570b15 	beq	15c4fb4 <__exidx_end+0x15c2c9c>
    235c:	99040000 	stmdbls	r4, {}	; <UNPREDICTABLE>
    2360:	0002c02e 	andeq	ip, r2, lr, lsr #32
    2364:	040b1600 	streq	r1, [fp], #-1536	; 0xfffffa00
    2368:	04000003 	streq	r0, [r0], #-3
    236c:	03292e9a 	teqeq	r9, #2464	; 0x9a0
    2370:	0b170000 	bleq	5c2378 <__exidx_end+0x5c0060>
    2374:	00000a9f 	muleq	r0, pc, sl	; <UNPREDICTABLE>
    2378:	082e9b04 	stmdaeq	lr!, {r2, r8, r9, fp, ip, pc}
    237c:	18000001 	stmdane	r0, {r0}
    2380:	000a8f0b 	andeq	r8, sl, fp, lsl #30
    2384:	2e9c0400 	cdpcs	4, 9, cr0, cr12, cr0, {0}
    2388:	00000108 	andeq	r0, r0, r8, lsl #2
    238c:	0a810b19 	beq	fe044ff8 <__StackTop+0xde014ff8>
    2390:	9d040000 	stcls	0, cr0, [r4, #-0]
    2394:	0001082e 	andeq	r0, r1, lr, lsr #16
    2398:	6a121a00 	bvs	488ba0 <__exidx_end+0x486888>
    239c:	1b000005 	blne	23b8 <__exidx_end+0xa0>
    23a0:	000abd0b 	andeq	fp, sl, fp, lsl #26
    23a4:	2ea20400 	cdpcs	4, 10, cr0, cr2, cr0, {0}
    23a8:	00000108 	andeq	r0, r0, r8, lsl #2
    23ac:	0a2c0b1c 	beq	b05024 <__exidx_end+0xb02d0c>
    23b0:	a3040000 	movwge	r0, #16384	; 0x4000
    23b4:	0001082e 	andeq	r0, r1, lr, lsr #16
    23b8:	330b1d00 	movwcc	r1, #48384	; 0xbd00
    23bc:	0400000a 	streq	r0, [r0], #-10
    23c0:	01082ea4 	smlatbeq	r8, r4, lr, r2
    23c4:	0b1e0000 	bleq	7823cc <__exidx_end+0x7800b4>
    23c8:	00000a50 	andeq	r0, r0, r0, asr sl
    23cc:	082ea504 	stmdaeq	lr!, {r2, r8, sl, sp, pc}
    23d0:	1f000001 	svcne	0x00000001
    23d4:	0ad90c00 	beq	ff6453dc <__StackTop+0xdf6153dc>
    23d8:	a6040000 	strge	r0, [r4], -r0
    23dc:	00058c2e 	andeq	r8, r5, lr, lsr #24
    23e0:	05041300 	streq	r1, [r4, #-768]	; 0xfffffd00
    23e4:	00074507 	andeq	r4, r7, r7, lsl #10
    23e8:	0a7c1400 	beq	1f073f0 <__exidx_end+0x1f050d8>
    23ec:	09050000 	stmdbeq	r5, {}	; <UNPREDICTABLE>
    23f0:	00000745 	andeq	r0, r0, r5, asr #14
    23f4:	04150000 	ldreq	r0, [r5], #-0
    23f8:	0000074b 	andeq	r0, r0, fp, asr #14
    23fc:	00072405 	andeq	r2, r7, r5, lsl #8
    2400:	0b1f0300 	bleq	7c3008 <__exidx_end+0x7c0cf0>
    2404:	0b050000 	bleq	14240c <__exidx_end+0x1400f4>
    2408:	00000730 	andeq	r0, r0, r0, lsr r7
    240c:	0009ba16 	andeq	fp, r9, r6, lsl sl
    2410:	1e062800 	cdpne	8, 0, cr2, cr6, cr0, {0}
    2414:	000007dd 	ldrdeq	r0, [r0], -sp
    2418:	00706b17 	rsbseq	r6, r0, r7, lsl fp
    241c:	00251f06 	eoreq	r1, r5, r6, lsl #30
    2420:	17000000 	strne	r0, [r0, -r0]
    2424:	0600646b 	streq	r6, [r0], -fp, ror #8
    2428:	00002520 	andeq	r2, r0, r0, lsr #10
    242c:	6b170400 	blvs	5c3434 <__exidx_end+0x5c111c>
    2430:	21060069 	tstcs	r6, r9, rrx
    2434:	00000025 	andeq	r0, r0, r5, lsr #32
    2438:	09ee1408 	stmibeq	lr!, {r3, sl, ip}^
    243c:	22060000 	andcs	r0, r6, #0
    2440:	00000025 	andeq	r0, r0, r5, lsr #32
    2444:	09c8140c 	stmibeq	r8, {r2, r3, sl, ip}^
    2448:	23060000 	movwcs	r0, #24576	; 0x6000
    244c:	00000025 	andeq	r0, r0, r5, lsr #32
    2450:	097e1410 	ldmdbeq	lr!, {r4, sl, ip}^
    2454:	24060000 	strcs	r0, [r6], #-0
    2458:	00000025 	andeq	r0, r0, r5, lsr #32
    245c:	09a11414 	stmibeq	r1!, {r2, r4, sl, ip}
    2460:	25060000 	strcs	r0, [r6, #-0]
    2464:	00000025 	andeq	r0, r0, r5, lsr #32
    2468:	09f31418 	ldmibeq	r3!, {r3, r4, sl, ip}^
    246c:	26060000 	strcs	r0, [r6], -r0
    2470:	00000025 	andeq	r0, r0, r5, lsr #32
    2474:	09d2141c 	ldmibeq	r2, {r2, r3, r4, sl, ip}^
    2478:	27060000 	strcs	r0, [r6, -r0]
    247c:	00000025 	andeq	r0, r0, r5, lsr #32
    2480:	09e51420 	stmibeq	r5!, {r5, sl, ip}^
    2484:	28060000 	stmdacs	r6, {}	; <UNPREDICTABLE>
    2488:	000007dd 	ldrdeq	r0, [r0], -sp
    248c:	25070024 	strcs	r0, [r7, #-36]	; 0xffffffdc
    2490:	ed000000 	stc	0, cr0, [r0, #-0]
    2494:	08000007 	stmdaeq	r0, {r0, r1, r2}
    2498:	000000e7 	andeq	r0, r0, r7, ror #1
    249c:	01020000 	mrseq	r0, (UNDEF: 2)
    24a0:	00020608 	andeq	r0, r2, r8, lsl #12
    24a4:	0db51800 	ldceq	8, cr1, [r5]
    24a8:	1b010000 	blne	424b0 <__exidx_end+0x40198>
    24ac:	000000a2 	andeq	r0, r0, r2, lsr #1
    24b0:	000008f0 	strdeq	r0, [r0], -r0	; <UNPREDICTABLE>
    24b4:	00000372 	andeq	r0, r0, r2, ror r3
    24b8:	0c089c01 	stceq	12, cr9, [r8], {1}
    24bc:	4f190000 	svcmi	0x00190000
    24c0:	0100000d 	tsteq	r0, sp
    24c4:	0000a21c 	andeq	sl, r0, ip, lsl r2
    24c8:	1aea6000 	bne	ffa9a4d0 <__StackTop+0xdfa6a4d0>
    24cc:	00667562 	rsbeq	r7, r6, r2, ror #10
    24d0:	0c081d01 	stceq	13, cr1, [r8], {1}
    24d4:	91030000 	mrsls	r0, (UNDEF: 3)
    24d8:	001b77f0 			; <UNDEFINED> instruction: 0x001b77f0
    24dc:	0100000d 	tsteq	r0, sp
    24e0:	0000a21e 	andeq	sl, r0, lr, lsl r2
    24e4:	93870000 	orrls	r0, r7, #0
    24e8:	0b4d1c03 	bleq	13494fc <__exidx_end+0x13471e4>
    24ec:	1f010000 	svcne	0x00010000
    24f0:	000000a2 	andeq	r0, r0, r2, lsr #1
    24f4:	00000849 	andeq	r0, r0, r9, asr #16
    24f8:	001e001d 	andseq	r0, lr, sp, lsl r0
    24fc:	c3000009 	movwgt	r0, #9
    2500:	5e00000d 	cdppl	0, 0, cr0, cr0, cr13, {0}
    2504:	1f000008 	svcne	0x00000008
    2508:	0a035001 	beq	d6514 <__exidx_end+0xd41fc>
    250c:	200003e8 	andcs	r0, r0, r8, ror #7
    2510:	00000970 	andeq	r0, r0, r0, ror r9
    2514:	00000dce 	andeq	r0, r0, lr, asr #27
    2518:	0009921e 	andeq	r9, r9, lr, lsl r2
    251c:	000dd900 	andeq	sp, sp, r0, lsl #18
    2520:	0008a400 	andeq	sl, r8, r0, lsl #8
    2524:	50011f00 	andpl	r1, r1, r0, lsl #30
    2528:	030c0305 	movweq	r0, #49925	; 0xc305
    252c:	011f1fff 			; <UNDEFINED> instruction: 0x011f1fff
    2530:	08f50352 	ldmeq	r5!, {r1, r4, r6, r8, r9}^
    2534:	53011f25 	movwpl	r1, #7973	; 0x1f25
    2538:	250af503 	strcs	pc, [sl, #-1283]	; 0xfffffafd
    253c:	0c7d021f 	lfmeq	f0, 2, [sp], #-124	; 0xffffff84
    2540:	2508f503 	strcs	pc, [r8, #-1283]	; 0xfffffafd
    2544:	107d021f 	rsbsne	r0, sp, pc, lsl r2
    2548:	2507f503 	strcs	pc, [r7, #-1283]	; 0xfffffafd
    254c:	147d021f 	ldrbtne	r0, [sp], #-543	; 0xfffffde1
    2550:	2504f503 	strcs	pc, [r4, #-1283]	; 0xfffffafd
    2554:	09b61e00 	ldmibeq	r6!, {r9, sl, fp, ip}
    2558:	0dd90000 	ldcleq	0, cr0, [r9]
    255c:	08e90000 	stmiaeq	r9!, {}^	; <UNPREDICTABLE>
    2560:	011f0000 	tsteq	pc, r0
    2564:	3c030550 	cfstr32cc	mvfx0, [r3], {80}	; 0x50
    2568:	1f1fff03 	svcne	0x001fff03
    256c:	f5035201 			; <UNDEFINED> instruction: 0xf5035201
    2570:	011f2508 	tsteq	pc, r8, lsl #10
    2574:	08f50353 	ldmeq	r5!, {r0, r1, r4, r6, r8, r9}^
    2578:	7d021f25 	stcvc	15, cr1, [r2, #-148]	; 0xffffff6c
    257c:	08f50308 	ldmeq	r5!, {r3, r8, r9}^
    2580:	7d021f25 	stcvc	15, cr1, [r2, #-148]	; 0xffffff6c
    2584:	0bf5030c 	bleq	ffd431bc <__StackTop+0xdfd131bc>
    2588:	7d021f25 	stcvc	15, cr1, [r2, #-148]	; 0xffffff6c
    258c:	0af50310 	beq	ffd431d4 <__StackTop+0xdfd131d4>
    2590:	7d021f25 	stcvc	15, cr1, [r2, #-148]	; 0xffffff6c
    2594:	04f50314 	ldrbteq	r0, [r5], #788	; 0x314
    2598:	dc1e0025 	ldcle	0, cr0, [lr], {37}	; 0x25
    259c:	d9000009 	stmdble	r0, {r0, r3}
    25a0:	2e00000d 	cdpcs	0, 0, cr0, cr0, cr13, {0}
    25a4:	1f000009 	svcne	0x00000009
    25a8:	03055001 	movweq	r5, #20481	; 0x5001
    25ac:	1fff02dc 	svcne	0x00ff02dc
    25b0:	0352011f 	cmpeq	r2, #-1073741817	; 0xc0000007
    25b4:	1f2508f5 	svcne	0x002508f5
    25b8:	f5035301 			; <UNDEFINED> instruction: 0xf5035301
    25bc:	021f2508 	andseq	r2, pc, #8, 10	; 0x2000000
    25c0:	f503007d 			; <UNDEFINED> instruction: 0xf503007d
    25c4:	021f2508 	andseq	r2, pc, #8, 10	; 0x2000000
    25c8:	f503047d 			; <UNDEFINED> instruction: 0xf503047d
    25cc:	021f250a 	andseq	r2, pc, #41943040	; 0x2800000
    25d0:	f503087d 			; <UNDEFINED> instruction: 0xf503087d
    25d4:	021f250b 	andseq	r2, pc, #46137344	; 0x2c00000
    25d8:	f5030c7d 			; <UNDEFINED> instruction: 0xf5030c7d
    25dc:	1e002508 	cfsh32ne	mvfx2, mvfx0, #8
    25e0:	000009f4 	strdeq	r0, [r0], -r4
    25e4:	00000de4 	andeq	r0, r0, r4, ror #27
    25e8:	00000945 	andeq	r0, r0, r5, asr #18
    25ec:	0550011f 	ldrbeq	r0, [r0, #-287]	; 0xfffffee1
    25f0:	ff033c03 			; <UNDEFINED> instruction: 0xff033c03
    25f4:	041e001f 	ldreq	r0, [lr], #-31	; 0xffffffe1
    25f8:	ef00000a 	svc	0x0000000a
    25fc:	5c00000d 	stcpl	0, cr0, [r0], {13}
    2600:	1f000009 	svcne	0x00000009
    2604:	03055001 	movweq	r5, #20481	; 0x5001
    2608:	1fff02dc 	svcne	0x00ff02dc
    260c:	0a0c1e00 	beq	309e14 <__exidx_end+0x307afc>
    2610:	0de40000 	stcleq	0, cr0, [r4]
    2614:	09730000 	ldmdbeq	r3!, {}^	; <UNPREDICTABLE>
    2618:	011f0000 	tsteq	pc, r0
    261c:	dc030550 	cfstr32le	mvfx0, [r3], {80}	; 0x50
    2620:	001fff02 	andseq	pc, pc, r2, lsl #30
    2624:	000a1a1e 	andeq	r1, sl, lr, lsl sl
    2628:	000de400 	andeq	lr, sp, r0, lsl #8
    262c:	00098a00 	andeq	r8, r9, r0, lsl #20
    2630:	50011f00 	andpl	r1, r1, r0, lsl #30
    2634:	033c0305 	teqeq	ip, #335544320	; 0x14000000
    2638:	1e001fff 	mcrne	15, 0, r1, cr0, cr15, {7}
    263c:	00000a2a 	andeq	r0, r0, sl, lsr #20
    2640:	00000def 	andeq	r0, r0, pc, ror #27
    2644:	000009a1 	andeq	r0, r0, r1, lsr #19
    2648:	0550011f 	ldrbeq	r0, [r0, #-287]	; 0xfffffee1
    264c:	ff02dc03 			; <UNDEFINED> instruction: 0xff02dc03
    2650:	321e001f 	andscc	r0, lr, #31
    2654:	e400000a 	str	r0, [r0], #-10
    2658:	b800000d 	stmdalt	r0, {r0, r2, r3}
    265c:	1f000009 	svcne	0x00000009
    2660:	03055001 	movweq	r5, #20481	; 0x5001
    2664:	1fff02dc 	svcne	0x00ff02dc
    2668:	0a421e00 	beq	1089e70 <__exidx_end+0x1087b58>
    266c:	0de40000 	stcleq	0, cr0, [r4]
    2670:	09cf0000 	stmibeq	pc, {}^	; <UNPREDICTABLE>
    2674:	011f0000 	tsteq	pc, r0
    2678:	3c030550 	cfstr32cc	mvfx0, [r3], {80}	; 0x50
    267c:	001fff03 	andseq	pc, pc, r3, lsl #30
    2680:	000a521e 	andeq	r5, sl, lr, lsl r2
    2684:	000def00 	andeq	lr, sp, r0, lsl #30
    2688:	0009e600 	andeq	lr, r9, r0, lsl #12
    268c:	50011f00 	andpl	r1, r1, r0, lsl #30
    2690:	02dc0305 	sbcseq	r0, ip, #335544320	; 0x14000000
    2694:	1e001fff 	mcrne	15, 0, r1, cr0, cr15, {7}
    2698:	00000a5a 	andeq	r0, r0, sl, asr sl
    269c:	00000de4 	andeq	r0, r0, r4, ror #27
    26a0:	000009fd 	strdeq	r0, [r0], -sp
    26a4:	0550011f 	ldrbeq	r0, [r0, #-287]	; 0xfffffee1
    26a8:	ff02dc03 			; <UNDEFINED> instruction: 0xff02dc03
    26ac:	681e001f 	ldmdavs	lr, {r0, r1, r2, r3, r4}
    26b0:	e400000a 	str	r0, [r0], #-10
    26b4:	1400000d 	strne	r0, [r0], #-13
    26b8:	1f00000a 	svcne	0x0000000a
    26bc:	03055001 	movweq	r5, #20481	; 0x5001
    26c0:	1fff033c 	svcne	0x00ff033c
    26c4:	0a781e00 	beq	1e09ecc <__exidx_end+0x1e07bb4>
    26c8:	0def0000 	stcleq	0, cr0, [pc]	; 26d0 <__exidx_end+0x3b8>
    26cc:	0a2b0000 	beq	ac26d4 <__exidx_end+0xac03bc>
    26d0:	011f0000 	tsteq	pc, r0
    26d4:	dc030550 	cfstr32le	mvfx0, [r3], {80}	; 0x50
    26d8:	001fff02 	andseq	pc, pc, r2, lsl #30
    26dc:	000a801e 	andeq	r8, sl, lr, lsl r0
    26e0:	000de400 	andeq	lr, sp, r0, lsl #8
    26e4:	000a4200 	andeq	r4, sl, r0, lsl #4
    26e8:	50011f00 	andpl	r1, r1, r0, lsl #30
    26ec:	02dc0305 	sbcseq	r0, ip, #335544320	; 0x14000000
    26f0:	1e001fff 	mcrne	15, 0, r1, cr0, cr15, {7}
    26f4:	00000a8e 	andeq	r0, r0, lr, lsl #21
    26f8:	00000de4 	andeq	r0, r0, r4, ror #27
    26fc:	00000a59 	andeq	r0, r0, r9, asr sl
    2700:	0550011f 	ldrbeq	r0, [r0, #-287]	; 0xfffffee1
    2704:	ff033c03 			; <UNDEFINED> instruction: 0xff033c03
    2708:	9e1e001f 	mrcls	0, 0, r0, cr14, cr15, {0}
    270c:	ef00000a 	svc	0x0000000a
    2710:	7000000d 	andvc	r0, r0, sp
    2714:	1f00000a 	svcne	0x0000000a
    2718:	03055001 	movweq	r5, #20481	; 0x5001
    271c:	1fff02dc 	svcne	0x00ff02dc
    2720:	0aa61e00 	beq	fe989f28 <__StackTop+0xde959f28>
    2724:	0de40000 	stcleq	0, cr0, [r4]
    2728:	0a870000 	beq	fe1c2730 <__StackTop+0xde192730>
    272c:	011f0000 	tsteq	pc, r0
    2730:	dc030550 	cfstr32le	mvfx0, [r3], {80}	; 0x50
    2734:	001fff02 	andseq	pc, pc, r2, lsl #30
    2738:	000ab61e 	andeq	fp, sl, lr, lsl r6
    273c:	000de400 	andeq	lr, sp, r0, lsl #8
    2740:	000a9e00 	andeq	r9, sl, r0, lsl #28
    2744:	50011f00 	andpl	r1, r1, r0, lsl #30
    2748:	033c0305 	teqeq	ip, #335544320	; 0x14000000
    274c:	1e001fff 	mcrne	15, 0, r1, cr0, cr15, {7}
    2750:	00000ac6 	andeq	r0, r0, r6, asr #21
    2754:	00000def 	andeq	r0, r0, pc, ror #27
    2758:	00000ab5 			; <UNDEFINED> instruction: 0x00000ab5
    275c:	0550011f 	ldrbeq	r0, [r0, #-287]	; 0xfffffee1
    2760:	ff02dc03 			; <UNDEFINED> instruction: 0xff02dc03
    2764:	ce1e001f 	mrcgt	0, 0, r0, cr14, cr15, {0}
    2768:	e400000a 	str	r0, [r0], #-10
    276c:	cc00000d 	stcgt	0, cr0, [r0], {13}
    2770:	1f00000a 	svcne	0x0000000a
    2774:	03055001 	movweq	r5, #20481	; 0x5001
    2778:	1fff02dc 	svcne	0x00ff02dc
    277c:	0adc1e00 	beq	ff709f84 <__StackTop+0xdf6d9f84>
    2780:	0de40000 	stcleq	0, cr0, [r4]
    2784:	0ae30000 	beq	ff8c278c <__StackTop+0xdf89278c>
    2788:	011f0000 	tsteq	pc, r0
    278c:	3c030550 	cfstr32cc	mvfx0, [r3], {80}	; 0x50
    2790:	001fff03 	andseq	pc, pc, r3, lsl #30
    2794:	000aec1e 	andeq	lr, sl, lr, lsl ip
    2798:	000def00 	andeq	lr, sp, r0, lsl #30
    279c:	000afa00 	andeq	pc, sl, r0, lsl #20
    27a0:	50011f00 	andpl	r1, r1, r0, lsl #30
    27a4:	02dc0305 	sbcseq	r0, ip, #335544320	; 0x14000000
    27a8:	1e001fff 	mcrne	15, 0, r1, cr0, cr15, {7}
    27ac:	00000af4 	strdeq	r0, [r0], -r4
    27b0:	00000de4 	andeq	r0, r0, r4, ror #27
    27b4:	00000b11 	andeq	r0, r0, r1, lsl fp
    27b8:	0550011f 	ldrbeq	r0, [r0, #-287]	; 0xfffffee1
    27bc:	ff02dc03 			; <UNDEFINED> instruction: 0xff02dc03
    27c0:	021e001f 	andseq	r0, lr, #31
    27c4:	e400000b 	str	r0, [r0], #-11
    27c8:	2800000d 	stmdacs	r0, {r0, r2, r3}
    27cc:	1f00000b 	svcne	0x0000000b
    27d0:	03055001 	movweq	r5, #20481	; 0x5001
    27d4:	1fff033c 	svcne	0x00ff033c
    27d8:	0b121e00 	bleq	489fe0 <__exidx_end+0x487cc8>
    27dc:	0def0000 	stcleq	0, cr0, [pc]	; 27e4 <__exidx_end+0x4cc>
    27e0:	0b3f0000 	bleq	fc27e8 <__exidx_end+0xfc04d0>
    27e4:	011f0000 	tsteq	pc, r0
    27e8:	dc030550 	cfstr32le	mvfx0, [r3], {80}	; 0x50
    27ec:	001fff02 	andseq	pc, pc, r2, lsl #30
    27f0:	000b1a1e 	andeq	r1, fp, lr, lsl sl
    27f4:	000de400 	andeq	lr, sp, r0, lsl #8
    27f8:	000b5600 	andeq	r5, fp, r0, lsl #12
    27fc:	50011f00 	andpl	r1, r1, r0, lsl #30
    2800:	02dc0305 	sbcseq	r0, ip, #335544320	; 0x14000000
    2804:	1e001fff 	mcrne	15, 0, r1, cr0, cr15, {7}
    2808:	00000b2a 	andeq	r0, r0, sl, lsr #22
    280c:	00000de4 	andeq	r0, r0, r4, ror #27
    2810:	00000b6d 	andeq	r0, r0, sp, ror #22
    2814:	0550011f 	ldrbeq	r0, [r0, #-287]	; 0xfffffee1
    2818:	ff033c03 			; <UNDEFINED> instruction: 0xff033c03
    281c:	3a1e001f 	bcc	7828a0 <__exidx_end+0x780588>
    2820:	ef00000b 	svc	0x0000000b
    2824:	8400000d 	strhi	r0, [r0], #-13
    2828:	1f00000b 	svcne	0x0000000b
    282c:	03055001 	movweq	r5, #20481	; 0x5001
    2830:	1fff02dc 	svcne	0x00ff02dc
    2834:	0b481e00 	bleq	120a03c <__exidx_end+0x1207d24>
    2838:	0de40000 	stcleq	0, cr0, [r4]
    283c:	0b9b0000 	bleq	fe6c2844 <__StackTop+0xde692844>
    2840:	011f0000 	tsteq	pc, r0
    2844:	dc030550 	cfstr32le	mvfx0, [r3], {80}	; 0x50
    2848:	001fff02 	andseq	pc, pc, r2, lsl #30
    284c:	000b9c1e 	andeq	r9, fp, lr, lsl ip
    2850:	000dfa00 	andeq	pc, sp, r0, lsl #20
    2854:	000bb900 	andeq	fp, fp, r0, lsl #18
    2858:	50011f00 	andpl	r1, r1, r0, lsl #30
    285c:	a0000c05 	andge	r0, r0, r5, lsl #24
    2860:	011f4006 	tsteq	pc, r6
    2864:	800a0351 	andhi	r0, sl, r1, asr r3
    2868:	d01e0025 	andsle	r0, lr, r5, lsr #32
    286c:	0500000b 	streq	r0, [r0, #-11]
    2870:	df00000e 	svcle	0x0000000e
    2874:	1f00000b 	svcne	0x0000000b
    2878:	91035001 	tstls	r3, r1
    287c:	011f77f0 			; <UNDEFINED> instruction: 0x011f77f0
    2880:	e4030551 	str	r0, [r3], #-1361	; 0xfffffaaf
    2884:	1f000021 	svcne	0x00000021
    2888:	03087d02 	movweq	r7, #36098	; 0x8d02
    288c:	002c0af5 	strdeq	r0, [ip], -r5	; <UNPREDICTABLE>
    2890:	000bd81e 	andeq	sp, fp, lr, lsl r8
    2894:	000e1000 	andeq	r1, lr, r0
    2898:	000bf600 	andeq	pc, fp, r0, lsl #12
    289c:	51011f00 	tstpl	r1, r0, lsl #30
    28a0:	22410305 	subcs	r0, r1, #335544320	; 0x14000000
    28a4:	21000000 	mrscs	r0, (UNDEF: 0)
    28a8:	00000c50 	andeq	r0, r0, r0, asr ip
    28ac:	00000e10 	andeq	r0, r0, r0, lsl lr
    28b0:	0351011f 	cmpeq	r1, #-1073741817	; 0xc0000007
    28b4:	0077f091 			; <UNDEFINED> instruction: 0x0077f091
    28b8:	07ed0700 	strbeq	r0, [sp, r0, lsl #14]!
    28bc:	0c190000 	ldceq	0, cr0, [r9], {-0}
    28c0:	e70f0000 	str	r0, [pc, -r0]
    28c4:	e7000000 	str	r0, [r0, -r0]
    28c8:	09220003 	stmdbeq	r2!, {r0, r1}
    28cc:	0100000d 	tsteq	r0, sp
    28d0:	000000ab 	andeq	r0, r0, fp, lsr #1
    28d4:	00010000 	andeq	r0, r1, r0
    28d8:	a89c0100 	ldmge	ip, {r8}
    28dc:	2300000c 	movwcs	r0, #12
    28e0:	00000cd1 	ldrdeq	r0, [r0], -r1
    28e4:	00bbac01 	adcseq	sl, fp, r1, lsl #24
    28e8:	05af0000 	streq	r0, [pc, #0]!	; 28f0 <__exidx_end+0x5d8>
    28ec:	27240000 	strcs	r0, [r4, -r0]!
    28f0:	0100000c 	tsteq	r0, ip
    28f4:	0000c6ad 	andeq	ip, r0, sp, lsr #13
    28f8:	0b6e1c00 	bleq	1b89900 <__exidx_end+0x1b875e8>
    28fc:	b5010000 	strlt	r0, [r1, #-0]
    2900:	000000a2 	andeq	r0, r0, r2, lsr #1
    2904:	00000c59 	andeq	r0, r0, r9, asr ip
    2908:	001e001d 	andseq	r0, lr, sp, lsl r0
    290c:	e4000000 	str	r0, [r0], #-0
    2910:	7000000d 	andvc	r0, r0, sp
    2914:	1f00000c 	svcne	0x0000000c
    2918:	03055001 	movweq	r5, #20481	; 0x5001
    291c:	1fff033c 	svcne	0x00ff033c
    2920:	00001e00 	andeq	r1, r0, r0, lsl #28
    2924:	0def0000 	stcleq	0, cr0, [pc]	; 292c <__exidx_end+0x614>
    2928:	0c870000 	stceq	0, cr0, [r7], {0}
    292c:	011f0000 	tsteq	pc, r0
    2930:	dc030550 	cfstr32le	mvfx0, [r3], {80}	; 0x50
    2934:	001fff02 	andseq	pc, pc, r2, lsl #30
    2938:	0000001e 	andeq	r0, r0, lr, lsl r0
    293c:	000de400 	andeq	lr, sp, r0, lsl #8
    2940:	000c9e00 	andeq	r9, ip, r0, lsl #28
    2944:	50011f00 	andpl	r1, r1, r0, lsl #30
    2948:	02dc0305 	sbcseq	r0, ip, #335544320	; 0x14000000
    294c:	20001fff 	strdcs	r1, [r0], -pc	; <UNPREDICTABLE>
    2950:	00000000 	andeq	r0, r0, r0
    2954:	00000e1b 	andeq	r0, r0, fp, lsl lr
    2958:	0c462500 	cfstr64eq	mvdx2, [r6], {-0}
    295c:	cc010000 	stcgt	0, cr0, [r1], {-0}
    2960:	00000000 	andeq	r0, r0, r0
    2964:	00000002 	andeq	r0, r0, r2
    2968:	54269c01 	strtpl	r9, [r6], #-3073	; 0xfffff3ff
    296c:	07000003 	streq	r0, [r0, -r3]
    2970:	0cc506a7 	stcleq	6, cr0, [r5], {167}	; 0xa7
    2974:	d1050000 	mrsle	r0, (UNDEF: 5)
    2978:	27000000 	strcs	r0, [r0, -r0]
    297c:	000002bf 			; <UNDEFINED> instruction: 0x000002bf
    2980:	00dc4408 	sbcseq	r4, ip, r8, lsl #8
    2984:	cf270000 	svcgt	0x00270000
    2988:	0500000a 	streq	r0, [r0, #-10]
    298c:	000ce00e 	andeq	lr, ip, lr
    2990:	07500500 	ldrbeq	r0, [r0, -r0, lsl #10]
    2994:	b9270000 	stmdblt	r7!, {}	; <UNPREDICTABLE>
    2998:	0900000c 	stmdbeq	r0, {r2, r3}
    299c:	000cf019 	andeq	pc, ip, r9, lsl r0	; <UNPREDICTABLE>
    29a0:	02740600 	rsbseq	r0, r4, #0, 12
    29a4:	20270000 	eorcs	r0, r7, r0
    29a8:	0900000d 	stmdbeq	r0, {r0, r2, r3}
    29ac:	000d001a 	andeq	r0, sp, sl, lsl r0
    29b0:	00a20500 	adceq	r0, r2, r0, lsl #10
    29b4:	bb070000 	bllt	1c29bc <__exidx_end+0x1c06a4>
    29b8:	15000000 	strne	r0, [r0, #-0]
    29bc:	0800000d 	stmdaeq	r0, {r0, r2, r3}
    29c0:	000000e7 	andeq	r0, r0, r7, ror #1
    29c4:	a4270003 	strtge	r0, [r7], #-3
    29c8:	0900000d 	stmdbeq	r0, {r0, r2, r3}
    29cc:	000d201b 	andeq	r2, sp, fp, lsl r0
    29d0:	0d050500 	cfstr32eq	mvfx0, [r5, #-0]
    29d4:	30280000 	eorcc	r0, r8, r0
    29d8:	0100000d 	tsteq	r0, sp
    29dc:	000d3611 	andeq	r3, sp, r1, lsl r6
    29e0:	0c030500 	cfstr32eq	mvfx0, [r3], {-0}
    29e4:	051fff03 	ldreq	pc, [pc, #-3843]	; 1ae9 <__call_exitprocs+0xb1>
    29e8:	0000075b 	andeq	r0, r0, fp, asr r7
    29ec:	000ca328 	andeq	sl, ip, r8, lsr #6
    29f0:	36120100 	ldrcc	r0, [r2], -r0, lsl #2
    29f4:	0500000d 	streq	r0, [r0, #-13]
    29f8:	ff02dc03 			; <UNDEFINED> instruction: 0xff02dc03
    29fc:	0d58281f 	ldcleq	8, cr2, [r8, #-124]	; 0xffffff84
    2a00:	13010000 	movwne	r0, #4096	; 0x1000
    2a04:	00000d36 	andeq	r0, r0, r6, lsr sp
    2a08:	033c0305 	teqeq	ip, #335544320	; 0x14000000
    2a0c:	90281fff 	strdls	r1, [r8], -pc	; <UNPREDICTABLE>
    2a10:	0100000d 	tsteq	r0, sp
    2a14:	00002514 	andeq	r2, r0, r4, lsl r5
    2a18:	38030500 	stmdacc	r3, {r8, sl}
    2a1c:	281fff03 	ldmdacs	pc, {r0, r1, r8, r9, sl, fp, ip, sp, lr, pc}	; <UNPREDICTABLE>
    2a20:	00000d69 	andeq	r0, r0, r9, ror #26
    2a24:	00251501 	eoreq	r1, r5, r1, lsl #10
    2a28:	03050000 	movweq	r0, #20480	; 0x5000
    2a2c:	1fff0308 	svcne	0x00ff0308
    2a30:	000d3a28 	andeq	r3, sp, r8, lsr #20
    2a34:	a2160100 	andsge	r0, r6, #0, 2
    2a38:	05000000 	streq	r0, [r0, #-0]
    2a3c:	ff033403 			; <UNDEFINED> instruction: 0xff033403
    2a40:	0c8c281f 	stceq	8, cr2, [ip], {31}
    2a44:	17010000 	strne	r0, [r1, -r0]
    2a48:	00000025 	andeq	r0, r0, r5, lsr #32
    2a4c:	02d80305 	sbcseq	r0, r8, #335544320	; 0x14000000
    2a50:	36281fff 	qsub8cc	r1, r8, pc	; <UNPREDICTABLE>
    2a54:	0100000c 	tsteq	r0, ip
    2a58:	0000a218 	andeq	sl, r0, r8, lsl r2
    2a5c:	64030500 	strvs	r0, [r3], #-1280	; 0xfffffb00
    2a60:	281fff03 	ldmdacs	pc, {r0, r1, r8, r9, sl, fp, ip, sp, lr, pc}	; <UNPREDICTABLE>
    2a64:	00000cc9 	andeq	r0, r0, r9, asr #25
    2a68:	00a21901 	adceq	r1, r2, r1, lsl #18
    2a6c:	03050000 	movweq	r0, #20480	; 0x5000
    2a70:	1fff0304 	svcne	0x00ff0304
    2a74:	000b4d29 	andeq	r4, fp, r9, lsr #26
    2a78:	000b4d00 	andeq	r4, fp, r0, lsl #26
    2a7c:	291f0100 	ldmdbcs	pc, {r8}	; <UNPREDICTABLE>
    2a80:	00000c78 	andeq	r0, r0, r8, ror ip
    2a84:	00000c78 	andeq	r0, r0, r8, ror ip
    2a88:	ac291409 	cfstrsge	mvf1, [r9], #-36	; 0xffffffdc
    2a8c:	ac000009 	stcge	0, cr0, [r0], {9}
    2a90:	06000009 	streq	r0, [r0], -r9
    2a94:	096e2934 	stmdbeq	lr!, {r2, r4, r5, r8, fp, sp}^
    2a98:	096e0000 	stmdbeq	lr!, {}^	; <UNPREDICTABLE>
    2a9c:	3f060000 	svccc	0x00060000
    2aa0:	00098f29 	andeq	r8, r9, r9, lsr #30
    2aa4:	00098f00 	andeq	r8, r9, r0, lsl #30
    2aa8:	29400600 	stmdbcs	r0, {r9, sl}^
    2aac:	00000a96 	muleq	r0, r6, sl
    2ab0:	00000a96 	muleq	r0, r6, sl
    2ab4:	70291105 	eorvc	r1, r9, r5, lsl #2
    2ab8:	7000000c 	andvc	r0, r0, ip
    2abc:	0a00000c 	beq	2af4 <__exidx_end+0x7dc>
    2ac0:	0a1e29e1 	beq	78d24c <__exidx_end+0x78af34>
    2ac4:	0a1e0000 	beq	782acc <__exidx_end+0x7807b4>
    2ac8:	19050000 	stmdbne	r5, {}	; <UNPREDICTABLE>
    2acc:	000b6e29 	andeq	r6, fp, r9, lsr #28
    2ad0:	000b6e00 	andeq	r6, fp, r0, lsl #28
    2ad4:	00b50100 	adcseq	r0, r5, r0, lsl #2
    2ad8:	00000aac 	andeq	r0, r0, ip, lsr #21
    2adc:	09a10004 	stmibeq	r1!, {r2}
    2ae0:	01040000 	mrseq	r0, (UNDEF: 4)
    2ae4:	000000bc 	strheq	r0, [r0], -ip
    2ae8:	000dce0c 	andeq	ip, sp, ip, lsl #28
    2aec:	00026d00 	andeq	r6, r2, r0, lsl #26
    2af0:	0000d800 	andeq	sp, r0, r0, lsl #16
    2af4:	00000000 	andeq	r0, r0, r0
    2af8:	00080300 	andeq	r0, r8, r0, lsl #6
    2afc:	06010200 	streq	r0, [r1], -r0, lsl #4
    2b00:	000001ff 	strdeq	r0, [r0], -pc	; <UNPREDICTABLE>
    2b04:	00037003 	andeq	r7, r3, r3
    2b08:	371d0400 	ldrcc	r0, [sp, -r0, lsl #8]
    2b0c:	02000000 	andeq	r0, r0, #0
    2b10:	01fd0801 	mvnseq	r0, r1, lsl #16
    2b14:	82030000 	andhi	r0, r3, #0
    2b18:	0400000c 	streq	r0, [r0], #-12
    2b1c:	00004929 	andeq	r4, r0, r9, lsr #18
    2b20:	05020200 	streq	r0, [r2, #-512]	; 0xfffffe00
    2b24:	000000a6 	andeq	r0, r0, r6, lsr #1
    2b28:	52070202 	andpl	r0, r7, #536870912	; 0x20000000
    2b2c:	03000002 	movweq	r0, #2
    2b30:	00000325 	andeq	r0, r0, r5, lsr #6
    2b34:	00623f04 	rsbeq	r3, r2, r4, lsl #30
    2b38:	04020000 	streq	r0, [r2], #-0
    2b3c:	00019705 	andeq	r9, r1, r5, lsl #14
    2b40:	007a0300 	rsbseq	r0, sl, r0, lsl #6
    2b44:	41040000 	mrsmi	r0, (UNDEF: 4)
    2b48:	00000074 	andeq	r0, r0, r4, ror r0
    2b4c:	15070402 	strne	r0, [r7, #-1026]	; 0xfffffbfe
    2b50:	02000002 	andeq	r0, r0, #2
    2b54:	01920508 	orrseq	r0, r2, r8, lsl #10
    2b58:	08020000 	stmdaeq	r2, {}	; <UNPREDICTABLE>
    2b5c:	00021007 	andeq	r1, r2, r7
    2b60:	05040400 	streq	r0, [r4, #-1024]	; 0xfffffc00
    2b64:	00746e69 	rsbseq	r6, r4, r9, ror #28
    2b68:	1a070402 	bne	1c3b78 <__exidx_end+0x1c1860>
    2b6c:	03000002 	movweq	r0, #2
    2b70:	00000372 	andeq	r0, r0, r2, ror r3
    2b74:	002c1405 	eoreq	r1, ip, r5, lsl #8
    2b78:	84030000 	strhi	r0, [r3], #-0
    2b7c:	0500000c 	streq	r0, [r0, #-12]
    2b80:	00003e19 	andeq	r3, r0, r9, lsl lr
    2b84:	03270300 	teqeq	r7, #0, 6
    2b88:	1f050000 	svcne	0x00050000
    2b8c:	00000057 	andeq	r0, r0, r7, asr r0
    2b90:	00007c03 	andeq	r7, r0, r3, lsl #24
    2b94:	69200500 	stmdbvs	r0!, {r8, sl}
    2b98:	05000000 	streq	r0, [r0, #-0]
    2b9c:	00000602 	andeq	r0, r0, r2, lsl #12
    2ba0:	00002501 	andeq	r2, r0, r1, lsl #10
    2ba4:	0e790600 	cdpeq	6, 7, cr0, cr9, cr0, {0}
    2ba8:	06000003 	streq	r0, [r0], -r3
    2bac:	0000087b 	andeq	r0, r0, fp, ror r8
    2bb0:	04c60672 	strbeq	r0, [r6], #1650	; 0x672
    2bb4:	06730000 	ldrbteq	r0, [r3], -r0
    2bb8:	0000058e 	andeq	r0, r0, lr, lsl #11
    2bbc:	04df0674 	ldrbeq	r0, [pc], #1652	; 2bc4 <__exidx_end+0x8ac>
    2bc0:	06750000 	ldrbteq	r0, [r5], -r0
    2bc4:	0000081a 	andeq	r0, r0, sl, lsl r8
    2bc8:	05e30676 	strbeq	r0, [r3, #1654]!	; 0x676
    2bcc:	067b0000 	ldrbteq	r0, [fp], -r0
    2bd0:	00000936 	andeq	r0, r0, r6, lsr r9
    2bd4:	080e067c 	stmdaeq	lr, {r2, r3, r4, r5, r6, r9, sl}
    2bd8:	067e0000 	ldrbteq	r0, [lr], -r0
    2bdc:	00000669 	andeq	r0, r0, r9, ror #12
    2be0:	06ea077f 			; <UNDEFINED> instruction: 0x06ea077f
    2be4:	07000000 	streq	r0, [r0, -r0]
    2be8:	000004ff 	strdeq	r0, [r0], -pc	; <UNPREDICTABLE>
    2bec:	08680701 	stmdaeq	r8!, {r0, r8, r9, sl}^
    2bf0:	07020000 	streq	r0, [r2, -r0]
    2bf4:	00000474 	andeq	r0, r0, r4, ror r4
    2bf8:	05660703 	strbeq	r0, [r6, #-1795]!	; 0xfffff8fd
    2bfc:	07040000 	streq	r0, [r4, -r0]
    2c00:	0000065f 	andeq	r0, r0, pc, asr r6
    2c04:	09060705 	stmdbeq	r6, {r0, r2, r8, r9, sl}
    2c08:	07060000 	streq	r0, [r6, -r0]
    2c0c:	00000380 	andeq	r0, r0, r0, lsl #7
    2c10:	04280707 	strteq	r0, [r8], #-1799	; 0xfffff8f9
    2c14:	07080000 	streq	r0, [r8, -r0]
    2c18:	000006fe 	strdeq	r0, [r0], -lr
    2c1c:	05fc0709 	ldrbeq	r0, [ip, #1801]!	; 0x709
    2c20:	070a0000 	streq	r0, [sl, -r0]
    2c24:	000006ca 	andeq	r0, r0, sl, asr #13
    2c28:	0948070b 	stmdbeq	r8, {r0, r1, r3, r8, r9, sl}^
    2c2c:	070c0000 	streq	r0, [ip, -r0]
    2c30:	000003c1 	andeq	r0, r0, r1, asr #7
    2c34:	0454070d 	ldrbeq	r0, [r4], #-1805	; 0xfffff8f3
    2c38:	070e0000 	streq	r0, [lr, -r0]
    2c3c:	00000770 	andeq	r0, r0, r0, ror r7
    2c40:	089c070f 	ldmeq	ip, {r0, r1, r2, r3, r8, r9, sl}
    2c44:	07100000 	ldreq	r0, [r0, -r0]
    2c48:	00000872 	andeq	r0, r0, r2, ror r8
    2c4c:	08ab0711 	stmiaeq	fp!, {r0, r4, r8, r9, sl}
    2c50:	07120000 	ldreq	r0, [r2, -r0]
    2c54:	00000626 	andeq	r0, r0, r6, lsr #12
    2c58:	06820713 	pkhbteq	r0, r2, r3, lsl #14
    2c5c:	07140000 	ldreq	r0, [r4, -r0]
    2c60:	00000923 	andeq	r0, r0, r3, lsr #18
    2c64:	04000715 	streq	r0, [r0], #-1813	; 0xfffff8eb
    2c68:	07160000 	ldreq	r0, [r6, -r0]
    2c6c:	000004a3 	andeq	r0, r0, r3, lsr #9
    2c70:	072c0717 			; <UNDEFINED> instruction: 0x072c0717
    2c74:	07180000 	ldreq	r0, [r8, -r0]
    2c78:	000007d4 	ldrdeq	r0, [r0], -r4
    2c7c:	05240719 	streq	r0, [r4, #-1817]!	; 0xfffff8e7
    2c80:	071a0000 	ldreq	r0, [sl, -r0]
    2c84:	00000611 	andeq	r0, r0, r1, lsl r6
    2c88:	08d0071b 	ldmeq	r0, {r0, r1, r3, r4, r8, r9, sl}^
    2c8c:	071c0000 	ldreq	r0, [ip, -r0]
    2c90:	0000088f 	andeq	r0, r0, pc, lsl #17
    2c94:	08f7071d 	ldmeq	r7!, {r0, r2, r3, r4, r8, r9, sl}^
    2c98:	071e0000 	ldreq	r0, [lr, -r0]
    2c9c:	00000953 	andeq	r0, r0, r3, asr r9
    2ca0:	0548071f 	strbeq	r0, [r8, #-1823]	; 0xfffff8e1
    2ca4:	07200000 	streq	r0, [r0, -r0]!
    2ca8:	000005b3 			; <UNDEFINED> instruction: 0x000005b3
    2cac:	05570721 	ldrbeq	r0, [r7, #-1825]	; 0xfffff8df
    2cb0:	07220000 	streq	r0, [r2, -r0]!
    2cb4:	000007e3 	andeq	r0, r0, r3, ror #15
    2cb8:	05700723 	ldrbeq	r0, [r0, #-1827]!	; 0xfffff8dd
    2cbc:	07240000 	streq	r0, [r4, -r0]!
    2cc0:	000003cc 	andeq	r0, r0, ip, asr #7
    2cc4:	057f0725 	ldrbeq	r0, [pc, #-1829]!	; 25a7 <__exidx_end+0x28f>
    2cc8:	07260000 	streq	r0, [r6, -r0]!
    2ccc:	000006f4 	strdeq	r0, [r0], -r4
    2cd0:	06550727 	ldrbeq	r0, [r5], -r7, lsr #14
    2cd4:	07280000 	streq	r0, [r8, -r0]!
    2cd8:	00000736 	andeq	r0, r0, r6, lsr r7
    2cdc:	045f0729 	ldrbeq	r0, [pc], #-1833	; 2ce4 <__exidx_end+0x9cc>
    2ce0:	072a0000 	streq	r0, [sl, -r0]!
    2ce4:	00000910 	andeq	r0, r0, r0, lsl r9
    2ce8:	0836072b 	ldmdaeq	r6!, {r0, r1, r3, r5, r8, r9, sl}
    2cec:	072c0000 	streq	r0, [ip, -r0]!
    2cf0:	0000044b 	andeq	r0, r0, fp, asr #8
    2cf4:	0790072d 	ldreq	r0, [r0, sp, lsr #14]
    2cf8:	072e0000 	streq	r0, [lr, -r0]!
    2cfc:	000005d2 	ldrdeq	r0, [r0], -r2
    2d00:	053e072f 	ldreq	r0, [lr, #-1839]!	; 0xfffff8d1
    2d04:	07300000 	ldreq	r0, [r0, -r0]!
    2d08:	0000038f 	andeq	r0, r0, pc, lsl #7
    2d0c:	08e70731 	stmiaeq	r7!, {r0, r4, r5, r8, r9, sl}^
    2d10:	07320000 	ldreq	r0, [r2, -r0]!
    2d14:	00000964 	andeq	r0, r0, r4, ror #18
    2d18:	04d50733 	ldrbeq	r0, [r5], #1843	; 0x733
    2d1c:	07340000 	ldreq	r0, [r4, -r0]!
    2d20:	000003eb 	andeq	r0, r0, fp, ror #7
    2d24:	06760735 			; <UNDEFINED> instruction: 0x06760735
    2d28:	07360000 	ldreq	r0, [r6, -r0]!
    2d2c:	000003b1 			; <UNDEFINED> instruction: 0x000003b1
    2d30:	06070737 			; <UNDEFINED> instruction: 0x06070737
    2d34:	07380000 	ldreq	r0, [r8, -r0]!
    2d38:	0000077b 	andeq	r0, r0, fp, ror r7
    2d3c:	05ef0739 	strbeq	r0, [pc, #1849]!	; 347d <__exidx_end+0x1165>
    2d40:	073a0000 	ldreq	r0, [sl, -r0]!
    2d44:	0000061b 	andeq	r0, r0, fp, lsl r6
    2d48:	06df073b 			; <UNDEFINED> instruction: 0x06df073b
    2d4c:	073c0000 	ldreq	r0, [ip, -r0]!
    2d50:	0000078e 	andeq	r0, r0, lr, lsl #15
    2d54:	03f5073d 	mvnseq	r0, #15990784	; 0xf40000
    2d58:	073e0000 	ldreq	r0, [lr, -r0]!
    2d5c:	00000469 	andeq	r0, r0, r9, ror #8
    2d60:	03a3073f 			; <UNDEFINED> instruction: 0x03a3073f
    2d64:	07400000 	strbeq	r0, [r0, -r0]
    2d68:	000006d5 	ldrdeq	r0, [r0], -r5
    2d6c:	06440741 	strbeq	r0, [r4], -r1, asr #14
    2d70:	07420000 	strbeq	r0, [r2, -r0]
    2d74:	000005a4 	andeq	r0, r0, r4, lsr #11
    2d78:	06a10743 	strteq	r0, [r1], r3, asr #14
    2d7c:	07440000 	strbeq	r0, [r4, -r0]
    2d80:	0000043c 	andeq	r0, r0, ip, lsr r4
    2d84:	07840745 	streq	r0, [r4, r5, asr #14]
    2d88:	07460000 	strbeq	r0, [r6, -r0]
    2d8c:	0000063a 	andeq	r0, r0, sl, lsr r6
    2d90:	03990747 	orrseq	r0, r9, #18612224	; 0x11c0000
    2d94:	07480000 	strbeq	r0, [r8, -r0]
    2d98:	0000070d 	andeq	r0, r0, sp, lsl #14
    2d9c:	04320749 	ldrteq	r0, [r2], #-1865	; 0xfffff8b7
    2da0:	074a0000 	strbeq	r0, [sl, -r0]
    2da4:	00000840 	andeq	r0, r0, r0, asr #16
    2da8:	068f074b 	streq	r0, [pc], fp, asr #14
    2dac:	074c0000 	strbeq	r0, [ip, -r0]
    2db0:	0000048e 	andeq	r0, r0, lr, lsl #9
    2db4:	040e074d 	streq	r0, [lr], #-1869	; 0xfffff8b3
    2db8:	074e0000 	strbeq	r0, [lr, -r0]
    2dbc:	000008bb 			; <UNDEFINED> instruction: 0x000008bb
    2dc0:	0509074f 	streq	r0, [r9, #-1871]	; 0xfffff8b1
    2dc4:	07500000 	ldrbeq	r0, [r0, -r0]
    2dc8:	0000092c 	andeq	r0, r0, ip, lsr #18
    2dcc:	04b10751 	ldrteq	r0, [r1], #1873	; 0x751
    2dd0:	07520000 	ldrbeq	r0, [r2, -r0]
    2dd4:	000006b2 			; <UNDEFINED> instruction: 0x000006b2
    2dd8:	04ed0753 	strbteq	r0, [sp], #1875	; 0x753
    2ddc:	07540000 	ldrbeq	r0, [r4, -r0]
    2de0:	0000047e 	andeq	r0, r0, lr, ror r4
    2de4:	fe030055 	mcr2	0, 0, r0, cr3, cr5, {2}
    2de8:	06000007 	streq	r0, [r0], -r7
    2dec:	0000c3dc 	ldrdeq	ip, [r0], -ip	; <UNPREDICTABLE>
    2df0:	0e040800 	cdpeq	8, 0, cr0, cr4, cr0, {0}
    2df4:	d5015002 	strle	r5, [r1, #-2]
    2df8:	09000003 	stmdbeq	r0, {r0, r1}
    2dfc:	0000049e 	muleq	r0, lr, r4
    2e00:	ec015202 	sfm	f5, 4, [r1], {2}
    2e04:	00000003 	andeq	r0, r0, r3
    2e08:	00074009 	andeq	r4, r7, r9
    2e0c:	01530200 	cmpeq	r3, r0, lsl #4
    2e10:	000003f1 	strdeq	r0, [r0], -r1
    2e14:	07080920 	streq	r0, [r8, -r0, lsr #18]
    2e18:	54020000 	strpl	r0, [r2], #-0
    2e1c:	00040101 	andeq	r0, r4, r1, lsl #2
    2e20:	1a098000 	bne	262e28 <__exidx_end+0x260b10>
    2e24:	02000009 	andeq	r0, r0, #9
    2e28:	03f10155 	mvnseq	r0, #1073741845	; 0x40000015
    2e2c:	0aa00000 	beq	fe802e34 <__StackTop+0xde7d2e34>
    2e30:	00000423 	andeq	r0, r0, r3, lsr #8
    2e34:	06015602 	streq	r5, [r1], -r2, lsl #12
    2e38:	00000004 	andeq	r0, r0, r4
    2e3c:	074a0a01 	strbeq	r0, [sl, -r1, lsl #20]
    2e40:	57020000 	strpl	r0, [r2, -r0]
    2e44:	0003f101 	andeq	pc, r3, r1, lsl #2
    2e48:	0a012000 	beq	4ae50 <__exidx_end+0x48b38>
    2e4c:	0000038a 	andeq	r0, r0, sl, lsl #7
    2e50:	0b015802 	bleq	58e60 <__exidx_end+0x56b48>
    2e54:	80000004 	andhi	r0, r0, r4
    2e58:	07f40a01 	ldrbeq	r0, [r4, r1, lsl #20]!
    2e5c:	59020000 	stmdbpl	r2, {}	; <UNPREDICTABLE>
    2e60:	0003f101 	andeq	pc, r3, r1, lsl #2
    2e64:	0a01a000 	beq	6ae6c <__exidx_end+0x68b54>
    2e68:	000006c5 	andeq	r0, r0, r5, asr #13
    2e6c:	10015a02 	andne	r5, r1, r2, lsl #20
    2e70:	00000004 	andeq	r0, r0, r4
    2e74:	07540a02 	ldrbeq	r0, [r4, -r2, lsl #20]
    2e78:	5b020000 	blpl	82e80 <__exidx_end+0x80b68>
    2e7c:	00041501 	andeq	r1, r4, r1, lsl #10
    2e80:	0b022000 	bleq	8ae88 <__exidx_end+0x88b70>
    2e84:	02005049 	andeq	r5, r0, #73	; 0x49
    2e88:	0435015c 	ldrteq	r0, [r5], #-348	; 0xfffffea4
    2e8c:	03000000 	movweq	r0, #0
    2e90:	00075e0a 	andeq	r5, r7, sl, lsl #28
    2e94:	015d0200 	cmpeq	sp, r0, lsl #4
    2e98:	0000043a 	andeq	r0, r0, sl, lsr r4
    2e9c:	ac0a03f0 	stcge	3, cr0, [sl], {240}	; 0xf0
    2ea0:	02000003 	andeq	r0, r0, #3
    2ea4:	044b015e 	strbeq	r0, [fp], #-350	; 0xfffffea2
    2ea8:	0e000000 	cdpeq	0, 0, cr0, cr0, cr0, {0}
    2eac:	00b80c00 	adcseq	r0, r8, r0, lsl #24
    2eb0:	03e50000 	mvneq	r0, #0
    2eb4:	e50d0000 	str	r0, [sp, #-0]
    2eb8:	07000003 	streq	r0, [r0, -r3]
    2ebc:	07040200 	streq	r0, [r4, -r0, lsl #4]
    2ec0:	00000055 	andeq	r0, r0, r5, asr r0
    2ec4:	0003d50e 	andeq	sp, r3, lr, lsl #10
    2ec8:	00b80c00 	adcseq	r0, r8, r0, lsl #24
    2ecc:	04010000 	streq	r0, [r1], #-0
    2ed0:	e50d0000 	str	r0, [sp, #-0]
    2ed4:	17000003 	strne	r0, [r0, -r3]
    2ed8:	03d50e00 	bicseq	r0, r5, #0, 28
    2edc:	d50e0000 	strle	r0, [lr, #-0]
    2ee0:	0e000003 	cdpeq	0, 0, cr0, cr0, cr3, {0}
    2ee4:	000003d5 	ldrdeq	r0, [r0], -r5
    2ee8:	0003d50e 	andeq	sp, r3, lr, lsl #10
    2eec:	00b80c00 	adcseq	r0, r8, r0, lsl #24
    2ef0:	04250000 	strteq	r0, [r5], #-0
    2ef4:	e50d0000 	str	r0, [sp, #-0]
    2ef8:	37000003 	strcc	r0, [r0, -r3]
    2efc:	00970c00 	addseq	r0, r7, r0, lsl #24
    2f00:	04350000 	ldrteq	r0, [r5], #-0
    2f04:	e50d0000 	str	r0, [sp, #-0]
    2f08:	ef000003 	svc	0x00000003
    2f0c:	04250e00 	strteq	r0, [r5], #-3584	; 0xfffff200
    2f10:	b80c0000 	stmdalt	ip, {}	; <UNPREDICTABLE>
    2f14:	4b000000 	blmi	2f1c <__exidx_end+0xc04>
    2f18:	0f000004 	svceq	0x00000004
    2f1c:	000003e5 	andeq	r0, r0, r5, ror #7
    2f20:	0e000283 	cdpeq	2, 0, cr0, cr0, cr3, {4}
    2f24:	000000b8 	strheq	r0, [r0], -r8
    2f28:	0007a910 	andeq	sl, r7, r0, lsl r9
    2f2c:	015f0200 	cmpeq	pc, r0, lsl #4
    2f30:	00000319 	andeq	r0, r0, r9, lsl r3
    2f34:	00044b11 	andeq	r4, r4, r1, lsl fp
    2f38:	00b80c00 	adcseq	r0, r8, r0, lsl #24
    2f3c:	04710000 	ldrbteq	r0, [r1], #-0
    2f40:	e50d0000 	str	r0, [sp, #-0]
    2f44:	01000003 	tsteq	r0, r3
    2f48:	00970e00 	addseq	r0, r7, r0, lsl #28
    2f4c:	70120000 	andsvc	r0, r2, r0
    2f50:	ce011f06 	cdpgt	15, 0, cr1, cr1, cr6, {0}
    2f54:	13000005 	movwne	r0, #5
    2f58:	00314353 	eorseq	r4, r1, r3, asr r3
    2f5c:	ce012006 	cdpgt	0, 0, cr2, cr1, cr6, {0}
    2f60:	00000005 	andeq	r0, r0, r5
    2f64:	00000709 	andeq	r0, r0, r9, lsl #14
    2f68:	01210600 	teqeq	r1, r0, lsl #12
    2f6c:	0000044b 	andeq	r0, r0, fp, asr #8
    2f70:	000d0908 	andeq	r0, sp, r8, lsl #18
    2f74:	22060000 	andcs	r0, r6, #0
    2f78:	00044b01 	andeq	r4, r4, r1, lsl #22
    2f7c:	52130c00 	andspl	r0, r3, #0, 24
    2f80:	01230600 	teqeq	r3, r0, lsl #12
    2f84:	000005d8 	ldrdeq	r0, [r0], -r8
    2f88:	56431310 			; <UNDEFINED> instruction: 0x56431310
    2f8c:	24060031 	strcs	r0, [r6], #-49	; 0xffffffcf
    2f90:	00044b01 	andeq	r4, r4, r1, lsl #22
    2f94:	43131800 	tstmi	r3, #0, 16
    2f98:	06003256 			; <UNDEFINED> instruction: 0x06003256
    2f9c:	044b0125 	strbeq	r0, [fp], #-293	; 0xfffffedb
    2fa0:	131c0000 	tstne	ip, #0
    2fa4:	00324353 	eorseq	r4, r2, r3, asr r3
    2fa8:	4b012606 	blmi	4c7c8 <__exidx_end+0x4a4b0>
    2fac:	20000004 	andcs	r0, r0, r4
    2fb0:	33435313 	movtcc	r5, #13075	; 0x3313
    2fb4:	01270600 	teqeq	r7, r0, lsl #12
    2fb8:	0000044b 	andeq	r0, r0, fp, asr #8
    2fbc:	464f1324 	strbmi	r1, [pc], -r4, lsr #6
    2fc0:	28060053 	stmdacs	r6, {r0, r1, r4, r6}
    2fc4:	00044b01 	andeq	r4, r4, r1, lsl #22
    2fc8:	50132800 	andspl	r2, r3, r0, lsl #16
    2fcc:	29060047 	stmdbcs	r6, {r0, r1, r2, r6}
    2fd0:	00044b01 	andeq	r4, r4, r1, lsl #22
    2fd4:	4d132c00 	ldcmi	12, cr2, [r3, #-0]
    2fd8:	2a060047 	bcs	1830fc <__exidx_end+0x180de4>
    2fdc:	00044b01 	andeq	r4, r4, r1, lsl #22
    2fe0:	22093000 	andcs	r3, r9, #0
    2fe4:	0600000c 	streq	r0, [r0], -ip
    2fe8:	044b012b 	strbeq	r0, [fp], #-299	; 0xfffffed5
    2fec:	09340000 	ldmdbeq	r4!, {}	; <UNPREDICTABLE>
    2ff0:	00000d1b 	andeq	r0, r0, fp, lsl sp
    2ff4:	4b012c06 	blmi	4e014 <__exidx_end+0x4bcfc>
    2ff8:	38000004 	stmdacc	r0, {r2}
    2ffc:	000cfb09 	andeq	pc, ip, r9, lsl #22
    3000:	012d0600 	teqeq	sp, r0, lsl #12
    3004:	0000044b 	andeq	r0, r0, fp, asr #8
    3008:	0dc9093c 	stcleq	9, cr0, [r9, #240]	; 0xf0
    300c:	2e060000 	cdpcs	0, 0, cr0, cr6, cr0, {0}
    3010:	00044b01 	andeq	r4, r4, r1, lsl #22
    3014:	c4094000 	strgt	r4, [r9], #-0
    3018:	0600000d 	streq	r0, [r0], -sp
    301c:	044b012f 	strbeq	r0, [fp], #-303	; 0xfffffed1
    3020:	09440000 	stmdbeq	r4, {}^	; <UNPREDICTABLE>
    3024:	00000dbf 			; <UNDEFINED> instruction: 0x00000dbf
    3028:	4b013006 	blmi	4f048 <__exidx_end+0x4cd30>
    302c:	48000004 	stmdami	r0, {r2}
    3030:	000dba09 	andeq	fp, sp, r9, lsl #20
    3034:	01310600 	teqeq	r1, r0, lsl #12
    3038:	0000044b 	andeq	r0, r0, fp, asr #8
    303c:	02f9094c 	rscseq	r0, r9, #76, 18	; 0x130000
    3040:	32060000 	andcc	r0, r6, #0
    3044:	0005dd01 	andeq	sp, r5, r1, lsl #26
    3048:	7c095000 	stcvc	0, cr5, [r9], {-0}
    304c:	0600000d 	streq	r0, [r0], -sp
    3050:	044b0133 	strbeq	r0, [fp], #-307	; 0xfffffecd
    3054:	09540000 	ldmdbeq	r4, {}^	; <UNPREDICTABLE>
    3058:	00000db0 			; <UNDEFINED> instruction: 0x00000db0
    305c:	4b013406 	blmi	5007c <__exidx_end+0x4dd64>
    3060:	58000004 	stmdapl	r0, {r2}
    3064:	000cf609 	andeq	pc, ip, r9, lsl #12
    3068:	01350600 	teqeq	r5, r0, lsl #12
    306c:	0000044b 	andeq	r0, r0, fp, asr #8
    3070:	0cf1095c 	ldcleq	9, cr0, [r1], #368	; 0x170
    3074:	36060000 	strcc	r0, [r6], -r0
    3078:	00044b01 	andeq	r4, r4, r1, lsl #22
    307c:	ec096000 	stc	0, cr6, [r9], {-0}
    3080:	0600000c 	streq	r0, [r0], -ip
    3084:	044b0137 	strbeq	r0, [fp], #-311	; 0xfffffec9
    3088:	09640000 	stmdbeq	r4!, {}^	; <UNPREDICTABLE>
    308c:	00000ce7 	andeq	r0, r0, r7, ror #25
    3090:	4b013806 	blmi	510b0 <__exidx_end+0x4ed98>
    3094:	68000004 	stmdavs	r0, {r2}
    3098:	000ce209 	andeq	lr, ip, r9, lsl #4
    309c:	01390600 	teqeq	r9, r0, lsl #12
    30a0:	0000044b 	andeq	r0, r0, fp, asr #8
    30a4:	610e006c 	tstvs	lr, ip, rrx
    30a8:	0e000004 	cdpeq	0, 0, cr0, cr0, cr4, {0}
    30ac:	00000461 	andeq	r0, r0, r1, ror #8
    30b0:	0005d311 	andeq	sp, r5, r1, lsl r3
    30b4:	00970c00 	addseq	r0, r7, r0, lsl #24
    30b8:	05ed0000 	strbeq	r0, [sp, #0]!
    30bc:	e50d0000 	str	r0, [sp, #-0]
    30c0:	03000003 	movweq	r0, #3
    30c4:	0c9a1000 	ldceq	0, cr1, [sl], {0}
    30c8:	3a060000 	bcc	1830d0 <__exidx_end+0x180db8>
    30cc:	00047601 	andeq	r7, r4, r1, lsl #12
    30d0:	00970c00 	addseq	r0, r7, r0, lsl #24
    30d4:	06090000 	streq	r0, [r9], -r0
    30d8:	e50d0000 	str	r0, [sp, #-0]
    30dc:	07000003 	streq	r0, [r0, -r3]
    30e0:	00970c00 	addseq	r0, r7, r0, lsl #24
    30e4:	06190000 	ldreq	r0, [r9], -r0
    30e8:	e50d0000 	str	r0, [sp, #-0]
    30ec:	2f000003 	svccs	0x00000003
    30f0:	06021200 	streq	r1, [r2], -r0, lsl #4
    30f4:	063d0c43 	ldrteq	r0, [sp], -r3, asr #24
    30f8:	e8090000 	stmda	r9, {}	; <UNPREDICTABLE>
    30fc:	0600000d 	streq	r0, [r0], -sp
    3100:	04710c44 	ldrbteq	r0, [r1], #-3140	; 0xfffff3bc
    3104:	09000000 	stmdbeq	r0, {}	; <UNPREDICTABLE>
    3108:	00000de3 	andeq	r0, r0, r3, ror #27
    310c:	710c4506 	tstvc	ip, r6, lsl #10
    3110:	01000004 	tsteq	r0, r4
    3114:	06241200 	strteq	r1, [r4], -r0, lsl #4
    3118:	06840c42 	streq	r0, [r4], r2, asr #24
    311c:	44130000 	ldrmi	r0, [r3], #-0
    3120:	06005441 	streq	r5, [r0], -r1, asr #8
    3124:	06840c46 	streq	r0, [r4], r6, asr #24
    3128:	13000000 	movwne	r0, #0
    312c:	06005253 			; <UNDEFINED> instruction: 0x06005253
    3130:	04710c47 	ldrbteq	r0, [r1], #-3143	; 0xfffff3b9
    3134:	13200000 	teqne	r0, #0
    3138:	06003043 	streq	r3, [r0], -r3, asr #32
    313c:	04710c48 	ldrbteq	r0, [r1], #-3144	; 0xfffff3b8
    3140:	13210000 	teqne	r1, #0
    3144:	06003143 	streq	r3, [r0], -r3, asr #2
    3148:	04710c49 	ldrbteq	r0, [r1], #-3145	; 0xfffff3b7
    314c:	13220000 	teqne	r2, #0
    3150:	06003243 	streq	r3, [r0], -r3, asr #4
    3154:	04710c4a 	ldrbteq	r0, [r1], #-3146	; 0xfffff3b6
    3158:	00230000 	eoreq	r0, r3, r0
    315c:	0006190c 	andeq	r1, r6, ip, lsl #18
    3160:	00069400 	andeq	r9, r6, r0, lsl #8
    3164:	03e50d00 	mvneq	r0, #0, 26
    3168:	000f0000 	andeq	r0, pc, r0
    316c:	000e1510 	andeq	r1, lr, r0, lsl r5
    3170:	0c4b0600 	mcrreq	6, 0, r0, fp, cr0
    3174:	0000063d 	andeq	r0, r0, sp, lsr r6
    3178:	0000970c 	andeq	r9, r0, ip, lsl #14
    317c:	0006b000 	andeq	fp, r6, r0
    3180:	03e50d00 	mvneq	r0, #0, 26
    3184:	00170000 	andseq	r0, r7, r0
    3188:	ea062812 	b	18d1d8 <__exidx_end+0x18aec0>
    318c:	0006eb22 	andeq	lr, r6, r2, lsr #22
    3190:	31431300 	mrscc	r1, (UNDEF: 115)
    3194:	22eb0600 	rsccs	r0, fp, #0, 12
    3198:	0000044b 	andeq	r0, r0, fp, asr #8
    319c:	00531300 	subseq	r1, r3, r0, lsl #6
    31a0:	4b22ec06 	blmi	8be1c0 <__exidx_end+0x8bbea8>
    31a4:	04000004 	streq	r0, [r0], #-4
    31a8:	594c4413 	stmdbpl	ip, {r0, r1, r4, sl, lr}^
    31ac:	22ed0600 	rsccs	r0, sp, #0, 12
    31b0:	000006eb 	andeq	r0, r0, fp, ror #13
    31b4:	02f90908 	rscseq	r0, r9, #8, 18	; 0x20000
    31b8:	ee060000 	cdp	0, 0, cr0, cr6, cr0, {0}
    31bc:	0006a022 	andeq	sl, r6, r2, lsr #32
    31c0:	0e001000 	cdpeq	0, 0, cr1, cr0, cr0, {0}
    31c4:	00000461 	andeq	r0, r0, r1, ror #8
    31c8:	f1060812 			; <UNDEFINED> instruction: 0xf1060812
    31cc:	00071422 	andeq	r1, r7, r2, lsr #8
    31d0:	0e240900 	cdpeq	9, 2, cr0, cr4, cr0, {0}
    31d4:	f2060000 	vhadd.s8	d0, d6, d0
    31d8:	00044b22 	andeq	r4, r4, r2, lsr #22
    31dc:	49130000 	ldmdbmi	r3, {}	; <UNPREDICTABLE>
    31e0:	0600544e 	streq	r5, [r0], -lr, asr #8
    31e4:	044b22f3 	strbeq	r2, [fp], #-755	; 0xfffffd0d
    31e8:	00040000 	andeq	r0, r4, r0
    31ec:	0601a008 	streq	sl, [r1], -r8
    31f0:	07a322e5 	streq	r2, [r3, r5, ror #5]!
    31f4:	53130000 	tstpl	r3, #0
    31f8:	e6060043 	str	r0, [r6], -r3, asr #32
    31fc:	00044b22 	andeq	r4, r4, r2, lsr #22
    3200:	4d130000 	ldcmi	0, cr0, [r3, #-0]
    3204:	0600444f 	streq	r4, [r0], -pc, asr #8
    3208:	044b22e7 	strbeq	r2, [fp], #-743	; 0xfffffd19
    320c:	13040000 	movwne	r0, #16384	; 0x4000
    3210:	00544e43 	subseq	r4, r4, r3, asr #28
    3214:	5c22e806 	stcpl	8, cr14, [r2], #-24	; 0xffffffe8
    3218:	08000004 	stmdaeq	r0, {r2}
    321c:	000e2909 	andeq	r2, lr, r9, lsl #18
    3220:	22e90600 	rsccs	r0, r9, #0, 12
    3224:	0000044b 	andeq	r0, r0, fp, asr #8
    3228:	4843130c 	stmdami	r3, {r2, r3, r8, r9, ip}^
    322c:	22ef0600 	rsccs	r0, pc, #0, 12
    3230:	000007a3 	andeq	r0, r0, r3, lsr #15
    3234:	02f90910 	rscseq	r0, r9, #16, 18	; 0x40000
    3238:	f0060000 			; <UNDEFINED> instruction: 0xf0060000
    323c:	00042522 	andeq	r2, r4, r2, lsr #10
    3240:	440b6000 	strmi	r6, [fp], #-0
    3244:	06004341 	streq	r4, [r0], -r1, asr #6
    3248:	07b322f4 			; <UNDEFINED> instruction: 0x07b322f4
    324c:	01500000 	cmpeq	r0, r0
    3250:	0003040a 	andeq	r0, r3, sl, lsl #8
    3254:	22f50600 	rscscs	r0, r5, #0, 12
    3258:	00000609 	andeq	r0, r0, r9, lsl #12
    325c:	de0a0160 	adfleez	f0, f2, f0
    3260:	0600000d 	streq	r0, [r0], -sp
    3264:	044b22f6 	strbeq	r2, [fp], #-758	; 0xfffffd0a
    3268:	01900000 	orrseq	r0, r0, r0
    326c:	000e1e0a 	andeq	r1, lr, sl, lsl #28
    3270:	22f70600 	rscscs	r0, r7, #0, 12
    3274:	000007d3 	ldrdeq	r0, [r0], -r3
    3278:	0c000194 	stfeqs	f0, [r0], {148}	; 0x94
    327c:	000006b0 			; <UNDEFINED> instruction: 0x000006b0
    3280:	000007b3 			; <UNDEFINED> instruction: 0x000007b3
    3284:	0003e50d 	andeq	lr, r3, sp, lsl #10
    3288:	0c000100 	stfeqs	f0, [r0], {-0}
    328c:	000006f0 	strdeq	r0, [r0], -r0	; <UNPREDICTABLE>
    3290:	000007c3 	andeq	r0, r0, r3, asr #15
    3294:	0003e50d 	andeq	lr, r3, sp, lsl #10
    3298:	0c000100 	stfeqs	f0, [r0], {-0}
    329c:	000000b8 	strheq	r0, [r0], -r8
    32a0:	000007d3 	ldrdeq	r0, [r0], -r3
    32a4:	0003e50d 	andeq	lr, r3, sp, lsl #10
    32a8:	0e000200 	cdpeq	2, 0, cr0, cr0, cr0, {0}
    32ac:	000007c3 	andeq	r0, r0, r3, asr #15
    32b0:	000e0c10 	andeq	r0, lr, r0, lsl ip
    32b4:	22f80600 	rscscs	r0, r8, #0, 12
    32b8:	00000714 	andeq	r0, r0, r4, lsl r7
    32bc:	06106408 	ldreq	r6, [r0], -r8, lsl #8
    32c0:	09582ace 	ldmdbeq	r8, {r1, r2, r3, r6, r7, r9, fp, sp}^
    32c4:	b9090000 	stmdblt	r9, {}	; <UNPREDICTABLE>
    32c8:	06000002 	streq	r0, [r0], -r2
    32cc:	044b2acf 	strbeq	r2, [fp], #-2767	; 0xfffff531
    32d0:	09000000 	stmdbeq	r0, {}	; <UNPREDICTABLE>
    32d4:	00000046 	andeq	r0, r0, r6, asr #32
    32d8:	4b2ad006 	blmi	ab72f8 <__exidx_end+0xab4fe0>
    32dc:	04000004 	streq	r0, [r0], #-4
    32e0:	0002f909 	andeq	pc, r2, r9, lsl #18
    32e4:	2ad10600 	bcs	ff444aec <__StackTop+0xdf414aec>
    32e8:	00000958 	andeq	r0, r0, r8, asr r9
    32ec:	02cf0a08 	sbceq	r0, pc, #8, 20	; 0x8000
    32f0:	d2060000 	andle	r0, r6, #0
    32f4:	00044b2a 	andeq	r4, r4, sl, lsr #22
    32f8:	0a100400 	beq	404300 <__exidx_end+0x401fe8>
    32fc:	00000304 	andeq	r0, r0, r4, lsl #6
    3300:	dd2ad306 	stcle	3, cr13, [sl, #-24]!	; 0xffffffe8
    3304:	08000005 	stmdaeq	r0, {r0, r2}
    3308:	037a0a10 	cmneq	sl, #16, 20	; 0x10000
    330c:	d4060000 	strle	r0, [r6], #-0
    3310:	00044b2a 	andeq	r4, r4, sl, lsr #22
    3314:	0a100c00 	beq	40631c <__exidx_end+0x404004>
    3318:	00000000 	andeq	r0, r0, r0
    331c:	4b2ad506 	blmi	ab873c <__exidx_end+0xab6424>
    3320:	10000004 	andne	r0, r0, r4
    3324:	030f0a10 	movweq	r0, #64016	; 0xfa10
    3328:	d6060000 	strle	r0, [r6], -r0
    332c:	0005dd2a 	andeq	sp, r5, sl, lsr #26
    3330:	0a101400 	beq	408338 <__exidx_end+0x406020>
    3334:	000001e7 	andeq	r0, r0, r7, ror #3
    3338:	4b2ad706 	blmi	ab8f58 <__exidx_end+0xab6c40>
    333c:	18000004 	stmdane	r0, {r2}
    3340:	031a0a10 	tsteq	sl, #16, 20	; 0x10000
    3344:	d8060000 	stmdale	r6, {}	; <UNPREDICTABLE>
    3348:	0005f92a 	andeq	pc, r5, sl, lsr #18
    334c:	0a101c00 	beq	40a354 <__exidx_end+0x40803c>
    3350:	00000041 	andeq	r0, r0, r1, asr #32
    3354:	5c2ad906 	stcpl	9, cr13, [sl], #-24	; 0xffffffe8
    3358:	24000004 	strcs	r0, [r0], #-4
    335c:	01a70a10 			; <UNDEFINED> instruction: 0x01a70a10
    3360:	da060000 	ble	183368 <__exidx_end+0x181050>
    3364:	00044b2a 	andeq	r4, r4, sl, lsr #22
    3368:	0a102800 	beq	40d370 <__exidx_end+0x40b058>
    336c:	000001ad 	andeq	r0, r0, sp, lsr #3
    3370:	4b2adb06 	blmi	ab9f90 <__exidx_end+0xab7c78>
    3374:	2c000004 	stccs	0, cr0, [r0], {4}
    3378:	01b30a10 			; <UNDEFINED> instruction: 0x01b30a10
    337c:	dc060000 	stcle	0, cr0, [r6], {-0}
    3380:	00044b2a 	andeq	r4, r4, sl, lsr #22
    3384:	0a103000 	beq	40f38c <__exidx_end+0x40d074>
    3388:	000001b9 			; <UNDEFINED> instruction: 0x000001b9
    338c:	4b2add06 	blmi	aba7ac <__exidx_end+0xab8494>
    3390:	34000004 	strcc	r0, [r0], #-4
    3394:	01bf0a10 			; <UNDEFINED> instruction: 0x01bf0a10
    3398:	de060000 	cdple	0, 0, cr0, cr6, cr0, {0}
    339c:	00044b2a 	andeq	r4, r4, sl, lsr #22
    33a0:	0a103800 	beq	4113a8 <__exidx_end+0x40f090>
    33a4:	000001c5 	andeq	r0, r0, r5, asr #3
    33a8:	4b2adf06 	blmi	abafc8 <__exidx_end+0xab8cb0>
    33ac:	3c000004 	stccc	0, cr0, [r0], {4}
    33b0:	01cb0a10 	biceq	r0, fp, r0, lsl sl
    33b4:	e0060000 	and	r0, r6, r0
    33b8:	00044b2a 	andeq	r4, r4, sl, lsr #22
    33bc:	0a104000 	beq	4133c4 <__exidx_end+0x4110ac>
    33c0:	000001ed 	andeq	r0, r0, sp, ror #3
    33c4:	4b2ae106 	blmi	abb7e4 <__exidx_end+0xab94cc>
    33c8:	44000004 	strmi	r0, [r0], #-4
    33cc:	01f50a10 	mvnseq	r0, r0, lsl sl
    33d0:	e2060000 	and	r0, r6, #0
    33d4:	00044b2a 	andeq	r4, r4, sl, lsr #22
    33d8:	0a104800 	beq	4153e0 <__exidx_end+0x4130c8>
    33dc:	00000006 	andeq	r0, r0, r6
    33e0:	4b2ae306 	blmi	abc000 <__exidx_end+0xab9ce8>
    33e4:	4c000004 	stcmi	0, cr0, [r0], {4}
    33e8:	000c0a10 	andeq	r0, ip, r0, lsl sl
    33ec:	e4060000 	str	r0, [r6], #-0
    33f0:	00045c2a 	andeq	r5, r4, sl, lsr #24
    33f4:	0a105000 	beq	4173fc <__exidx_end+0x4150e4>
    33f8:	000000a1 	andeq	r0, r0, r1, lsr #1
    33fc:	5c2ae506 	cfstr32pl	mvfx14, [sl], #-24	; 0xffffffe8
    3400:	54000004 	strpl	r0, [r0], #-4
    3404:	01d10a10 	bicseq	r0, r1, r0, lsl sl
    3408:	e6060000 	str	r0, [r6], -r0
    340c:	00045c2a 	andeq	r5, r4, sl, lsr #24
    3410:	0a105800 	beq	419418 <__exidx_end+0x417100>
    3414:	000002f3 	strdeq	r0, [r0], -r3
    3418:	5c2ae706 	stcpl	7, cr14, [sl], #-24	; 0xffffffe8
    341c:	5c000004 	stcpl	0, cr0, [r0], {4}
    3420:	00b00a10 	adcseq	r0, r0, r0, lsl sl
    3424:	e8060000 	stmda	r6, {}	; <UNPREDICTABLE>
    3428:	00045c2a 	andeq	r5, r4, sl, lsr #24
    342c:	00106000 	andseq	r6, r0, r0
    3430:	0000970c 	andeq	r9, r0, ip, lsl #14
    3434:	00096900 	andeq	r6, r9, r0, lsl #18
    3438:	03e50f00 	mvneq	r0, #0, 30
    343c:	0ffb0000 	svceq	0x00fb0000
    3440:	008d1000 	addeq	r1, sp, r0
    3444:	e9060000 	stmdb	r6, {}	; <UNPREDICTABLE>
    3448:	0007e42a 	andeq	lr, r7, sl, lsr #8
    344c:	08010200 	stmdaeq	r1, {r9}
    3450:	00000206 	andeq	r0, r0, r6, lsl #4
    3454:	00071714 	andeq	r1, r7, r4, lsl r7
    3458:	01490300 	mrseq	r0, (UNDEF: 121)
    345c:	07c51503 	strbeq	r1, [r5, r3, lsl #10]
    3460:	bb020000 	bllt	83468 <__exidx_end+0x81150>
    3464:	099f0305 	ldmibeq	pc, {r0, r2, r8, r9}	; <UNPREDICTABLE>
    3468:	02160000 	andseq	r0, r6, #0
    346c:	02000006 	andeq	r0, r0, #6
    3470:	030e05bb 	movweq	r0, #58811	; 0xe5bb
    3474:	14000000 	strne	r0, [r0], #-0
    3478:	000003dd 	ldrdeq	r0, [r0], -sp
    347c:	03015403 	movweq	r5, #5123	; 0x1403
    3480:	000dd417 	andeq	sp, sp, r7, lsl r4
    3484:	001a0100 	andseq	r0, sl, r0, lsl #2
    3488:	28000000 	stmdacs	r0, {}	; <UNPREDICTABLE>
    348c:	01000000 	mrseq	r0, (UNDEF: 0)
    3490:	0e03179c 	mcreq	7, 0, r1, cr3, cr12, {4}
    3494:	21010000 	mrscs	r0, (UNDEF: 1)
    3498:	00000000 	andeq	r0, r0, r0
    349c:	0000002c 	andeq	r0, r0, ip, lsr #32
    34a0:	78189c01 	ldmdavc	r8, {r0, sl, fp, ip, pc}
    34a4:	0100000c 	tsteq	r0, ip
    34a8:	000c642b 	andeq	r6, ip, fp, lsr #8
    34ac:	00009400 	andeq	r9, r0, r0, lsl #8
    34b0:	189c0100 	ldmne	ip, {r8}
    34b4:	1900000a 	stmdbne	r0, {r1, r3}
    34b8:	00000dfd 	strdeq	r0, [r0], -sp
    34bc:	00902c01 	addseq	r2, r0, r1, lsl #24
    34c0:	05c20000 	strbeq	r0, [r2]
    34c4:	851a0000 	ldrhi	r0, [sl, #-0]
    34c8:	d6000009 	strle	r0, [r0], -r9
    34cc:	0800000c 	stmdaeq	r0, {r2, r3}
    34d0:	01000000 	mrseq	r0, (UNDEF: 0)
    34d4:	000a085e 	andeq	r0, sl, lr, asr r8
    34d8:	09921b00 	ldmibeq	r2, {r8, r9, fp, ip}
    34dc:	00490000 	subeq	r0, r9, r0
    34e0:	00097c1c 	andeq	r7, r9, ip, lsl ip
    34e4:	000cde00 	andeq	sp, ip, r0, lsl #28
    34e8:	00001a00 	andeq	r1, r0, r0, lsl #20
    34ec:	005f0100 	subseq	r0, pc, r0, lsl #2
    34f0:	000ded18 	andeq	lr, sp, r8, lsl sp
    34f4:	f8630100 			; <UNDEFINED> instruction: 0xf8630100
    34f8:	5800000c 	stmdapl	r0, {r2, r3}
    34fc:	01000000 	mrseq	r0, (UNDEF: 0)
    3500:	000a4c9c 	muleq	sl, ip, ip
    3504:	099f1c00 	ldmibeq	pc, {sl, fp, ip}	; <UNPREDICTABLE>
    3508:	0cfa0000 	ldcleq	0, cr0, [sl]
    350c:	00020000 	andeq	r0, r2, r0
    3510:	65010000 	strvs	r0, [r1, #-0]
    3514:	00097c1c 	andeq	r7, r9, ip, lsl ip
    3518:	000d3200 	andeq	r3, sp, r0, lsl #4
    351c:	00000200 	andeq	r0, r0, r0, lsl #4
    3520:	006d0100 	rsbeq	r0, sp, r0, lsl #2
    3524:	0003541d 	andeq	r5, r3, sp, lsl r4
    3528:	06a70200 	strteq	r0, [r7], r0, lsl #4
    352c:	00000a58 	andeq	r0, r0, r8, asr sl
    3530:	0000ad0e 	andeq	sl, r0, lr, lsl #26
    3534:	0cb91e00 	ldceq	14, cr1, [r9]
    3538:	17010000 	strne	r0, [r1, -r0]
    353c:	00000a6e 	andeq	r0, r0, lr, ror #20
    3540:	22ce0305 	sbccs	r0, lr, #335544320	; 0x14000000
    3544:	dd110000 	ldcle	0, cr0, [r1, #-0]
    3548:	1e000005 	cdpne	0, 0, cr0, cr0, cr5, {0}
    354c:	00000d20 	andeq	r0, r0, r0, lsr #26
    3550:	0a841901 	beq	fe10995c <__StackTop+0xde0d995c>
    3554:	03050000 	movweq	r0, #20480	; 0x5000
    3558:	1fff0368 	svcne	0x00ff0368
    355c:	0000890e 	andeq	r8, r0, lr, lsl #18
    3560:	00a20c00 	adceq	r0, r2, r0, lsl #24
    3564:	0a990000 	beq	fe64356c <__StackTop+0xde61356c>
    3568:	e50d0000 	str	r0, [sp, #-0]
    356c:	03000003 	movweq	r0, #3
    3570:	0da41e00 	stceq	14, cr1, [r4]
    3574:	18010000 	stmdane	r1, {}	; <UNPREDICTABLE>
    3578:	00000aaa 	andeq	r0, r0, sl, lsr #21
    357c:	036c0305 	cmneq	ip, #335544320	; 0x14000000
    3580:	890e1fff 	stmdbhi	lr, {r0, r1, r2, r3, r4, r5, r6, r7, r8, r9, sl, fp, ip}
    3584:	0000000a 	andeq	r0, r0, sl
    3588:	00000089 	andeq	r0, r0, r9, lsl #1
    358c:	0b400002 	bleq	100359c <__exidx_end+0x1001284>
    3590:	01040000 	mrseq	r0, (UNDEF: 4)
    3594:	00000963 	andeq	r0, r0, r3, ror #18
    3598:	00000d50 	andeq	r0, r0, r0, asr sp
    359c:	00000da8 	andeq	r0, r0, r8, lsr #27
    35a0:	6d632f2e 	stclvs	15, cr2, [r3, #-184]!	; 0xffffff48
    35a4:	2f736973 	svccs	0x00736973
    35a8:	34364b4d 	ldrtcc	r4, [r6], #-2893	; 0xfffff4b3
    35ac:	2f323146 	svccs	0x00323146
    35b0:	72617473 	rsbvc	r7, r1, #1929379840	; 0x73000000
    35b4:	5f707574 	svcpl	0x00707574
    35b8:	34364b4d 	ldrtcc	r4, [r6], #-2893	; 0xfffff4b3
    35bc:	2e323146 	rsfcssm	f3, f2, f6
    35c0:	722f0073 	eorvc	r0, pc, #115	; 0x73
    35c4:	6d2f6e75 	stcvs	14, cr6, [pc, #-468]!	; 33f8 <__exidx_end+0x10e0>
    35c8:	61696465 	cmnvs	r9, r5, ror #8
    35cc:	7268632f 	rsbvc	r6, r8, #-1140850688	; 0xbc000000
    35d0:	432f7369 	teqmi	pc, #-1543503871	; 0xa4000001
    35d4:	37343145 	ldrcc	r3, [r4, -r5, asr #2]!
    35d8:	31314244 	teqcc	r1, r4, asr #4
    35dc:	39443734 	stmdbcc	r4, {r2, r4, r5, r8, r9, sl, ip, sp}^
    35e0:	2f313644 	svccs	0x00313644
    35e4:	72657355 	rsbvc	r7, r5, #1409286145	; 0x54000001
    35e8:	68632f73 	stmdavs	r3!, {r0, r1, r4, r5, r6, r8, r9, sl, fp, sp}^
    35ec:	2f736972 	svccs	0x00736972
    35f0:	6b726f77 	blvs	1c9f3d4 <__exidx_end+0x1c9d0bc>
    35f4:	63617073 	cmnvs	r1, #115	; 0x73
    35f8:	69772f65 	ldmdbvs	r7!, {r0, r2, r5, r6, r8, r9, sl, fp, sp}^
    35fc:	61626564 	cmnvs	r2, r4, ror #10
    3600:	326f646e 	rsbcc	r6, pc, #1845493760	; 0x6e000000
    3604:	554e4700 	strbpl	r4, [lr, #-1792]	; 0xfffff900
    3608:	20534120 	subscs	r4, r3, r0, lsr #2
    360c:	35322e32 	ldrcc	r2, [r2, #-3634]!	; 0xfffff1ce
    3610:	0100312e 	tsteq	r0, lr, lsr #2
    3614:	Address 0x0000000000003614 is out of bounds.


Disassembly of section .debug_abbrev:

00000000 <.debug_abbrev>:
   0:	25011101 	strcs	r1, [r1, #-257]	; 0xfffffeff
   4:	030b130e 	movweq	r1, #45838	; 0xb30e
   8:	550e1b0e 	strpl	r1, [lr, #-2830]	; 0xfffff4f2
   c:	10011117 	andne	r1, r1, r7, lsl r1
  10:	02000017 	andeq	r0, r0, #23
  14:	0b0b0024 	bleq	2c00ac <__exidx_end+0x2bdd94>
  18:	0e030b3e 	vmoveq.16	d3[0], r0
  1c:	16030000 	strne	r0, [r3], -r0
  20:	3a0e0300 	bcc	380c28 <__exidx_end+0x37e910>
  24:	490b3b0b 	stmdbmi	fp, {r0, r1, r3, r8, r9, fp, ip, sp}
  28:	04000013 	streq	r0, [r0], #-19	; 0xffffffed
  2c:	0b0b0024 	bleq	2c00c4 <__exidx_end+0x2bddac>
  30:	08030b3e 	stmdaeq	r3, {r1, r2, r3, r4, r5, r8, r9, fp}
  34:	35050000 	strcc	r0, [r5, #-0]
  38:	00134900 	andseq	r4, r3, r0, lsl #18
  3c:	00260600 	eoreq	r0, r6, r0, lsl #12
  40:	00001349 	andeq	r1, r0, r9, asr #6
  44:	49010107 	stmdbmi	r1, {r0, r1, r2, r8}
  48:	00130113 	andseq	r0, r3, r3, lsl r1
  4c:	00210800 	eoreq	r0, r1, r0, lsl #16
  50:	0b2f1349 	bleq	bc4d7c <__exidx_end+0xbc2a64>
  54:	13090000 	movwne	r0, #36864	; 0x9000
  58:	3a0b0b01 	bcc	2c2c64 <__exidx_end+0x2c094c>
  5c:	01053b0b 	tsteq	r5, fp, lsl #22
  60:	0a000013 	beq	b4 <__isr_vector+0xb4>
  64:	0803000d 	stmdaeq	r3, {r0, r2, r3}
  68:	053b0b3a 	ldreq	r0, [fp, #-2874]!	; 0xfffff4c6
  6c:	0b381349 	bleq	e04d98 <__exidx_end+0xe02a80>
  70:	0d0b0000 	stceq	0, cr0, [fp, #-0]
  74:	3a0e0300 	bcc	380c7c <__exidx_end+0x37e964>
  78:	49053b0b 	stmdbmi	r5, {r0, r1, r3, r8, r9, fp, ip, sp}
  7c:	000b3813 	andeq	r3, fp, r3, lsl r8
  80:	00160c00 	andseq	r0, r6, r0, lsl #24
  84:	0b3a0e03 	bleq	e83898 <__exidx_end+0xe81580>
  88:	1349053b 	movtne	r0, #38203	; 0x953b
  8c:	130d0000 	movwne	r0, #53248	; 0xd000
  90:	3a050b01 	bcc	142c9c <__exidx_end+0x140984>
  94:	01053b0b 	tsteq	r5, fp, lsl #22
  98:	0e000013 	mcreq	0, 0, r0, cr0, cr3, {0}
  9c:	0e03000d 	cdpeq	0, 0, cr0, cr3, cr13, {0}
  a0:	053b0b3a 	ldreq	r0, [fp, #-2874]!	; 0xfffff4c6
  a4:	05381349 	ldreq	r1, [r8, #-841]!	; 0xfffffcb7
  a8:	210f0000 	mrscs	r0, CPSR
  ac:	2f134900 	svccs	0x00134900
  b0:	10000005 	andne	r0, r0, r5
  b4:	193f002e 	ldmdbne	pc!, {r1, r2, r3, r5}	; <UNPREDICTABLE>
  b8:	0b3a0e03 	bleq	e838cc <__exidx_end+0xe815b4>
  bc:	19270b3b 	stmdbne	r7!, {r0, r1, r3, r4, r5, r8, r9, fp}
  c0:	06120111 			; <UNDEFINED> instruction: 0x06120111
  c4:	42971840 	addsmi	r1, r7, #64, 16	; 0x400000
  c8:	11000019 	tstne	r0, r9, lsl r0
  cc:	193f012e 	ldmdbne	pc!, {r1, r2, r3, r5, r8}	; <UNPREDICTABLE>
  d0:	0b3a0e03 	bleq	e838e4 <__exidx_end+0xe815cc>
  d4:	1927053b 	stmdbne	r7!, {r0, r1, r3, r4, r5, r8, sl}
  d8:	06120111 			; <UNDEFINED> instruction: 0x06120111
  dc:	42971840 	addsmi	r1, r7, #64, 16	; 0x400000
  e0:	00130119 	andseq	r0, r3, r9, lsl r1
  e4:	00341200 	eorseq	r1, r4, r0, lsl #4
  e8:	0b3a0e03 	bleq	e838fc <__exidx_end+0xe815e4>
  ec:	1349053b 	movtne	r0, #38203	; 0x953b
  f0:	00001702 	andeq	r1, r0, r2, lsl #14
  f4:	03003413 	movweq	r3, #1043	; 0x413
  f8:	3b0b3a0e 	blcc	2ce938 <__exidx_end+0x2cc620>
  fc:	3f134905 	svccc	0x00134905
 100:	00193c19 	andseq	r3, r9, r9, lsl ip
 104:	00341400 	eorseq	r1, r4, r0, lsl #8
 108:	0b3a0e03 	bleq	e8391c <__exidx_end+0xe81604>
 10c:	13490b3b 	movtne	r0, #39739	; 0x9b3b
 110:	1802193f 	stmdane	r2, {r0, r1, r2, r3, r4, r5, r8, fp, ip}
 114:	01000000 	mrseq	r0, (UNDEF: 0)
 118:	0e250111 	mcreq	1, 1, r0, cr5, cr1, {0}
 11c:	0e030b13 	vmoveq.32	d3[0], r0
 120:	17550e1b 	smmlane	r5, fp, lr, r0
 124:	17100111 			; <UNDEFINED> instruction: 0x17100111
 128:	24020000 	strcs	r0, [r2], #-0
 12c:	3e0b0b00 	vmlacc.f64	d0, d11, d0
 130:	000e030b 	andeq	r0, lr, fp, lsl #6
 134:	00160300 	andseq	r0, r6, r0, lsl #6
 138:	0b3a0e03 	bleq	e8394c <__exidx_end+0xe81634>
 13c:	13490b3b 	movtne	r0, #39739	; 0x9b3b
 140:	24040000 	strcs	r0, [r4], #-0
 144:	3e0b0b00 	vmlacc.f64	d0, d11, d0
 148:	0008030b 	andeq	r0, r8, fp, lsl #6
 14c:	01040500 	tsteq	r4, r0, lsl #10
 150:	0b0b0e03 	bleq	2c3964 <__exidx_end+0x2c164c>
 154:	0b3a1349 	bleq	e84e80 <__exidx_end+0xe82b68>
 158:	13010b3b 	movwne	r0, #6971	; 0x1b3b
 15c:	28060000 	stmdacs	r6, {}	; <UNPREDICTABLE>
 160:	1c0e0300 	stcne	3, cr0, [lr], {-0}
 164:	0700000d 	streq	r0, [r0, -sp]
 168:	0e030028 	cdpeq	0, 0, cr0, cr3, cr8, {1}
 16c:	00000b1c 	andeq	r0, r0, ip, lsl fp
 170:	0b011308 	bleq	44d98 <__exidx_end+0x42a80>
 174:	3b0b3a05 	blcc	2ce990 <__exidx_end+0x2cc678>
 178:	00130105 	andseq	r0, r3, r5, lsl #2
 17c:	000d0900 	andeq	r0, sp, r0, lsl #18
 180:	0b3a0e03 	bleq	e83994 <__exidx_end+0xe8167c>
 184:	1349053b 	movtne	r0, #38203	; 0x953b
 188:	00000b38 	andeq	r0, r0, r8, lsr fp
 18c:	03000d0a 	movweq	r0, #3338	; 0xd0a
 190:	3b0b3a0e 	blcc	2ce9d0 <__exidx_end+0x2cc6b8>
 194:	38134905 	ldmdacc	r3, {r0, r2, r8, fp, lr}
 198:	0b000005 	bleq	1b4 <Heap_Size+0xb4>
 19c:	0803000d 	stmdaeq	r3, {r0, r2, r3}
 1a0:	053b0b3a 	ldreq	r0, [fp, #-2874]!	; 0xfffff4c6
 1a4:	05381349 	ldreq	r1, [r8, #-841]!	; 0xfffffcb7
 1a8:	010c0000 	mrseq	r0, (UNDEF: 12)
 1ac:	01134901 	tsteq	r3, r1, lsl #18
 1b0:	0d000013 	stceq	0, cr0, [r0, #-76]	; 0xffffffb4
 1b4:	13490021 	movtne	r0, #36897	; 0x9021
 1b8:	00000b2f 	andeq	r0, r0, pc, lsr #22
 1bc:	4900350e 	stmdbmi	r0, {r1, r2, r3, r8, sl, ip, sp}
 1c0:	0f000013 	svceq	0x00000013
 1c4:	13490021 	movtne	r0, #36897	; 0x9021
 1c8:	0000052f 	andeq	r0, r0, pc, lsr #10
 1cc:	03001610 	movweq	r1, #1552	; 0x610
 1d0:	3b0b3a0e 	blcc	2cea10 <__exidx_end+0x2cc6f8>
 1d4:	00134905 	andseq	r4, r3, r5, lsl #18
 1d8:	00261100 	eoreq	r1, r6, r0, lsl #2
 1dc:	00001349 	andeq	r1, r0, r9, asr #6
 1e0:	0b011312 	bleq	44e30 <__exidx_end+0x42b18>
 1e4:	3b0b3a0b 	blcc	2cea18 <__exidx_end+0x2cc700>
 1e8:	00130105 	andseq	r0, r3, r5, lsl #2
 1ec:	000d1300 	andeq	r1, sp, r0, lsl #6
 1f0:	0b3a0803 	bleq	e82204 <__exidx_end+0xe7feec>
 1f4:	1349053b 	movtne	r0, #38203	; 0x953b
 1f8:	00000b38 	andeq	r0, r0, r8, lsr fp
 1fc:	0b011314 	bleq	44e54 <__exidx_end+0x42b3c>
 200:	3b0b3a0b 	blcc	2cea34 <__exidx_end+0x2cc71c>
 204:	0013010b 	andseq	r0, r3, fp, lsl #2
 208:	000d1500 	andeq	r1, sp, r0, lsl #10
 20c:	0b3a0e03 	bleq	e83a20 <__exidx_end+0xe81708>
 210:	13490b3b 	movtne	r0, #39739	; 0x9b3b
 214:	00000b38 	andeq	r0, r0, r8, lsr fp
 218:	27001516 	smladcs	r0, r6, r5, r1
 21c:	17000019 	smladne	r0, r9, r0, r0
 220:	0b0b000f 	bleq	2c0264 <__exidx_end+0x2bdf4c>
 224:	00001349 	andeq	r1, r0, r9, asr #6
 228:	03002e18 	movweq	r2, #3608	; 0xe18
 22c:	3b0b3a0e 	blcc	2cea6c <__exidx_end+0x2cc754>
 230:	20192705 	andscs	r2, r9, r5, lsl #14
 234:	1900000b 	stmdbne	r0, {r0, r1, r3}
 238:	0e03012e 	adfeqsp	f0, f3, #0.5
 23c:	053b0b3a 	ldreq	r0, [fp, #-2874]!	; 0xfffff4c6
 240:	0b201927 	bleq	8066e4 <__exidx_end+0x8043cc>
 244:	00001301 	andeq	r1, r0, r1, lsl #6
 248:	0300051a 	movweq	r0, #1306	; 0x51a
 24c:	3b0b3a0e 	blcc	2cea8c <__exidx_end+0x2cc774>
 250:	00134905 	andseq	r4, r3, r5, lsl #18
 254:	012e1b00 	teqeq	lr, r0, lsl #22
 258:	0e03193f 	mcreq	9, 0, r1, cr3, cr15, {1}
 25c:	0b3b0b3a 	bleq	ec2f4c <__exidx_end+0xec0c34>
 260:	01111927 	tsteq	r1, r7, lsr #18
 264:	18400612 	stmdane	r0, {r1, r4, r9, sl}^
 268:	01194297 			; <UNDEFINED> instruction: 0x01194297
 26c:	1c000013 	stcne	0, cr0, [r0], {19}
 270:	0e030005 	cdpeq	0, 0, cr0, cr3, cr5, {0}
 274:	0b3b0b3a 	bleq	ec2f64 <__exidx_end+0xec0c4c>
 278:	17021349 	strne	r1, [r2, -r9, asr #6]
 27c:	051d0000 	ldreq	r0, [sp, #-0]
 280:	3a0e0300 	bcc	380e88 <__exidx_end+0x37eb70>
 284:	490b3b0b 	stmdbmi	fp, {r0, r1, r3, r8, r9, fp, ip, sp}
 288:	00180213 	andseq	r0, r8, r3, lsl r2
 28c:	011d1e00 	tsteq	sp, r0, lsl #28
 290:	01111331 	tsteq	r1, r1, lsr r3
 294:	0b580612 	bleq	1601ae4 <__exidx_end+0x15ff7cc>
 298:	13010b59 	movwne	r0, #7001	; 0x1b59
 29c:	051f0000 	ldreq	r0, [pc, #-0]	; 2a4 <Heap_Size+0x1a4>
 2a0:	1c133100 	ldfnes	f3, [r3], {-0}
 2a4:	2000000b 	andcs	r0, r0, fp
 2a8:	1331001d 	teqne	r1, #29
 2ac:	06120111 			; <UNDEFINED> instruction: 0x06120111
 2b0:	0b590b58 	bleq	1643018 <__exidx_end+0x1640d00>
 2b4:	2e210000 	cdpcs	0, 2, cr0, cr1, cr0, {0}
 2b8:	03193f00 	tsteq	r9, #0, 30
 2bc:	3b0b3a0e 	blcc	2ceafc <__exidx_end+0x2cc7e4>
 2c0:	1119270b 	tstne	r9, fp, lsl #14
 2c4:	40061201 	andmi	r1, r6, r1, lsl #4
 2c8:	19429718 	stmdbne	r2, {r3, r4, r8, r9, sl, ip, pc}^
 2cc:	2e220000 	cdpcs	0, 2, cr0, cr2, cr0, {0}
 2d0:	03193f01 	tsteq	r9, #1, 30
 2d4:	3b0b3a0e 	blcc	2ceb14 <__exidx_end+0x2cc7fc>
 2d8:	1119270b 	tstne	r9, fp, lsl #14
 2dc:	40061201 	andmi	r1, r6, r1, lsl #4
 2e0:	19429618 	stmdbne	r2, {r3, r4, r9, sl, ip, pc}^
 2e4:	00001301 	andeq	r1, r0, r1, lsl #6
 2e8:	03003423 	movweq	r3, #1059	; 0x423
 2ec:	3b0b3a0e 	blcc	2ceb2c <__exidx_end+0x2cc814>
 2f0:	3f134905 	svccc	0x00134905
 2f4:	00193c19 	andseq	r3, r9, r9, lsl ip
 2f8:	00342400 	eorseq	r2, r4, r0, lsl #8
 2fc:	0b3a0e03 	bleq	e83b10 <__exidx_end+0xe817f8>
 300:	13490b3b 	movtne	r0, #39739	; 0x9b3b
 304:	1802193f 	stmdane	r2, {r0, r1, r2, r3, r4, r5, r8, fp, ip}
 308:	01000000 	mrseq	r0, (UNDEF: 0)
 30c:	0e250111 	mcreq	1, 1, r0, cr5, cr1, {0}
 310:	0e030b13 	vmoveq.32	d3[0], r0
 314:	17550e1b 	smmlane	r5, fp, lr, r0
 318:	17100111 			; <UNDEFINED> instruction: 0x17100111
 31c:	24020000 	strcs	r0, [r2], #-0
 320:	3e0b0b00 	vmlacc.f64	d0, d11, d0
 324:	000e030b 	andeq	r0, lr, fp, lsl #6
 328:	01130300 	tsteq	r3, r0, lsl #6
 32c:	0b0b0e03 	bleq	2c3b40 <__exidx_end+0x2c1828>
 330:	0b3b0b3a 	bleq	ec3020 <__exidx_end+0xec0d08>
 334:	00001301 	andeq	r1, r0, r1, lsl #6
 338:	03000d04 	movweq	r0, #3332	; 0xd04
 33c:	3b0b3a08 	blcc	2ceb64 <__exidx_end+0x2cc84c>
 340:	3813490b 	ldmdacc	r3, {r0, r1, r3, r8, fp, lr}
 344:	0500000b 	streq	r0, [r0, #-11]
 348:	0e03000d 	cdpeq	0, 0, cr0, cr3, cr13, {0}
 34c:	0b3b0b3a 	bleq	ec303c <__exidx_end+0xec0d24>
 350:	0b381349 	bleq	e0507c <__exidx_end+0xe02d64>
 354:	01060000 	mrseq	r0, (UNDEF: 6)
 358:	01134901 	tsteq	r3, r1, lsl #18
 35c:	07000013 	smladeq	r0, r3, r0, r0
 360:	13490021 	movtne	r0, #36897	; 0x9021
 364:	00000b2f 	andeq	r0, r0, pc, lsr #22
 368:	3f012e08 	svccc	0x00012e08
 36c:	3a0e0319 	bcc	380fd8 <__exidx_end+0x37ecc0>
 370:	270b3b0b 	strcs	r3, [fp, -fp, lsl #22]
 374:	11134919 	tstne	r3, r9, lsl r9
 378:	40061201 	andmi	r1, r6, r1, lsl #4
 37c:	19429618 	stmdbne	r2, {r3, r4, r9, sl, ip, pc}^
 380:	00001301 	andeq	r1, r0, r1, lsl #6
 384:	03000509 	movweq	r0, #1289	; 0x509
 388:	3b0b3a0e 	blcc	2cebc8 <__exidx_end+0x2cc8b0>
 38c:	0213490b 	andseq	r4, r3, #180224	; 0x2c000
 390:	0a000017 	beq	3f4 <Heap_Size+0x2f4>
 394:	08030005 	stmdaeq	r3, {r0, r2}
 398:	0b3b0b3a 	bleq	ec3088 <__exidx_end+0xec0d70>
 39c:	17021349 	strne	r1, [r2, -r9, asr #6]
 3a0:	050b0000 	streq	r0, [fp, #-0]
 3a4:	3a0e0300 	bcc	380fac <__exidx_end+0x37ec94>
 3a8:	490b3b0b 	stmdbmi	fp, {r0, r1, r3, r8, r9, fp, ip, sp}
 3ac:	00180213 	andseq	r0, r8, r3, lsl r2
 3b0:	00340c00 	eorseq	r0, r4, r0, lsl #24
 3b4:	0b3a0803 	bleq	e823c8 <__exidx_end+0xe800b0>
 3b8:	13490b3b 	movtne	r0, #39739	; 0x9b3b
 3bc:	00001702 	andeq	r1, r0, r2, lsl #14
 3c0:	0b00240d 	bleq	93fc <__exidx_end+0x70e4>
 3c4:	030b3e0b 	movweq	r3, #48651	; 0xbe0b
 3c8:	0e000008 	cdpeq	0, 0, cr0, cr0, cr8, {0}
 3cc:	0b0b000f 	bleq	2c0410 <__exidx_end+0x2be0f8>
 3d0:	00001349 	andeq	r1, r0, r9, asr #6
 3d4:	4900350f 	stmdbmi	r0, {r0, r1, r2, r3, r8, sl, ip, sp}
 3d8:	10000013 	andne	r0, r0, r3, lsl r0
 3dc:	0e030034 	mcreq	0, 0, r0, cr3, cr4, {1}
 3e0:	0b3b0b3a 	bleq	ec30d0 <__exidx_end+0xec0db8>
 3e4:	17021349 	strne	r1, [r2, -r9, asr #6]
 3e8:	34110000 	ldrcc	r0, [r1], #-0
 3ec:	3a080300 	bcc	200ff4 <__exidx_end+0x1fecdc>
 3f0:	490b3b0b 	stmdbmi	fp, {r0, r1, r3, r8, r9, fp, ip, sp}
 3f4:	000b1c13 	andeq	r1, fp, r3, lsl ip
 3f8:	012e1200 	teqeq	lr, r0, lsl #4
 3fc:	0e03193f 	mcreq	9, 0, r1, cr3, cr15, {1}
 400:	0b3b0b3a 	bleq	ec30f0 <__exidx_end+0xec0dd8>
 404:	13491927 	movtne	r1, #39207	; 0x9927
 408:	06120111 			; <UNDEFINED> instruction: 0x06120111
 40c:	42961840 	addsmi	r1, r6, #64, 16	; 0x400000
 410:	00000019 	andeq	r0, r0, r9, lsl r0
 414:	25011101 	strcs	r1, [r1, #-257]	; 0xfffffeff
 418:	030b130e 	movweq	r1, #45838	; 0xb30e
 41c:	550e1b0e 	strpl	r1, [lr, #-2830]	; 0xfffff4f2
 420:	10011117 	andne	r1, r1, r7, lsl r1
 424:	02000017 	andeq	r0, r0, #23
 428:	0b0b0024 	bleq	2c04c0 <__exidx_end+0x2be1a8>
 42c:	0e030b3e 	vmoveq.16	d3[0], r0
 430:	16030000 	strne	r0, [r3], -r0
 434:	3a0e0300 	bcc	38103c <__exidx_end+0x37ed24>
 438:	490b3b0b 	stmdbmi	fp, {r0, r1, r3, r8, r9, fp, ip, sp}
 43c:	04000013 	streq	r0, [r0], #-19	; 0xffffffed
 440:	0b0b0024 	bleq	2c04d8 <__exidx_end+0x2be1c0>
 444:	08030b3e 	stmdaeq	r3, {r1, r2, r3, r4, r5, r8, r9, fp}
 448:	35050000 	strcc	r0, [r5, #-0]
 44c:	00134900 	andseq	r4, r3, r0, lsl #18
 450:	00260600 	eoreq	r0, r6, r0, lsl #12
 454:	00001349 	andeq	r1, r0, r9, asr #6
 458:	49010107 	stmdbmi	r1, {r0, r1, r2, r8}
 45c:	00130113 	andseq	r0, r3, r3, lsl r1
 460:	00210800 	eoreq	r0, r1, r0, lsl #16
 464:	0b2f1349 	bleq	bc5190 <__exidx_end+0xbc2e78>
 468:	13090000 	movwne	r0, #36864	; 0x9000
 46c:	3a0b0b01 	bcc	2c3078 <__exidx_end+0x2c0d60>
 470:	01053b0b 	tsteq	r5, fp, lsl #22
 474:	0a000013 	beq	4c8 <_mainCRTStartup+0x5c>
 478:	0803000d 	stmdaeq	r3, {r0, r2, r3}
 47c:	053b0b3a 	ldreq	r0, [fp, #-2874]!	; 0xfffff4c6
 480:	0b381349 	bleq	e051ac <__exidx_end+0xe02e94>
 484:	0d0b0000 	stceq	0, cr0, [fp, #-0]
 488:	3a0e0300 	bcc	381090 <__exidx_end+0x37ed78>
 48c:	49053b0b 	stmdbmi	r5, {r0, r1, r3, r8, r9, fp, ip, sp}
 490:	000b3813 	andeq	r3, fp, r3, lsl r8
 494:	00160c00 	andseq	r0, r6, r0, lsl #24
 498:	0b3a0e03 	bleq	e83cac <__exidx_end+0xe81994>
 49c:	1349053b 	movtne	r0, #38203	; 0x953b
 4a0:	130d0000 	movwne	r0, #53248	; 0xd000
 4a4:	3a050b01 	bcc	1430b0 <__exidx_end+0x140d98>
 4a8:	01053b0b 	tsteq	r5, fp, lsl #22
 4ac:	0e000013 	mcreq	0, 0, r0, cr0, cr3, {0}
 4b0:	0e03000d 	cdpeq	0, 0, cr0, cr3, cr13, {0}
 4b4:	053b0b3a 	ldreq	r0, [fp, #-2874]!	; 0xfffff4c6
 4b8:	05381349 	ldreq	r1, [r8, #-841]!	; 0xfffffcb7
 4bc:	210f0000 	mrscs	r0, CPSR
 4c0:	2f134900 	svccs	0x00134900
 4c4:	10000005 	andne	r0, r0, r5
 4c8:	0b0b0117 	bleq	2c092c <__exidx_end+0x2be614>
 4cc:	053b0b3a 	ldreq	r0, [fp, #-2874]!	; 0xfffff4c6
 4d0:	00001301 	andeq	r1, r0, r1, lsl #6
 4d4:	03000d11 	movweq	r0, #3345	; 0xd11
 4d8:	3b0b3a0e 	blcc	2ced18 <__exidx_end+0x2cca00>
 4dc:	00134905 	andseq	r4, r3, r5, lsl #18
 4e0:	000d1200 	andeq	r1, sp, r0, lsl #4
 4e4:	0b381349 	bleq	e05210 <__exidx_end+0xe02ef8>
 4e8:	13130000 	tstne	r3, #0
 4ec:	3a0b0b01 	bcc	2c30f8 <__exidx_end+0x2c0de0>
 4f0:	010b3b0b 	tsteq	fp, fp, lsl #22
 4f4:	14000013 	strne	r0, [r0], #-19	; 0xffffffed
 4f8:	0e03000d 	cdpeq	0, 0, cr0, cr3, cr13, {0}
 4fc:	0b3b0b3a 	bleq	ec31ec <__exidx_end+0xec0ed4>
 500:	0b381349 	bleq	e0522c <__exidx_end+0xe02f14>
 504:	0f150000 	svceq	0x00150000
 508:	490b0b00 	stmdbmi	fp, {r8, r9, fp}
 50c:	16000013 			; <UNDEFINED> instruction: 0x16000013
 510:	193f012e 	ldmdbne	pc!, {r1, r2, r3, r5, r8}	; <UNPREDICTABLE>
 514:	0b3a0e03 	bleq	e83d28 <__exidx_end+0xe81a10>
 518:	19270b3b 	stmdbne	r7!, {r0, r1, r3, r4, r5, r8, r9, fp}
 51c:	06120111 			; <UNDEFINED> instruction: 0x06120111
 520:	42971840 	addsmi	r1, r7, #64, 16	; 0x400000
 524:	00130119 	andseq	r0, r3, r9, lsl r1
 528:	00051700 	andeq	r1, r5, r0, lsl #14
 52c:	0b3a0e03 	bleq	e83d40 <__exidx_end+0xe81a28>
 530:	13490b3b 	movtne	r0, #39739	; 0x9b3b
 534:	00001802 	andeq	r1, r0, r2, lsl #16
 538:	03000518 	movweq	r0, #1304	; 0x518
 53c:	3b0b3a0e 	blcc	2ced7c <__exidx_end+0x2cca64>
 540:	0213490b 	andseq	r4, r3, #180224	; 0x2c000
 544:	19000017 	stmdbne	r0, {r0, r1, r2, r4}
 548:	08030034 	stmdaeq	r3, {r2, r4, r5}
 54c:	0b3b0b3a 	bleq	ec323c <__exidx_end+0xec0f24>
 550:	17021349 	strne	r1, [r2, -r9, asr #6]
 554:	341a0000 	ldrcc	r0, [sl], #-0
 558:	3a0e0300 	bcc	381160 <__exidx_end+0x37ee48>
 55c:	490b3b0b 	stmdbmi	fp, {r0, r1, r3, r8, r9, fp, ip, sp}
 560:	00170213 	andseq	r0, r7, r3, lsl r2
 564:	00051b00 	andeq	r1, r5, r0, lsl #22
 568:	0b3a0803 	bleq	e8257c <__exidx_end+0xe80264>
 56c:	13490b3b 	movtne	r0, #39739	; 0x9b3b
 570:	00001802 	andeq	r1, r0, r2, lsl #16
 574:	0300051c 	movweq	r0, #1308	; 0x51c
 578:	3b0b3a08 	blcc	2ceda0 <__exidx_end+0x2cca88>
 57c:	0213490b 	andseq	r4, r3, #180224	; 0x2c000
 580:	1d000017 	stcne	0, cr0, [r0, #-92]	; 0xffffffa4
 584:	08030034 	stmdaeq	r3, {r2, r4, r5}
 588:	0b3b0b3a 	bleq	ec3278 <__exidx_end+0xec0f60>
 58c:	00001349 	andeq	r1, r0, r9, asr #6
 590:	0182891e 	orreq	r8, r2, lr, lsl r9
 594:	31011101 	tstcc	r1, r1, lsl #2
 598:	1f000013 	svcne	0x00000013
 59c:	0001828a 	andeq	r8, r1, sl, lsl #5
 5a0:	42911802 	addsmi	r1, r1, #131072	; 0x20000
 5a4:	20000018 	andcs	r0, r0, r8, lsl r0
 5a8:	193f012e 	ldmdbne	pc!, {r1, r2, r3, r5, r8}	; <UNPREDICTABLE>
 5ac:	0b3a0e03 	bleq	e83dc0 <__exidx_end+0xe81aa8>
 5b0:	19270b3b 	stmdbne	r7!, {r0, r1, r3, r4, r5, r8, r9, fp}
 5b4:	01111349 	tsteq	r1, r9, asr #6
 5b8:	18400612 	stmdane	r0, {r1, r4, r9, sl}^
 5bc:	01194297 			; <UNDEFINED> instruction: 0x01194297
 5c0:	21000013 	tstcs	r0, r3, lsl r0
 5c4:	08030034 	stmdaeq	r3, {r2, r4, r5}
 5c8:	0b3b0b3a 	bleq	ec32b8 <__exidx_end+0xec0fa0>
 5cc:	18021349 	stmdane	r2, {r0, r3, r6, r8, r9, ip}
 5d0:	34220000 	strtcc	r0, [r2], #-0
 5d4:	3a0e0300 	bcc	3811dc <__exidx_end+0x37eec4>
 5d8:	49053b0b 	stmdbmi	r5, {r0, r1, r3, r8, r9, fp, ip, sp}
 5dc:	3c193f13 	ldccc	15, cr3, [r9], {19}
 5e0:	23000019 	movwcs	r0, #25
 5e4:	0e030034 	mcreq	0, 0, r0, cr3, cr4, {1}
 5e8:	0b3b0b3a 	bleq	ec32d8 <__exidx_end+0xec0fc0>
 5ec:	193f1349 	ldmdbne	pc!, {r0, r3, r6, r8, r9, ip}	; <UNPREDICTABLE>
 5f0:	0000193c 	andeq	r1, r0, ip, lsr r9
 5f4:	03003424 	movweq	r3, #1060	; 0x424
 5f8:	3b0b3a0e 	blcc	2cee38 <__exidx_end+0x2ccb20>
 5fc:	3f13490b 	svccc	0x0013490b
 600:	00180219 	andseq	r0, r8, r9, lsl r2
 604:	11010000 	mrsne	r0, (UNDEF: 1)
 608:	130e2501 	movwne	r2, #58625	; 0xe501
 60c:	1b0e030b 	blne	381240 <__exidx_end+0x37ef28>
 610:	1117550e 	tstne	r7, lr, lsl #10
 614:	00171001 	andseq	r1, r7, r1
 618:	00240200 	eoreq	r0, r4, r0, lsl #4
 61c:	0b3e0b0b 	bleq	f83250 <__exidx_end+0xf80f38>
 620:	00000e03 	andeq	r0, r0, r3, lsl #28
 624:	03001603 	movweq	r1, #1539	; 0x603
 628:	3b0b3a0e 	blcc	2cee68 <__exidx_end+0x2ccb50>
 62c:	0013490b 	andseq	r4, r3, fp, lsl #18
 630:	00240400 	eoreq	r0, r4, r0, lsl #8
 634:	0b3e0b0b 	bleq	f83268 <__exidx_end+0xf80f50>
 638:	00000803 	andeq	r0, r0, r3, lsl #16
 63c:	49003505 	stmdbmi	r0, {r0, r2, r8, sl, ip, sp}
 640:	06000013 			; <UNDEFINED> instruction: 0x06000013
 644:	13490026 	movtne	r0, #36902	; 0x9026
 648:	01070000 	mrseq	r0, (UNDEF: 7)
 64c:	01134901 	tsteq	r3, r1, lsl #18
 650:	08000013 	stmdaeq	r0, {r0, r1, r4}
 654:	13490021 	movtne	r0, #36897	; 0x9021
 658:	00000b2f 	andeq	r0, r0, pc, lsr #22
 65c:	0b011309 	bleq	45288 <__exidx_end+0x42f70>
 660:	3b0b3a0b 	blcc	2cee94 <__exidx_end+0x2ccb7c>
 664:	00130105 	andseq	r0, r3, r5, lsl #2
 668:	000d0a00 	andeq	r0, sp, r0, lsl #20
 66c:	0b3a0e03 	bleq	e83e80 <__exidx_end+0xe81b68>
 670:	1349053b 	movtne	r0, #38203	; 0x953b
 674:	00000b38 	andeq	r0, r0, r8, lsr fp
 678:	03000d0b 	movweq	r0, #3339	; 0xd0b
 67c:	3b0b3a08 	blcc	2ceea4 <__exidx_end+0x2ccb8c>
 680:	38134905 	ldmdacc	r3, {r0, r2, r8, fp, lr}
 684:	0c00000b 	stceq	0, cr0, [r0], {11}
 688:	0e030016 	mcreq	0, 0, r0, cr3, cr6, {0}
 68c:	053b0b3a 	ldreq	r0, [fp, #-2874]!	; 0xfffff4c6
 690:	00001349 	andeq	r1, r0, r9, asr #6
 694:	0b01130d 	bleq	452d0 <__exidx_end+0x42fb8>
 698:	3b0b3a05 	blcc	2ceeb4 <__exidx_end+0x2ccb9c>
 69c:	00130105 	andseq	r0, r3, r5, lsl #2
 6a0:	000d0e00 	andeq	r0, sp, r0, lsl #28
 6a4:	0b3a0e03 	bleq	e83eb8 <__exidx_end+0xe81ba0>
 6a8:	1349053b 	movtne	r0, #38203	; 0x953b
 6ac:	00000538 	andeq	r0, r0, r8, lsr r5
 6b0:	4900210f 	stmdbmi	r0, {r0, r1, r2, r3, r8, sp}
 6b4:	00052f13 	andeq	r2, r5, r3, lsl pc
 6b8:	012e1000 	teqeq	lr, r0
 6bc:	0e03193f 	mcreq	9, 0, r1, cr3, cr15, {1}
 6c0:	0b3b0b3a 	bleq	ec33b0 <__exidx_end+0xec1098>
 6c4:	01111927 	tsteq	r1, r7, lsr #18
 6c8:	18400612 	stmdane	r0, {r1, r4, r9, sl}^
 6cc:	01194297 			; <UNDEFINED> instruction: 0x01194297
 6d0:	11000013 	tstne	r0, r3, lsl r0
 6d4:	0e030005 	cdpeq	0, 0, cr0, cr3, cr5, {0}
 6d8:	0b3b0b3a 	bleq	ec33c8 <__exidx_end+0xec10b0>
 6dc:	17021349 	strne	r1, [r2, -r9, asr #6]
 6e0:	34120000 	ldrcc	r0, [r2], #-0
 6e4:	3a080300 	bcc	2012ec <__exidx_end+0x1fefd4>
 6e8:	490b3b0b 	stmdbmi	fp, {r0, r1, r3, r8, r9, fp, ip, sp}
 6ec:	00170213 	andseq	r0, r7, r3, lsl r2
 6f0:	012e1300 	teqeq	lr, r0, lsl #6
 6f4:	0e03193f 	mcreq	9, 0, r1, cr3, cr15, {1}
 6f8:	0b3b0b3a 	bleq	ec33e8 <__exidx_end+0xec10d0>
 6fc:	13491927 	movtne	r1, #39207	; 0x9927
 700:	06120111 			; <UNDEFINED> instruction: 0x06120111
 704:	42971840 	addsmi	r1, r7, #64, 16	; 0x400000
 708:	00130119 	andseq	r0, r3, r9, lsl r1
 70c:	00341400 	eorseq	r1, r4, r0, lsl #8
 710:	0b3a0e03 	bleq	e83f24 <__exidx_end+0xe81c0c>
 714:	13490b3b 	movtne	r0, #39739	; 0x9b3b
 718:	00001702 	andeq	r1, r0, r2, lsl #14
 71c:	3f002e15 	svccc	0x00002e15
 720:	3a0e0319 	bcc	38138c <__exidx_end+0x37f074>
 724:	270b3b0b 	strcs	r3, [fp, -fp, lsl #22]
 728:	12011119 	andne	r1, r1, #1073741830	; 0x40000006
 72c:	97184006 	ldrls	r4, [r8, -r6]
 730:	00001942 	andeq	r1, r0, r2, asr #18
 734:	03003416 	movweq	r3, #1046	; 0x416
 738:	3b0b3a0e 	blcc	2cef78 <__exidx_end+0x2ccc60>
 73c:	0213490b 	andseq	r4, r3, #180224	; 0x2c000
 740:	17000018 	smladne	r0, r8, r0, r0
 744:	0e030034 	mcreq	0, 0, r0, cr3, cr4, {1}
 748:	053b0b3a 	ldreq	r0, [fp, #-2874]!	; 0xfffff4c6
 74c:	193f1349 	ldmdbne	pc!, {r0, r3, r6, r8, r9, ip}	; <UNPREDICTABLE>
 750:	0000193c 	andeq	r1, r0, ip, lsr r9
 754:	03003418 	movweq	r3, #1048	; 0x418
 758:	3b0b3a0e 	blcc	2cef98 <__exidx_end+0x2ccc80>
 75c:	3f13490b 	svccc	0x0013490b
 760:	00193c19 	andseq	r3, r9, r9, lsl ip
 764:	11010000 	mrsne	r0, (UNDEF: 1)
 768:	130e2501 	movwne	r2, #58625	; 0xe501
 76c:	1b0e030b 	blne	3813a0 <__exidx_end+0x37f088>
 770:	1117550e 	tstne	r7, lr, lsl #10
 774:	00171001 	andseq	r1, r7, r1
 778:	00240200 	eoreq	r0, r4, r0, lsl #4
 77c:	0b3e0b0b 	bleq	f833b0 <__exidx_end+0xf81098>
 780:	00000e03 	andeq	r0, r0, r3, lsl #28
 784:	03001603 	movweq	r1, #1539	; 0x603
 788:	3b0b3a0e 	blcc	2cefc8 <__exidx_end+0x2cccb0>
 78c:	0013490b 	andseq	r4, r3, fp, lsl #18
 790:	00240400 	eoreq	r0, r4, r0, lsl #8
 794:	0b3e0b0b 	bleq	f833c8 <__exidx_end+0xf810b0>
 798:	00000803 	andeq	r0, r0, r3, lsl #16
 79c:	49003505 	stmdbmi	r0, {r0, r2, r8, sl, ip, sp}
 7a0:	06000013 			; <UNDEFINED> instruction: 0x06000013
 7a4:	13490026 	movtne	r0, #36902	; 0x9026
 7a8:	01070000 	mrseq	r0, (UNDEF: 7)
 7ac:	01134901 	tsteq	r3, r1, lsl #18
 7b0:	08000013 	stmdaeq	r0, {r0, r1, r4}
 7b4:	13490021 	movtne	r0, #36897	; 0x9021
 7b8:	00000b2f 	andeq	r0, r0, pc, lsr #22
 7bc:	0b011309 	bleq	453e8 <__exidx_end+0x430d0>
 7c0:	3b0b3a0b 	blcc	2ceff4 <__exidx_end+0x2cccdc>
 7c4:	00130105 	andseq	r0, r3, r5, lsl #2
 7c8:	000d0a00 	andeq	r0, sp, r0, lsl #20
 7cc:	0b3a0803 	bleq	e827e0 <__exidx_end+0xe804c8>
 7d0:	1349053b 	movtne	r0, #38203	; 0x953b
 7d4:	00000b38 	andeq	r0, r0, r8, lsr fp
 7d8:	03000d0b 	movweq	r0, #3339	; 0xd0b
 7dc:	3b0b3a0e 	blcc	2cf01c <__exidx_end+0x2ccd04>
 7e0:	38134905 	ldmdacc	r3, {r0, r2, r8, fp, lr}
 7e4:	0c00000b 	stceq	0, cr0, [r0], {11}
 7e8:	0e030016 	mcreq	0, 0, r0, cr3, cr6, {0}
 7ec:	053b0b3a 	ldreq	r0, [fp, #-2874]!	; 0xfffff4c6
 7f0:	00001349 	andeq	r1, r0, r9, asr #6
 7f4:	0b01130d 	bleq	45430 <__exidx_end+0x43118>
 7f8:	3b0b3a05 	blcc	2cf014 <__exidx_end+0x2cccfc>
 7fc:	00130105 	andseq	r0, r3, r5, lsl #2
 800:	000d0e00 	andeq	r0, sp, r0, lsl #28
 804:	0b3a0e03 	bleq	e84018 <__exidx_end+0xe81d00>
 808:	1349053b 	movtne	r0, #38203	; 0x953b
 80c:	00000538 	andeq	r0, r0, r8, lsr r5
 810:	4900210f 	stmdbmi	r0, {r0, r1, r2, r3, r8, sp}
 814:	00052f13 	andeq	r2, r5, r3, lsl pc
 818:	01171000 	tsteq	r7, r0
 81c:	0b3a0b0b 	bleq	e83450 <__exidx_end+0xe81138>
 820:	1301053b 	movwne	r0, #5435	; 0x153b
 824:	0d110000 	ldceq	0, cr0, [r1, #-0]
 828:	3a0e0300 	bcc	381430 <__exidx_end+0x37f118>
 82c:	49053b0b 	stmdbmi	r5, {r0, r1, r3, r8, r9, fp, ip, sp}
 830:	12000013 	andne	r0, r0, #19
 834:	1349000d 	movtne	r0, #36877	; 0x900d
 838:	00000b38 	andeq	r0, r0, r8, lsr fp
 83c:	0b011313 	bleq	45490 <__exidx_end+0x43178>
 840:	3b0b3a0b 	blcc	2cf074 <__exidx_end+0x2ccd5c>
 844:	0013010b 	andseq	r0, r3, fp, lsl #2
 848:	000d1400 	andeq	r1, sp, r0, lsl #8
 84c:	0b3a0e03 	bleq	e84060 <__exidx_end+0xe81d48>
 850:	13490b3b 	movtne	r0, #39739	; 0x9b3b
 854:	00000b38 	andeq	r0, r0, r8, lsr fp
 858:	0b000f15 	bleq	44b4 <__exidx_end+0x219c>
 85c:	0013490b 	andseq	r4, r3, fp, lsl #18
 860:	01131600 	tsteq	r3, r0, lsl #12
 864:	0b0b0e03 	bleq	2c4078 <__exidx_end+0x2c1d60>
 868:	0b3b0b3a 	bleq	ec3558 <__exidx_end+0xec1240>
 86c:	00001301 	andeq	r1, r0, r1, lsl #6
 870:	03000d17 	movweq	r0, #3351	; 0xd17
 874:	3b0b3a08 	blcc	2cf09c <__exidx_end+0x2ccd84>
 878:	3813490b 	ldmdacc	r3, {r0, r1, r3, r8, fp, lr}
 87c:	1800000b 	stmdane	r0, {r0, r1, r3}
 880:	193f012e 	ldmdbne	pc!, {r1, r2, r3, r5, r8}	; <UNPREDICTABLE>
 884:	0b3a0e03 	bleq	e84098 <__exidx_end+0xe81d80>
 888:	19270b3b 	stmdbne	r7!, {r0, r1, r3, r4, r5, r8, r9, fp}
 88c:	01871349 	orreq	r1, r7, r9, asr #6
 890:	12011119 	andne	r1, r1, #1073741830	; 0x40000006
 894:	96184006 	ldrls	r4, [r8], -r6
 898:	13011942 	movwne	r1, #6466	; 0x1942
 89c:	34190000 	ldrcc	r0, [r9], #-0
 8a0:	3a0e0300 	bcc	3814a8 <__exidx_end+0x37f190>
 8a4:	490b3b0b 	stmdbmi	fp, {r0, r1, r3, r8, r9, fp, ip, sp}
 8a8:	00051c13 	andeq	r1, r5, r3, lsl ip
 8ac:	00341a00 	eorseq	r1, r4, r0, lsl #20
 8b0:	0b3a0803 	bleq	e828c4 <__exidx_end+0xe805ac>
 8b4:	13490b3b 	movtne	r0, #39739	; 0x9b3b
 8b8:	00001802 	andeq	r1, r0, r2, lsl #16
 8bc:	0300341b 	movweq	r3, #1051	; 0x41b
 8c0:	3b0b3a0e 	blcc	2cf100 <__exidx_end+0x2ccde8>
 8c4:	1c13490b 	ldcne	9, cr4, [r3], {11}
 8c8:	1c000006 	stcne	0, cr0, [r0], {6}
 8cc:	193f012e 	ldmdbne	pc!, {r1, r2, r3, r5, r8}	; <UNPREDICTABLE>
 8d0:	0b3a0e03 	bleq	e840e4 <__exidx_end+0xe81dcc>
 8d4:	13490b3b 	movtne	r0, #39739	; 0x9b3b
 8d8:	1301193c 	movwne	r1, #6460	; 0x193c
 8dc:	181d0000 	ldmdane	sp, {}	; <UNPREDICTABLE>
 8e0:	1e000000 	cdpne	0, 0, cr0, cr0, cr0, {0}
 8e4:	01018289 	smlabbeq	r1, r9, r2, r8
 8e8:	13310111 	teqne	r1, #1073741828	; 0x40000004
 8ec:	00001301 	andeq	r1, r0, r1, lsl #6
 8f0:	01828a1f 	orreq	r8, r2, pc, lsl sl
 8f4:	91180200 	tstls	r8, r0, lsl #4
 8f8:	00001842 	andeq	r1, r0, r2, asr #16
 8fc:	01828920 	orreq	r8, r2, r0, lsr #18
 900:	31011100 	mrscc	r1, (UNDEF: 17)
 904:	21000013 	tstcs	r0, r3, lsl r0
 908:	01018289 	smlabbeq	r1, r9, r2, r8
 90c:	13310111 	teqne	r1, #1073741828	; 0x40000004
 910:	2e220000 	cdpcs	0, 2, cr0, cr2, cr0, {0}
 914:	03193f01 	tsteq	r9, #1, 30
 918:	3b0b3a0e 	blcc	2cf158 <__exidx_end+0x2cce40>
 91c:	1201110b 	andne	r1, r1, #-1073741822	; 0xc0000002
 920:	96184006 	ldrls	r4, [r8], -r6
 924:	13011942 	movwne	r1, #6466	; 0x1942
 928:	34230000 	strtcc	r0, [r3], #-0
 92c:	3a0e0300 	bcc	381534 <__exidx_end+0x37f21c>
 930:	490b3b0b 	stmdbmi	fp, {r0, r1, r3, r8, r9, fp, ip, sp}
 934:	00170213 	andseq	r0, r7, r3, lsl r2
 938:	00342400 	eorseq	r2, r4, r0, lsl #8
 93c:	0b3a0e03 	bleq	e84150 <__exidx_end+0xe81e38>
 940:	13490b3b 	movtne	r0, #39739	; 0x9b3b
 944:	2e250000 	cdpcs	0, 2, cr0, cr5, cr0, {0}
 948:	03193f00 	tsteq	r9, #0, 30
 94c:	3b0b3a0e 	blcc	2cf18c <__exidx_end+0x2cce74>
 950:	1201110b 	andne	r1, r1, #-1073741822	; 0xc0000002
 954:	97184006 	ldrls	r4, [r8, -r6]
 958:	00001942 	andeq	r1, r0, r2, asr #18
 95c:	03003426 	movweq	r3, #1062	; 0x426
 960:	3b0b3a0e 	blcc	2cf1a0 <__exidx_end+0x2cce88>
 964:	3f134905 	svccc	0x00134905
 968:	00193c19 	andseq	r3, r9, r9, lsl ip
 96c:	00342700 	eorseq	r2, r4, r0, lsl #14
 970:	0b3a0e03 	bleq	e84184 <__exidx_end+0xe81e6c>
 974:	13490b3b 	movtne	r0, #39739	; 0x9b3b
 978:	193c193f 	ldmdbne	ip!, {r0, r1, r2, r3, r4, r5, r8, fp, ip}
 97c:	34280000 	strtcc	r0, [r8], #-0
 980:	3a0e0300 	bcc	381588 <__exidx_end+0x37f270>
 984:	490b3b0b 	stmdbmi	fp, {r0, r1, r3, r8, r9, fp, ip, sp}
 988:	02193f13 	andseq	r3, r9, #19, 30	; 0x4c
 98c:	29000018 	stmdbcs	r0, {r3, r4}
 990:	193f002e 	ldmdbne	pc!, {r1, r2, r3, r5}	; <UNPREDICTABLE>
 994:	0e6e193c 	mcreq	9, 3, r1, cr14, cr12, {1}
 998:	0b3a0e03 	bleq	e841ac <__exidx_end+0xe81e94>
 99c:	00000b3b 	andeq	r0, r0, fp, lsr fp
 9a0:	01110100 	tsteq	r1, r0, lsl #2
 9a4:	0b130e25 	bleq	4c4240 <__exidx_end+0x4c1f28>
 9a8:	0e1b0e03 	cdpeq	14, 1, cr0, cr11, cr3, {0}
 9ac:	01111755 	tsteq	r1, r5, asr r7
 9b0:	00001710 	andeq	r1, r0, r0, lsl r7
 9b4:	0b002402 	bleq	99c4 <__exidx_end+0x76ac>
 9b8:	030b3e0b 	movweq	r3, #48651	; 0xbe0b
 9bc:	0300000e 	movweq	r0, #14
 9c0:	0e030016 	mcreq	0, 0, r0, cr3, cr6, {0}
 9c4:	0b3b0b3a 	bleq	ec36b4 <__exidx_end+0xec139c>
 9c8:	00001349 	andeq	r1, r0, r9, asr #6
 9cc:	0b002404 	bleq	99e4 <__exidx_end+0x76cc>
 9d0:	030b3e0b 	movweq	r3, #48651	; 0xbe0b
 9d4:	05000008 	streq	r0, [r0, #-8]
 9d8:	0e030104 	adfeqs	f0, f3, f4
 9dc:	13490b0b 	movtne	r0, #39691	; 0x9b0b
 9e0:	0b3b0b3a 	bleq	ec36d0 <__exidx_end+0xec13b8>
 9e4:	00001301 	andeq	r1, r0, r1, lsl #6
 9e8:	03002806 	movweq	r2, #2054	; 0x806
 9ec:	000d1c0e 	andeq	r1, sp, lr, lsl #24
 9f0:	00280700 	eoreq	r0, r8, r0, lsl #14
 9f4:	0b1c0e03 	bleq	704208 <__exidx_end+0x701ef0>
 9f8:	13080000 	movwne	r0, #32768	; 0x8000
 9fc:	3a050b01 	bcc	143608 <__exidx_end+0x1412f0>
 a00:	01053b0b 	tsteq	r5, fp, lsl #22
 a04:	09000013 	stmdbeq	r0, {r0, r1, r4}
 a08:	0e03000d 	cdpeq	0, 0, cr0, cr3, cr13, {0}
 a0c:	053b0b3a 	ldreq	r0, [fp, #-2874]!	; 0xfffff4c6
 a10:	0b381349 	bleq	e0573c <__exidx_end+0xe03424>
 a14:	0d0a0000 	stceq	0, cr0, [sl, #-0]
 a18:	3a0e0300 	bcc	381620 <__exidx_end+0x37f308>
 a1c:	49053b0b 	stmdbmi	r5, {r0, r1, r3, r8, r9, fp, ip, sp}
 a20:	00053813 	andeq	r3, r5, r3, lsl r8
 a24:	000d0b00 	andeq	r0, sp, r0, lsl #22
 a28:	0b3a0803 	bleq	e82a3c <__exidx_end+0xe80724>
 a2c:	1349053b 	movtne	r0, #38203	; 0x953b
 a30:	00000538 	andeq	r0, r0, r8, lsr r5
 a34:	4901010c 	stmdbmi	r1, {r2, r3, r8}
 a38:	00130113 	andseq	r0, r3, r3, lsl r1
 a3c:	00210d00 	eoreq	r0, r1, r0, lsl #26
 a40:	0b2f1349 	bleq	bc576c <__exidx_end+0xbc3454>
 a44:	350e0000 	strcc	r0, [lr, #-0]
 a48:	00134900 	andseq	r4, r3, r0, lsl #18
 a4c:	00210f00 	eoreq	r0, r1, r0, lsl #30
 a50:	052f1349 	streq	r1, [pc, #-841]!	; 70f <PIDUpdate+0x9f>
 a54:	16100000 	ldrne	r0, [r0], -r0
 a58:	3a0e0300 	bcc	381660 <__exidx_end+0x37f348>
 a5c:	49053b0b 	stmdbmi	r5, {r0, r1, r3, r8, r9, fp, ip, sp}
 a60:	11000013 	tstne	r0, r3, lsl r0
 a64:	13490026 	movtne	r0, #36902	; 0x9026
 a68:	13120000 	tstne	r2, #0
 a6c:	3a0b0b01 	bcc	2c3678 <__exidx_end+0x2c1360>
 a70:	01053b0b 	tsteq	r5, fp, lsl #22
 a74:	13000013 	movwne	r0, #19
 a78:	0803000d 	stmdaeq	r3, {r0, r2, r3}
 a7c:	053b0b3a 	ldreq	r0, [fp, #-2874]!	; 0xfffff4c6
 a80:	0b381349 	bleq	e057ac <__exidx_end+0xe03494>
 a84:	2e140000 	cdpcs	0, 1, cr0, cr4, cr0, {0}
 a88:	3a0e0300 	bcc	381690 <__exidx_end+0x37f378>
 a8c:	27053b0b 	strcs	r3, [r5, -fp, lsl #22]
 a90:	000b2019 	andeq	r2, fp, r9, lsl r0
 a94:	012e1500 	teqeq	lr, r0, lsl #10
 a98:	0b3a0e03 	bleq	e842ac <__exidx_end+0xe81f94>
 a9c:	1927053b 	stmdbne	r7!, {r0, r1, r3, r4, r5, r8, sl}
 aa0:	13010b20 	movwne	r0, #6944	; 0x1b20
 aa4:	05160000 	ldreq	r0, [r6, #-0]
 aa8:	3a0e0300 	bcc	3816b0 <__exidx_end+0x37f398>
 aac:	49053b0b 	stmdbmi	r5, {r0, r1, r3, r8, r9, fp, ip, sp}
 ab0:	17000013 	smladne	r0, r3, r0, r0
 ab4:	193f002e 	ldmdbne	pc!, {r1, r2, r3, r5}	; <UNPREDICTABLE>
 ab8:	0b3a0e03 	bleq	e842cc <__exidx_end+0xe81fb4>
 abc:	19270b3b 	stmdbne	r7!, {r0, r1, r3, r4, r5, r8, r9, fp}
 ac0:	06120111 			; <UNDEFINED> instruction: 0x06120111
 ac4:	42971840 	addsmi	r1, r7, #64, 16	; 0x400000
 ac8:	18000019 	stmdane	r0, {r0, r3, r4}
 acc:	193f012e 	ldmdbne	pc!, {r1, r2, r3, r5, r8}	; <UNPREDICTABLE>
 ad0:	0b3a0e03 	bleq	e842e4 <__exidx_end+0xe81fcc>
 ad4:	19270b3b 	stmdbne	r7!, {r0, r1, r3, r4, r5, r8, r9, fp}
 ad8:	06120111 			; <UNDEFINED> instruction: 0x06120111
 adc:	42971840 	addsmi	r1, r7, #64, 16	; 0x400000
 ae0:	00130119 	andseq	r0, r3, r9, lsl r1
 ae4:	00341900 	eorseq	r1, r4, r0, lsl #18
 ae8:	0b3a0e03 	bleq	e842fc <__exidx_end+0xe81fe4>
 aec:	13490b3b 	movtne	r0, #39739	; 0x9b3b
 af0:	00001702 	andeq	r1, r0, r2, lsl #14
 af4:	31011d1a 	tstcc	r1, sl, lsl sp
 af8:	12011113 	andne	r1, r1, #-1073741820	; 0xc0000004
 afc:	590b5806 	stmdbpl	fp, {r1, r2, fp, ip, lr}
 b00:	0013010b 	andseq	r0, r3, fp, lsl #2
 b04:	00051b00 	andeq	r1, r5, r0, lsl #22
 b08:	0b1c1331 	bleq	7057d4 <__exidx_end+0x7034bc>
 b0c:	1d1c0000 	ldcne	0, cr0, [ip, #-0]
 b10:	11133100 	tstne	r3, r0, lsl #2
 b14:	58061201 	stmdapl	r6, {r0, r9, ip}
 b18:	000b590b 	andeq	r5, fp, fp, lsl #18
 b1c:	00341d00 	eorseq	r1, r4, r0, lsl #26
 b20:	0b3a0e03 	bleq	e84334 <__exidx_end+0xe8201c>
 b24:	1349053b 	movtne	r0, #38203	; 0x953b
 b28:	193c193f 	ldmdbne	ip!, {r0, r1, r2, r3, r4, r5, r8, fp, ip}
 b2c:	341e0000 	ldrcc	r0, [lr], #-0
 b30:	3a0e0300 	bcc	381738 <__exidx_end+0x37f420>
 b34:	490b3b0b 	stmdbmi	fp, {r0, r1, r3, r8, r9, fp, ip, sp}
 b38:	02193f13 	andseq	r3, r9, #19, 30	; 0x4c
 b3c:	00000018 	andeq	r0, r0, r8, lsl r0
 b40:	10001101 	andne	r1, r0, r1, lsl #2
 b44:	12011106 	andne	r1, r1, #-2147483647	; 0x80000001
 b48:	1b080301 	blne	201754 <__exidx_end+0x1ff43c>
 b4c:	13082508 	movwne	r2, #34056	; 0x8508
 b50:	00000005 	andeq	r0, r0, r5

Disassembly of section .debug_loc:

00000000 <.debug_loc>:
	...
   8:	00510001 	subseq	r0, r1, r1
   c:	00000000 	andeq	r0, r0, r0
  10:	01000000 	mrseq	r0, (UNDEF: 0)
  14:	00005300 	andeq	r5, r0, r0, lsl #6
  18:	00000000 	andeq	r0, r0, r0
  1c:	00010000 	andeq	r0, r1, r0
  20:	00000053 	andeq	r0, r0, r3, asr r0
  24:	00000000 	andeq	r0, r0, r0
  28:	52000100 	andpl	r0, r0, #0, 2
	...
  34:	00530001 	subseq	r0, r3, r1
  38:	00000000 	andeq	r0, r0, r0
  3c:	01000000 	mrseq	r0, (UNDEF: 0)
  40:	00005300 	andeq	r5, r0, r0, lsl #6
  44:	00000000 	andeq	r0, r0, r0
  48:	00010000 	andeq	r0, r1, r0
  4c:	00000053 	andeq	r0, r0, r3, asr r0
	...
  5c:	73000700 	movwvc	r0, #1792	; 0x700
  60:	231a4f00 	tstcs	sl, #0, 30
  64:	00009f01 	andeq	r9, r0, r1, lsl #30
  68:	00000000 	andeq	r0, r0, r0
  6c:	00070000 	andeq	r0, r7, r0
  70:	1a4f0073 	bne	13c0244 <__exidx_end+0x13bdf2c>
  74:	009f1823 	addseq	r1, pc, r3, lsr #16
	...
  84:	01000000 	mrseq	r0, (UNDEF: 0)
  88:	00005000 	andeq	r5, r0, r0
  8c:	00000000 	andeq	r0, r0, r0
  90:	00050000 	andeq	r0, r5, r0
  94:	ff02cc03 			; <UNDEFINED> instruction: 0xff02cc03
  98:	0000001f 	andeq	r0, r0, pc, lsl r0
  9c:	00000000 	andeq	r0, r0, r0
  a0:	f3000400 	vshl.u8	d0, d0, d0
  a4:	009f5001 	addseq	r5, pc, r1
	...
  b4:	01000000 	mrseq	r0, (UNDEF: 0)
  b8:	00005000 	andeq	r5, r0, r0
  bc:	00000000 	andeq	r0, r0, r0
  c0:	00050000 	andeq	r0, r5, r0
  c4:	ff02d003 			; <UNDEFINED> instruction: 0xff02d003
  c8:	0000001f 	andeq	r0, r0, pc, lsl r0
  cc:	00000000 	andeq	r0, r0, r0
  d0:	f3000400 	vshl.u8	d0, d0, d0
  d4:	009f5001 	addseq	r5, pc, r1
  d8:	00000000 	andeq	r0, r0, r0
  dc:	fc000000 	stc2	0, cr0, [r0], {-0}
  e0:	0e000005 	cdpeq	0, 0, cr0, cr0, cr5, {0}
  e4:	01000006 	tsteq	r0, r6
  e8:	060e5000 	streq	r5, [lr], -r0
  ec:	06700000 	ldrbteq	r0, [r0], -r0
  f0:	00010000 	andeq	r0, r1, r0
  f4:	00000054 	andeq	r0, r0, r4, asr r0
  f8:	00000000 	andeq	r0, r0, r0
  fc:	0005fc00 	andeq	pc, r5, r0, lsl #24
 100:	00060a00 	andeq	r0, r6, r0, lsl #20
 104:	51000100 	mrspl	r0, (UNDEF: 16)
 108:	0000060a 	andeq	r0, r0, sl, lsl #12
 10c:	00000670 	andeq	r0, r0, r0, ror r6
 110:	03f30006 	mvnseq	r0, #6
 114:	9f2501f5 	svcls	0x002501f5
	...
 120:	000005fc 	strdeq	r0, [r0], -ip
 124:	00000613 	andeq	r0, r0, r3, lsl r6
 128:	13520001 	cmpne	r2, #1
 12c:	70000006 	andvc	r0, r0, r6
 130:	06000006 	streq	r0, [r0], -r6
 134:	f503f300 			; <UNDEFINED> instruction: 0xf503f300
 138:	009f2502 	addseq	r2, pc, r2, lsl #10
 13c:	00000000 	andeq	r0, r0, r0
 140:	fc000000 	stc2	0, cr0, [r0], {-0}
 144:	13000005 	movwne	r0, #5
 148:	01000006 	tsteq	r0, r6
 14c:	06135300 	ldreq	r5, [r3], -r0, lsl #6
 150:	06700000 	ldrbteq	r0, [r0], -r0
 154:	00060000 	andeq	r0, r6, r0
 158:	03f503f3 	mvnseq	r0, #-872415229	; 0xcc000003
 15c:	00009f25 	andeq	r9, r0, r5, lsr #30
 160:	00000000 	andeq	r0, r0, r0
 164:	05fc0000 	ldrbeq	r0, [ip, #0]!
 168:	06180000 	ldreq	r0, [r8], -r0
 16c:	00020000 	andeq	r0, r2, r0
 170:	06180091 			; <UNDEFINED> instruction: 0x06180091
 174:	061a0000 	ldreq	r0, [sl], -r0
 178:	00010000 	andeq	r0, r1, r0
 17c:	00061a50 	andeq	r1, r6, r0, asr sl
 180:	00063e00 	andeq	r3, r6, r0, lsl #28
 184:	55000100 	strpl	r0, [r0, #-256]	; 0xffffff00
 188:	0000063e 	andeq	r0, r0, lr, lsr r6
 18c:	00000641 	andeq	r0, r0, r1, asr #12
 190:	41500001 	cmpmi	r0, r1
 194:	50000006 	andpl	r0, r0, r6
 198:	01000006 	tsteq	r0, r6
 19c:	06525500 	ldrbeq	r5, [r2], -r0, lsl #10
 1a0:	06700000 	ldrbteq	r0, [r0], -r0
 1a4:	00010000 	andeq	r0, r1, r0
 1a8:	00000055 	andeq	r0, r0, r5, asr r0
 1ac:	00000000 	andeq	r0, r0, r0
 1b0:	00066600 	andeq	r6, r6, r0, lsl #12
 1b4:	00066a00 	andeq	r6, r6, r0, lsl #20
 1b8:	30000200 	andcc	r0, r0, r0, lsl #4
 1bc:	00066a9f 	muleq	r6, pc, sl	; <UNPREDICTABLE>
 1c0:	00067000 	andeq	r7, r6, r0
 1c4:	31000200 	mrscc	r0, R8_usr
 1c8:	0000009f 	muleq	r0, pc, r0	; <UNPREDICTABLE>
 1cc:	00000000 	andeq	r0, r0, r0
 1d0:	00067000 	andeq	r7, r6, r0
 1d4:	00067800 	andeq	r7, r6, r0, lsl #16
 1d8:	50000100 	andpl	r0, r0, r0, lsl #2
 1dc:	00000678 	andeq	r0, r0, r8, ror r6
 1e0:	0000073e 	andeq	r0, r0, lr, lsr r7
 1e4:	00540001 	subseq	r0, r4, r1
 1e8:	00000000 	andeq	r0, r0, r0
 1ec:	70000000 	andvc	r0, r0, r0
 1f0:	7d000006 	stcvc	0, cr0, [r0, #-24]	; 0xffffffe8
 1f4:	01000006 	tsteq	r0, r6
 1f8:	067d5100 	ldrbteq	r5, [sp], -r0, lsl #2
 1fc:	069a0000 	ldreq	r0, [sl], r0
 200:	00010000 	andeq	r0, r1, r0
 204:	00069a55 	andeq	r9, r6, r5, asr sl
 208:	00069c00 	andeq	r9, r6, r0, lsl #24
 20c:	50000100 	andpl	r0, r0, r0, lsl #2
 210:	0000069c 	muleq	r0, ip, r6
 214:	000006b0 			; <UNDEFINED> instruction: 0x000006b0
 218:	b0550001 	subslt	r0, r5, r1
 21c:	b2000006 	andlt	r0, r0, #6
 220:	01000006 	tsteq	r0, r6
 224:	06b25000 	ldrteq	r5, [r2], r0
 228:	06b50000 	ldrteq	r0, [r5], r0
 22c:	00010000 	andeq	r0, r1, r0
 230:	00000051 	andeq	r0, r0, r1, asr r0
 234:	00000000 	andeq	r0, r0, r0
 238:	0006c200 	andeq	ip, r6, r0, lsl #4
 23c:	0006c500 	andeq	ip, r6, r0, lsl #10
 240:	50000100 	andpl	r0, r0, r0, lsl #2
 244:	000006c5 	andeq	r0, r0, r5, asr #13
 248:	000006e4 	andeq	r0, r0, r4, ror #13
 24c:	00550001 	subseq	r0, r5, r1
 250:	00000000 	andeq	r0, r0, r0
 254:	cc000000 	stcgt	0, cr0, [r0], {-0}
 258:	d0000006 	andle	r0, r0, r6
 25c:	01000006 	tsteq	r0, r6
 260:	06d05000 	ldrbeq	r5, [r0], r0
 264:	06e20000 	strbteq	r0, [r2], r0
 268:	00010000 	andeq	r0, r1, r0
 26c:	0006e456 	andeq	lr, r6, r6, asr r4
 270:	0006e800 	andeq	lr, r6, r0, lsl #16
 274:	50000100 	andpl	r0, r0, r0, lsl #2
 278:	000006e8 	andeq	r0, r0, r8, ror #13
 27c:	000006f8 	strdeq	r0, [r0], -r8
 280:	f8550001 			; <UNDEFINED> instruction: 0xf8550001
 284:	ff000006 			; <UNDEFINED> instruction: 0xff000006
 288:	01000006 	tsteq	r0, r6
 28c:	07005000 	streq	r5, [r0, -r0]
 290:	07070000 	streq	r0, [r7, -r0]
 294:	00010000 	andeq	r0, r1, r0
 298:	00070a50 	andeq	r0, r7, r0, asr sl
 29c:	00070c00 	andeq	r0, r7, r0, lsl #24
 2a0:	50000100 	andpl	r0, r0, r0, lsl #2
 2a4:	0000070c 	andeq	r0, r0, ip, lsl #14
 2a8:	00000718 	andeq	r0, r0, r8, lsl r7
 2ac:	18550001 	ldmdane	r5, {r0}^
 2b0:	1d000007 	stcne	0, cr0, [r0, #-28]	; 0xffffffe4
 2b4:	01000007 	tsteq	r0, r7
 2b8:	07225000 	streq	r5, [r2, -r0]!
 2bc:	07250000 	streq	r0, [r5, -r0]!
 2c0:	00010000 	andeq	r0, r1, r0
 2c4:	00072550 	andeq	r2, r7, r0, asr r5
 2c8:	00073e00 	andeq	r3, r7, r0, lsl #28
 2cc:	55000100 	strpl	r0, [r0, #-256]	; 0xffffff00
	...
 2d8:	000006c2 	andeq	r0, r0, r2, asr #13
 2dc:	000006c5 	andeq	r0, r0, r5, asr #13
 2e0:	00f50008 	rscseq	r0, r5, r8
 2e4:	2509f525 	strcs	pc, [r9, #-1317]	; 0xfffffadb
 2e8:	06c59f1c 			; <UNDEFINED> instruction: 0x06c59f1c
 2ec:	06e40000 	strbteq	r0, [r4], r0
 2f0:	00080000 	andeq	r0, r8, r0
 2f4:	f52505f5 			; <UNDEFINED> instruction: 0xf52505f5
 2f8:	9f1c2509 	svcls	0x001c2509
	...
 304:	00000670 	andeq	r0, r0, r0, ror r6
 308:	000006c2 	andeq	r0, r0, r2, asr #13
 30c:	049e0006 	ldreq	r0, [lr], #6
 310:	00000000 	andeq	r0, r0, r0
 314:	000006c2 	andeq	r0, r0, r2, asr #13
 318:	0000073e 	andeq	r0, r0, lr, lsr r7
 31c:	07f5000c 	ldrbeq	r0, [r5, ip]!
 320:	0425f425 	strteq	pc, [r5], #-1061	; 0xfffffbdb
 324:	00000000 	andeq	r0, r0, r0
 328:	00009f1e 	andeq	r9, r0, lr, lsl pc
 32c:	00000000 	andeq	r0, r0, r0
 330:	073e0000 	ldreq	r0, [lr, -r0]!
 334:	07440000 	strbeq	r0, [r4, -r0]
 338:	00010000 	andeq	r0, r1, r0
 33c:	00074450 	andeq	r4, r7, r0, asr r4
 340:	00077c00 	andeq	r7, r7, r0, lsl #24
 344:	54000100 	strpl	r0, [r0], #-256	; 0xffffff00
	...
 350:	0000073e 	andeq	r0, r0, lr, lsr r7
 354:	00000749 	andeq	r0, r0, r9, asr #14
 358:	49510001 	ldmdbmi	r1, {r0}^
 35c:	66000007 	strvs	r0, [r0], -r7
 360:	01000007 	tsteq	r0, r7
 364:	07665500 	strbeq	r5, [r6, -r0, lsl #10]!
 368:	07680000 	strbeq	r0, [r8, -r0]!
 36c:	00010000 	andeq	r0, r1, r0
 370:	00076850 	andeq	r6, r7, r0, asr r8
 374:	00077600 	andeq	r7, r7, r0, lsl #12
 378:	55000100 	strpl	r0, [r0, #-256]	; 0xffffff00
 37c:	00000776 	andeq	r0, r0, r6, ror r7
 380:	0000077a 	andeq	r0, r0, sl, ror r7
 384:	7a500001 	bvc	1400390 <__exidx_end+0x13fe078>
 388:	7c000007 	stcvc	0, cr0, [r0], {7}
 38c:	02000007 	andeq	r0, r0, #7
 390:	000c7400 	andeq	r7, ip, r0, lsl #8
 394:	00000000 	andeq	r0, r0, r0
 398:	7c000000 	stcvc	0, cr0, [r0], {-0}
 39c:	8c000007 	stchi	0, cr0, [r0], {7}
 3a0:	01000007 	tsteq	r0, r7
 3a4:	078c5100 	streq	r5, [ip, r0, lsl #2]
 3a8:	07f80000 	ldrbeq	r0, [r8, r0]!
 3ac:	00040000 	andeq	r0, r4, r0
 3b0:	9f5101f3 	svcls	0x005101f3
	...
 3bc:	000007be 			; <UNDEFINED> instruction: 0x000007be
 3c0:	000007e8 	andeq	r0, r0, r8, ror #15
 3c4:	00510001 	subseq	r0, r1, r1
 3c8:	00000000 	andeq	r0, r0, r0
 3cc:	d2000000 	andle	r0, r0, #0
 3d0:	e4000007 	str	r0, [r0], #-7
 3d4:	17000007 	strne	r0, [r0, -r7]
 3d8:	09007100 	stmdbeq	r0, {r8, ip, sp, lr}
 3dc:	00741ee0 	rsbseq	r1, r4, r0, ror #29
 3e0:	f7243506 			; <UNDEFINED> instruction: 0xf7243506
 3e4:	3a960825 	bcc	fe582480 <__StackTop+0xde552480>
 3e8:	1b25f724 	blne	97e080 <__exidx_end+0x97bd68>
 3ec:	9f2200f7 	svcls	0x002200f7
	...
 3f8:	0000080a 	andeq	r0, r0, sl, lsl #16
 3fc:	00000812 	andeq	r0, r0, r2, lsl r8
 400:	12500001 	subsne	r0, r0, #1
 404:	22000008 	andcs	r0, r0, #8
 408:	01000008 	tsteq	r0, r8
 40c:	00005400 	andeq	r5, r0, r0, lsl #8
 410:	00000000 	andeq	r0, r0, r0
 414:	080a0000 	stmdaeq	sl, {}	; <UNPREDICTABLE>
 418:	08100000 	ldmdaeq	r0, {}	; <UNPREDICTABLE>
 41c:	00010000 	andeq	r0, r1, r0
 420:	00081051 	andeq	r1, r8, r1, asr r0
 424:	00081200 	andeq	r1, r8, r0, lsl #4
 428:	52000100 	andpl	r0, r0, #0, 2
 42c:	00000812 	andeq	r0, r0, r2, lsl r8
 430:	00000822 	andeq	r0, r0, r2, lsr #16
 434:	01f30004 	mvnseq	r0, r4
 438:	00009f51 	andeq	r9, r0, r1, asr pc
 43c:	00000000 	andeq	r0, r0, r0
 440:	08120000 	ldmdaeq	r2, {}	; <UNPREDICTABLE>
 444:	08190000 	ldmdaeq	r9, {}	; <UNPREDICTABLE>
 448:	00010000 	andeq	r0, r1, r0
 44c:	00081e51 	andeq	r1, r8, r1, asr lr
 450:	00082200 	andeq	r2, r8, r0, lsl #4
 454:	51000100 	mrspl	r0, (UNDEF: 16)
	...
 468:	00500001 	subseq	r0, r0, r1
	...
 478:	01000000 	mrseq	r0, (UNDEF: 0)
 47c:	00005300 	andeq	r5, r0, r0, lsl #6
	...
 48c:	00010000 	andeq	r0, r1, r0
 490:	00000050 	andeq	r0, r0, r0, asr r0
 494:	00000000 	andeq	r0, r0, r0
 498:	f3000400 	vshl.u8	d0, d0, d0
 49c:	009f5001 	addseq	r5, pc, r1
	...
 4ac:	19000000 	stmdbne	r0, {}	; <UNPREDICTABLE>
 4b0:	06007300 	streq	r7, [r0], -r0, lsl #6
 4b4:	007125f7 	ldrshteq	r2, [r1], #-87	; 0xffffffa9
 4b8:	f71b25f7 			; <UNDEFINED> instruction: 0xf71b25f7
 4bc:	1e007000 	cdpne	0, 0, cr7, cr0, cr0, {0}
 4c0:	640825f7 	strvs	r2, [r8], #-1527	; 0xfffffa09
 4c4:	f71b25f7 			; <UNDEFINED> instruction: 0xf71b25f7
 4c8:	00009f00 	andeq	r9, r0, r0, lsl #30
 4cc:	00000000 	andeq	r0, r0, r0
 4d0:	00180000 	andseq	r0, r8, r0
 4d4:	25f70073 	ldrbcs	r0, [r7, #115]!	; 0x73
 4d8:	25f70071 	ldrbcs	r0, [r7, #113]!	; 0x71
 4dc:	7000f71b 	andvc	pc, r0, fp, lsl r7	; <UNPREDICTABLE>
 4e0:	25f71e00 	ldrbcs	r1, [r7, #3584]!	; 0xe00
 4e4:	25f76408 	ldrbcs	r6, [r7, #1032]!	; 0x408
 4e8:	9f00f71b 	svcls	0x0000f71b
	...
 4f4:	00000824 	andeq	r0, r0, r4, lsr #16
 4f8:	00000886 	andeq	r0, r0, r6, lsl #17
 4fc:	86500001 	ldrbhi	r0, [r0], -r1
 500:	88000008 	stmdahi	r0, {r3}
 504:	04000008 	streq	r0, [r0], #-8
 508:	5001f300 	andpl	pc, r1, r0, lsl #6
 50c:	0008889f 	muleq	r8, pc, r8	; <UNPREDICTABLE>
 510:	00089400 	andeq	r9, r8, r0, lsl #8
 514:	50000100 	andpl	r0, r0, r0, lsl #2
 518:	00000894 	muleq	r0, r4, r8
 51c:	000008a0 	andeq	r0, r0, r0, lsr #17
 520:	2c030005 	stccs	0, cr0, [r3], {5}
 524:	a01fff02 	andsge	pc, pc, r2, lsl #30
 528:	cc000008 	stcgt	0, cr0, [r0], {8}
 52c:	04000008 	streq	r0, [r0], #-8
 530:	5001f300 	andpl	pc, r1, r0, lsl #6
 534:	0000009f 	muleq	r0, pc, r0	; <UNPREDICTABLE>
 538:	00000000 	andeq	r0, r0, r0
 53c:	00086e00 	andeq	r6, r8, r0, lsl #28
 540:	00088800 	andeq	r8, r8, r0, lsl #16
 544:	53000100 	movwpl	r0, #256	; 0x100
	...
 550:	00000872 	andeq	r0, r0, r2, ror r8
 554:	0000087c 	andeq	r0, r0, ip, ror r8
 558:	73310005 	teqvc	r1, #5
 55c:	7c9f2400 	cfldrsvc	mvf2, [pc], {0}
 560:	82000008 	andhi	r0, r0, #8
 564:	05000008 	streq	r0, [r0, #-8]
 568:	7f733100 	svcvc	0x00733100
 56c:	08829f24 	stmeq	r2, {r2, r5, r8, r9, sl, fp, ip, pc}
 570:	08840000 	stmeq	r4, {}	; <UNPREDICTABLE>
 574:	00050000 	andeq	r0, r5, r0
 578:	24007331 	strcs	r7, [r0], #-817	; 0xfffffccf
 57c:	0000009f 	muleq	r0, pc, r0	; <UNPREDICTABLE>
 580:	00000000 	andeq	r0, r0, r0
 584:	00085c00 	andeq	r5, r8, r0, lsl #24
 588:	00088200 	andeq	r8, r8, r0, lsl #4
 58c:	30000200 	andcc	r0, r0, r0, lsl #4
 590:	0008829f 	muleq	r8, pc, r2	; <UNPREDICTABLE>
 594:	00088400 	andeq	r8, r8, r0, lsl #8
 598:	53000100 	movwpl	r0, #256	; 0x100
 59c:	00000888 	andeq	r0, r0, r8, lsl #17
 5a0:	0000089e 	muleq	r0, lr, r8
 5a4:	00530001 	subseq	r0, r3, r1
	...
 5b4:	01000000 	mrseq	r0, (UNDEF: 0)
 5b8:	00005400 	andeq	r5, r0, r0, lsl #8
 5bc:	00000000 	andeq	r0, r0, r0
 5c0:	0c920000 	ldceq	0, cr0, [r2], {0}
 5c4:	0c960000 	ldceq	0, cr0, [r6], {0}
 5c8:	00010000 	andeq	r0, r1, r0
 5cc:	000c9651 	andeq	r9, ip, r1, asr r6
 5d0:	000cb000 	andeq	fp, ip, r0
 5d4:	52000100 	andpl	r0, r0, #0, 2
 5d8:	00000cb0 			; <UNDEFINED> instruction: 0x00000cb0
 5dc:	00000cb4 			; <UNDEFINED> instruction: 0x00000cb4
 5e0:	b4510001 	ldrblt	r0, [r1], #-1
 5e4:	d000000c 	andle	r0, r0, ip
 5e8:	0100000c 	tsteq	r0, ip
 5ec:	00005200 	andeq	r5, r0, r0, lsl #4
 5f0:	00000000 	andeq	r0, r0, r0
	...

Disassembly of section .debug_aranges:

00000000 <.debug_aranges>:
   0:	00000024 	andeq	r0, r0, r4, lsr #32
   4:	00000002 	andeq	r0, r0, r2
   8:	00040000 	andeq	r0, r4, r0
   c:	00000000 	andeq	r0, r0, r0
  10:	000004d4 	ldrdeq	r0, [r0], -r4
  14:	000000e8 	andeq	r0, r0, r8, ror #1
  18:	00000000 	andeq	r0, r0, r0
  1c:	00000128 	andeq	r0, r0, r8, lsr #2
	...
  28:	00000044 	andeq	r0, r0, r4, asr #32
  2c:	05ad0002 	streq	r0, [sp, #2]!
  30:	00040000 	andeq	r0, r4, r0
	...
  3c:	00000050 	andeq	r0, r0, r0, asr r0
  40:	00000000 	andeq	r0, r0, r0
  44:	00000050 	andeq	r0, r0, r0, asr r0
  48:	00000000 	andeq	r0, r0, r0
  4c:	00000010 	andeq	r0, r0, r0, lsl r0
  50:	00000000 	andeq	r0, r0, r0
  54:	00000010 	andeq	r0, r0, r0, lsl r0
  58:	000005bc 			; <UNDEFINED> instruction: 0x000005bc
  5c:	00000020 	andeq	r0, r0, r0, lsr #32
  60:	000005dc 	ldrdeq	r0, [r0], -ip
  64:	00000020 	andeq	r0, r0, r0, lsr #32
	...
  70:	0000002c 	andeq	r0, r0, ip, lsr #32
  74:	0e080002 	cdpeq	0, 0, cr0, cr8, cr2, {0}
  78:	00040000 	andeq	r0, r4, r0
  7c:	00000000 	andeq	r0, r0, r0
  80:	000005fc 	strdeq	r0, [r0], -ip
  84:	00000074 	andeq	r0, r0, r4, ror r0
  88:	00000670 	andeq	r0, r0, r0, ror r6
  8c:	000000ce 	andeq	r0, r0, lr, asr #1
  90:	0000073e 	andeq	r0, r0, lr, lsr r7
  94:	0000003e 	andeq	r0, r0, lr, lsr r0
	...
  a0:	00000034 	andeq	r0, r0, r4, lsr r0
  a4:	10470002 	subne	r0, r7, r2
  a8:	00040000 	andeq	r0, r4, r0
  ac:	00000000 	andeq	r0, r0, r0
  b0:	0000077c 	andeq	r0, r0, ip, ror r7
  b4:	0000007c 	andeq	r0, r0, ip, ror r0
  b8:	000007f8 	strdeq	r0, [r0], -r8
  bc:	00000012 	andeq	r0, r0, r2, lsl r0
  c0:	0000080a 	andeq	r0, r0, sl, lsl #16
  c4:	00000018 	andeq	r0, r0, r8, lsl r0
  c8:	00000000 	andeq	r0, r0, r0
  cc:	00000014 	andeq	r0, r0, r4, lsl r0
	...
  d8:	0000002c 	andeq	r0, r0, ip, lsr #32
  dc:	16fd0002 	ldrbtne	r0, [sp], r2
  e0:	00040000 	andeq	r0, r4, r0
	...
  ec:	00000034 	andeq	r0, r0, r4, lsr r0
  f0:	00000824 	andeq	r0, r0, r4, lsr #16
  f4:	000000a8 	andeq	r0, r0, r8, lsr #1
  f8:	000008cc 	andeq	r0, r0, ip, asr #17
  fc:	00000024 	andeq	r0, r0, r4, lsr #32
	...
 108:	0000002c 	andeq	r0, r0, ip, lsr #32
 10c:	1cb10002 	ldcne	0, cr0, [r1], #8
 110:	00040000 	andeq	r0, r4, r0
 114:	00000000 	andeq	r0, r0, r0
 118:	000008f0 	strdeq	r0, [r0], -r0	; <UNPREDICTABLE>
 11c:	00000372 	andeq	r0, r0, r2, ror r3
 120:	00000000 	andeq	r0, r0, r0
 124:	00000100 	andeq	r0, r0, r0, lsl #2
 128:	00000000 	andeq	r0, r0, r0
 12c:	00000002 	andeq	r0, r0, r2
	...
 138:	00000034 	andeq	r0, r0, r4, lsr r0
 13c:	2ad80002 	bcs	ff60014c <__StackTop+0xdf5d014c>
 140:	00040000 	andeq	r0, r4, r0
	...
 14c:	00000028 	andeq	r0, r0, r8, lsr #32
 150:	00000000 	andeq	r0, r0, r0
 154:	0000002c 	andeq	r0, r0, ip, lsr #32
 158:	00000c64 	andeq	r0, r0, r4, ror #24
 15c:	00000094 	muleq	r0, r4, r0
 160:	00000cf8 	strdeq	r0, [r0], -r8
 164:	00000058 	andeq	r0, r0, r8, asr r0
	...
 170:	0000001c 	andeq	r0, r0, ip, lsl r0
 174:	35880002 	strcc	r0, [r8, #2]
 178:	00040000 	andeq	r0, r4, r0
 17c:	00000000 	andeq	r0, r0, r0
 180:	00000d50 	andeq	r0, r0, r0, asr sp
 184:	00000058 	andeq	r0, r0, r8, asr r0
	...

Disassembly of section .debug_ranges:

00000000 <.debug_ranges>:
   0:	000004d4 	ldrdeq	r0, [r0], -r4
   4:	000005bc 			; <UNDEFINED> instruction: 0x000005bc
   8:	00000001 	andeq	r0, r0, r1
   c:	00000001 	andeq	r0, r0, r1
	...
  18:	00000001 	andeq	r0, r0, r1
  1c:	00000001 	andeq	r0, r0, r1
  20:	00000001 	andeq	r0, r0, r1
  24:	00000001 	andeq	r0, r0, r1
  28:	00000001 	andeq	r0, r0, r1
  2c:	00000001 	andeq	r0, r0, r1
  30:	00000001 	andeq	r0, r0, r1
  34:	00000001 	andeq	r0, r0, r1
  38:	000005bc 			; <UNDEFINED> instruction: 0x000005bc
  3c:	000005dc 	ldrdeq	r0, [r0], -ip
  40:	000005dc 	ldrdeq	r0, [r0], -ip
  44:	000005fc 	strdeq	r0, [r0], -ip
	...
  50:	000005fc 	strdeq	r0, [r0], -ip
  54:	00000670 	andeq	r0, r0, r0, ror r6
  58:	00000670 	andeq	r0, r0, r0, ror r6
  5c:	0000073e 	andeq	r0, r0, lr, lsr r7
  60:	0000073e 	andeq	r0, r0, lr, lsr r7
  64:	0000077c 	andeq	r0, r0, ip, ror r7
	...
  70:	0000077c 	andeq	r0, r0, ip, ror r7
  74:	000007f8 	strdeq	r0, [r0], -r8
  78:	000007f8 	strdeq	r0, [r0], -r8
  7c:	0000080a 	andeq	r0, r0, sl, lsl #16
  80:	0000080a 	andeq	r0, r0, sl, lsl #16
  84:	00000822 	andeq	r0, r0, r2, lsr #16
  88:	00000001 	andeq	r0, r0, r1
  8c:	00000001 	andeq	r0, r0, r1
	...
  98:	00000001 	andeq	r0, r0, r1
  9c:	00000001 	andeq	r0, r0, r1
  a0:	00000824 	andeq	r0, r0, r4, lsr #16
  a4:	000008cc 	andeq	r0, r0, ip, asr #17
  a8:	000008cc 	andeq	r0, r0, ip, asr #17
  ac:	000008f0 	strdeq	r0, [r0], -r0	; <UNPREDICTABLE>
	...
  b8:	000008f0 	strdeq	r0, [r0], -r0	; <UNPREDICTABLE>
  bc:	00000c62 	andeq	r0, r0, r2, ror #24
  c0:	00000001 	andeq	r0, r0, r1
  c4:	00000001 	andeq	r0, r0, r1
  c8:	00000001 	andeq	r0, r0, r1
  cc:	00000001 	andeq	r0, r0, r1
	...
  d8:	00000001 	andeq	r0, r0, r1
  dc:	00000001 	andeq	r0, r0, r1
  e0:	00000001 	andeq	r0, r0, r1
  e4:	00000001 	andeq	r0, r0, r1
  e8:	00000c64 	andeq	r0, r0, r4, ror #24
  ec:	00000cf8 	strdeq	r0, [r0], -r8
  f0:	00000cf8 	strdeq	r0, [r0], -r8
  f4:	00000d50 	andeq	r0, r0, r0, asr sp
	...

Disassembly of section .debug_line:

00000000 <.debug_line>:
   0:	00000147 	andeq	r0, r0, r7, asr #2
   4:	00bb0002 	adcseq	r0, fp, r2
   8:	01020000 	mrseq	r0, (UNDEF: 2)
   c:	000d0efb 	strdeq	r0, [sp], -fp
  10:	01010101 	tsteq	r1, r1, lsl #2
  14:	01000000 	mrseq	r0, (UNDEF: 0)
  18:	2e010000 	cdpcs	0, 0, cr0, cr1, cr0, {0}
  1c:	736d632f 	cmnvc	sp, #-1140850688	; 0xbc000000
  20:	4d2f7369 	stcmi	3, cr7, [pc, #-420]!	; fffffe84 <__StackTop+0xdffcfe84>
  24:	4634364b 	ldrtmi	r3, [r4], -fp, asr #12
  28:	2f003231 	svccs	0x00003231
  2c:	2f727375 	svccs	0x00727375
  30:	2d6d7261 	sfmcs	f7, 2, [sp, #-388]!	; 0xfffffe7c
  34:	656e6f6e 	strbvs	r6, [lr, #-3950]!	; 0xfffff092
  38:	6261652d 	rsbvs	r6, r1, #188743680	; 0xb400000
  3c:	6e692f69 	cdpvs	15, 6, cr2, cr9, cr9, {3}
  40:	64756c63 	ldrbtvs	r6, [r5], #-3171	; 0xfffff39d
  44:	616d2f65 	cmnvs	sp, r5, ror #30
  48:	6e696863 	cdpvs	8, 6, cr6, cr9, cr3, {3}
  4c:	752f0065 	strvc	r0, [pc, #-101]!	; ffffffef <__StackTop+0xdffcffef>
  50:	612f7273 	teqvs	pc, r3, ror r2	; <UNPREDICTABLE>
  54:	6e2d6d72 	mcrvs	13, 1, r6, cr13, cr2, {3}
  58:	2d656e6f 	stclcs	14, cr6, [r5, #-444]!	; 0xfffffe44
  5c:	69626165 	stmdbvs	r2!, {r0, r2, r5, r6, r8, sp, lr}^
  60:	636e692f 	cmnvs	lr, #770048	; 0xbc000
  64:	6564756c 	strbvs	r7, [r4, #-1388]!	; 0xfffffa94
  68:	7379732f 	cmnvc	r9, #-1140850688	; 0xbc000000
  6c:	736d6300 	cmnvc	sp, #0, 6
  70:	00007369 	andeq	r7, r0, r9, ror #6
  74:	74737973 	ldrbtvc	r7, [r3], #-2419	; 0xfffff68d
  78:	4d5f6d65 	ldclmi	13, cr6, [pc, #-404]	; fffffeec <__StackTop+0xdffcfeec>
  7c:	4634364b 	ldrtmi	r3, [r4], -fp, asr #12
  80:	632e3231 	teqvs	lr, #268435459	; 0x10000003
  84:	00000100 	andeq	r0, r0, r0, lsl #2
  88:	6665645f 			; <UNDEFINED> instruction: 0x6665645f
  8c:	746c7561 	strbtvc	r7, [ip], #-1377	; 0xfffffa9f
  90:	7079745f 	rsbsvc	r7, r9, pc, asr r4
  94:	682e7365 	stmdavs	lr!, {r0, r2, r5, r6, r8, r9, ip, sp, lr}
  98:	00000200 	andeq	r0, r0, r0, lsl #4
  9c:	6474735f 	ldrbtvs	r7, [r4], #-863	; 0xfffffca1
  a0:	2e746e69 	cdpcs	14, 7, cr6, cr4, cr9, {3}
  a4:	00030068 	andeq	r0, r3, r8, rrx
  a8:	364b4d00 	strbcc	r4, [fp], -r0, lsl #26
  ac:	32314634 	eorscc	r4, r1, #52, 12	; 0x3400000
  b0:	0100682e 	tsteq	r0, lr, lsr #16
  b4:	6f630000 	svcvs	0x00630000
  b8:	635f6572 	cmpvs	pc, #478150656	; 0x1c800000
  bc:	682e346d 	stmdavs	lr!, {r0, r2, r3, r5, r6, sl, ip, sp}
  c0:	00000400 	andeq	r0, r0, r0, lsl #8
  c4:	02050000 	andeq	r0, r5, #0
  c8:	000004d4 	ldrdeq	r0, [r0], -r4
  cc:	01018003 	tsteq	r1, r3
  d0:	033e4c19 	teqeq	lr, #6400	; 0x1900
  d4:	27033c0d 	strcs	r3, [r3, -sp, lsl #24]
  d8:	2e59032e 	cdpcs	3, 5, cr0, cr9, cr14, {1}
  dc:	58250330 	stmdapl	r5!, {r4, r5, r8, r9}
  e0:	4c685d5a 	stclmi	13, cr5, [r8], #-360	; 0xfffffe98
  e4:	4c3e3e77 	ldcmi	14, cr3, [lr], #-476	; 0xfffffe24
  e8:	00304c30 	eorseq	r4, r0, r0, lsr ip
  ec:	2f010402 	svccs	0x00010402
  f0:	01040200 	mrseq	r0, R12_usr
  f4:	02006a3e 	andeq	r6, r0, #253952	; 0x3e000
  f8:	002f0104 	eoreq	r0, pc, r4, lsl #2
  fc:	68010402 	stmdavs	r1, {r1, sl}
 100:	0402004e 	streq	r0, [r2], #-78	; 0xffffffb2
 104:	025d2f01 	subseq	r2, sp, #1, 30
 108:	01010014 	tsteq	r1, r4, lsl r0
 10c:	00020500 	andeq	r0, r2, r0, lsl #10
 110:	03000000 	movweq	r0, #0
 114:	160102d7 			; <UNDEFINED> instruction: 0x160102d7
 118:	233e3e5a 	teqcs	lr, #1440	; 0x5a0
 11c:	1c67215a 	stfnee	f2, [r7], #-360	; 0xfffffe98
 120:	212f2d40 	teqcs	pc, r0, asr #26
 124:	3aca3131 	bcc	ff28c5f0 <__StackTop+0xdf25c5f0>
 128:	03580e03 	cmpeq	r8, #3, 28	; 0x30
 12c:	17033c72 	smlsdxne	r3, r2, ip, r3
 130:	3c6e034a 	stclcc	3, cr0, [lr], #-296	; 0xfffffed8
 134:	3f423f3f 	svccc	0x00423f3f
 138:	213c0a03 	teqcs	ip, r3, lsl #20
 13c:	5a5a2167 	bpl	16886e0 <__exidx_end+0x16863c8>
 140:	215a763f 	cmpcs	sl, pc, lsr r6
 144:	16023476 			; <UNDEFINED> instruction: 0x16023476
 148:	7c010100 	stfvcs	f0, [r1], {-0}
 14c:	02000001 	andeq	r0, r0, #1
 150:	0000ca00 	andeq	ip, r0, r0, lsl #20
 154:	fb010200 	blx	4095e <__exidx_end+0x3e646>
 158:	01000d0e 	tsteq	r0, lr, lsl #26
 15c:	00010101 	andeq	r0, r1, r1, lsl #2
 160:	00010000 	andeq	r0, r1, r0
 164:	6d630100 	stfvse	f0, [r3, #-0]
 168:	00736973 	rsbseq	r6, r3, r3, ror r9
 16c:	7273752f 	rsbsvc	r7, r3, #197132288	; 0xbc00000
 170:	6d72612f 	ldfvse	f6, [r2, #-188]!	; 0xffffff44
 174:	6e6f6e2d 	cdpvs	14, 6, cr6, cr15, cr13, {1}
 178:	61652d65 	cmnvs	r5, r5, ror #26
 17c:	692f6962 	stmdbvs	pc!, {r1, r5, r6, r8, fp, sp, lr}	; <UNPREDICTABLE>
 180:	756c636e 	strbvc	r6, [ip, #-878]!	; 0xfffffc92
 184:	6d2f6564 	cfstr32vs	mvfx6, [pc, #-400]!	; fffffffc <__StackTop+0xdffcfffc>
 188:	69686361 	stmdbvs	r8!, {r0, r5, r6, r8, r9, sp, lr}^
 18c:	2f00656e 	svccs	0x0000656e
 190:	2f727375 	svccs	0x00727375
 194:	2d6d7261 	sfmcs	f7, 2, [sp, #-388]!	; 0xfffffe7c
 198:	656e6f6e 	strbvs	r6, [lr, #-3950]!	; 0xfffff092
 19c:	6261652d 	rsbvs	r6, r1, #188743680	; 0xb400000
 1a0:	6e692f69 	cdpvs	15, 6, cr2, cr9, cr9, {3}
 1a4:	64756c63 	ldrbtvs	r6, [r5], #-3171	; 0xfffff39d
 1a8:	79732f65 	ldmdbvc	r3!, {r0, r2, r5, r6, r8, r9, sl, fp, sp}^
 1ac:	2f2e0073 	svccs	0x002e0073
 1b0:	69736d63 	ldmdbvs	r3!, {r0, r1, r5, r6, r8, sl, fp, sp, lr}^
 1b4:	4b4d2f73 	blmi	134bf88 <__exidx_end+0x1349c70>
 1b8:	31463436 	cmpcc	r6, r6, lsr r4
 1bc:	50000032 	andpl	r0, r0, r2, lsr r0
 1c0:	632e5449 	teqvs	lr, #1224736768	; 0x49000000
 1c4:	00000000 	andeq	r0, r0, r0
 1c8:	65726f63 	ldrbvs	r6, [r2, #-3939]!	; 0xfffff09d
 1cc:	346d635f 	strbtcc	r6, [sp], #-863	; 0xfffffca1
 1d0:	0100682e 	tsteq	r0, lr, lsr #16
 1d4:	6f630000 	svcvs	0x00630000
 1d8:	635f6572 	cmpvs	pc, #478150656	; 0x1c800000
 1dc:	6e75466d 	cdpvs	6, 7, cr4, cr5, cr13, {3}
 1e0:	00682e63 	rsbeq	r2, r8, r3, ror #28
 1e4:	5f000001 	svcpl	0x00000001
 1e8:	61666564 	cmnvs	r6, r4, ror #10
 1ec:	5f746c75 	svcpl	0x00746c75
 1f0:	65707974 	ldrbvs	r7, [r0, #-2420]!	; 0xfffff68c
 1f4:	00682e73 	rsbeq	r2, r8, r3, ror lr
 1f8:	5f000002 	svcpl	0x00000002
 1fc:	69647473 	stmdbvs	r4!, {r0, r1, r4, r5, r6, sl, ip, sp, lr}^
 200:	682e746e 	stmdavs	lr!, {r1, r2, r3, r5, r6, sl, ip, sp, lr}
 204:	00000300 	andeq	r0, r0, r0, lsl #6
 208:	34364b4d 	ldrtcc	r4, [r6], #-2893	; 0xfffff4b3
 20c:	2e323146 	rsfcssm	f3, f2, f6
 210:	00040068 	andeq	r0, r4, r8, rrx
 214:	54495000 	strbpl	r5, [r9], #-0
 218:	0000682e 	andeq	r6, r0, lr, lsr #16
 21c:	00000000 	andeq	r0, r0, r0
 220:	00000205 	andeq	r0, r0, r5, lsl #4
 224:	13180000 	tstne	r8, #0
 228:	59212d21 	stmdbpl	r1!, {r0, r5, r8, sl, fp, sp}
 22c:	2f2f1f3e 	svccs	0x002f1f3e
 230:	0302043d 	movweq	r0, #9277	; 0x243d
 234:	04660bb0 	strbteq	r0, [r6], #-2992	; 0xfffff450
 238:	778d0303 	strvc	r0, [sp, r3, lsl #6]
 23c:	000a024a 	andeq	r0, sl, sl, asr #4
 240:	05000101 	streq	r0, [r0, #-257]	; 0xfffffeff
 244:	00000002 	andeq	r0, r0, r2
 248:	01140300 	tsteq	r4, r0, lsl #6
 24c:	212d2113 	teqcs	sp, r3, lsl r1
 250:	2f1f3e59 	svccs	0x001f3e59
 254:	02043d2f 	andeq	r3, r4, #3008	; 0xbc0
 258:	660ba203 	strvs	sl, [fp], -r3, lsl #4
 25c:	8d030304 	stchi	3, cr0, [r3, #-16]
 260:	0a024a77 	beq	92c44 <__exidx_end+0x9092c>
 264:	00010100 	andeq	r0, r1, r0, lsl #2
 268:	00000205 	andeq	r0, r0, r5, lsl #4
 26c:	24030000 	strcs	r0, [r3], #-0
 270:	08021301 	stmdaeq	r2, {r0, r8, r9, ip}
 274:	00010100 	andeq	r0, r1, r0, lsl #2
 278:	00000205 	andeq	r0, r0, r5, lsl #4
 27c:	28030000 	stmdacs	r3, {}	; <UNPREDICTABLE>
 280:	08021301 	stmdaeq	r2, {r0, r8, r9, ip}
 284:	00010100 	andeq	r0, r1, r0, lsl #2
 288:	05bc0205 	ldreq	r0, [ip, #517]!	; 0x205
 28c:	2c030000 	stccs	0, cr0, [r3], {-0}
 290:	03030401 	movweq	r0, #13313	; 0x3401
 294:	042002a9 	strteq	r0, [r0], #-681	; 0xfffffd57
 298:	7dda0301 	ldclvc	3, cr0, [sl, #4]
 29c:	03044b20 	movweq	r4, #19232	; 0x4b20
 2a0:	3c029a03 	stccc	10, cr9, [r2], {3}
 2a4:	01000702 	tsteq	r0, r2, lsl #14
 2a8:	02050001 	andeq	r0, r5, #1
 2ac:	000005dc 	ldrdeq	r0, [r0], -ip
 2b0:	04013303 	streq	r3, [r1], #-771	; 0xfffffcfd
 2b4:	02a20303 	adceq	r0, r2, #201326592	; 0xc000000
 2b8:	03010420 	movweq	r0, #5152	; 0x1420
 2bc:	4b207de1 	blmi	81fa48 <__exidx_end+0x81d730>
 2c0:	93030304 	movwls	r0, #13060	; 0x3304
 2c4:	07023c02 	streq	r3, [r2, -r2, lsl #24]
 2c8:	ae010100 	adfges	f0, f1, f0
 2cc:	02000000 	andeq	r0, r0, #0
 2d0:	00002500 	andeq	r2, r0, r0, lsl #10
 2d4:	fb010200 	blx	40ade <__exidx_end+0x3e7c6>
 2d8:	01000d0e 	tsteq	r0, lr, lsl #26
 2dc:	00010101 	andeq	r0, r1, r1, lsl #2
 2e0:	00010000 	andeq	r0, r1, r0
 2e4:	50000100 	andpl	r0, r0, r0, lsl #2
 2e8:	632e4449 	teqvs	lr, #1224736768	; 0x49000000
 2ec:	00000000 	andeq	r0, r0, r0
 2f0:	2e444950 	mcrcs	9, 2, r4, cr4, cr0, {2}
 2f4:	00000068 	andeq	r0, r0, r8, rrx
 2f8:	05000000 	streq	r0, [r0, #-0]
 2fc:	0005fc02 	andeq	pc, r5, r2, lsl #24
 300:	01170300 	tsteq	r7, r0, lsl #6
 304:	231e222e 	tstcs	lr, #-536870910	; 0xe0000002
 308:	03221e23 	teqeq	r2, #560	; 0x230
 30c:	3026207a 	eorcc	r2, r6, sl, ror r0
 310:	1f83221e 	svcne	0x0083221e
 314:	1d3f4c21 	ldcne	12, cr4, [pc, #-132]!	; 298 <Heap_Size+0x198>
 318:	2c593e23 	mrrccs	14, 2, r3, r9, cr3
 31c:	1b200903 	blne	802730 <__exidx_end+0x800418>
 320:	21212123 	teqcs	r1, r3, lsr #2
 324:	0231302f 	eorseq	r3, r1, #47	; 0x2f
 328:	01010003 	tsteq	r1, r3
 32c:	70020500 	andvc	r0, r2, r0, lsl #10
 330:	03000006 	movweq	r0, #6
 334:	2e0100eb 	cdpcs	0, 0, cr0, cr1, cr11, {7}
 338:	20790327 	rsbscs	r0, r9, r7, lsr #6
 33c:	592f3d27 	stmdbpl	pc!, {r0, r1, r2, r5, r8, sl, fp, ip, sp}	; <UNPREDICTABLE>
 340:	92315a24 	eorsls	r5, r1, #36, 20	; 0x24000
 344:	2121333d 	teqcs	r1, sp, lsr r3
 348:	28207803 	stmdacs	r0!, {r0, r1, fp, ip, sp, lr}
 34c:	9f212d2f 	svcls	0x00212d2f
 350:	4ba1211f 	blmi	fe8487d4 <__StackTop+0xde8187d4>
 354:	1f3d755b 	svcne	0x003d755b
 358:	592f3d21 	stmdbpl	pc!, {r0, r5, r8, sl, fp, ip, sp}	; <UNPREDICTABLE>
 35c:	00030223 	andeq	r0, r3, r3, lsr #4
 360:	05000101 	streq	r0, [r0, #-257]	; 0xfffffeff
 364:	00073e02 	andeq	r3, r7, r2, lsl #28
 368:	019e0300 	orrseq	r0, lr, r0, lsl #6
 36c:	1e222001 	cdpne	0, 2, cr2, cr2, cr1, {0}
 370:	592f3d22 	stmdbpl	pc!, {r1, r5, r8, sl, fp, ip, sp}	; <UNPREDICTABLE>
 374:	22835924 	addcs	r5, r3, #36, 18	; 0x90000
 378:	01000202 	tsteq	r0, r2, lsl #4
 37c:	00015601 	andeq	r5, r1, r1, lsl #12
 380:	cf000200 	svcgt	0x00000200
 384:	02000000 	andeq	r0, r0, #0
 388:	0d0efb01 	vstreq	d15, [lr, #-4]
 38c:	01010100 	mrseq	r0, (UNDEF: 17)
 390:	00000001 	andeq	r0, r0, r1
 394:	01000001 	tsteq	r0, r1
 398:	7273752f 	rsbsvc	r7, r3, #197132288	; 0xbc00000
 39c:	6d72612f 	ldfvse	f6, [r2, #-188]!	; 0xffffff44
 3a0:	6e6f6e2d 	cdpvs	14, 6, cr6, cr15, cr13, {1}
 3a4:	61652d65 	cmnvs	r5, r5, ror #26
 3a8:	692f6962 	stmdbvs	pc!, {r1, r5, r6, r8, fp, sp, lr}	; <UNPREDICTABLE>
 3ac:	756c636e 	strbvc	r6, [ip, #-878]!	; 0xfffffc92
 3b0:	6d2f6564 	cfstr32vs	mvfx6, [pc, #-400]!	; 228 <Heap_Size+0x128>
 3b4:	69686361 	stmdbvs	r8!, {r0, r5, r6, r8, r9, sp, lr}^
 3b8:	2f00656e 	svccs	0x0000656e
 3bc:	2f727375 	svccs	0x00727375
 3c0:	2d6d7261 	sfmcs	f7, 2, [sp, #-388]!	; 0xfffffe7c
 3c4:	656e6f6e 	strbvs	r6, [lr, #-3950]!	; 0xfffff092
 3c8:	6261652d 	rsbvs	r6, r1, #188743680	; 0xb400000
 3cc:	6e692f69 	cdpvs	15, 6, cr2, cr9, cr9, {3}
 3d0:	64756c63 	ldrbtvs	r6, [r5], #-3171	; 0xfffff39d
 3d4:	79732f65 	ldmdbvc	r3!, {r0, r2, r5, r6, r8, r9, sl, fp, sp}^
 3d8:	2f2e0073 	svccs	0x002e0073
 3dc:	69736d63 	ldmdbvs	r3!, {r0, r1, r5, r6, r8, sl, fp, sp, lr}^
 3e0:	4b4d2f73 	blmi	134c1b4 <__exidx_end+0x1349e9c>
 3e4:	31463436 	cmpcc	r6, r6, lsr r4
 3e8:	6d630032 	stclvs	0, cr0, [r3, #-200]!	; 0xffffff38
 3ec:	00736973 	rsbseq	r6, r3, r3, ror r9
 3f0:	72617500 	rsbvc	r7, r1, #0, 10
 3f4:	00632e74 	rsbeq	r2, r3, r4, ror lr
 3f8:	5f000000 	svcpl	0x00000000
 3fc:	61666564 	cmnvs	r6, r4, ror #10
 400:	5f746c75 	svcpl	0x00746c75
 404:	65707974 	ldrbvs	r7, [r0, #-2420]!	; 0xfffff68c
 408:	00682e73 	rsbeq	r2, r8, r3, ror lr
 40c:	5f000001 	svcpl	0x00000001
 410:	69647473 	stmdbvs	r4!, {r0, r1, r4, r5, r6, sl, ip, sp, lr}^
 414:	682e746e 	stmdavs	lr!, {r1, r2, r3, r5, r6, sl, ip, sp, lr}
 418:	00000200 	andeq	r0, r0, r0, lsl #4
 41c:	34364b4d 	ldrtcc	r4, [r6], #-2893	; 0xfffff4b3
 420:	2e323146 	rsfcssm	f3, f2, f6
 424:	00030068 	andeq	r0, r3, r8, rrx
 428:	72617500 	rsbvc	r7, r1, #0, 10
 42c:	00682e74 	rsbeq	r2, r8, r4, ror lr
 430:	63000000 	movwvs	r0, #0
 434:	5f65726f 	svcpl	0x0065726f
 438:	2e346d63 	cdpcs	13, 3, cr6, cr4, cr3, {3}
 43c:	00040068 	andeq	r0, r4, r8, rrx
 440:	73797300 	cmnvc	r9, #0, 6
 444:	5f6d6574 	svcpl	0x006d6574
 448:	34364b4d 	ldrtcc	r4, [r6], #-2893	; 0xfffff4b3
 44c:	2e323146 	rsfcssm	f3, f2, f6
 450:	00030068 	andeq	r0, r3, r8, rrx
 454:	05000000 	streq	r0, [r0, #-0]
 458:	00077c02 	andeq	r7, r7, r2, lsl #24
 45c:	010d0300 	mrseq	r0, SP_mon
 460:	2e790319 	mrccs	3, 3, r0, cr9, cr9, {0}
 464:	14032227 	strne	r2, [r3], #-551	; 0xfffffdd9
 468:	206c034a 	rsbcs	r0, ip, sl, asr #6
 46c:	225a684d 	subscs	r6, sl, #5046272	; 0x4d0000
 470:	03200b03 	teqeq	r0, #3072	; 0xc00
 474:	11032075 	tstne	r3, r5, ror r0
 478:	207a0320 	rsbscs	r0, sl, r0, lsr #6
 47c:	2121304e 	teqcs	r1, lr, asr #32
 480:	21212121 	teqcs	r1, r1, lsr #2
 484:	200a0321 	andcs	r0, sl, r1, lsr #6
 488:	000a0292 	muleq	sl, r2, r2
 48c:	05000101 	streq	r0, [r0, #-257]	; 0xfffffeff
 490:	0007f802 	andeq	pc, r7, r2, lsl #16
 494:	00e50300 	rsceq	r0, r5, r0, lsl #6
 498:	02001601 	andeq	r1, r0, #1048576	; 0x100000
 49c:	3e4c0104 	dvfcce	f0, f4, f4
 4a0:	01000202 	tsteq	r0, r2, lsl #4
 4a4:	02050001 	andeq	r0, r5, #1
 4a8:	0000080a 	andeq	r0, r0, sl, lsl #16
 4ac:	0100cd03 	tsteq	r0, r3, lsl #26
 4b0:	20090320 	andcs	r0, r9, r0, lsr #6
 4b4:	03207703 	teqeq	r0, #786432	; 0xc0000
 4b8:	3e22200b 	cdpcc	0, 2, cr2, cr2, cr11, {0}
 4bc:	00010241 	andeq	r0, r1, r1, asr #4
 4c0:	05000101 	streq	r0, [r0, #-257]	; 0xfffffeff
 4c4:	00000002 	andeq	r0, r0, r2
 4c8:	00f30300 	rscseq	r0, r3, r0, lsl #6
 4cc:	2c501901 	mrrccs	9, 0, r1, r0, cr1
 4d0:	01022734 	tsteq	r2, r4, lsr r7
 4d4:	27010100 	strcs	r0, [r1, -r0, lsl #2]
 4d8:	02000001 	andeq	r0, r0, #1
 4dc:	0000c400 	andeq	ip, r0, r0, lsl #8
 4e0:	fb010200 	blx	40cea <__exidx_end+0x3e9d2>
 4e4:	01000d0e 	tsteq	r0, lr, lsl #26
 4e8:	00010101 	andeq	r0, r1, r1, lsl #2
 4ec:	00010000 	andeq	r0, r1, r0
 4f0:	752f0100 	strvc	r0, [pc, #-256]!	; 3f8 <Heap_Size+0x2f8>
 4f4:	612f7273 	teqvs	pc, r3, ror r2	; <UNPREDICTABLE>
 4f8:	6e2d6d72 	mcrvs	13, 1, r6, cr13, cr2, {3}
 4fc:	2d656e6f 	stclcs	14, cr6, [r5, #-444]!	; 0xfffffe44
 500:	69626165 	stmdbvs	r2!, {r0, r2, r5, r6, r8, sp, lr}^
 504:	636e692f 	cmnvs	lr, #770048	; 0xbc000
 508:	6564756c 	strbvs	r7, [r4, #-1388]!	; 0xfffffa94
 50c:	63616d2f 	cmnvs	r1, #3008	; 0xbc0
 510:	656e6968 	strbvs	r6, [lr, #-2408]!	; 0xfffff698
 514:	73752f00 	cmnvc	r5, #0, 30
 518:	72612f72 	rsbvc	r2, r1, #456	; 0x1c8
 51c:	6f6e2d6d 	svcvs	0x006e2d6d
 520:	652d656e 	strvs	r6, [sp, #-1390]!	; 0xfffffa92
 524:	2f696261 	svccs	0x00696261
 528:	6c636e69 	stclvs	14, cr6, [r3], #-420	; 0xfffffe5c
 52c:	2f656475 	svccs	0x00656475
 530:	00737973 	rsbseq	r7, r3, r3, ror r9
 534:	6d632f2e 	stclvs	15, cr2, [r3, #-184]!	; 0xffffff48
 538:	2f736973 	svccs	0x00736973
 53c:	34364b4d 	ldrtcc	r4, [r6], #-2893	; 0xfffff4b3
 540:	00323146 	eorseq	r3, r2, r6, asr #2
 544:	69736d63 	ldmdbvs	r3!, {r0, r1, r5, r6, r8, sl, fp, sp, lr}^
 548:	70000073 	andvc	r0, r0, r3, ror r0
 54c:	632e6d77 	teqvs	lr, #7616	; 0x1dc0
 550:	00000000 	andeq	r0, r0, r0
 554:	6665645f 			; <UNDEFINED> instruction: 0x6665645f
 558:	746c7561 	strbtvc	r7, [ip], #-1377	; 0xfffffa9f
 55c:	7079745f 	rsbsvc	r7, r9, pc, asr r4
 560:	682e7365 	stmdavs	lr!, {r0, r2, r5, r6, r8, r9, ip, sp, lr}
 564:	00000100 	andeq	r0, r0, r0, lsl #2
 568:	6474735f 	ldrbtvs	r7, [r4], #-863	; 0xfffffca1
 56c:	2e746e69 	cdpcs	14, 7, cr6, cr4, cr9, {3}
 570:	00020068 	andeq	r0, r2, r8, rrx
 574:	364b4d00 	strbcc	r4, [fp], -r0, lsl #26
 578:	32314634 	eorscc	r4, r1, #52, 12	; 0x3400000
 57c:	0300682e 	movweq	r6, #2094	; 0x82e
 580:	6f630000 	svcvs	0x00630000
 584:	635f6572 	cmpvs	pc, #478150656	; 0x1c800000
 588:	682e346d 	stmdavs	lr!, {r0, r2, r3, r5, r6, sl, ip, sp}
 58c:	00000400 	andeq	r0, r0, r0, lsl #8
 590:	74737973 	ldrbtvc	r7, [r3], #-2419	; 0xfffff68d
 594:	4d5f6d65 	ldclmi	13, cr6, [pc, #-404]	; 408 <kinetis_flash_config+0x8>
 598:	4634364b 	ldrtmi	r3, [r4], -fp, asr #12
 59c:	682e3231 	stmdavs	lr!, {r0, r4, r5, r9, ip, sp}
 5a0:	00000300 	andeq	r0, r0, r0, lsl #6
 5a4:	02050000 	andeq	r0, r5, #0
 5a8:	00000000 	andeq	r0, r0, r0
 5ac:	15012403 	strne	r2, [r1, #-1027]	; 0xfffffbfd
 5b0:	229f1f21 	addscs	r1, pc, #33, 30	; 0x84
 5b4:	01000d02 	tsteq	r0, r2, lsl #26
 5b8:	02050001 	andeq	r0, r5, #1
 5bc:	00000824 	andeq	r0, r0, r4, lsr #16
 5c0:	25013403 	strcs	r3, [r1, #-1027]	; 0xfffffbfd
 5c4:	1c326d76 	ldcne	13, cr6, [r2], #-472	; 0xfffffe28
 5c8:	200c0340 	andcs	r0, ip, r0, asr #6
 5cc:	41207403 	teqmi	r0, r3, lsl #8
 5d0:	21692332 	cmncs	r9, r2, lsr r3
 5d4:	02002f2d 	andeq	r2, r0, #45, 30	; 0xb4
 5d8:	51480204 	cmppl	r8, r4, lsl #4
 5dc:	2d213321 	stccs	3, cr3, [r1, #-132]!	; 0xffffff7c
 5e0:	7a034221 	bvc	d0e6c <__exidx_end+0xceb54>
 5e4:	343f2620 	ldrtcc	r2, [pc], #-1568	; 5ec <PIT1_IRQHandler+0x10>
 5e8:	0c024e4c 	stceq	14, cr4, [r2], {76}	; 0x4c
 5ec:	00010100 	andeq	r0, r1, r0, lsl #2
 5f0:	08cc0205 	stmiaeq	ip, {r0, r2, r9}^
 5f4:	fc030000 	stc2	0, cr0, [r3], {-0}
 5f8:	5c140100 	ldfpls	f0, [r4], {-0}
 5fc:	000a023e 	andeq	r0, sl, lr, lsr r2
 600:	01fd0101 	mvnseq	r0, r1, lsl #2
 604:	00020000 	andeq	r0, r2, r0
 608:	00000107 	andeq	r0, r0, r7, lsl #2
 60c:	0efb0102 	cdpeq	1, 15, cr0, cr11, cr2, {0}
 610:	0101000d 	tsteq	r1, sp
 614:	00000101 	andeq	r0, r0, r1, lsl #2
 618:	00000100 	andeq	r0, r0, r0, lsl #2
 61c:	73752f01 	cmnvc	r5, #1, 30
 620:	72612f72 	rsbvc	r2, r1, #456	; 0x1c8
 624:	6f6e2d6d 	svcvs	0x006e2d6d
 628:	652d656e 	strvs	r6, [sp, #-1390]!	; 0xfffffa92
 62c:	2f696261 	svccs	0x00696261
 630:	6c636e69 	stclvs	14, cr6, [r3], #-420	; 0xfffffe5c
 634:	2f656475 	svccs	0x00656475
 638:	6863616d 	stmdavs	r3!, {r0, r2, r3, r5, r6, r8, sp, lr}^
 63c:	00656e69 	rsbeq	r6, r5, r9, ror #28
 640:	7273752f 	rsbsvc	r7, r3, #197132288	; 0xbc00000
 644:	6d72612f 	ldfvse	f6, [r2, #-188]!	; 0xffffff44
 648:	6e6f6e2d 	cdpvs	14, 6, cr6, cr15, cr13, {1}
 64c:	61652d65 	cmnvs	r5, r5, ror #26
 650:	692f6962 	stmdbvs	pc!, {r1, r5, r6, r8, fp, sp, lr}	; <UNPREDICTABLE>
 654:	756c636e 	strbvc	r6, [ip, #-878]!	; 0xfffffc92
 658:	732f6564 	teqvc	pc, #100, 10	; 0x19000000
 65c:	2e007379 	mcrcs	3, 0, r7, cr0, cr9, {3}
 660:	736d632f 	cmnvc	sp, #-1140850688	; 0xbc000000
 664:	4d2f7369 	stcmi	3, cr7, [pc, #-420]!	; 4c8 <_mainCRTStartup+0x5c>
 668:	4634364b 	ldrtmi	r3, [r4], -fp, asr #12
 66c:	63003231 	movwvs	r3, #561	; 0x231
 670:	7369736d 	cmnvc	r9, #-1275068415	; 0xb4000001
 674:	73752f00 	cmnvc	r5, #0, 30
 678:	72612f72 	rsbvc	r2, r1, #456	; 0x1c8
 67c:	6f6e2d6d 	svcvs	0x006e2d6d
 680:	652d656e 	strvs	r6, [sp, #-1390]!	; 0xfffffa92
 684:	2f696261 	svccs	0x00696261
 688:	6c636e69 	stclvs	14, cr6, [r3], #-420	; 0xfffffe5c
 68c:	00656475 	rsbeq	r6, r5, r5, ror r4
 690:	69616d00 	stmdbvs	r1!, {r8, sl, fp, sp, lr}^
 694:	00632e6e 	rsbeq	r2, r3, lr, ror #28
 698:	5f000000 	svcpl	0x00000000
 69c:	61666564 	cmnvs	r6, r4, ror #10
 6a0:	5f746c75 	svcpl	0x00746c75
 6a4:	65707974 	ldrbvs	r7, [r0, #-2420]!	; 0xfffff68c
 6a8:	00682e73 	rsbeq	r2, r8, r3, ror lr
 6ac:	5f000001 	svcpl	0x00000001
 6b0:	69647473 	stmdbvs	r4!, {r0, r1, r4, r5, r6, sl, ip, sp, lr}^
 6b4:	682e746e 	stmdavs	lr!, {r1, r2, r3, r5, r6, sl, ip, sp, lr}
 6b8:	00000200 	andeq	r0, r0, r0, lsl #4
 6bc:	34364b4d 	ldrtcc	r4, [r6], #-2893	; 0xfffff4b3
 6c0:	2e323146 	rsfcssm	f3, f2, f6
 6c4:	00030068 	andeq	r0, r3, r8, rrx
 6c8:	72617500 	rsbvc	r7, r1, #0, 10
 6cc:	00682e74 	rsbeq	r2, r8, r4, ror lr
 6d0:	50000000 	andpl	r0, r0, r0
 6d4:	682e4449 	stmdavs	lr!, {r0, r3, r6, sl, lr}
 6d8:	00000000 	andeq	r0, r0, r0
 6dc:	65726f63 	ldrbvs	r6, [r2, #-3939]!	; 0xfffff09d
 6e0:	346d635f 	strbtcc	r6, [sp], #-863	; 0xfffffca1
 6e4:	0400682e 	streq	r6, [r0], #-2094	; 0xfffff7d2
 6e8:	79730000 	ldmdbvc	r3!, {}^	; <UNPREDICTABLE>
 6ec:	6d657473 	cfstrdvs	mvd7, [r5, #-460]!	; 0xfffffe34
 6f0:	364b4d5f 			; <UNDEFINED> instruction: 0x364b4d5f
 6f4:	32314634 	eorscc	r4, r1, #52, 12	; 0x3400000
 6f8:	0300682e 	movweq	r6, #2094	; 0x82e
 6fc:	64610000 	strbtvs	r0, [r1], #-0
 700:	00682e63 	rsbeq	r2, r8, r3, ror #28
 704:	73000000 	movwvc	r0, #0
 708:	6f696474 	svcvs	0x00696474
 70c:	0500682e 	streq	r6, [r0, #-2094]	; 0xfffff7d2
 710:	00000000 	andeq	r0, r0, r0
 714:	08f00205 	ldmeq	r0!, {r0, r2, r9}^
 718:	1a030000 	bne	c0720 <__exidx_end+0xbe408>
 71c:	322a3201 	eorcc	r3, sl, #268435456	; 0x10000000
 720:	740a032f 	strvc	r0, [sl], #-815	; 0xfffffcd1
 724:	2e160350 	mrccs	3, 0, r0, cr6, cr0, {2}
 728:	032e5a03 	teqeq	lr, #12288	; 0x3000
 72c:	033c080a 	teqeq	ip, #655360	; 0xa0000
 730:	83212e76 	teqhi	r1, #1888	; 0x760
 734:	08344b4b 	ldmdaeq	r4!, {r0, r1, r3, r6, r8, r9, fp, lr}
 738:	e8250818 	stmda	r5!, {r3, r4, fp}
 73c:	03311b21 	teqeq	r1, #33792	; 0x8400
 740:	7303200e 	movwvc	r2, #12302	; 0x300e
 744:	1f312d2e 	svcne	0x00312d2e
 748:	200b0321 	andcs	r0, fp, r1, lsr #6
 74c:	2f301e5b 	svccs	0x00301e5b
 750:	69231d69 	stmdbvs	r3!, {r0, r3, r5, r6, r8, sl, fp, ip}
 754:	692f301e 	stmdbvs	pc!, {r1, r2, r3, r4, ip, sp}	; <UNPREDICTABLE>
 758:	1e69232b 	cdpne	3, 6, cr2, cr9, cr11, {1}
 75c:	1d692f30 	stclne	15, cr2, [r9, #-192]!	; 0xffffff40
 760:	301e6923 	andscc	r6, lr, r3, lsr #18
 764:	231d692f 	tstcs	sp, #770048	; 0xbc000
 768:	2f301e69 	svccs	0x00301e69
 76c:	69242a6a 	stmdbvs	r4!, {r1, r3, r5, r6, r9, fp, sp}
 770:	6a2f301e 	bvs	bcc7f0 <__exidx_end+0xbca4d8>
 774:	1e69241c 	mcrne	4, 3, r2, cr9, cr12, {0}
 778:	1d692f30 	stclne	15, cr2, [r9, #-192]!	; 0xffffff40
 77c:	301e6923 	andscc	r6, lr, r3, lsr #18
 780:	242a6a2f 	strtcs	r6, [sl], #-2607	; 0xfffff5d1
 784:	2f301e69 	svccs	0x00301e69
 788:	312e1c03 	teqcc	lr, r3, lsl #24
 78c:	03206103 	teqeq	r0, #-1073741824	; 0xc0000000
 790:	69034a17 	stmdbvs	r3, {r0, r1, r2, r4, r9, fp, lr}
 794:	2017033c 	andscs	r0, r7, ip, lsr r3
 798:	3e081e30 	mcrcc	14, 0, r1, cr8, cr0, {1}
 79c:	0083212c 	addeq	r2, r3, ip, lsr #2
 7a0:	30010402 	andcc	r0, r1, r2, lsl #8
 7a4:	01040200 	mrseq	r0, R12_usr
 7a8:	0402004b 	streq	r0, [r2], #-75	; 0xffffffb5
 7ac:	005b0801 	subseq	r0, fp, r1, lsl #16
 7b0:	02010402 	andeq	r0, r1, #33554432	; 0x2000000
 7b4:	0200133c 	andeq	r1, r0, #60, 6	; 0xf0000000
 7b8:	004b0104 	subeq	r0, fp, r4, lsl #2
 7bc:	4b010402 	blmi	417cc <__exidx_end+0x3f4b4>
 7c0:	01000502 	tsteq	r0, r2, lsl #10
 7c4:	02050001 	andeq	r0, r5, #1
 7c8:	00000000 	andeq	r0, r0, r0
 7cc:	0101aa03 	tsteq	r1, r3, lsl #20
 7d0:	08212f21 	stmdaeq	r1!, {r0, r5, r8, r9, sl, fp, sp}
 7d4:	1f317113 	svcne	0x00317113
 7d8:	01040200 	mrseq	r0, R12_usr
 7dc:	08752f2f 	ldmdaeq	r5!, {r0, r1, r2, r3, r5, r8, r9, sl, fp, sp}^
 7e0:	02008121 	andeq	r8, r0, #1073741832	; 0x40000008
 7e4:	2f2f0104 	svccs	0x002f0104
 7e8:	67211f75 			; <UNDEFINED> instruction: 0x67211f75
 7ec:	24023d2f 	strcs	r3, [r2], #-3375	; 0xfffff2d1
 7f0:	00010100 	andeq	r0, r1, r0, lsl #2
 7f4:	00000205 	andeq	r0, r0, r5, lsl #4
 7f8:	cb030000 	blgt	c0800 <__exidx_end+0xbe4e8>
 7fc:	01020101 	tsteq	r2, r1, lsl #2
 800:	5c010100 	stfpls	f0, [r1], {-0}
 804:	02000001 	andeq	r0, r0, #1
 808:	0000c100 	andeq	ip, r0, r0, lsl #2
 80c:	fb010200 	blx	41016 <__exidx_end+0x3ecfe>
 810:	01000d0e 	tsteq	r0, lr, lsl #26
 814:	00010101 	andeq	r0, r1, r1, lsl #2
 818:	00010000 	andeq	r0, r1, r0
 81c:	6d630100 	stfvse	f0, [r3, #-0]
 820:	00736973 	rsbseq	r6, r3, r3, ror r9
 824:	7273752f 	rsbsvc	r7, r3, #197132288	; 0xbc00000
 828:	6d72612f 	ldfvse	f6, [r2, #-188]!	; 0xffffff44
 82c:	6e6f6e2d 	cdpvs	14, 6, cr6, cr15, cr13, {1}
 830:	61652d65 	cmnvs	r5, r5, ror #26
 834:	692f6962 	stmdbvs	pc!, {r1, r5, r6, r8, fp, sp, lr}	; <UNPREDICTABLE>
 838:	756c636e 	strbvc	r6, [ip, #-878]!	; 0xfffffc92
 83c:	6d2f6564 	cfstr32vs	mvfx6, [pc, #-400]!	; 6b4 <PIDUpdate+0x44>
 840:	69686361 	stmdbvs	r8!, {r0, r5, r6, r8, r9, sp, lr}^
 844:	2f00656e 	svccs	0x0000656e
 848:	2f727375 	svccs	0x00727375
 84c:	2d6d7261 	sfmcs	f7, 2, [sp, #-388]!	; 0xfffffe7c
 850:	656e6f6e 	strbvs	r6, [lr, #-3950]!	; 0xfffff092
 854:	6261652d 	rsbvs	r6, r1, #188743680	; 0xb400000
 858:	6e692f69 	cdpvs	15, 6, cr2, cr9, cr9, {3}
 85c:	64756c63 	ldrbtvs	r6, [r5], #-3171	; 0xfffff39d
 860:	79732f65 	ldmdbvc	r3!, {r0, r2, r5, r6, r8, r9, sl, fp, sp}^
 864:	2f2e0073 	svccs	0x002e0073
 868:	69736d63 	ldmdbvs	r3!, {r0, r1, r5, r6, r8, sl, fp, sp, lr}^
 86c:	4b4d2f73 	blmi	134c640 <__exidx_end+0x134a328>
 870:	31463436 	cmpcc	r6, r6, lsr r4
 874:	61000032 	tstvs	r0, r2, lsr r0
 878:	632e6364 	teqvs	lr, #100, 6	; 0x90000001
 87c:	00000000 	andeq	r0, r0, r0
 880:	65726f63 	ldrbvs	r6, [r2, #-3939]!	; 0xfffff09d
 884:	346d635f 	strbtcc	r6, [sp], #-863	; 0xfffffca1
 888:	0100682e 	tsteq	r0, lr, lsr #16
 88c:	6f630000 	svcvs	0x00630000
 890:	635f6572 	cmpvs	pc, #478150656	; 0x1c800000
 894:	6e75466d 	cdpvs	6, 7, cr4, cr5, cr13, {3}
 898:	00682e63 	rsbeq	r2, r8, r3, ror #28
 89c:	5f000001 	svcpl	0x00000001
 8a0:	61666564 	cmnvs	r6, r4, ror #10
 8a4:	5f746c75 	svcpl	0x00746c75
 8a8:	65707974 	ldrbvs	r7, [r0, #-2420]!	; 0xfffff68c
 8ac:	00682e73 	rsbeq	r2, r8, r3, ror lr
 8b0:	5f000002 	svcpl	0x00000002
 8b4:	69647473 	stmdbvs	r4!, {r0, r1, r4, r5, r6, sl, ip, sp, lr}^
 8b8:	682e746e 	stmdavs	lr!, {r1, r2, r3, r5, r6, sl, ip, sp, lr}
 8bc:	00000300 	andeq	r0, r0, r0, lsl #6
 8c0:	34364b4d 	ldrtcc	r4, [r6], #-2893	; 0xfffff4b3
 8c4:	2e323146 	rsfcssm	f3, f2, f6
 8c8:	00040068 	andeq	r0, r4, r8, rrx
 8cc:	05000000 	streq	r0, [r0, #-0]
 8d0:	00000002 	andeq	r0, r0, r2
 8d4:	01190300 	tsteq	r9, r0, lsl #6
 8d8:	024b7514 	subeq	r7, fp, #20, 10	; 0x5000000
 8dc:	01010009 	tsteq	r1, r9
 8e0:	00020500 	andeq	r0, r2, r0, lsl #10
 8e4:	03000000 	movweq	r0, #0
 8e8:	76140120 	ldrvc	r0, [r4], -r0, lsr #2
 8ec:	08023d4c 	stmdaeq	r2, {r2, r3, r6, r8, sl, fp, ip, sp}
 8f0:	00010100 	andeq	r0, r1, r0, lsl #2
 8f4:	0c640205 	sfmeq	f0, 2, [r4], #-20	; 0xffffffec
 8f8:	2a030000 	bcs	c0900 <__exidx_end+0xbe5e8>
 8fc:	1e3e2401 	cdpne	4, 3, cr2, cr14, cr1, {0}
 900:	0040344c 	subeq	r3, r0, ip, asr #8
 904:	3d010402 	cfstrscc	mvf0, [r1, #-8]
 908:	2f2f2159 	svccs	0x002f2159
 90c:	212f2f2f 	teqcs	pc, pc, lsr #30
 910:	2f21212f 	svccs	0x0021212f
 914:	2f2f2f2f 	svccs	0x002f2f2f
 918:	0c032f21 	stceq	15, cr2, [r3], {33}	; 0x21
 91c:	02042220 	andeq	r2, r4, #32, 4
 920:	4a0ae203 	bmi	2b9134 <__exidx_end+0x2b6e1c>
 924:	8d030304 	stchi	3, cr0, [r3, #-16]
 928:	0d024a77 	vstreq	s8, [r2, #-476]	; 0xfffffe24
 92c:	00010100 	andeq	r0, r1, r0, lsl #2
 930:	0cf80205 	lfmeq	f0, 2, [r8], #20
 934:	e2030000 	and	r0, r3, #0
 938:	03040100 	movweq	r0, #16640	; 0x4100
 93c:	2001f303 	andcs	pc, r1, r3, lsl #6
 940:	90030104 	andls	r0, r3, r4, lsl #2
 944:	0200207e 	andeq	r2, r0, #126	; 0x7e
 948:	66060104 	strvs	r0, [r6], -r4, lsl #2
 94c:	4d2f3d06 	stcmi	13, cr3, [pc, #-24]!	; 93c <main+0x4c>
 950:	03030491 	movweq	r0, #13457	; 0x3491
 954:	043c01df 	ldrteq	r0, [ip], #-479	; 0xfffffe21
 958:	7ea30301 	cdpvc	3, 10, cr0, cr3, cr1, {0}
 95c:	0b023d20 	bleq	8fde4 <__exidx_end+0x8dacc>
 960:	71010100 	mrsvc	r0, (UNDEF: 17)
 964:	02000000 	andeq	r0, r0, #0
 968:	00003800 	andeq	r3, r0, r0, lsl #16
 96c:	fb010200 	blx	41176 <__exidx_end+0x3ee5e>
 970:	01000d0e 	tsteq	r0, lr, lsl #26
 974:	00010101 	andeq	r0, r1, r1, lsl #2
 978:	00010000 	andeq	r0, r1, r0
 97c:	2f2e0100 	svccs	0x002e0100
 980:	69736d63 	ldmdbvs	r3!, {r0, r1, r5, r6, r8, sl, fp, sp, lr}^
 984:	4b4d2f73 	blmi	134c758 <__exidx_end+0x134a440>
 988:	31463436 	cmpcc	r6, r6, lsr r4
 98c:	73000032 	movwvc	r0, #50	; 0x32
 990:	74726174 	ldrbtvc	r6, [r2], #-372	; 0xfffffe8c
 994:	4d5f7075 	ldclmi	0, cr7, [pc, #-468]	; 7c8 <uartInit+0x4c>
 998:	4634364b 	ldrtmi	r3, [r4], -fp, asr #12
 99c:	732e3231 	teqvc	lr, #268435459	; 0x10000003
 9a0:	00000100 	andeq	r0, r0, r0, lsl #2
 9a4:	02050000 	andeq	r0, r5, #0
 9a8:	00000d50 	andeq	r0, r0, r0, asr sp
 9ac:	0101c903 	tsteq	r1, r3, lsl #18
 9b0:	0d032121 	stfeqs	f2, [r3, #-132]	; 0xffffff7c
 9b4:	21222120 	teqcs	r2, r0, lsr #2
 9b8:	21242121 	teqcs	r4, r1, lsr #2
 9bc:	64032121 	strvs	r2, [r3], #-289	; 0xfffffedf
 9c0:	032f2f2e 	teqeq	pc, #46, 30	; 0xb8
 9c4:	03302e17 	teqeq	r0, #368	; 0x170
 9c8:	2f2f2e16 	svccs	0x002f2e16
 9cc:	2f2f2f2f 	svccs	0x002f2f2f
 9d0:	022f2f2f 	eoreq	r2, pc, #47, 30	; 0xbc
 9d4:	01010002 	tsteq	r1, r2

Disassembly of section .debug_str:

00000000 <.debug_str>:
   0:	54504f53 	ldrbpl	r4, [r0], #-3923	; 0xfffff0ad
   4:	43460035 	movtmi	r0, #24629	; 0x6035
   8:	00314746 	eorseq	r4, r1, r6, asr #14
   c:	47464346 	strbmi	r4, [r6, -r6, asr #6]
  10:	4d540032 	ldclmi	0, cr0, [r4, #-200]	; 0xffffff38
  14:	54554f52 	ldrbpl	r4, [r5], #-3922	; 0xfffff0ae
  18:	2f2e004c 	svccs	0x002e004c
  1c:	69736d63 	ldmdbvs	r3!, {r0, r1, r5, r6, r8, sl, fp, sp, lr}^
  20:	4b4d2f73 	blmi	134bdf4 <__exidx_end+0x1349adc>
  24:	31463436 	cmpcc	r6, r6, lsr r4
  28:	79732f32 	ldmdbvc	r3!, {r1, r4, r5, r8, r9, sl, fp, sp}^
  2c:	6d657473 	cfstrdvs	mvd7, [r5, #-460]!	; 0xfffffe34
  30:	364b4d5f 			; <UNDEFINED> instruction: 0x364b4d5f
  34:	32314634 	eorscc	r4, r1, #52, 12	; 0x3400000
  38:	5000632e 	andpl	r6, r0, lr, lsr #6
  3c:	43534552 	cmpmi	r3, #343932928	; 0x14800000
  40:	49445300 	stmdbmi	r4, {r8, r9, ip, lr}^
  44:	4f530044 	svcmi	0x00530044
  48:	43315450 	teqmi	r1, #80, 8	; 0x50000000
  4c:	41004746 	tstmi	r0, r6, asr #14
  50:	48564354 	ldmdami	r6, {r2, r4, r6, r8, r9, lr}^
  54:	7a697300 	bvc	1a5cc5c <__exidx_end+0x1a5a944>
  58:	70797465 	rsbsvc	r7, r9, r5, ror #8
  5c:	79530065 	ldmdbvc	r3, {r0, r2, r5, r6}^
  60:	6d657473 	cfstrdvs	mvd7, [r5, #-460]!	; 0xfffffe34
  64:	65726f43 	ldrbvs	r6, [r2, #-3907]!	; 0xfffff0bd
  68:	636f6c43 	cmnvs	pc, #17152	; 0x4300
  6c:	6470556b 	ldrbtvs	r5, [r0], #-1387	; 0xfffffa95
  70:	00657461 	rsbeq	r7, r5, r1, ror #8
  74:	53474552 	movtpl	r4, #30034	; 0x7552
  78:	5f5f0043 	svcpl	0x005f0043
  7c:	746e6975 	strbtvc	r6, [lr], #-2421	; 0xfffff68b
  80:	745f3233 	ldrbvc	r3, [pc], #-563	; 88 <__isr_vector+0x88>
  84:	524d5400 	subpl	r5, sp, #0, 8
  88:	4854554f 	ldmdami	r4, {r0, r1, r2, r3, r6, r8, sl, ip, lr}^
  8c:	4d495300 	stclmi	3, cr5, [r9, #-0]
  90:	7079545f 	rsbsvc	r5, r9, pc, asr r4
  94:	5f5f0065 	svcpl	0x005f0065
  98:	746e6975 	strbtvc	r6, [lr], #-2421	; 0xfffff68b
  9c:	745f3631 	ldrbvc	r3, [pc], #-1585	; a4 <__isr_vector+0xa4>
  a0:	44495500 	strbmi	r5, [r9], #-1280	; 0xfffffb00
  a4:	68730048 	ldmdavs	r3!, {r3, r6}^
  a8:	2074726f 	rsbscs	r7, r4, pc, ror #4
  ac:	00746e69 	rsbseq	r6, r4, r9, ror #28
  b0:	4c444955 	mcrrmi	9, 5, r4, r4, cr5
  b4:	564f5400 	strbpl	r5, [pc], -r0, lsl #8
  b8:	00484c41 	subeq	r4, r8, r1, asr #24
  bc:	20554e47 	subscs	r4, r5, r7, asr #28
  c0:	20393943 	eorscs	r3, r9, r3, asr #18
  c4:	2e322e35 	mrccs	14, 1, r2, cr2, cr5, {1}
  c8:	6d2d2030 	stcvs	0, cr2, [sp, #-192]!	; 0xffffff40
  cc:	6d756874 	ldclvs	8, cr6, [r5, #-464]!	; 0xfffffe30
  d0:	6d2d2062 	stcvs	0, cr2, [sp, #-392]!	; 0xfffffe78
  d4:	3d757063 	ldclcc	0, cr7, [r5, #-396]!	; 0xfffffe74
  d8:	74726f63 	ldrbtvc	r6, [r2], #-3939	; 0xfffff09d
  dc:	6d2d7865 	stcvs	8, cr7, [sp, #-404]!	; 0xfffffe6c
  e0:	672d2034 			; <UNDEFINED> instruction: 0x672d2034
  e4:	67672d20 	strbvs	r2, [r7, -r0, lsr #26]!
  e8:	2d206264 	sfmcs	f6, 4, [r0, #-400]!	; 0xfffffe70
  ec:	2d20734f 	stccs	3, cr7, [r0, #-316]!	; 0xfffffec4
  f0:	3d647473 	cfstrdcc	mvd7, [r4, #-460]!	; 0xfffffe34
  f4:	39756e67 	ldmdbcc	r5!, {r0, r1, r2, r5, r6, r9, sl, fp, sp, lr}^
  f8:	662d2039 			; <UNDEFINED> instruction: 0x662d2039
  fc:	732d6f6e 	teqvc	sp, #440	; 0x1b8
 100:	63697274 	cmnvs	r9, #116, 4	; 0x40000007
 104:	6c612d74 	stclvs	13, cr2, [r1], #-464	; 0xfffffe30
 108:	69736169 	ldmdbvs	r3!, {r0, r3, r5, r6, r8, sp, lr}^
 10c:	2d20676e 	stccs	7, cr6, [r0, #-440]!	; 0xfffffe48
 110:	6e756666 	cdpvs	6, 7, cr6, cr5, cr6, {3}
 114:	6f697463 	svcvs	0x00697463
 118:	65732d6e 	ldrbvs	r2, [r3, #-3438]!	; 0xfffff292
 11c:	6f697463 	svcvs	0x00697463
 120:	2d20736e 	stccs	3, cr7, [r0, #-440]!	; 0xfffffe48
 124:	74616466 	strbtvc	r6, [r1], #-1126	; 0xfffffb9a
 128:	65732d61 	ldrbvs	r2, [r3, #-3425]!	; 0xfffff29f
 12c:	6f697463 	svcvs	0x00697463
 130:	2d20736e 	stccs	3, cr7, [r0, #-440]!	; 0xfffffe48
 134:	2d6f6e66 	stclcs	14, cr6, [pc, #-408]!	; ffffffa4 <__StackTop+0xdffcffa4>
 138:	65637865 	strbvs	r7, [r3, #-2149]!	; 0xfffff79b
 13c:	6f697470 	svcvs	0x00697470
 140:	2d20736e 	stccs	3, cr7, [r0, #-440]!	; 0xfffffe48
 144:	2d6f6e66 	stclcs	14, cr6, [pc, #-408]!	; ffffffb4 <__StackTop+0xdffcffb4>
 148:	656c6564 	strbvs	r6, [ip, #-1380]!	; 0xfffffa9c
 14c:	6e2d6574 	mcrvs	5, 1, r6, cr13, cr4, {3}
 150:	2d6c6c75 	stclcs	12, cr6, [ip, #-468]!	; 0xfffffe2c
 154:	6e696f70 	mcrvs	15, 3, r6, cr9, cr0, {3}
 158:	2d726574 	cfldr64cs	mvdx6, [r2, #-464]!	; 0xfffffe30
 15c:	63656863 	cmnvs	r5, #6488064	; 0x630000
 160:	2d20736b 	stccs	3, cr7, [r0, #-428]!	; 0xfffffe54
 164:	73656d66 	cmnvc	r5, #6528	; 0x1980
 168:	65676173 	strbvs	r6, [r7, #-371]!	; 0xfffffe8d
 16c:	6e656c2d 	cdpvs	12, 6, cr6, cr5, cr13, {1}
 170:	3d687467 	cfstrdcc	mvd7, [r8, #-412]!	; 0xfffffe64
 174:	662d2030 			; <UNDEFINED> instruction: 0x662d2030
 178:	622d6f6e 	eorvs	r6, sp, #440	; 0x1b8
 17c:	746c6975 	strbtvc	r6, [ip], #-2421	; 0xfffff68b
 180:	54006e69 	strpl	r6, [r0], #-3689	; 0xfffff197
 184:	4c41564f 	mcrrmi	6, 4, r5, r1, cr15
 188:	5453004c 	ldrbpl	r0, [r3], #-76	; 0xffffffb4
 18c:	4c525443 	cfldrdmi	mvd5, [r2], {67}	; 0x43
 190:	6f6c0048 	svcvs	0x006c0048
 194:	6c20676e 	stcvs	7, cr6, [r0], #-440	; 0xfffffe48
 198:	20676e6f 	rsbcs	r6, r7, pc, ror #28
 19c:	00746e69 	rsbseq	r6, r4, r9, ror #28
 1a0:	4f4c4e55 	svcmi	0x004c4e55
 1a4:	53004b43 	movwpl	r4, #2883	; 0xb43
 1a8:	31434743 	cmpcc	r3, r3, asr #14
 1ac:	47435300 	strbmi	r5, [r3, -r0, lsl #6]
 1b0:	53003243 	movwpl	r3, #579	; 0x243
 1b4:	33434743 	movtcc	r4, #14147	; 0x3743
 1b8:	47435300 	strbmi	r5, [r3, -r0, lsl #6]
 1bc:	53003443 	movwpl	r3, #1091	; 0x443
 1c0:	35434743 	strbcc	r4, [r3, #-1859]	; 0xfffff8bd
 1c4:	47435300 	strbmi	r5, [r3, -r0, lsl #6]
 1c8:	53003643 	movwpl	r3, #1603	; 0x643
 1cc:	37434743 	strbcc	r4, [r3, -r3, asr #14]
 1d0:	44495500 	strbmi	r5, [r9], #-1280	; 0xfffffb00
 1d4:	5700484d 	strpl	r4, [r0, -sp, asr #16]
 1d8:	5f474f44 	svcpl	0x00474f44
 1dc:	65707954 	ldrbvs	r7, [r0, #-2388]!	; 0xfffff6ac
 1e0:	43504700 	cmpmi	r0, #0, 14
 1e4:	53005248 	movwpl	r5, #584	; 0x248
 1e8:	3754504f 	ldrbcc	r5, [r4, -pc, asr #32]
 1ec:	4b4c4300 	blmi	1310df4 <__exidx_end+0x130eadc>
 1f0:	31564944 	cmpcc	r6, r4, asr #18
 1f4:	4b4c4300 	blmi	1310dfc <__exidx_end+0x130eae4>
 1f8:	32564944 	subscc	r4, r6, #68, 18	; 0x110000
 1fc:	736e7500 	cmnvc	lr, #0, 10
 200:	656e6769 	strbvs	r6, [lr, #-1897]!	; 0xfffff897
 204:	68632064 	stmdavs	r3!, {r2, r5, r6, sp}^
 208:	49007261 	stmdbmi	r0, {r0, r5, r6, r9, ip, sp, lr}
 20c:	00524653 	subseq	r4, r2, r3, asr r6
 210:	676e6f6c 	strbvs	r6, [lr, -ip, ror #30]!
 214:	6e6f6c20 	cdpvs	12, 6, cr6, cr15, cr0, {1}
 218:	6e752067 	cdpvs	0, 7, cr2, cr5, cr7, {3}
 21c:	6e676973 	mcrvs	9, 3, r6, cr7, cr3, {3}
 220:	69206465 	stmdbvs	r0!, {r0, r2, r5, r6, sl, sp, lr}
 224:	4700746e 	strmi	r7, [r0, -lr, ror #8]
 228:	524c4350 	subpl	r4, ip, #80, 6	; 0x40000001
 22c:	54535200 	ldrbpl	r5, [r3], #-512	; 0xfffffe00
 230:	00544e43 	subseq	r4, r4, r3, asr #28
 234:	5344564c 	movtpl	r5, #17996	; 0x464c
 238:	4c003143 	stfmis	f3, [r0], {67}	; 0x43
 23c:	43534456 	cmpmi	r3, #1442840576	; 0x56000000
 240:	46440032 			; <UNDEFINED> instruction: 0x46440032
 244:	53005243 	movwpl	r5, #579	; 0x243
 248:	65747379 	ldrbvs	r7, [r4, #-889]!	; 0xfffffc87
 24c:	696e496d 	stmdbvs	lr!, {r0, r2, r3, r5, r6, r8, fp, lr}^
 250:	68730074 	ldmdavs	r3!, {r2, r4, r5, r6}^
 254:	2074726f 	rsbscs	r7, r4, pc, ror #4
 258:	69736e75 	ldmdbvs	r3!, {r0, r2, r4, r5, r6, r9, sl, fp, sp, lr}^
 25c:	64656e67 	strbtvs	r6, [r5], #-3687	; 0xfffff199
 260:	746e6920 	strbtvc	r6, [lr], #-2336	; 0xfffff6e0
 264:	76694400 	strbtvc	r4, [r9], -r0, lsl #8
 268:	72656469 	rsbvc	r6, r5, #1761607680	; 0x69000000
 26c:	75722f00 	ldrbvc	r2, [r2, #-3840]!	; 0xfffff100
 270:	656d2f6e 	strbvs	r2, [sp, #-3950]!	; 0xfffff092
 274:	2f616964 	svccs	0x00616964
 278:	69726863 	ldmdbvs	r2!, {r0, r1, r5, r6, fp, sp, lr}^
 27c:	45432f73 	strbmi	r2, [r3, #-3955]	; 0xfffff08d
 280:	44373431 	ldrtmi	r3, [r7], #-1073	; 0xfffffbcf
 284:	34313142 	ldrtcc	r3, [r1], #-322	; 0xfffffebe
 288:	44394437 	ldrtmi	r4, [r9], #-1079	; 0xfffffbc9
 28c:	552f3136 	strpl	r3, [pc, #-310]!	; 15e <Heap_Size+0x5e>
 290:	73726573 	cmnvc	r2, #482344960	; 0x1cc00000
 294:	7268632f 	rsbvc	r6, r8, #-1140850688	; 0xbc000000
 298:	772f7369 	strvc	r7, [pc, -r9, ror #6]!
 29c:	736b726f 	cmnvc	fp, #-268435450	; 0xf0000006
 2a0:	65636170 	strbvs	r6, [r3, #-368]!	; 0xfffffe90
 2a4:	6469772f 	strbtvs	r7, [r9], #-1839	; 0xfffff8d1
 2a8:	6e616265 	cdpvs	2, 6, cr6, cr1, cr5, {3}
 2ac:	00326f64 	eorseq	r6, r2, r4, ror #30
 2b0:	5f47434d 	svcpl	0x0047434d
 2b4:	65707954 	ldrbvs	r7, [r0, #-2388]!	; 0xfffff6ac
 2b8:	504f5300 	subpl	r5, pc, r0, lsl #6
 2bc:	53003154 	movwpl	r3, #340	; 0x154
 2c0:	65747379 	ldrbvs	r7, [r4, #-889]!	; 0xfffffc87
 2c4:	726f436d 	rsbvc	r4, pc, #-1275068415	; 0xb4000001
 2c8:	6f6c4365 	svcvs	0x006c4365
 2cc:	53006b63 	movwpl	r6, #2915	; 0xb63
 2d0:	3254504f 	subscc	r5, r4, #79	; 0x4f
 2d4:	43534f00 	cmpmi	r3, #0, 30
 2d8:	7079545f 	rsbsvc	r5, r9, pc, asr r4
 2dc:	45520065 	ldrbmi	r0, [r2, #-101]	; 0xffffff9b
 2e0:	53455246 	movtpl	r5, #21062	; 0x5246
 2e4:	54530048 	ldrbpl	r0, [r3], #-72	; 0xffffffb8
 2e8:	4c525443 	cfldrdmi	mvd5, [r2], {67}	; 0x43
 2ec:	4644004c 	strbmi	r0, [r4], -ip, asr #32
 2f0:	55005257 	strpl	r5, [r0, #-599]	; 0xfffffda9
 2f4:	4c4d4449 	cfstrdmi	mvd4, [sp], {73}	; 0x49
 2f8:	53455200 	movtpl	r5, #20992	; 0x5200
 2fc:	45565245 	ldrbmi	r5, [r6, #-581]	; 0xfffffdbb
 300:	00305f44 	eorseq	r5, r0, r4, asr #30
 304:	45534552 	ldrbmi	r4, [r3, #-1362]	; 0xfffffaae
 308:	44455652 	strbmi	r5, [r5], #-1618	; 0xfffff9ae
 30c:	5200315f 	andpl	r3, r0, #-1073741801	; 0xc0000017
 310:	52455345 	subpl	r5, r5, #335544321	; 0x14000001
 314:	5f444556 	svcpl	0x00444556
 318:	45520032 	ldrbmi	r0, [r2, #-50]	; 0xffffffce
 31c:	56524553 			; <UNDEFINED> instruction: 0x56524553
 320:	335f4445 	cmpcc	pc, #1157627904	; 0x45000000
 324:	695f5f00 	ldmdbvs	pc, {r8, r9, sl, fp, ip, lr}^	; <UNPREDICTABLE>
 328:	3233746e 	eorscc	r7, r3, #1845493760	; 0x6e000000
 32c:	4100745f 	tstmi	r0, pc, asr r4
 330:	4c564354 	mrrcmi	3, 5, r4, r6, cr4
 334:	47434d00 	strbmi	r4, [r3, -r0, lsl #26]
 338:	4354554f 	cmpmi	r4, #331350016	; 0x13c00000
 33c:	6b636f6c 	blvs	18dc0f4 <__exidx_end+0x18d9ddc>
 340:	4e495700 	cdpmi	7, 4, cr5, cr9, cr0, {0}
 344:	4d500048 	ldclmi	0, cr0, [r0, #-288]	; 0xfffffee0
 348:	79545f43 	ldmdbvc	r4, {r0, r1, r6, r8, r9, sl, fp, ip, lr}^
 34c:	57006570 	smlsdxpl	r0, r0, r5, r6
 350:	004c4e49 	subeq	r4, ip, r9, asr #28
 354:	5f4d5449 	svcpl	0x004d5449
 358:	75427852 	strbvc	r7, [r2, #-2130]	; 0xfffff7ae
 35c:	72656666 	rsbvc	r6, r5, #106954752	; 0x6600000
 360:	45464400 	strbmi	r4, [r6, #-1024]	; 0xfffffc00
 364:	4f500052 	svcmi	0x00500052
 368:	545f5452 	ldrbpl	r5, [pc], #-1106	; 370 <Heap_Size+0x270>
 36c:	00657079 	rsbeq	r7, r5, r9, ror r0
 370:	69755f5f 	ldmdbvs	r5!, {r0, r1, r2, r3, r4, r6, r8, r9, sl, fp, ip, lr}^
 374:	5f38746e 	svcpl	0x0038746e
 378:	4f530074 	svcmi	0x00530074
 37c:	00345450 	eorseq	r5, r4, r0, asr r4
 380:	37414d44 	strbcc	r4, [r1, -r4, asr #26]
 384:	5152495f 	cmppl	r2, pc, asr r9
 388:	4349006e 	movtmi	r0, #36974	; 0x906e
 38c:	50005250 	andpl	r5, r0, r0, asr r2
 390:	5f315449 	svcpl	0x00315449
 394:	6e515249 	cdpvs	2, 5, cr5, cr1, cr9, {2}
 398:	43414400 	movtmi	r4, #5120	; 0x1400
 39c:	52495f31 	subpl	r5, r9, #49, 30	; 0xc4
 3a0:	53006e51 	movwpl	r6, #3665	; 0xe51
 3a4:	495f4957 	ldmdbmi	pc, {r0, r1, r2, r4, r6, r8, fp, lr}^	; <UNPREDICTABLE>
 3a8:	006e5152 	rsbeq	r5, lr, r2, asr r1
 3ac:	52495453 	subpl	r5, r9, #1392508928	; 0x53000000
 3b0:	73655200 	cmnvc	r5, #0, 4
 3b4:	65767265 	ldrbvs	r7, [r6, #-613]!	; 0xfffffd9b
 3b8:	5f313764 	svcpl	0x00313764
 3bc:	6e515249 	cdpvs	2, 5, cr5, cr1, cr9, {2}
 3c0:	414d4400 	cmpmi	sp, r0, lsl #8
 3c4:	495f3331 	ldmdbmi	pc, {r0, r4, r5, r8, r9, ip, sp}^	; <UNPREDICTABLE>
 3c8:	006e5152 	rsbeq	r5, lr, r2, asr r1
 3cc:	54524155 	ldrbpl	r4, [r2], #-341	; 0xfffffeab
 3d0:	58525f33 	ldmdapl	r2, {r0, r1, r4, r5, r8, r9, sl, fp, ip, lr}^
 3d4:	5f58545f 	svcpl	0x0058545f
 3d8:	6e515249 	cdpvs	2, 5, cr5, cr1, cr9, {2}
 3dc:	645f5f00 	ldrbvs	r5, [pc], #-3840	; 3e4 <Heap_Size+0x2e4>
 3e0:	62617369 	rsbvs	r7, r1, #-1543503871	; 0xa4000001
 3e4:	695f656c 	ldmdbvs	pc, {r2, r3, r5, r6, r8, sl, sp, lr}^	; <UNPREDICTABLE>
 3e8:	55007172 	strpl	r7, [r0, #-370]	; 0xfffffe8e
 3ec:	5f304253 	svcpl	0x00304253
 3f0:	6e515249 	cdpvs	2, 5, cr5, cr1, cr9, {2}
 3f4:	524f5000 	subpl	r5, pc, #0
 3f8:	495f4454 	ldmdbmi	pc, {r2, r4, r6, sl, lr}^	; <UNPREDICTABLE>
 3fc:	006e5152 	rsbeq	r5, lr, r2, asr r1
 400:	63746157 	cmnvs	r4, #-1073741803	; 0xc0000015
 404:	676f6468 	strbvs	r6, [pc, -r8, ror #8]!
 408:	5152495f 	cmppl	r2, pc, asr r9
 40c:	4143006e 	cmpmi	r3, lr, rrx
 410:	545f304e 	ldrbpl	r3, [pc], #-78	; 418 <__do_global_dtors_aux+0x8>
 414:	61575f78 	cmpvs	r7, r8, ror pc
 418:	6e696e72 	mcrvs	14, 3, r6, cr9, cr2, {3}
 41c:	52495f67 	subpl	r5, r9, #412	; 0x19c
 420:	49006e51 	stmdbmi	r0, {r0, r4, r6, r9, sl, fp, sp, lr}
 424:	00525053 	subseq	r5, r2, r3, asr r0
 428:	38414d44 	stmdacc	r1, {r2, r6, r8, sl, fp, lr}^
 42c:	5152495f 	cmppl	r2, pc, asr r9
 430:	3249006e 	subcc	r0, r9, #110	; 0x6e
 434:	495f3243 	ldmdbmi	pc, {r0, r1, r6, r9, ip, sp}^	; <UNPREDICTABLE>
 438:	006e5152 	rsbeq	r5, lr, r2, asr r1
 43c:	54524155 	ldrbpl	r4, [r2], #-341	; 0xfffffeab
 440:	52455f35 	subpl	r5, r5, #53, 30	; 0xd4
 444:	52495f52 	subpl	r5, r9, #328	; 0x148
 448:	43006e51 	movwmi	r6, #3665	; 0xe51
 44c:	495f544d 	ldmdbmi	pc, {r0, r2, r3, r6, sl, ip, lr}^	; <UNPREDICTABLE>
 450:	006e5152 	rsbeq	r5, lr, r2, asr r1
 454:	31414d44 	cmpcc	r1, r4, asr #26
 458:	52495f34 	subpl	r5, r9, #52, 30	; 0xd0
 45c:	46006e51 			; <UNDEFINED> instruction: 0x46006e51
 460:	5f304d54 	svcpl	0x00304d54
 464:	6e515249 	cdpvs	2, 5, cr5, cr1, cr9, {2}
 468:	524f5000 	subpl	r5, pc, #0
 46c:	495f4554 	ldmdbmi	pc, {r2, r4, r6, r8, sl, lr}^	; <UNPREDICTABLE>
 470:	006e5152 	rsbeq	r5, lr, r2, asr r1
 474:	33414d44 	movtcc	r4, #7492	; 0x1d44
 478:	5152495f 	cmppl	r2, pc, asr r9
 47c:	4e45006e 	cdpmi	0, 4, cr0, cr5, cr14, {3}
 480:	455f5445 	ldrbmi	r5, [pc, #-1093]	; 43 <__isr_vector+0x43>
 484:	726f7272 	rsbvc	r7, pc, #536870919	; 0x20000007
 488:	5152495f 	cmppl	r2, pc, asr r9
 48c:	4143006e 	cmpmi	r3, lr, rrx
 490:	455f304e 	ldrbmi	r3, [pc, #-78]	; 44a <frame_dummy+0x12>
 494:	726f7272 	rsbvc	r7, pc, #536870919	; 0x20000007
 498:	5152495f 	cmppl	r2, pc, asr r9
 49c:	5349006e 	movtpl	r0, #36974	; 0x906e
 4a0:	52005245 	andpl	r5, r0, #1342177284	; 0x50000004
 4a4:	495f474e 	ldmdbmi	pc, {r1, r2, r3, r6, r8, r9, sl, lr}^	; <UNPREDICTABLE>
 4a8:	006e5152 	rsbeq	r5, lr, r2, asr r1
 4ac:	4c415643 	mcrrmi	6, 4, r5, r1, cr3
 4b0:	454e4500 	strbmi	r4, [lr, #-1280]	; 0xfffffb00
 4b4:	35315f54 	ldrcc	r5, [r1, #-3924]!	; 0xfffff0ac
 4b8:	545f3838 	ldrbpl	r3, [pc], #-2104	; 4c0 <_mainCRTStartup+0x54>
 4bc:	72656d69 	rsbvc	r6, r5, #6720	; 0x1a40
 4c0:	5152495f 	cmppl	r2, pc, asr r9
 4c4:	6148006e 	cmpvs	r8, lr, rrx
 4c8:	61466472 	hvcvs	26178	; 0x6642
 4cc:	5f746c75 	svcpl	0x00746c75
 4d0:	6e515249 	cdpvs	2, 5, cr5, cr1, cr9, {2}
 4d4:	42445000 	submi	r5, r4, #0
 4d8:	52495f30 	subpl	r5, r9, #48, 30	; 0xc0
 4dc:	42006e51 	andmi	r6, r0, #1296	; 0x510
 4e0:	61467375 	hvcvs	26421	; 0x6735
 4e4:	5f746c75 	svcpl	0x00746c75
 4e8:	6e515249 	cdpvs	2, 5, cr5, cr1, cr9, {2}
 4ec:	454e4500 	strbmi	r4, [lr, #-1280]	; 0xfffffb00
 4f0:	65525f54 	ldrbvs	r5, [r2, #-3924]	; 0xfffff0ac
 4f4:	76696563 	strbtvc	r6, [r9], -r3, ror #10
 4f8:	52495f65 	subpl	r5, r9, #404	; 0x194
 4fc:	44006e51 	strmi	r6, [r0], #-3665	; 0xfffff1af
 500:	5f31414d 	svcpl	0x0031414d
 504:	6e515249 	cdpvs	2, 5, cr5, cr1, cr9, {2}
 508:	4e414300 	cdpmi	3, 4, cr4, cr1, cr0, {0}
 50c:	61575f30 	cmpvs	r7, r0, lsr pc
 510:	555f656b 	ldrbpl	r6, [pc, #-1387]	; ffffffad <__StackTop+0xdffcffad>
 514:	52495f70 	subpl	r5, r9, #112, 30	; 0x1c0
 518:	50006e51 	andpl	r6, r0, r1, asr lr
 51c:	545f5449 	ldrbpl	r5, [pc], #-1097	; 524 <SystemInit+0x50>
 520:	00657079 	rsbeq	r7, r5, r9, ror r0
 524:	30495053 	subcc	r5, r9, r3, asr r0
 528:	5152495f 	cmppl	r2, pc, asr r9
 52c:	4950006e 	ldmdbmi	r0, {r1, r2, r3, r5, r6}^
 530:	495f3054 	ldmdbmi	pc, {r2, r4, r6, ip, sp}^	; <UNPREDICTABLE>
 534:	61485152 	cmpvs	r8, r2, asr r1
 538:	656c646e 	strbvs	r6, [ip, #-1134]!	; 0xfffffb92
 53c:	49500072 	ldmdbmi	r0, {r1, r4, r5, r6}^
 540:	495f3054 	ldmdbmi	pc, {r2, r4, r6, ip, sp}^	; <UNPREDICTABLE>
 544:	006e5152 	rsbeq	r5, lr, r2, asr r1
 548:	54524155 	ldrbpl	r4, [r2], #-341	; 0xfffffeab
 54c:	52455f30 	subpl	r5, r5, #48, 30	; 0xc0
 550:	52495f52 	subpl	r5, r9, #328	; 0x148
 554:	55006e51 	strpl	r6, [r0, #-3665]	; 0xfffff1af
 558:	31545241 	cmpcc	r4, r1, asr #4
 55c:	5252455f 	subspl	r4, r2, #398458880	; 0x17c00000
 560:	5152495f 	cmppl	r2, pc, asr r9
 564:	4d44006e 	stclmi	0, cr0, [r4, #-440]	; 0xfffffe48
 568:	495f3441 	ldmdbmi	pc, {r0, r6, sl, ip, sp}^	; <UNPREDICTABLE>
 56c:	006e5152 	rsbeq	r5, lr, r2, asr r1
 570:	54524155 	ldrbpl	r4, [r2], #-341	; 0xfffffeab
 574:	52455f32 	subpl	r5, r5, #50, 30	; 0xc8
 578:	52495f52 	subpl	r5, r9, #328	; 0x148
 57c:	55006e51 	strpl	r6, [r0, #-3665]	; 0xfffff1af
 580:	33545241 	cmpcc	r4, #268435460	; 0x10000004
 584:	5252455f 	subspl	r4, r2, #398458880	; 0x17c00000
 588:	5152495f 	cmppl	r2, pc, asr r9
 58c:	654d006e 	strbvs	r0, [sp, #-110]	; 0xffffff92
 590:	79726f6d 	ldmdbvc	r2!, {r0, r2, r3, r5, r6, r8, r9, sl, fp, sp, lr}^
 594:	616e614d 	cmnvs	lr, sp, asr #2
 598:	656d6567 	strbvs	r6, [sp, #-1383]!	; 0xfffffa99
 59c:	495f746e 	ldmdbmi	pc, {r1, r2, r3, r5, r6, sl, ip, sp, lr}^	; <UNPREDICTABLE>
 5a0:	006e5152 	rsbeq	r5, lr, r2, asr r1
 5a4:	54524155 	ldrbpl	r4, [r2], #-341	; 0xfffffeab
 5a8:	52455f34 	subpl	r5, r5, #52, 30	; 0xd0
 5ac:	52495f52 	subpl	r5, r9, #328	; 0x148
 5b0:	55006e51 	strpl	r6, [r0, #-3665]	; 0xfffff1af
 5b4:	31545241 	cmpcc	r4, r1, asr #4
 5b8:	5f58525f 	svcpl	0x0058525f
 5bc:	495f5854 	ldmdbmi	pc, {r2, r4, r6, fp, ip, lr}^	; <UNPREDICTABLE>
 5c0:	006e5152 	rsbeq	r5, lr, r2, asr r1
 5c4:	44544950 	ldrbmi	r4, [r4], #-2384	; 0xfffff6b0
 5c8:	53617461 	cmnpl	r1, #1627389952	; 0x61000000
 5cc:	63757274 	cmnvs	r5, #116, 4	; 0x40000007
 5d0:	54520074 	ldrbpl	r0, [r2], #-116	; 0xffffff8c
 5d4:	65535f43 	ldrbvs	r5, [r3, #-3907]	; 0xfffff0bd
 5d8:	646e6f63 	strbtvs	r6, [lr], #-3939	; 0xfffff09d
 5dc:	52495f73 	subpl	r5, r9, #460	; 0x1cc
 5e0:	53006e51 	movwpl	r6, #3665	; 0xe51
 5e4:	6c614356 	stclvs	3, cr4, [r1], #-344	; 0xfffffea8
 5e8:	52495f6c 	subpl	r5, r9, #108, 30	; 0x1b0
 5ec:	4c006e51 	stcmi	14, cr6, [r0], {81}	; 0x51
 5f0:	6d695450 	cfstrdvs	mvd5, [r9, #-320]!	; 0xfffffec0
 5f4:	495f7265 	ldmdbmi	pc, {r0, r2, r5, r6, r9, ip, sp, lr}^	; <UNPREDICTABLE>
 5f8:	006e5152 	rsbeq	r5, lr, r2, asr r1
 5fc:	31414d44 	cmpcc	r1, r4, asr #26
 600:	52495f30 	subpl	r5, r9, #48, 30	; 0xc0
 604:	44006e51 	strmi	r6, [r0], #-3665	; 0xfffff1af
 608:	5f304341 	svcpl	0x00304341
 60c:	6e515249 	cdpvs	2, 5, cr5, cr1, cr9, {2}
 610:	49505300 	ldmdbmi	r0, {r8, r9, ip, lr}^
 614:	52495f31 	subpl	r5, r9, #49, 30	; 0xc4
 618:	50006e51 	andpl	r6, r0, r1, asr lr
 61c:	4154524f 	cmpmi	r4, pc, asr #4
 620:	5152495f 	cmppl	r2, pc, asr r9
 624:	6552006e 	ldrbvs	r0, [r2, #-110]	; 0xffffff92
 628:	435f6461 	cmpmi	pc, #1627389952	; 0x61000000
 62c:	696c6c6f 	stmdbvs	ip!, {r0, r1, r2, r3, r5, r6, sl, fp, sp, lr}^
 630:	6e6f6973 	mcrvs	9, 3, r6, cr15, cr3, {3}
 634:	5152495f 	cmppl	r2, pc, asr r9
 638:	5446006e 	strbpl	r0, [r6], #-110	; 0xffffff92
 63c:	495f334d 	ldmdbmi	pc, {r0, r2, r3, r6, r8, r9, ip, sp}^	; <UNPREDICTABLE>
 640:	006e5152 	rsbeq	r5, lr, r2, asr r1
 644:	54524155 	ldrbpl	r4, [r2], #-341	; 0xfffffeab
 648:	58525f34 	ldmdapl	r2, {r2, r4, r5, r8, r9, sl, fp, ip, lr}^
 64c:	5f58545f 	svcpl	0x0058545f
 650:	6e515249 	cdpvs	2, 5, cr5, cr1, cr9, {2}
 654:	504d4300 	subpl	r4, sp, r0, lsl #6
 658:	52495f30 	subpl	r5, r9, #48, 30	; 0xc0
 65c:	44006e51 	strmi	r6, [r0], #-3665	; 0xfffff1af
 660:	5f35414d 	svcpl	0x0035414d
 664:	6e515249 	cdpvs	2, 5, cr5, cr1, cr9, {2}
 668:	73795300 	cmnvc	r9, #0, 6
 66c:	6b636954 	blvs	18dabc4 <__exidx_end+0x18d88ac>
 670:	5152495f 	cmppl	r2, pc, asr r9
 674:	5355006e 	cmppl	r5, #110	; 0x6e
 678:	44434442 	strbmi	r4, [r3], #-1090	; 0xfffffbbe
 67c:	5152495f 	cmppl	r2, pc, asr r9
 680:	564c006e 	strbpl	r0, [ip], -lr, rrx
 684:	564c5f44 	strbpl	r5, [ip], -r4, asr #30
 688:	52495f57 	subpl	r5, r9, #348	; 0x15c
 68c:	43006e51 	movwmi	r6, #3665	; 0xe51
 690:	5f304e41 	svcpl	0x00304e41
 694:	5f737542 	svcpl	0x00737542
 698:	5f66664f 	svcpl	0x0066664f
 69c:	6e515249 	cdpvs	2, 5, cr5, cr1, cr9, {2}
 6a0:	52415500 	subpl	r5, r1, #0, 10
 6a4:	525f3554 	subspl	r3, pc, #84, 10	; 0x15000000
 6a8:	58545f58 	ldmdapl	r4, {r3, r4, r6, r8, r9, sl, fp, ip, lr}^
 6ac:	5152495f 	cmppl	r2, pc, asr r9
 6b0:	4e45006e 	cdpmi	0, 4, cr0, cr5, cr14, {3}
 6b4:	545f5445 	ldrbpl	r5, [pc], #-1093	; 6bc <PIDUpdate+0x4c>
 6b8:	736e6172 	cmnvc	lr, #-2147483620	; 0x8000001c
 6bc:	5f74696d 	svcpl	0x0074696d
 6c0:	6e515249 	cdpvs	2, 5, cr5, cr1, cr9, {2}
 6c4:	42414900 	submi	r4, r1, #0, 18
 6c8:	4d440052 	stclmi	0, cr0, [r4, #-328]	; 0xfffffeb8
 6cc:	5f313141 	svcpl	0x00313141
 6d0:	6e515249 	cdpvs	2, 5, cr5, cr1, cr9, {2}
 6d4:	49505300 	ldmdbmi	r0, {r8, r9, ip, lr}^
 6d8:	52495f32 	subpl	r5, r9, #50, 30	; 0xc8
 6dc:	50006e51 	andpl	r6, r0, r1, asr lr
 6e0:	4254524f 	subsmi	r5, r4, #-268435452	; 0xf0000004
 6e4:	5152495f 	cmppl	r2, pc, asr r9
 6e8:	4d44006e 	stclmi	0, cr0, [r4, #-440]	; 0xfffffe48
 6ec:	495f3041 	ldmdbmi	pc, {r0, r6, ip, sp}^	; <UNPREDICTABLE>
 6f0:	006e5152 	rsbeq	r5, lr, r2, asr r1
 6f4:	30434441 	subcc	r4, r3, r1, asr #8
 6f8:	5152495f 	cmppl	r2, pc, asr r9
 6fc:	4d44006e 	stclmi	0, cr0, [r4, #-440]	; 0xfffffe48
 700:	495f3941 	ldmdbmi	pc, {r0, r6, r8, fp, ip, sp}^	; <UNPREDICTABLE>
 704:	006e5152 	rsbeq	r5, lr, r2, asr r1
 708:	52454349 	subpl	r4, r5, #603979777	; 0x24000001
 70c:	43444100 	movtmi	r4, #16640	; 0x4100
 710:	52495f31 	subpl	r5, r9, #49, 30	; 0xc4
 714:	5f006e51 	svcpl	0x00006e51
 718:	616e655f 	cmnvs	lr, pc, asr r5
 71c:	5f656c62 	svcpl	0x00656c62
 720:	00717269 	rsbseq	r7, r1, r9, ror #4
 724:	44544950 	ldrbmi	r4, [r4], #-2384	; 0xfffff6b0
 728:	00617461 	rsbeq	r7, r1, r1, ror #8
 72c:	30433249 	subcc	r3, r3, r9, asr #4
 730:	5152495f 	cmppl	r2, pc, asr r9
 734:	4d43006e 	stclmi	0, cr0, [r3, #-440]	; 0xfffffe48
 738:	495f3150 	ldmdbmi	pc, {r4, r6, r8, ip, sp}^	; <UNPREDICTABLE>
 73c:	006e5152 	rsbeq	r5, lr, r2, asr r1
 740:	45534552 	ldrbmi	r4, [r3, #-1362]	; 0xfffffaae
 744:	44455652 	strbmi	r5, [r5], #-1618	; 0xfffff9ae
 748:	45520030 	ldrbmi	r0, [r2, #-48]	; 0xffffffd0
 74c:	56524553 			; <UNDEFINED> instruction: 0x56524553
 750:	00324445 	eorseq	r4, r2, r5, asr #8
 754:	45534552 	ldrbmi	r4, [r3, #-1362]	; 0xfffffaae
 758:	44455652 	strbmi	r5, [r5], #-1618	; 0xfffff9ae
 75c:	45520034 	ldrbmi	r0, [r2, #-52]	; 0xffffffcc
 760:	56524553 			; <UNDEFINED> instruction: 0x56524553
 764:	00354445 	eorseq	r4, r5, r5, asr #8
 768:	4e414843 	cdpmi	8, 4, cr4, cr1, cr3, {2}
 76c:	004c454e 	subeq	r4, ip, lr, asr #10
 770:	31414d44 	cmpcc	r1, r4, asr #26
 774:	52495f35 	subpl	r5, r9, #53, 30	; 0xd4
 778:	4d006e51 	stcmi	14, cr6, [r0, #-324]	; 0xfffffebc
 77c:	495f4743 	ldmdbmi	pc, {r0, r1, r6, r8, r9, sl, lr}^	; <UNPREDICTABLE>
 780:	006e5152 	rsbeq	r5, lr, r2, asr r1
 784:	32504d43 	subscc	r4, r0, #4288	; 0x10c0
 788:	5152495f 	cmppl	r2, pc, asr r9
 78c:	4f50006e 	svcmi	0x0050006e
 790:	5f435452 	svcpl	0x00435452
 794:	6e515249 	cdpvs	2, 5, cr5, cr1, cr9, {2}
 798:	54495000 	strbpl	r5, [r9], #-0
 79c:	52495f31 	subpl	r5, r9, #49, 30	; 0xc4
 7a0:	6e614851 	mcrvs	8, 3, r4, cr1, cr1, {2}
 7a4:	72656c64 	rsbvc	r6, r5, #100, 24	; 0x6400
 7a8:	49564e00 	ldmdbmi	r6, {r9, sl, fp, lr}^
 7ac:	79545f43 	ldmdbvc	r4, {r0, r1, r6, r8, r9, sl, fp, ip, lr}^
 7b0:	73006570 	movwvc	r6, #1392	; 0x570
 7b4:	50706f74 	rsbspl	r6, r0, r4, ror pc
 7b8:	00305449 	eorseq	r5, r0, r9, asr #8
 7bc:	706f7473 	rsbvc	r7, pc, r3, ror r4	; <UNPREDICTABLE>
 7c0:	31544950 	cmpcc	r4, r0, asr r9
 7c4:	49564e00 	ldmdbmi	r6, {r9, sl, fp, lr}^
 7c8:	6e455f43 	cdpvs	15, 4, cr5, cr5, cr3, {2}
 7cc:	656c6261 	strbvs	r6, [ip, #-609]!	; 0xfffffd9f
 7d0:	00515249 	subseq	r5, r1, r9, asr #4
 7d4:	31433249 	cmpcc	r3, r9, asr #4
 7d8:	5152495f 	cmppl	r2, pc, asr r9
 7dc:	4654006e 	ldrbmi	r0, [r4], -lr, rrx
 7e0:	5500474c 	strpl	r4, [r0, #-1868]	; 0xfffff8b4
 7e4:	32545241 	subscc	r5, r4, #268435460	; 0x10000004
 7e8:	5f58525f 	svcpl	0x0058525f
 7ec:	495f5854 	ldmdbmi	pc, {r2, r4, r6, fp, ip, lr}^	; <UNPREDICTABLE>
 7f0:	006e5152 	rsbeq	r5, lr, r2, asr r1
 7f4:	45534552 	ldrbmi	r4, [r3, #-1362]	; 0xfffffaae
 7f8:	44455652 	strbmi	r5, [r5], #-1618	; 0xfffff9ae
 7fc:	52490033 	subpl	r0, r9, #51	; 0x33
 800:	545f6e51 	ldrbpl	r6, [pc], #-3665	; 808 <uartPutCharBlock+0x10>
 804:	00657079 	rsbeq	r7, r5, r9, ror r0
 808:	53493154 	movtpl	r3, #37204	; 0x9154
 80c:	65500052 	ldrbvs	r0, [r0, #-82]	; 0xffffffae
 810:	5653646e 	ldrbpl	r6, [r3], -lr, ror #8
 814:	5152495f 	cmppl	r2, pc, asr r9
 818:	7355006e 	cmpvc	r5, #110	; 0x6e
 81c:	46656761 	strbtmi	r6, [r5], -r1, ror #14
 820:	746c7561 	strbtvc	r7, [ip], #-1377	; 0xfffffa9f
 824:	5152495f 	cmppl	r2, pc, asr r9
 828:	4950006e 	ldmdbmi	r0, {r1, r2, r3, r5, r6}^
 82c:	00632e54 	rsbeq	r2, r3, r4, asr lr
 830:	6156646c 	cmpvs	r6, ip, ror #8
 834:	5446006c 	strbpl	r0, [r6], #-108	; 0xffffff94
 838:	495f324d 	ldmdbmi	pc, {r0, r2, r3, r6, r9, ip, sp}^	; <UNPREDICTABLE>
 83c:	006e5152 	rsbeq	r5, lr, r2, asr r1
 840:	304e4143 	subcc	r4, lr, r3, asr #2
 844:	65524f5f 	ldrbvs	r4, [r2, #-3935]	; 0xfffff0a1
 848:	654d5f64 	strbvs	r5, [sp, #-3940]	; 0xfffff09c
 84c:	67617373 			; <UNDEFINED> instruction: 0x67617373
 850:	75625f65 	strbvc	r5, [r2, #-3941]!	; 0xfffff09b
 854:	72656666 	rsbvc	r6, r5, #106954752	; 0x6600000
 858:	5152495f 	cmppl	r2, pc, asr r9
 85c:	7473006e 	ldrbtvc	r0, [r3], #-110	; 0xffffff92
 860:	50747261 	rsbspl	r7, r4, r1, ror #4
 864:	00305449 	eorseq	r5, r0, r9, asr #8
 868:	32414d44 	subcc	r4, r1, #68, 26	; 0x1100
 86c:	5152495f 	cmppl	r2, pc, asr r9
 870:	434d006e 	movtmi	r0, #53358	; 0xd06e
 874:	52495f4d 	subpl	r5, r9, #308	; 0x134
 878:	4e006e51 	mcrmi	14, 0, r6, cr0, cr1, {2}
 87c:	614d6e6f 	cmpvs	sp, pc, ror #28
 880:	62616b73 	rsbvs	r6, r1, #117760	; 0x1cc00
 884:	6e49656c 	cdpvs	5, 4, cr6, cr9, cr12, {3}
 888:	52495f74 	subpl	r5, r9, #116, 30	; 0x1d0
 88c:	49006e51 	stmdbmi	r0, {r0, r4, r6, r9, sl, fp, sp, lr}
 890:	5f305332 	svcpl	0x00305332
 894:	495f7852 	ldmdbmi	pc, {r1, r4, r6, fp, ip, sp, lr}^	; <UNPREDICTABLE>
 898:	006e5152 	rsbeq	r5, lr, r2, asr r1
 89c:	5f414d44 	svcpl	0x00414d44
 8a0:	6f727245 	svcvs	0x00727245
 8a4:	52495f72 	subpl	r5, r9, #456	; 0x1c8
 8a8:	46006e51 			; <UNDEFINED> instruction: 0x46006e51
 8ac:	5f454654 	svcpl	0x00454654
 8b0:	6e515249 	cdpvs	2, 5, cr5, cr1, cr9, {2}
 8b4:	49305400 	ldmdbmi	r0!, {sl, ip, lr}
 8b8:	43005253 	movwmi	r5, #595	; 0x253
 8bc:	5f304e41 	svcpl	0x00304e41
 8c0:	575f7852 			; <UNDEFINED> instruction: 0x575f7852
 8c4:	696e7261 	stmdbvs	lr!, {r0, r5, r6, r9, ip, sp, lr}^
 8c8:	495f676e 	ldmdbmi	pc, {r1, r2, r3, r5, r6, r8, r9, sl, sp, lr}^	; <UNPREDICTABLE>
 8cc:	006e5152 	rsbeq	r5, lr, r2, asr r1
 8d0:	30533249 	subscc	r3, r3, r9, asr #4
 8d4:	5f78545f 	svcpl	0x0078545f
 8d8:	6e515249 	cdpvs	2, 5, cr5, cr1, cr9, {2}
 8dc:	61747300 	cmnvs	r4, r0, lsl #6
 8e0:	49507472 	ldmdbmi	r0, {r1, r4, r5, r6, sl, ip, sp, lr}^
 8e4:	50003154 	andpl	r3, r0, r4, asr r1
 8e8:	5f325449 	svcpl	0x00325449
 8ec:	6e515249 	cdpvs	2, 5, cr5, cr1, cr9, {2}
 8f0:	56444c00 	strbpl	r4, [r4], -r0, lsl #24
 8f4:	55004c41 	strpl	r4, [r0, #-3137]	; 0xfffff3bf
 8f8:	30545241 	subscc	r5, r4, r1, asr #4
 8fc:	4e4f4c5f 	mcrmi	12, 2, r4, cr15, cr15, {2}
 900:	5152495f 	cmppl	r2, pc, asr r9
 904:	4d44006e 	stclmi	0, cr0, [r4, #-440]	; 0xfffffe48
 908:	495f3641 	ldmdbmi	pc, {r0, r6, r9, sl, ip, sp}^	; <UNPREDICTABLE>
 90c:	006e5152 	rsbeq	r5, lr, r2, asr r1
 910:	314d5446 	cmpcc	sp, r6, asr #8
 914:	5152495f 	cmppl	r2, pc, asr r9
 918:	5352006e 	cmppl	r2, #110	; 0x6e
 91c:	45565245 	ldrbmi	r5, [r6, #-581]	; 0xfffffdbb
 920:	4c003144 	stfmis	f3, [r0], {68}	; 0x44
 924:	495f574c 	ldmdbmi	pc, {r2, r3, r6, r8, r9, sl, ip, lr}^	; <UNPREDICTABLE>
 928:	006e5152 	rsbeq	r5, lr, r2, asr r1
 92c:	43484453 	movtmi	r4, #33875	; 0x8453
 930:	5152495f 	cmppl	r2, pc, asr r9
 934:	6544006e 	strbvs	r0, [r4, #-110]	; 0xffffff92
 938:	4d677562 	cfstr64mi	mvdx7, [r7, #-392]!	; 0xfffffe78
 93c:	74696e6f 	strbtvc	r6, [r9], #-3695	; 0xfffff191
 940:	495f726f 	ldmdbmi	pc, {r0, r1, r2, r3, r5, r6, r9, ip, sp, lr}^	; <UNPREDICTABLE>
 944:	006e5152 	rsbeq	r5, lr, r2, asr r1
 948:	31414d44 	cmpcc	r1, r4, asr #26
 94c:	52495f32 	subpl	r5, r9, #50, 30	; 0xc8
 950:	55006e51 	strpl	r6, [r0, #-3665]	; 0xfffff1af
 954:	30545241 	subscc	r5, r4, r1, asr #4
 958:	5f58525f 	svcpl	0x0058525f
 95c:	495f5854 	ldmdbmi	pc, {r2, r4, r6, fp, ip, lr}^	; <UNPREDICTABLE>
 960:	006e5152 	rsbeq	r5, lr, r2, asr r1
 964:	33544950 	cmpcc	r4, #80, 18	; 0x140000
 968:	5152495f 	cmppl	r2, pc, asr r9
 96c:	4950006e 	ldmdbmi	r0, {r1, r2, r3, r5, r6}^
 970:	64705544 	ldrbtvs	r5, [r0], #-1348	; 0xfffffabc
 974:	00657461 	rsbeq	r7, r5, r1, ror #8
 978:	75706e69 	ldrbvc	r6, [r0, #-3689]!	; 0xfffff197
 97c:	6e690074 	mcrvs	0, 3, r0, cr9, cr4, {3}
 980:	4c747570 	cfldr64mi	mvdx7, [r4], #-448	; 0xfffffe40
 984:	5000776f 	andpl	r7, r0, pc, ror #14
 988:	61444449 	cmpvs	r4, r9, asr #8
 98c:	50006174 	andpl	r6, r0, r4, ror r1
 990:	65534449 	ldrbvs	r4, [r3, #-1097]	; 0xfffffbb7
 994:	616f4774 	smcvs	62580	; 0xf474
 998:	756f006c 	strbvc	r0, [pc, #-108]!	; 934 <main+0x44>
 99c:	74757074 	ldrbtvc	r7, [r5], #-116	; 0xffffff8c
 9a0:	74756f00 	ldrbtvc	r6, [r5], #-3840	; 0xfffff100
 9a4:	48747570 	ldmdami	r4!, {r4, r5, r6, r8, sl, ip, sp, lr}^
 9a8:	00686769 	rsbeq	r6, r8, r9, ror #14
 9ac:	49444950 	stmdbmi	r4, {r4, r6, r8, fp, lr}^
 9b0:	6974696e 	ldmdbvs	r4!, {r1, r2, r3, r5, r6, r8, fp, sp, lr}^
 9b4:	7a696c61 	bvc	1a5bb40 <__exidx_end+0x1a59828>
 9b8:	49500065 	ldmdbmi	r0, {r0, r2, r5, r6}^
 9bc:	74614444 	strbtvc	r4, [r1], #-1092	; 0xfffffbbc
 9c0:	72745361 	rsbsvc	r5, r4, #-2080374783	; 0x84000001
 9c4:	00746375 	rsbseq	r6, r4, r5, ror r3
 9c8:	75706e69 	ldrbvc	r6, [r0, #-3689]!	; 0xfffff197
 9cc:	67694874 			; <UNDEFINED> instruction: 0x67694874
 9d0:	69740068 	ldmdbvs	r4!, {r3, r5, r6}^
 9d4:	6542656d 	strbvs	r6, [r2, #-1389]	; 0xfffffa93
 9d8:	65657774 	strbvs	r7, [r5, #-1908]!	; 0xfffff88c
 9dc:	6470556e 	ldrbtvs	r5, [r0], #-1390	; 0xfffffa92
 9e0:	73657461 	cmnvc	r5, #1627389952	; 0x61000000
 9e4:	73616c00 	cmnvc	r1, #0, 24
 9e8:	72724574 	rsbsvc	r4, r2, #116, 10	; 0x1d000000
 9ec:	6f670073 	svcvs	0x00670073
 9f0:	6f006c61 	svcvs	0x00006c61
 9f4:	75707475 	ldrbvc	r7, [r0, #-1141]!	; 0xfffffb8b
 9f8:	776f4c74 			; <UNDEFINED> instruction: 0x776f4c74
 9fc:	72656400 	rsbvc	r6, r5, #0, 8
 a00:	50007669 	andpl	r7, r0, r9, ror #12
 a04:	632e4449 	teqvs	lr, #1224736768	; 0x49000000
 a08:	6f6c6600 	svcvs	0x006c6600
 a0c:	69007461 	stmdbvs	r0, {r0, r5, r6, sl, ip, sp, lr}
 a10:	6765746e 	strbvs	r7, [r5, -lr, ror #8]!
 a14:	006c6172 	rsbeq	r6, ip, r2, ror r1
 a18:	6f727265 	svcvs	0x00727265
 a1c:	61750072 	cmnvs	r5, r2, ror r0
 a20:	75507472 	ldrbvc	r7, [r0, #-1138]	; 0xfffffb8e
 a24:	72745374 	rsbsvc	r5, r4, #116, 6	; 0xd0000001
 a28:	00676e69 	rsbeq	r6, r7, r9, ror #28
 a2c:	38374657 	ldmdacc	r7!, {r0, r1, r2, r4, r6, r9, sl, lr}
 a30:	45003631 	strmi	r3, [r0, #-1585]	; 0xfffff9cf
 a34:	31383754 	teqcc	r8, r4, asr r7
 a38:	61750036 	cmnvs	r5, r6, lsr r0
 a3c:	61447472 	hvcvs	18242	; 0x4742
 a40:	4d006174 	stfmis	f6, [r0, #-464]	; 0xfffffe30
 a44:	4d45444f 	cfstrdmi	mvd4, [r5, #-316]	; 0xfffffec4
 a48:	46435400 	strbmi	r5, [r3], -r0, lsl #8
 a4c:	004f4649 	subeq	r4, pc, r9, asr #12
 a50:	38374c54 	ldmdacc	r7!, {r2, r4, r6, sl, fp, lr}
 a54:	52003631 	andpl	r3, r0, #51380224	; 0x3100000
 a58:	46494643 	strbmi	r4, [r9], -r3, asr #12
 a5c:	5752004f 	ldrbpl	r0, [r2, -pc, asr #32]
 a60:	4f464946 	svcmi	0x00464946
 a64:	75616200 	strbvc	r6, [r1, #-512]!	; 0xfffffe00
 a68:	41550064 	cmpmi	r5, r4, rrx
 a6c:	745f5452 	ldrbvc	r5, [pc], #-1106	; a74 <main+0x184>
 a70:	6e695f6f 	cdpvs	15, 6, cr5, cr9, cr15, {3}
 a74:	62007469 	andvs	r7, r0, #1761607680	; 0x69000000
 a78:	00616672 	rsbeq	r6, r1, r2, ror r6
 a7c:	54524155 	ldrbpl	r4, [r2], #-341	; 0xfffffeab
 a80:	37534900 	ldrbcc	r4, [r3, -r0, lsl #18]
 a84:	00363138 	eorseq	r3, r6, r8, lsr r1
 a88:	49465754 	stmdbmi	r6, {r2, r4, r6, r8, r9, sl, ip, lr}^
 a8c:	49004f46 	stmdbmi	r0, {r1, r2, r6, r8, r9, sl, fp, lr}
 a90:	31383745 	teqcc	r8, r5, asr #14
 a94:	61750036 	cmnvs	r5, r6, lsr r0
 a98:	6e497472 	mcrvs	4, 2, r7, cr9, cr2, {3}
 a9c:	43007469 	movwmi	r7, #1129	; 0x469
 aa0:	36313837 			; <UNDEFINED> instruction: 0x36313837
 aa4:	61747300 	cmnvs	r4, r0, lsl #6
 aa8:	00737574 	rsbseq	r7, r3, r4, ror r5
 aac:	74726175 	ldrbtvc	r6, [r2], #-373	; 0xfffffe8b
 ab0:	43746547 	cmnmi	r4, #297795584	; 0x11c00000
 ab4:	42726168 	rsbsmi	r6, r2, #104, 2
 ab8:	6b636f6c 	blvs	18dc870 <__exidx_end+0x18da558>
 abc:	374e5700 	strbcc	r5, [lr, -r0, lsl #14]
 ac0:	00363138 	eorseq	r3, r6, r8, lsr r1
 ac4:	72727563 	rsbsvc	r7, r2, #415236096	; 0x18c00000
 ac8:	49465000 	stmdbmi	r6, {ip, lr}^
 acc:	75004f46 	strvc	r4, [r0, #-3910]	; 0xfffff0ba
 ad0:	30747261 	rsbscc	r7, r4, r1, ror #4
 ad4:	61746144 	cmnvs	r4, r4, asr #2
 ad8:	52415500 	subpl	r5, r1, #0, 10
 adc:	79545f54 	ldmdbvc	r4, {r2, r4, r6, r8, r9, sl, fp, ip, lr}^
 ae0:	75006570 	strvc	r6, [r0, #-1392]	; 0xfffffa90
 ae4:	2e747261 	cdpcs	2, 7, cr7, cr4, cr1, {3}
 ae8:	50570063 	subspl	r0, r7, r3, rrx
 aec:	36313837 			; <UNDEFINED> instruction: 0x36313837
 af0:	545f545f 	ldrbpl	r5, [pc], #-1119	; af8 <main+0x208>
 af4:	30455059 	subcc	r5, r5, r9, asr r0
 af8:	37505700 	ldrbcc	r5, [r0, -r0, lsl #14]
 afc:	5f363138 	svcpl	0x00363138
 b00:	59545f54 	ldmdbpl	r4, {r2, r4, r6, r8, r9, sl, fp, ip, lr}^
 b04:	00314550 	eorseq	r4, r1, r0, asr r5
 b08:	46494653 			; <UNDEFINED> instruction: 0x46494653
 b0c:	6175004f 	cmnvs	r5, pc, asr #32
 b10:	75507472 	ldrbvc	r7, [r0, #-1138]	; 0xfffffb8e
 b14:	61684374 	smcvs	33844	; 0x8434
 b18:	6f6c4272 	svcvs	0x006c4272
 b1c:	75006b63 	strvc	r6, [r0, #-2915]	; 0xfffff49d
 b20:	44747261 	ldrbtmi	r7, [r4], #-609	; 0xfffffd9f
 b24:	53617461 	cmnpl	r1, #1627389952	; 0x61000000
 b28:	63757274 	cmnvs	r5, #116, 4	; 0x40000007
 b2c:	59530074 	ldmdbpl	r3, {r2, r4, r5, r6}^
 b30:	4e4f434e 	cdpmi	3, 4, cr4, cr15, cr14, {2}
 b34:	54460046 	strbpl	r0, [r6], #-70	; 0xffffffba
 b38:	79545f4d 	ldmdbvc	r4, {r0, r2, r3, r6, r8, r9, sl, fp, ip, lr}^
 b3c:	50006570 	andpl	r6, r0, r0, ror r5
 b40:	69544d57 	ldmdbvs	r4, {r0, r1, r2, r4, r6, r8, sl, fp, lr}^
 b44:	70006b63 	andvc	r6, r0, r3, ror #22
 b48:	632e6d77 	teqvs	lr, #7616	; 0x1dc0
 b4c:	696e4900 	stmdbvs	lr!, {r8, fp, lr}^
 b50:	4d575074 	ldclmi	0, cr5, [r7, #-464]	; 0xfffffe30
 b54:	54460032 	strbpl	r0, [r6], #-50	; 0xffffffce
 b58:	495f304d 	ldmdbmi	pc, {r0, r2, r3, r6, ip, sp}^	; <UNPREDICTABLE>
 b5c:	61485152 	cmpvs	r8, r2, asr r1
 b60:	656c646e 	strbvs	r6, [ip, #-1134]!	; 0xfffffb92
 b64:	58450072 	stmdapl	r5, {r1, r4, r5, r6}^
 b68:	49525454 	ldmdbmi	r2, {r2, r4, r6, sl, ip, lr}^
 b6c:	65530047 	ldrbvs	r0, [r3, #-71]	; 0xffffffb9
 b70:	74754474 	ldrbtvc	r4, [r5], #-1140	; 0xfffffb8c
 b74:	63794379 	cmnvs	r9, #-469762047	; 0xe4000001
 b78:	0032656c 	eorseq	r6, r2, ip, ror #10
 b7c:	4954554f 	ldmdbmi	r4, {r0, r1, r2, r3, r6, r8, sl, ip, lr}^
 b80:	0054494e 	subseq	r4, r4, lr, asr #18
 b84:	434f5753 	movtmi	r5, #63315	; 0xf753
 b88:	004c5254 	subeq	r5, ip, r4, asr r2
 b8c:	4c4d5750 	mcrrmi	7, 5, r5, sp, cr0
 b90:	0044414f 	subeq	r4, r4, pc, asr #2
 b94:	43564e49 	cmpmi	r6, #1168	; 0x490
 b98:	004c5254 	subeq	r5, ip, r4, asr r2
 b9c:	44414544 	strbmi	r4, [r1], #-1348	; 0xfffffabc
 ba0:	454d4954 	strbmi	r4, [sp, #-2388]	; 0xfffff6ac
 ba4:	4d4f4300 	stclmi	3, cr4, [pc, #-0]	; bac <main+0x2bc>
 ba8:	454e4942 	strbmi	r4, [lr, #-2370]	; 0xfffff6be
 bac:	61686300 	cmnvs	r8, r0, lsl #6
 bb0:	6f4d326e 	svcvs	0x004d326e
 bb4:	554f0064 	strbpl	r0, [pc, #-100]	; b58 <main+0x268>
 bb8:	53414d54 	movtpl	r4, #7508	; 0x1d54
 bbc:	4946004b 	stmdbmi	r6, {r0, r1, r3, r6}^
 bc0:	5245544c 	subpl	r5, r5, #76, 8	; 0x4c000000
 bc4:	61686300 	cmnvs	r8, r0, lsl #6
 bc8:	7246326e 	subvc	r3, r6, #-536870906	; 0xe0000006
 bcc:	43007165 	movwmi	r7, #357	; 0x165
 bd0:	52544e4f 	subspl	r4, r4, #1264	; 0x4f0
 bd4:	00534c4f 	subseq	r4, r3, pc, asr #24
 bd8:	43536e43 	cmpmi	r3, #1072	; 0x430
 bdc:	544c4600 	strbpl	r4, [ip], #-1536	; 0xfffffa00
 be0:	4c525443 	cfldrdmi	mvd5, [r2], {67}	; 0x43
 be4:	756f6600 	strbvc	r6, [pc, #-1536]!	; 5ec <PIT1_IRQHandler+0x10>
 be8:	4300646e 	movwmi	r6, #1134	; 0x46e
 bec:	4e49544e 	cdpmi	4, 4, cr5, cr9, cr14, {2}
 bf0:	65726600 	ldrbvs	r6, [r2, #-1536]!	; 0xfffffa00
 bf4:	6e657571 	mcrvs	5, 3, r7, cr5, cr1, {3}
 bf8:	46007963 	strmi	r7, [r0], -r3, ror #18
 bfc:	4f50544c 	svcmi	0x0050544c
 c00:	4f4d004c 	svcmi	0x004d004c
 c04:	51004544 	tstpl	r0, r4, asr #10
 c08:	52544344 	subspl	r4, r4, #68, 6	; 0x10000001
 c0c:	5453004c 	ldrbpl	r0, [r3], #-76	; 0xffffffb4
 c10:	53555441 	cmppl	r5, #1090519040	; 0x41000000
 c14:	4e595300 	cdpmi	3, 5, cr5, cr9, cr0, {0}
 c18:	69640043 	stmdbvs	r4!, {r0, r1, r6}^
 c1c:	65646976 	strbvs	r6, [r4, #-2422]!	; 0xfffff68a
 c20:	4c430072 	mcrrmi	0, 7, r0, r3, cr2
 c24:	6e004450 	cfmvsrvs	mvf0, r4
 c28:	736e7265 	cmnvc	lr, #1342177286	; 0x50000006
 c2c:	74754f74 	ldrbtvc	r4, [r5], #-3956	; 0xfffff08c
 c30:	4f545000 	svcmi	0x00545000
 c34:	65680052 	strbvs	r0, [r8, #-82]!	; 0xffffffae
 c38:	72657461 	rsbvc	r7, r5, #1627389952	; 0x61000000
 c3c:	79747544 	ldmdbvc	r4!, {r2, r6, r8, sl, ip, sp, lr}^
 c40:	6c637943 	stclvs	9, cr7, [r3], #-268	; 0xfffffef4
 c44:	74730065 	ldrbtvc	r0, [r3], #-101	; 0xffffff9b
 c48:	52747261 	rsbspl	r7, r4, #268435462	; 0x10000006
 c4c:	73697365 	cmnvc	r9, #-1811939327	; 0x94000001
 c50:	636e6174 	cmnvs	lr, #116, 2
 c54:	61654d65 	cmnvs	r5, r5, ror #26
 c58:	65727573 	ldrbvs	r7, [r2, #-1395]!	; 0xfffffa8d
 c5c:	746e656d 	strbtvc	r6, [lr], #-1389	; 0xfffffa93
 c60:	4f435000 	svcmi	0x00435000
 c64:	44500052 	ldrbmi	r0, [r0], #-82	; 0xffffffae
 c68:	50005249 	andpl	r5, r0, r9, asr #4
 c6c:	00524f53 	subseq	r4, r2, r3, asr pc
 c70:	69727073 	ldmdbvs	r2!, {r0, r1, r4, r5, r6, ip, sp, lr}^
 c74:	0066746e 	rsbeq	r7, r6, lr, ror #8
 c78:	31434441 	cmpcc	r3, r1, asr #8
 c7c:	494e495f 	stmdbmi	lr, {r0, r1, r2, r3, r4, r6, r8, fp, lr}^
 c80:	5f5f0054 	svcpl	0x005f0054
 c84:	31746e69 	cmncc	r4, r9, ror #28
 c88:	00745f36 	rsbseq	r5, r4, r6, lsr pc
 c8c:	6e72656e 	cdpvs	5, 7, cr6, cr2, cr14, {3}
 c90:	6f567473 	svcvs	0x00567473
 c94:	6761746c 	strbvs	r7, [r1, -ip, ror #8]!
 c98:	44410065 	strbmi	r0, [r1], #-101	; 0xffffff9b
 c9c:	79545f43 	ldmdbvc	r4, {r0, r1, r6, r8, r9, sl, fp, ip, lr}^
 ca0:	70006570 	andvc	r6, r0, r0, ror r5
 ca4:	43706d75 	cmnmi	r0, #7488	; 0x1d40
 ca8:	65727275 	ldrbvs	r7, [r2, #-629]!	; 0xfffffd8b
 cac:	4950746e 	ldmdbmi	r0, {r1, r2, r3, r5, r6, sl, ip, sp, lr}^
 cb0:	616d0044 	cmnvs	sp, r4, asr #32
 cb4:	632e6e69 	teqvs	lr, #1680	; 0x690
 cb8:	43444100 	movtmi	r4, #16640	; 0x4100
 cbc:	756f5331 	strbvc	r5, [pc, #-817]!	; 993 <main+0xa3>
 cc0:	42656372 	rsbmi	r6, r5, #-939524095	; 0xc8000001
 cc4:	73657479 	cmnvc	r5, #2030043136	; 0x79000000
 cc8:	72656e00 	rsbvc	r6, r5, #0, 28
 ccc:	5274736e 	rsbspl	r7, r4, #-1207959551	; 0xb8000001
 cd0:	6d757000 	ldclvs	0, cr7, [r5, #-0]
 cd4:	72754370 	rsbsvc	r4, r5, #112, 6	; 0xc0000001
 cd8:	746e6572 	strbtvc	r6, [lr], #-1394	; 0xfffffa8e
 cdc:	44445000 	strbmi	r5, [r4], #-0
 ce0:	4c430052 	mcrrmi	0, 5, r0, r3, cr2
 ce4:	4300304d 	movwmi	r3, #77	; 0x4d
 ce8:	00314d4c 	eorseq	r4, r1, ip, asr #26
 cec:	324d4c43 	subcc	r4, sp, #17152	; 0x4300
 cf0:	4d4c4300 	stclmi	3, cr4, [ip, #-0]
 cf4:	4c430033 	mcrrmi	0, 3, r0, r3, cr3
 cf8:	4300344d 	movwmi	r3, #1101	; 0x44d
 cfc:	0034504c 	eorseq	r5, r4, ip, asr #32
 d00:	43746970 	cmnmi	r4, #112, 18	; 0x1c0000
 d04:	6b636f6c 	blvs	18dcabc <__exidx_end+0x18da7a4>
 d08:	64707500 	ldrbtvs	r7, [r0], #-1280	; 0xfffffb00
 d0c:	50657461 	rsbpl	r7, r5, r1, ror #8
 d10:	00734449 	rsbseq	r4, r3, r9, asr #8
 d14:	62756f64 	rsbsvs	r6, r5, #100, 30	; 0x190
 d18:	4300656c 	movwmi	r6, #1388	; 0x56c
 d1c:	0053504c 	subseq	r5, r3, ip, asr #32
 d20:	31434441 	cmpcc	r3, r1, asr #8
 d24:	75736552 	ldrbvc	r6, [r3, #-1362]!	; 0xfffffaae
 d28:	6e49746c 	cdpvs	4, 4, cr7, cr9, cr12, {3}
 d2c:	00786564 	rsbseq	r6, r8, r4, ror #10
 d30:	74616568 	strbtvc	r6, [r1], #-1384	; 0xfffffa98
 d34:	49507265 	ldmdbmi	r0, {r0, r2, r5, r6, r9, ip, sp, lr}^
 d38:	75700044 	ldrbvc	r0, [r0, #-68]!	; 0xffffffbc
 d3c:	7543706d 	strbvc	r7, [r3, #-109]	; 0xffffff93
 d40:	6e657272 	mcrvs	2, 3, r7, cr5, cr2, {3}
 d44:	74754474 	ldrbtvc	r4, [r5], #-1140	; 0xfffffb8c
 d48:	63794379 	cmnvs	r9, #-469762047	; 0xe4000001
 d4c:	7000656c 	andvc	r6, r0, ip, ror #10
 d50:	646c7469 	strbtvs	r7, [ip], #-1129	; 0xfffffb97
 d54:	006c6176 	rsbeq	r6, ip, r6, ror r1
 d58:	6e72656e 	cdpvs	5, 7, cr6, cr2, cr14, {3}
 d5c:	6f567473 	svcvs	0x00567473
 d60:	6761746c 	strbvs	r7, [r1, -ip, ror #8]!
 d64:	44495065 	strbmi	r5, [r9], #-101	; 0xffffff9b
 d68:	6d757000 	ldclvs	0, cr7, [r5, #-0]
 d6c:	72754370 	rsbsvc	r4, r5, #112, 6	; 0xc0000001
 d70:	746e6572 	strbtvc	r6, [lr], #-1394	; 0xfffffa8e
 d74:	69736544 	ldmdbvs	r3!, {r2, r6, r8, sl, sp, lr}^
 d78:	00646572 	rsbeq	r6, r4, r2, ror r5
 d7c:	444d4c43 	strbmi	r4, [sp], #-3139	; 0xfffff3bd
 d80:	49504700 	ldmdbmi	r0, {r8, r9, sl, lr}^
 d84:	79545f4f 	ldmdbvc	r4, {r0, r1, r2, r3, r6, r8, r9, sl, fp, ip, lr}^
 d88:	50006570 	andpl	r6, r0, r0, ror r5
 d8c:	00524f44 	subseq	r4, r2, r4, asr #30
 d90:	706d7570 	rsbvc	r7, sp, r0, ror r5
 d94:	72727543 	rsbsvc	r7, r2, #281018368	; 0x10c00000
 d98:	4d746e65 	ldclmi	14, cr6, [r4, #-404]!	; 0xfffffe6c
 d9c:	75736165 	ldrbvc	r6, [r3, #-357]!	; 0xfffffe9b
 da0:	00646572 	rsbeq	r6, r4, r2, ror r5
 da4:	31434441 	cmpcc	r3, r1, asr #8
 da8:	75736552 	ldrbvc	r6, [r3, #-1362]!	; 0xfffffaae
 dac:	0073746c 	rsbseq	r7, r3, ip, ror #8
 db0:	534d4c43 	movtpl	r4, #56387	; 0xdc43
 db4:	69616d00 	stmdbvs	r1!, {r8, sl, fp, sp, lr}^
 db8:	4c43006e 	mcrrmi	0, 6, r0, r3, cr14
 dbc:	43003050 	movwmi	r3, #80	; 0x50
 dc0:	0031504c 	eorseq	r5, r1, ip, asr #32
 dc4:	32504c43 	subscc	r4, r0, #17152	; 0x4300
 dc8:	504c4300 	subpl	r4, ip, r0, lsl #6
 dcc:	64610033 	strbtvs	r0, [r1], #-51	; 0xffffffcd
 dd0:	00632e63 	rsbeq	r2, r3, r3, ror #28
 dd4:	30434144 	subcc	r4, r3, r4, asr #2
 dd8:	494e495f 	stmdbmi	lr, {r0, r1, r2, r3, r4, r6, r8, fp, lr}^
 ddc:	4f500054 	svcmi	0x00500054
 de0:	44004e45 	strmi	r4, [r0], #-3653	; 0xfffff1bb
 de4:	00485441 	subeq	r5, r8, r1, asr #8
 de8:	4c544144 	ldfmie	f4, [r4], {68}	; 0x44
 dec:	43444100 	movtmi	r4, #16640	; 0x4100
 df0:	52495f31 	subpl	r5, r9, #49, 30	; 0xc4
 df4:	6e614851 	mcrvs	8, 3, r4, cr1, cr1, {2}
 df8:	72656c64 	rsbvc	r6, r5, #100, 24	; 0x6400
 dfc:	6c616300 	stclvs	3, cr6, [r1], #-0
 e00:	50006269 	andpl	r6, r0, r9, ror #4
 e04:	495f4244 	ldmdbmi	pc, {r2, r6, r9, lr}^	; <UNPREDICTABLE>
 e08:	0054494e 	subseq	r4, r4, lr, asr #18
 e0c:	5f424450 	svcpl	0x00424450
 e10:	65707954 	ldrbvs	r7, [r0, #-2388]!	; 0xfffff6ac
 e14:	43414400 	movtmi	r4, #5120	; 0x1400
 e18:	7079545f 	rsbsvc	r5, r9, pc, asr r4
 e1c:	4f500065 	svcmi	0x00500065
 e20:	00594c44 	subseq	r4, r9, r4, asr #24
 e24:	43544e49 	cmpmi	r4, #1168	; 0x490
 e28:	4c444900 	mcrrmi	9, 0, r4, r4, cr0
 e2c:	Address 0x0000000000000e2c is out of bounds.


Disassembly of section .debug_frame:

00000000 <.debug_frame>:
   0:	0000000c 	andeq	r0, r0, ip
   4:	ffffffff 			; <UNDEFINED> instruction: 0xffffffff
   8:	7c020001 	stcvc	0, cr0, [r2], {1}
   c:	000d0c0e 	andeq	r0, sp, lr, lsl #24
  10:	0000000c 	andeq	r0, r0, ip
  14:	00000000 	andeq	r0, r0, r0
  18:	000004d4 	ldrdeq	r0, [r0], -r4
  1c:	000000e8 	andeq	r0, r0, r8, ror #1
  20:	0000000c 	andeq	r0, r0, ip
	...
  2c:	00000128 	andeq	r0, r0, r8, lsr #2
  30:	0000000c 	andeq	r0, r0, ip
  34:	ffffffff 			; <UNDEFINED> instruction: 0xffffffff
  38:	7c020001 	stcvc	0, cr0, [r2], {1}
  3c:	000d0c0e 	andeq	r0, sp, lr, lsl #24
  40:	0000000c 	andeq	r0, r0, ip
  44:	00000030 	andeq	r0, r0, r0, lsr r0
  48:	00000000 	andeq	r0, r0, r0
  4c:	00000050 	andeq	r0, r0, r0, asr r0
  50:	0000000c 	andeq	r0, r0, ip
  54:	00000030 	andeq	r0, r0, r0, lsr r0
  58:	00000000 	andeq	r0, r0, r0
  5c:	00000050 	andeq	r0, r0, r0, asr r0
  60:	0000000c 	andeq	r0, r0, ip
  64:	00000030 	andeq	r0, r0, r0, lsr r0
  68:	00000000 	andeq	r0, r0, r0
  6c:	00000010 	andeq	r0, r0, r0, lsl r0
  70:	0000000c 	andeq	r0, r0, ip
  74:	00000030 	andeq	r0, r0, r0, lsr r0
  78:	00000000 	andeq	r0, r0, r0
  7c:	00000010 	andeq	r0, r0, r0, lsl r0
  80:	00000014 	andeq	r0, r0, r4, lsl r0
  84:	00000030 	andeq	r0, r0, r0, lsr r0
  88:	000005bc 			; <UNDEFINED> instruction: 0x000005bc
  8c:	00000020 	andeq	r0, r0, r0, lsr #32
  90:	83080e41 	movwhi	r0, #36417	; 0x8e41
  94:	00018e02 	andeq	r8, r1, r2, lsl #28
  98:	00000014 	andeq	r0, r0, r4, lsl r0
  9c:	00000030 	andeq	r0, r0, r0, lsr r0
  a0:	000005dc 	ldrdeq	r0, [r0], -ip
  a4:	00000020 	andeq	r0, r0, r0, lsr #32
  a8:	83080e41 	movwhi	r0, #36417	; 0x8e41
  ac:	00018e02 	andeq	r8, r1, r2, lsl #28
  b0:	0000000c 	andeq	r0, r0, ip
  b4:	ffffffff 			; <UNDEFINED> instruction: 0xffffffff
  b8:	7c020001 	stcvc	0, cr0, [r2], {1}
  bc:	000d0c0e 	andeq	r0, sp, lr, lsl #24
  c0:	0000001c 	andeq	r0, r0, ip, lsl r0
  c4:	000000b0 	strheq	r0, [r0], -r0	; <UNPREDICTABLE>
  c8:	000005fc 	strdeq	r0, [r0], -ip
  cc:	00000074 	andeq	r0, r0, r4, ror r0
  d0:	84180e42 	ldrhi	r0, [r8], #-3650	; 0xfffff1be
  d4:	86058506 	strhi	r8, [r5], -r6, lsl #10
  d8:	88038704 	stmdahi	r3, {r2, r8, r9, sl, pc}
  dc:	00018e02 	andeq	r8, r1, r2, lsl #28
  e0:	00000020 	andeq	r0, r0, r0, lsr #32
  e4:	000000b0 	strheq	r0, [r0], -r0	; <UNPREDICTABLE>
  e8:	00000670 	andeq	r0, r0, r0, ror r6
  ec:	000000ce 	andeq	r0, r0, lr, asr #1
  f0:	83200e42 	teqhi	r0, #1056	; 0x420
  f4:	85078408 	strhi	r8, [r7, #-1032]	; 0xfffffbf8
  f8:	87058606 	strhi	r8, [r5, -r6, lsl #12]
  fc:	89038804 	stmdbhi	r3, {r2, fp, pc}
 100:	00018e02 	andeq	r8, r1, r2, lsl #28
 104:	00000018 	andeq	r0, r0, r8, lsl r0
 108:	000000b0 	strheq	r0, [r0], -r0	; <UNPREDICTABLE>
 10c:	0000073e 	andeq	r0, r0, lr, lsr r7
 110:	0000003e 	andeq	r0, r0, lr, lsr r0
 114:	83100e41 	tsthi	r0, #1040	; 0x410
 118:	85038404 	strhi	r8, [r3, #-1028]	; 0xfffffbfc
 11c:	00018e02 	andeq	r8, r1, r2, lsl #28
 120:	0000000c 	andeq	r0, r0, ip
 124:	ffffffff 			; <UNDEFINED> instruction: 0xffffffff
 128:	7c020001 	stcvc	0, cr0, [r2], {1}
 12c:	000d0c0e 	andeq	r0, sp, lr, lsl #24
 130:	00000018 	andeq	r0, r0, r8, lsl r0
 134:	00000120 	andeq	r0, r0, r0, lsr #2
 138:	0000077c 	andeq	r0, r0, ip, ror r7
 13c:	0000007c 	andeq	r0, r0, ip, ror r0
 140:	840c0e43 	strhi	r0, [ip], #-3651	; 0xfffff1bd
 144:	8e028503 	cfsh32hi	mvfx8, mvfx2, #3
 148:	00000001 	andeq	r0, r0, r1
 14c:	0000000c 	andeq	r0, r0, ip
 150:	00000120 	andeq	r0, r0, r0, lsr #2
 154:	000007f8 	strdeq	r0, [r0], -r8
 158:	00000012 	andeq	r0, r0, r2, lsl r0
 15c:	00000014 	andeq	r0, r0, r4, lsl r0
 160:	00000120 	andeq	r0, r0, r0, lsr #2
 164:	0000080a 	andeq	r0, r0, sl, lsl #16
 168:	00000018 	andeq	r0, r0, r8, lsl r0
 16c:	84080e41 	strhi	r0, [r8], #-3649	; 0xfffff1bf
 170:	00018e02 	andeq	r8, r1, r2, lsl #28
 174:	0000000c 	andeq	r0, r0, ip
 178:	00000120 	andeq	r0, r0, r0, lsr #2
 17c:	00000000 	andeq	r0, r0, r0
 180:	00000014 	andeq	r0, r0, r4, lsl r0
 184:	0000000c 	andeq	r0, r0, ip
 188:	ffffffff 			; <UNDEFINED> instruction: 0xffffffff
 18c:	7c020001 	stcvc	0, cr0, [r2], {1}
 190:	000d0c0e 	andeq	r0, sp, lr, lsl #24
 194:	0000000c 	andeq	r0, r0, ip
 198:	00000184 	andeq	r0, r0, r4, lsl #3
 19c:	00000000 	andeq	r0, r0, r0
 1a0:	00000034 	andeq	r0, r0, r4, lsr r0
 1a4:	0000001c 	andeq	r0, r0, ip, lsl r0
 1a8:	00000184 	andeq	r0, r0, r4, lsl #3
 1ac:	00000824 	andeq	r0, r0, r4, lsr #16
 1b0:	000000a8 	andeq	r0, r0, r8, lsr #1
 1b4:	84140e41 	ldrhi	r0, [r4], #-3649	; 0xfffff1bf
 1b8:	86048505 	strhi	r8, [r4], -r5, lsl #10
 1bc:	8e028703 	cdphi	7, 0, cr8, cr2, cr3, {0}
 1c0:	00000001 	andeq	r0, r0, r1
 1c4:	0000000c 	andeq	r0, r0, ip
 1c8:	00000184 	andeq	r0, r0, r4, lsl #3
 1cc:	000008cc 	andeq	r0, r0, ip, asr #17
 1d0:	00000024 	andeq	r0, r0, r4, lsr #32
 1d4:	0000000c 	andeq	r0, r0, ip
 1d8:	ffffffff 			; <UNDEFINED> instruction: 0xffffffff
 1dc:	7c020001 	stcvc	0, cr0, [r2], {1}
 1e0:	000d0c0e 	andeq	r0, sp, lr, lsl #24
 1e4:	00000028 	andeq	r0, r0, r8, lsr #32
 1e8:	000001d4 	ldrdeq	r0, [r0], -r4
 1ec:	000008f0 	strdeq	r0, [r0], -r0	; <UNPREDICTABLE>
 1f0:	00000372 	andeq	r0, r0, r2, ror r3
 1f4:	84240e42 	strthi	r0, [r4], #-3650	; 0xfffff1be
 1f8:	86088509 	strhi	r8, [r8], -r9, lsl #10
 1fc:	88068707 	stmdahi	r6, {r0, r1, r2, r8, r9, sl, pc}
 200:	8a048905 	bhi	12261c <__exidx_end+0x120304>
 204:	8e028b03 	vmlahi.f64	d8, d2, d3
 208:	a80e4401 	stmdage	lr, {r0, sl, lr}
 20c:	00000008 	andeq	r0, r0, r8
 210:	00000018 	andeq	r0, r0, r8, lsl r0
 214:	000001d4 	ldrdeq	r0, [r0], -r4
 218:	00000000 	andeq	r0, r0, r0
 21c:	00000100 	andeq	r0, r0, r0, lsl #2
 220:	84100e41 	ldrhi	r0, [r0], #-3649	; 0xfffff1bf
 224:	86038504 	strhi	r8, [r3], -r4, lsl #10
 228:	00018e02 	andeq	r8, r1, r2, lsl #28
 22c:	0000000c 	andeq	r0, r0, ip
 230:	000001d4 	ldrdeq	r0, [r0], -r4
 234:	00000000 	andeq	r0, r0, r0
 238:	00000002 	andeq	r0, r0, r2
 23c:	0000000c 	andeq	r0, r0, ip
 240:	ffffffff 			; <UNDEFINED> instruction: 0xffffffff
 244:	7c020001 	stcvc	0, cr0, [r2], {1}
 248:	000d0c0e 	andeq	r0, sp, lr, lsl #24
 24c:	0000000c 	andeq	r0, r0, ip
 250:	0000023c 	andeq	r0, r0, ip, lsr r2
 254:	00000000 	andeq	r0, r0, r0
 258:	00000028 	andeq	r0, r0, r8, lsr #32
 25c:	0000000c 	andeq	r0, r0, ip
 260:	0000023c 	andeq	r0, r0, ip, lsr r2
 264:	00000000 	andeq	r0, r0, r0
 268:	0000002c 	andeq	r0, r0, ip, lsr #32
 26c:	00000014 	andeq	r0, r0, r4, lsl r0
 270:	0000023c 	andeq	r0, r0, ip, lsr r2
 274:	00000c64 	andeq	r0, r0, r4, ror #24
 278:	00000094 	muleq	r0, r4, r0
 27c:	84080e41 	strhi	r0, [r8], #-3649	; 0xfffff1bf
 280:	00018e02 	andeq	r8, r1, r2, lsl #28
 284:	00000018 	andeq	r0, r0, r8, lsl r0
 288:	0000023c 	andeq	r0, r0, ip, lsr r2
 28c:	00000cf8 	strdeq	r0, [r0], -r8
 290:	00000058 	andeq	r0, r0, r8, asr r0
 294:	840c0e41 	strhi	r0, [ip], #-3649	; 0xfffff1bf
 298:	8e028503 	cfsh32hi	mvfx8, mvfx2, #3
 29c:	00000001 	andeq	r0, r0, r1
 2a0:	0000000c 	andeq	r0, r0, ip
 2a4:	ffffffff 			; <UNDEFINED> instruction: 0xffffffff
 2a8:	7c020001 	stcvc	0, cr0, [r2], {1}
 2ac:	000d0c0e 	andeq	r0, sp, lr, lsl #24
 2b0:	0000000c 	andeq	r0, r0, ip
 2b4:	000002a0 	andeq	r0, r0, r0, lsr #5
 2b8:	0000170c 	andeq	r1, r0, ip, lsl #14
 2bc:	0000000c 	andeq	r0, r0, ip
 2c0:	0000000c 	andeq	r0, r0, ip
 2c4:	ffffffff 			; <UNDEFINED> instruction: 0xffffffff
 2c8:	7c020001 	stcvc	0, cr0, [r2], {1}
 2cc:	000d0c0e 	andeq	r0, sp, lr, lsl #24
 2d0:	00000014 	andeq	r0, r0, r4, lsl r0
 2d4:	000002c0 	andeq	r0, r0, r0, asr #5
 2d8:	00001718 	andeq	r1, r0, r8, lsl r7
 2dc:	00000028 	andeq	r0, r0, r8, lsr #32
 2e0:	83080e41 	movwhi	r0, #36417	; 0x8e41
 2e4:	00018e02 	andeq	r8, r1, r2, lsl #28
 2e8:	0000000c 	andeq	r0, r0, ip
 2ec:	ffffffff 			; <UNDEFINED> instruction: 0xffffffff
 2f0:	7c020001 	stcvc	0, cr0, [r2], {1}
 2f4:	000d0c0e 	andeq	r0, sp, lr, lsl #24
 2f8:	00000020 	andeq	r0, r0, r0, lsr #32
 2fc:	000002e8 	andeq	r0, r0, r8, ror #5
 300:	00001740 	andeq	r1, r0, r0, asr #14
 304:	00000028 	andeq	r0, r0, r8, lsr #32
 308:	83100e41 	tsthi	r0, #1040	; 0x410
 30c:	85038404 	strhi	r8, [r3, #-1028]	; 0xfffffbfc
 310:	4d018e02 	stcmi	14, cr8, [r1, #-8]
 314:	c3c4c5ce 	bicgt	ip, r4, #864026624	; 0x33800000
 318:	0000000e 	andeq	r0, r0, lr
 31c:	0000000c 	andeq	r0, r0, ip
 320:	ffffffff 			; <UNDEFINED> instruction: 0xffffffff
 324:	7c020001 	stcvc	0, cr0, [r2], {1}
 328:	000d0c0e 	andeq	r0, sp, lr, lsl #24
 32c:	00000018 	andeq	r0, r0, r8, lsl r0
 330:	0000031c 	andeq	r0, r0, ip, lsl r3
 334:	00001768 	andeq	r1, r0, r8, ror #14
 338:	0000004c 	andeq	r0, r0, ip, asr #32
 33c:	84100e41 	ldrhi	r0, [r0], #-3649	; 0xfffff1bf
 340:	86038504 	strhi	r8, [r3], -r4, lsl #10
 344:	00018e02 	andeq	r8, r1, r2, lsl #28
 348:	0000000c 	andeq	r0, r0, ip
 34c:	ffffffff 			; <UNDEFINED> instruction: 0xffffffff
 350:	7c020001 	stcvc	0, cr0, [r2], {1}
 354:	000d0c0e 	andeq	r0, sp, lr, lsl #24
 358:	0000000c 	andeq	r0, r0, ip
 35c:	00000348 	andeq	r0, r0, r8, asr #6
 360:	000017b4 			; <UNDEFINED> instruction: 0x000017b4
 364:	00000010 	andeq	r0, r0, r0, lsl r0
 368:	0000000c 	andeq	r0, r0, ip
 36c:	00000348 	andeq	r0, r0, r8, asr #6
 370:	000017c4 	andeq	r1, r0, r4, asr #15
 374:	00000010 	andeq	r0, r0, r0, lsl r0
 378:	0000000c 	andeq	r0, r0, ip
 37c:	ffffffff 			; <UNDEFINED> instruction: 0xffffffff
 380:	7c020001 	stcvc	0, cr0, [r2], {1}
 384:	000d0c0e 	andeq	r0, sp, lr, lsl #24
 388:	0000000c 	andeq	r0, r0, ip
 38c:	00000378 	andeq	r0, r0, r8, ror r3
 390:	000017d4 	ldrdeq	r1, [r0], -r4
 394:	00000010 	andeq	r0, r0, r0, lsl r0
 398:	0000000c 	andeq	r0, r0, ip
 39c:	ffffffff 			; <UNDEFINED> instruction: 0xffffffff
 3a0:	7c020001 	stcvc	0, cr0, [r2], {1}
 3a4:	000d0c0e 	andeq	r0, sp, lr, lsl #24
 3a8:	00000018 	andeq	r0, r0, r8, lsl r0
 3ac:	00000398 	muleq	r0, r8, r3
 3b0:	000017e4 	andeq	r1, r0, r4, ror #15
 3b4:	0000008c 	andeq	r0, r0, ip, lsl #1
 3b8:	840c0e41 	strhi	r0, [ip], #-3649	; 0xfffff1bf
 3bc:	8e028503 	cfsh32hi	mvfx8, mvfx2, #3
 3c0:	00000001 	andeq	r0, r0, r1
 3c4:	0000000c 	andeq	r0, r0, ip
 3c8:	ffffffff 			; <UNDEFINED> instruction: 0xffffffff
 3cc:	7c020001 	stcvc	0, cr0, [r2], {1}
 3d0:	000d0c0e 	andeq	r0, sp, lr, lsl #24
 3d4:	00000018 	andeq	r0, r0, r8, lsl r0
 3d8:	000003c4 	andeq	r0, r0, r4, asr #7
 3dc:	00001870 	andeq	r1, r0, r0, ror r8
 3e0:	000000a8 	andeq	r0, r0, r8, lsr #1
 3e4:	84100e41 	ldrhi	r0, [r0], #-3649	; 0xfffff1bf
 3e8:	86038504 	strhi	r8, [r3], -r4, lsl #10
 3ec:	00018e02 	andeq	r8, r1, r2, lsl #28
 3f0:	0000000c 	andeq	r0, r0, ip
 3f4:	ffffffff 			; <UNDEFINED> instruction: 0xffffffff
 3f8:	7c020001 	stcvc	0, cr0, [r2], {1}
 3fc:	000d0c0e 	andeq	r0, sp, lr, lsl #24
 400:	00000018 	andeq	r0, r0, r8, lsl r0
 404:	000003f0 	strdeq	r0, [r0], -r0	; <UNPREDICTABLE>
 408:	00001918 	andeq	r1, r0, r8, lsl r9
 40c:	00000020 	andeq	r0, r0, r0, lsr #32
 410:	83100e41 	tsthi	r0, #1040	; 0x410
 414:	85038404 	strhi	r8, [r3, #-1028]	; 0xfffffbfc
 418:	00018e02 	andeq	r8, r1, r2, lsl #28
 41c:	0000000c 	andeq	r0, r0, ip
 420:	ffffffff 			; <UNDEFINED> instruction: 0xffffffff
 424:	7c020001 	stcvc	0, cr0, [r2], {1}
 428:	000d0c0e 	andeq	r0, sp, lr, lsl #24
 42c:	0000002c 	andeq	r0, r0, ip, lsr #32
 430:	0000041c 	andeq	r0, r0, ip, lsl r4
 434:	00000000 	andeq	r0, r0, r0
 438:	00000040 	andeq	r0, r0, r0, asr #32
 43c:	82080e41 	andhi	r0, r8, #1040	; 0x410
 440:	41018302 	tstmi	r1, r2, lsl #6
 444:	0484100e 	streq	r1, [r4], #14
 448:	0e41038e 	cdpeq	3, 4, cr0, cr1, cr14, {4}
 44c:	0e590180 	rdfeq<illegal precision>	f0, f1, f0
 450:	c4ce4210 	strbgt	r4, [lr], #528	; 0x210
 454:	c341080e 	movtgt	r0, #6158	; 0x180e
 458:	00000ec2 	andeq	r0, r0, r2, asr #29
 45c:	0000002c 	andeq	r0, r0, ip, lsr #32
 460:	0000041c 	andeq	r0, r0, ip, lsl r4
 464:	00001938 	andeq	r1, r0, r8, lsr r9
 468:	00000048 	andeq	r0, r0, r8, asr #32
 46c:	810c0e41 	tsthi	ip, r1, asr #28
 470:	83028203 	movwhi	r8, #8707	; 0x2203
 474:	100e4101 	andne	r4, lr, r1, lsl #2
 478:	0e41048e 	cdpeq	4, 4, cr0, cr1, cr14, {4}
 47c:	0e5b0180 	rdfeq<illegal precision>	f0, f3, f0
 480:	0ece4210 	mcreq	2, 6, r4, cr14, cr0, {0}
 484:	c2c3410c 	sbcgt	r4, r3, #12, 2
 488:	00000ec1 	andeq	r0, r0, r1, asr #29
 48c:	0000000c 	andeq	r0, r0, ip
 490:	ffffffff 			; <UNDEFINED> instruction: 0xffffffff
 494:	7c020001 	stcvc	0, cr0, [r2], {1}
 498:	000d0c0e 	andeq	r0, sp, lr, lsl #24
 49c:	00000020 	andeq	r0, r0, r0, lsr #32
 4a0:	0000048c 	andeq	r0, r0, ip, lsl #9
 4a4:	00001980 	andeq	r1, r0, r0, lsl #19
 4a8:	000000b8 	strheq	r0, [r0], -r8
 4ac:	83200e42 	teqhi	r0, #1056	; 0x420
 4b0:	85078408 	strhi	r8, [r7, #-1032]	; 0xfffffbf8
 4b4:	87058606 	strhi	r8, [r5, -r6, lsl #12]
 4b8:	89038804 	stmdbhi	r3, {r2, fp, pc}
 4bc:	00018e02 	andeq	r8, r1, r2, lsl #28
 4c0:	0000000c 	andeq	r0, r0, ip
 4c4:	ffffffff 			; <UNDEFINED> instruction: 0xffffffff
 4c8:	7c020001 	stcvc	0, cr0, [r2], {1}
 4cc:	000d0c0e 	andeq	r0, sp, lr, lsl #24
 4d0:	00000028 	andeq	r0, r0, r8, lsr #32
 4d4:	000004c0 	andeq	r0, r0, r0, asr #9
 4d8:	00001a38 	andeq	r1, r0, r8, lsr sl
 4dc:	000000d4 	ldrdeq	r0, [r0], -r4
 4e0:	84300e42 	ldrthi	r0, [r0], #-3650	; 0xfffff1be
 4e4:	86088509 	strhi	r8, [r8], -r9, lsl #10
 4e8:	88068707 	stmdahi	r6, {r0, r1, r2, r8, r9, sl, pc}
 4ec:	8a048905 	bhi	122908 <__exidx_end+0x1205f0>
 4f0:	8e028b03 	vmlahi.f64	d8, d2, d3
 4f4:	0e610201 	cdpeq	2, 6, cr0, cr1, cr1, {0}
 4f8:	00000024 	andeq	r0, r0, r4, lsr #32
 4fc:	0000000c 	andeq	r0, r0, ip
 500:	ffffffff 			; <UNDEFINED> instruction: 0xffffffff
 504:	7c020001 	stcvc	0, cr0, [r2], {1}
 508:	000d0c0e 	andeq	r0, sp, lr, lsl #24
 50c:	00000020 	andeq	r0, r0, r0, lsr #32
 510:	000004fc 	strdeq	r0, [r0], -ip
 514:	00001b0c 	andeq	r1, r0, ip, lsl #22
 518:	000000b2 	strheq	r0, [r0], -r2
 51c:	84200e42 	strthi	r0, [r0], #-3650	; 0xfffff1be
 520:	86078508 	strhi	r8, [r7], -r8, lsl #10
 524:	88058706 	stmdahi	r5, {r1, r2, r8, r9, sl, pc}
 528:	8a038904 	bhi	e2940 <__exidx_end+0xe0628>
 52c:	00018e02 	andeq	r8, r1, r2, lsl #28
 530:	00000028 	andeq	r0, r0, r8, lsr #32
 534:	000004fc 	strdeq	r0, [r0], -ip
 538:	00000000 	andeq	r0, r0, r0
 53c:	000000fe 	strdeq	r0, [r0], -lr
 540:	84300e42 	ldrthi	r0, [r0], #-3650	; 0xfffff1be
 544:	86088509 	strhi	r8, [r8], -r9, lsl #10
 548:	88068707 	stmdahi	r6, {r0, r1, r2, r8, r9, sl, pc}
 54c:	8a048905 	bhi	122968 <__exidx_end+0x120650>
 550:	8e028b03 	vmlahi.f64	d8, d2, d3
 554:	0e7b0201 	cdpeq	2, 7, cr0, cr11, cr1, {0}
 558:	00000024 	andeq	r0, r0, r4, lsr #32
 55c:	0000002c 	andeq	r0, r0, ip, lsr #32
 560:	000004fc 	strdeq	r0, [r0], -ip
 564:	00001bc0 	andeq	r1, r0, r0, asr #23
 568:	000001e8 	andeq	r0, r0, r8, ror #3
 56c:	84240e42 	strthi	r0, [r4], #-3650	; 0xfffff1be
 570:	86088509 	strhi	r8, [r8], -r9, lsl #10
 574:	88068707 	stmdahi	r6, {r0, r1, r2, r8, r9, sl, pc}
 578:	8a048905 	bhi	122994 <__exidx_end+0x12067c>
 57c:	8e028b03 	vmlahi.f64	d8, d2, d3
 580:	980e4101 	stmdals	lr, {r0, r8, lr}
 584:	0ee40201 	cdpeq	2, 14, cr0, cr4, cr1, {0}
 588:	00000024 	andeq	r0, r0, r4, lsr #32
 58c:	0000000c 	andeq	r0, r0, ip
 590:	ffffffff 			; <UNDEFINED> instruction: 0xffffffff
 594:	7c020001 	stcvc	0, cr0, [r2], {1}
 598:	000d0c0e 	andeq	r0, sp, lr, lsl #24
 59c:	00000020 	andeq	r0, r0, r0, lsr #32
 5a0:	0000058c 	andeq	r0, r0, ip, lsl #11
 5a4:	00001da8 	andeq	r1, r0, r8, lsr #27
 5a8:	000000ec 	andeq	r0, r0, ip, ror #1
 5ac:	84200e42 	strthi	r0, [r0], #-3650	; 0xfffff1be
 5b0:	86078508 	strhi	r8, [r7], -r8, lsl #10
 5b4:	88058706 	stmdahi	r5, {r1, r2, r8, r9, sl, pc}
 5b8:	8a038904 	bhi	e29d0 <__exidx_end+0xe06b8>
 5bc:	00018e02 	andeq	r8, r1, r2, lsl #28
 5c0:	00000028 	andeq	r0, r0, r8, lsr #32
 5c4:	0000058c 	andeq	r0, r0, ip, lsl #11
 5c8:	00001e94 	muleq	r0, r4, lr
 5cc:	0000024c 	andeq	r0, r0, ip, asr #4
 5d0:	841c0e42 	ldrhi	r0, [ip], #-3650	; 0xfffff1be
 5d4:	86068507 	strhi	r8, [r6], -r7, lsl #10
 5d8:	88048705 	stmdahi	r4, {r0, r2, r8, r9, sl, pc}
 5dc:	8e028903 	cdphi	9, 0, cr8, cr2, cr3, {0}
 5e0:	300e4301 	andcc	r4, lr, r1, lsl #6
 5e4:	0e011b03 	vmlaeq.f64	d1, d1, d3
 5e8:	0000001c 	andeq	r0, r0, ip, lsl r0
 5ec:	0000000c 	andeq	r0, r0, ip
 5f0:	ffffffff 			; <UNDEFINED> instruction: 0xffffffff
 5f4:	7c020001 	stcvc	0, cr0, [r2], {1}
 5f8:	000d0c0e 	andeq	r0, sp, lr, lsl #24
 5fc:	00000020 	andeq	r0, r0, r0, lsr #32
 600:	000005ec 	andeq	r0, r0, ip, ror #11
 604:	00000000 	andeq	r0, r0, r0
 608:	0000001a 	andeq	r0, r0, sl, lsl r0
 60c:	83100e41 	tsthi	r0, #1040	; 0x410
 610:	85038404 	strhi	r8, [r3, #-1028]	; 0xfffffbfc
 614:	4a018e02 	bmi	63e24 <__exidx_end+0x61b0c>
 618:	c3c4c5ce 	bicgt	ip, r4, #864026624	; 0x33800000
 61c:	0000000e 	andeq	r0, r0, lr
 620:	00000024 	andeq	r0, r0, r4, lsr #32
 624:	000005ec 	andeq	r0, r0, ip, ror #11
 628:	00000000 	andeq	r0, r0, r0
 62c:	000000b4 	strheq	r0, [r0], -r4
 630:	84100e44 	ldrhi	r0, [r0], #-3652	; 0xfffff1bc
 634:	86038504 	strhi	r8, [r3], -r4, lsl #10
 638:	02018e02 	andeq	r8, r1, #2, 28
 63c:	c6ce0a51 			; <UNDEFINED> instruction: 0xc6ce0a51
 640:	000ec4c5 	andeq	ip, lr, r5, asr #9
 644:	00000b42 	andeq	r0, r0, r2, asr #22
 648:	0000000c 	andeq	r0, r0, ip
 64c:	ffffffff 			; <UNDEFINED> instruction: 0xffffffff
 650:	7c020001 	stcvc	0, cr0, [r2], {1}
 654:	000d0c0e 	andeq	r0, sp, lr, lsl #24
 658:	00000014 	andeq	r0, r0, r4, lsl r0
 65c:	00000648 	andeq	r0, r0, r8, asr #12
 660:	000020e0 	andeq	r2, r0, r0, ror #1
 664:	0000001e 	andeq	r0, r0, lr, lsl r0
 668:	84080e41 	strhi	r0, [r8], #-3649	; 0xfffff1bf
 66c:	00018e02 	andeq	r8, r1, r2, lsl #28
 670:	0000000c 	andeq	r0, r0, ip
 674:	ffffffff 			; <UNDEFINED> instruction: 0xffffffff
 678:	7c020001 	stcvc	0, cr0, [r2], {1}
 67c:	000d0c0e 	andeq	r0, sp, lr, lsl #24
 680:	00000014 	andeq	r0, r0, r4, lsl r0
 684:	00000670 	andeq	r0, r0, r0, ror r6
 688:	000020fe 	strdeq	r2, [r0], -lr
 68c:	00000016 	andeq	r0, r0, r6, lsl r0
 690:	84080e41 	strhi	r0, [r8], #-3649	; 0xfffff1bf
 694:	00018e02 	andeq	r8, r1, r2, lsl #28
 698:	0000000c 	andeq	r0, r0, ip
 69c:	ffffffff 			; <UNDEFINED> instruction: 0xffffffff
 6a0:	7c020001 	stcvc	0, cr0, [r2], {1}
 6a4:	000d0c0e 	andeq	r0, sp, lr, lsl #24
 6a8:	00000014 	andeq	r0, r0, r4, lsl r0
 6ac:	00000698 	muleq	r0, r8, r6
 6b0:	00002114 	andeq	r2, r0, r4, lsl r1
 6b4:	00000036 	andeq	r0, r0, r6, lsr r0
 6b8:	84080e42 	strhi	r0, [r8], #-3650	; 0xfffff1be
 6bc:	00018e02 	andeq	r8, r1, r2, lsl #28
 6c0:	0000000c 	andeq	r0, r0, ip
 6c4:	ffffffff 			; <UNDEFINED> instruction: 0xffffffff
 6c8:	7c020001 	stcvc	0, cr0, [r2], {1}
 6cc:	000d0c0e 	andeq	r0, sp, lr, lsl #24
 6d0:	00000028 	andeq	r0, r0, r8, lsr #32
 6d4:	000006c0 	andeq	r0, r0, r0, asr #13
 6d8:	0000214a 	andeq	r2, r0, sl, asr #2
 6dc:	0000004c 	andeq	r0, r0, ip, asr #32
 6e0:	83180e41 	tsthi	r8, #1040	; 0x410
 6e4:	85058406 	strhi	r8, [r5, #-1030]	; 0xfffffbfa
 6e8:	87038604 	strhi	r8, [r3, -r4, lsl #12]
 6ec:	47018e02 	strmi	r8, [r1, -r2, lsl #28]
 6f0:	c6c7ce0a 	strbgt	ip, [r7], sl, lsl #28
 6f4:	0ec3c4c5 	cdpeq	4, 12, cr12, cr3, cr5, {6}
 6f8:	000b4200 	andeq	r4, fp, r0, lsl #4
 6fc:	0000000c 	andeq	r0, r0, ip
 700:	ffffffff 			; <UNDEFINED> instruction: 0xffffffff
 704:	7c020001 	stcvc	0, cr0, [r2], {1}
 708:	000d0c0e 	andeq	r0, sp, lr, lsl #24
 70c:	0000000c 	andeq	r0, r0, ip
 710:	000006fc 	strdeq	r0, [r0], -ip
 714:	00002196 	muleq	r0, r6, r1
 718:	00000014 	andeq	r0, r0, r4, lsl r0
 71c:	0000000c 	andeq	r0, r0, ip
 720:	ffffffff 			; <UNDEFINED> instruction: 0xffffffff
 724:	7c020001 	stcvc	0, cr0, [r2], {1}
 728:	000d0c0e 	andeq	r0, sp, lr, lsl #24
 72c:	0000000c 	andeq	r0, r0, ip
 730:	0000071c 	andeq	r0, r0, ip, lsl r7
 734:	000021ac 	andeq	r2, r0, ip, lsr #3
 738:	0000001c 	andeq	r0, r0, ip, lsl r0
 73c:	0000000c 	andeq	r0, r0, ip
 740:	ffffffff 			; <UNDEFINED> instruction: 0xffffffff
 744:	7c020001 	stcvc	0, cr0, [r2], {1}
 748:	000d0c0e 	andeq	r0, sp, lr, lsl #24
 74c:	0000000c 	andeq	r0, r0, ip
 750:	0000073c 	andeq	r0, r0, ip, lsr r7
 754:	000021c8 	andeq	r2, r0, r8, asr #3
 758:	00000002 	andeq	r0, r0, r2
