
build/wideband.elf:     file format elf32-littlearm


Disassembly of section .isr_vector:

00000000 <__isr_vector>:
   0:	20030000 	andcs	r0, r3, r0
   4:	00000d89 	andeq	r0, r0, r9, lsl #27
   8:	00000db9 			; <UNDEFINED> instruction: 0x00000db9
   c:	00000dbd 			; <UNDEFINED> instruction: 0x00000dbd
  10:	00000dc1 	andeq	r0, r0, r1, asr #27
  14:	00000dc5 	andeq	r0, r0, r5, asr #27
  18:	00000dc9 	andeq	r0, r0, r9, asr #27
	...
  2c:	00000dcd 	andeq	r0, r0, sp, asr #27
  30:	00000dd1 	ldrdeq	r0, [r0], -r1
  34:	00000000 	andeq	r0, r0, r0
  38:	00000dd5 	ldrdeq	r0, [r0], -r5
  3c:	00000dd9 	ldrdeq	r0, [r0], -r9
  40:	00000ddd 	ldrdeq	r0, [r0], -sp
  44:	00000ddd 	ldrdeq	r0, [r0], -sp
  48:	00000ddd 	ldrdeq	r0, [r0], -sp
  4c:	00000ddd 	ldrdeq	r0, [r0], -sp
  50:	00000ddd 	ldrdeq	r0, [r0], -sp
  54:	00000ddd 	ldrdeq	r0, [r0], -sp
  58:	00000ddd 	ldrdeq	r0, [r0], -sp
  5c:	00000ddd 	ldrdeq	r0, [r0], -sp
  60:	00000ddd 	ldrdeq	r0, [r0], -sp
  64:	00000ddd 	ldrdeq	r0, [r0], -sp
  68:	00000ddd 	ldrdeq	r0, [r0], -sp
  6c:	00000ddd 	ldrdeq	r0, [r0], -sp
  70:	00000ddd 	ldrdeq	r0, [r0], -sp
  74:	00000ddd 	ldrdeq	r0, [r0], -sp
  78:	00000ddd 	ldrdeq	r0, [r0], -sp
  7c:	00000ddd 	ldrdeq	r0, [r0], -sp
  80:	00000ddd 	ldrdeq	r0, [r0], -sp
  84:	00000ddd 	ldrdeq	r0, [r0], -sp
  88:	00000ddd 	ldrdeq	r0, [r0], -sp
  8c:	00000ddd 	ldrdeq	r0, [r0], -sp
  90:	00000ddd 	ldrdeq	r0, [r0], -sp
  94:	00000ddd 	ldrdeq	r0, [r0], -sp
  98:	00000ddd 	ldrdeq	r0, [r0], -sp
  9c:	00000ddd 	ldrdeq	r0, [r0], -sp
  a0:	00000ddd 	ldrdeq	r0, [r0], -sp
  a4:	00000ddd 	ldrdeq	r0, [r0], -sp
  a8:	00000ddd 	ldrdeq	r0, [r0], -sp
  ac:	00000ddd 	ldrdeq	r0, [r0], -sp
  b0:	00000ddd 	ldrdeq	r0, [r0], -sp
  b4:	00000ddd 	ldrdeq	r0, [r0], -sp
  b8:	00000ddd 	ldrdeq	r0, [r0], -sp
  bc:	00000ddd 	ldrdeq	r0, [r0], -sp
  c0:	00000ddd 	ldrdeq	r0, [r0], -sp
  c4:	00000ddd 	ldrdeq	r0, [r0], -sp
  c8:	00000ddd 	ldrdeq	r0, [r0], -sp
  cc:	00000ddd 	ldrdeq	r0, [r0], -sp
  d0:	00000ddd 	ldrdeq	r0, [r0], -sp
  d4:	00000ddd 	ldrdeq	r0, [r0], -sp
  d8:	00000ddd 	ldrdeq	r0, [r0], -sp
  dc:	00000ddd 	ldrdeq	r0, [r0], -sp
  e0:	00000ddd 	ldrdeq	r0, [r0], -sp
  e4:	00000ddd 	ldrdeq	r0, [r0], -sp
  e8:	00000905 	andeq	r0, r0, r5, lsl #18
  ec:	00000ddd 	ldrdeq	r0, [r0], -sp
  f0:	00000ddd 	ldrdeq	r0, [r0], -sp
  f4:	00000ddd 	ldrdeq	r0, [r0], -sp
  f8:	00000ddd 	ldrdeq	r0, [r0], -sp
  fc:	00000ddd 	ldrdeq	r0, [r0], -sp
 100:	0000074d 	andeq	r0, r0, sp, asr #14
 104:	0000076d 	andeq	r0, r0, sp, ror #14
 108:	00000ddd 	ldrdeq	r0, [r0], -sp
 10c:	00000ddd 	ldrdeq	r0, [r0], -sp
 110:	00000ddd 	ldrdeq	r0, [r0], -sp
 114:	00000ddd 	ldrdeq	r0, [r0], -sp
 118:	00000ddd 	ldrdeq	r0, [r0], -sp
 11c:	00000ddd 	ldrdeq	r0, [r0], -sp
 120:	00000ddd 	ldrdeq	r0, [r0], -sp
 124:	00000ddd 	ldrdeq	r0, [r0], -sp
 128:	00000ddd 	ldrdeq	r0, [r0], -sp
 12c:	00000ddd 	ldrdeq	r0, [r0], -sp
 130:	00000ddd 	ldrdeq	r0, [r0], -sp
 134:	00000ddd 	ldrdeq	r0, [r0], -sp
 138:	00000ddd 	ldrdeq	r0, [r0], -sp
 13c:	00000ddd 	ldrdeq	r0, [r0], -sp
 140:	00000ddd 	ldrdeq	r0, [r0], -sp
 144:	00000ddd 	ldrdeq	r0, [r0], -sp
 148:	00000ddd 	ldrdeq	r0, [r0], -sp
 14c:	00000ddd 	ldrdeq	r0, [r0], -sp
 150:	00000ddd 	ldrdeq	r0, [r0], -sp
 154:	00000ddd 	ldrdeq	r0, [r0], -sp
 158:	00000ddd 	ldrdeq	r0, [r0], -sp
 15c:	00000ddd 	ldrdeq	r0, [r0], -sp
 160:	00000ddd 	ldrdeq	r0, [r0], -sp
 164:	00000d31 	andeq	r0, r0, r1, lsr sp
 168:	00000ddd 	ldrdeq	r0, [r0], -sp
 16c:	00000ddd 	ldrdeq	r0, [r0], -sp
 170:	00000ddd 	ldrdeq	r0, [r0], -sp
 174:	00000ddd 	ldrdeq	r0, [r0], -sp
 178:	00000ddd 	ldrdeq	r0, [r0], -sp
 17c:	00000ddd 	ldrdeq	r0, [r0], -sp
 180:	00000ddd 	ldrdeq	r0, [r0], -sp
 184:	00000ddd 	ldrdeq	r0, [r0], -sp
 188:	00000ddd 	ldrdeq	r0, [r0], -sp
 18c:	00000ddd 	ldrdeq	r0, [r0], -sp
 190:	00000ddd 	ldrdeq	r0, [r0], -sp
 194:	00000ddd 	ldrdeq	r0, [r0], -sp

Disassembly of section .flash_protect:

00000400 <kinetis_flash_config>:
 400:	ffffffff 			; <UNDEFINED> instruction: 0xffffffff
 404:	ffffffff 			; <UNDEFINED> instruction: 0xffffffff
 408:	ffffffff 			; <UNDEFINED> instruction: 0xffffffff
 40c:	fffffffe 			; <UNDEFINED> instruction: 0xfffffffe

Disassembly of section .text:

00000410 <__do_global_dtors_aux>:
     410:	b510      	push	{r4, lr}
     412:	4c05      	ldr	r4, [pc, #20]	; (428 <__do_global_dtors_aux+0x18>)
     414:	7822      	ldrb	r2, [r4, #0]
     416:	b932      	cbnz	r2, 426 <__do_global_dtors_aux+0x16>
     418:	4b04      	ldr	r3, [pc, #16]	; (42c <__do_global_dtors_aux+0x1c>)
     41a:	b113      	cbz	r3, 422 <__do_global_dtors_aux+0x12>
     41c:	4804      	ldr	r0, [pc, #16]	; (430 <__do_global_dtors_aux+0x20>)
     41e:	f3af 8000 	nop.w
     422:	2301      	movs	r3, #1
     424:	7023      	strb	r3, [r4, #0]
     426:	bd10      	pop	{r4, pc}
     428:	1fff0208 	svcne	0x00ff0208
     42c:	00000000 	andeq	r0, r0, r0
     430:	000029ac 	andeq	r2, r0, ip, lsr #19

00000434 <frame_dummy>:
     434:	4b07      	ldr	r3, [pc, #28]	; (454 <frame_dummy+0x20>)
     436:	b510      	push	{r4, lr}
     438:	b11b      	cbz	r3, 442 <frame_dummy+0xe>
     43a:	4907      	ldr	r1, [pc, #28]	; (458 <frame_dummy+0x24>)
     43c:	4807      	ldr	r0, [pc, #28]	; (45c <frame_dummy+0x28>)
     43e:	f3af 8000 	nop.w
     442:	4807      	ldr	r0, [pc, #28]	; (460 <frame_dummy+0x2c>)
     444:	6803      	ldr	r3, [r0, #0]
     446:	b123      	cbz	r3, 452 <frame_dummy+0x1e>
     448:	4b06      	ldr	r3, [pc, #24]	; (464 <frame_dummy+0x30>)
     44a:	b113      	cbz	r3, 452 <frame_dummy+0x1e>
     44c:	e8bd 4010 	ldmia.w	sp!, {r4, lr}
     450:	4718      	bx	r3
     452:	bd10      	pop	{r4, pc}
     454:	00000000 	andeq	r0, r0, r0
     458:	1fff020c 	svcne	0x00ff020c
     45c:	000029ac 	andeq	r2, r0, ip, lsr #19
     460:	1fff0208 	svcne	0x00ff0208
     464:	00000000 	andeq	r0, r0, r0

00000468 <_mainCRTStartup>:
     468:	4b13      	ldr	r3, [pc, #76]	; (4b8 <_mainCRTStartup+0x50>)
     46a:	2b00      	cmp	r3, #0
     46c:	bf08      	it	eq
     46e:	4b11      	ldreq	r3, [pc, #68]	; (4b4 <_mainCRTStartup+0x4c>)
     470:	469d      	mov	sp, r3
     472:	f5a3 3a80 	sub.w	sl, r3, #65536	; 0x10000
     476:	2100      	movs	r1, #0
     478:	468b      	mov	fp, r1
     47a:	460f      	mov	r7, r1
     47c:	4811      	ldr	r0, [pc, #68]	; (4c4 <_mainCRTStartup+0x5c>)
     47e:	4a12      	ldr	r2, [pc, #72]	; (4c8 <_mainCRTStartup+0x60>)
     480:	1a12      	subs	r2, r2, r0
     482:	f001 fcad 	bl	1de0 <memset>
     486:	4b0d      	ldr	r3, [pc, #52]	; (4bc <_mainCRTStartup+0x54>)
     488:	2b00      	cmp	r3, #0
     48a:	d000      	beq.n	48e <_mainCRTStartup+0x26>
     48c:	4798      	blx	r3
     48e:	4b0c      	ldr	r3, [pc, #48]	; (4c0 <_mainCRTStartup+0x58>)
     490:	2b00      	cmp	r3, #0
     492:	d000      	beq.n	496 <_mainCRTStartup+0x2e>
     494:	4798      	blx	r3
     496:	2000      	movs	r0, #0
     498:	2100      	movs	r1, #0
     49a:	0004      	movs	r4, r0
     49c:	000d      	movs	r5, r1
     49e:	480b      	ldr	r0, [pc, #44]	; (4cc <_mainCRTStartup+0x64>)
     4a0:	f001 fc3c 	bl	1d1c <atexit>
     4a4:	f001 fc68 	bl	1d78 <__libc_init_array>
     4a8:	0020      	movs	r0, r4
     4aa:	0029      	movs	r1, r5
     4ac:	f000 fade 	bl	a6c <main>
     4b0:	f001 fc3a 	bl	1d28 <exit>
     4b4:	00080000 	andeq	r0, r8, r0
     4b8:	20030000 	andcs	r0, r3, r0
	...
     4c4:	1fff0208 	svcne	0x00ff0208
     4c8:	1fff0378 	svcne	0x00ff0378
     4cc:	00001d51 	andeq	r1, r0, r1, asr sp

000004d0 <SystemInit>:
     4d0:	4b34      	ldr	r3, [pc, #208]	; (5a4 <SystemInit+0xd4>)
     4d2:	f24c 5220 	movw	r2, #50464	; 0xc520
     4d6:	81da      	strh	r2, [r3, #14]
     4d8:	f64d 1228 	movw	r2, #55592	; 0xd928
     4dc:	81da      	strh	r2, [r3, #14]
     4de:	f44f 72e9 	mov.w	r2, #466	; 0x1d2
     4e2:	801a      	strh	r2, [r3, #0]
     4e4:	f503 332c 	add.w	r3, r3, #176128	; 0x2b000
     4e8:	f241 0138 	movw	r1, #4152	; 0x1038
     4ec:	789a      	ldrb	r2, [r3, #2]
     4ee:	0710      	lsls	r0, r2, #28
     4f0:	bf42      	ittt	mi
     4f2:	789a      	ldrbmi	r2, [r3, #2]
     4f4:	f042 0208 	orrmi.w	r2, r2, #8
     4f8:	709a      	strbmi	r2, [r3, #2]
     4fa:	4b2b      	ldr	r3, [pc, #172]	; (5a8 <SystemInit+0xd8>)
     4fc:	585a      	ldr	r2, [r3, r1]
     4fe:	f442 7200 	orr.w	r2, r2, #512	; 0x200
     502:	505a      	str	r2, [r3, r1]
     504:	f241 0244 	movw	r2, #4164	; 0x1044
     508:	f04f 7192 	mov.w	r1, #19136512	; 0x1240000
     50c:	5099      	str	r1, [r3, r2]
     50e:	f241 0104 	movw	r1, #4100	; 0x1004
     512:	585a      	ldr	r2, [r3, r1]
     514:	f442 3280 	orr.w	r2, r2, #65536	; 0x10000
     518:	505a      	str	r2, [r3, r1]
     51a:	681a      	ldr	r2, [r3, #0]
     51c:	f442 2240 	orr.w	r2, r2, #786432	; 0xc0000
     520:	601a      	str	r2, [r3, #0]
     522:	4a22      	ldr	r2, [pc, #136]	; (5ac <SystemInit+0xdc>)
     524:	6c93      	ldr	r3, [r2, #72]	; 0x48
     526:	f023 7380 	bic.w	r3, r3, #16777216	; 0x1000000
     52a:	f423 63e0 	bic.w	r3, r3, #1792	; 0x700
     52e:	6493      	str	r3, [r2, #72]	; 0x48
     530:	4b1f      	ldr	r3, [pc, #124]	; (5b0 <SystemInit+0xe0>)
     532:	2220      	movs	r2, #32
     534:	705a      	strb	r2, [r3, #1]
     536:	4a1f      	ldr	r2, [pc, #124]	; (5b4 <SystemInit+0xe4>)
     538:	2180      	movs	r1, #128	; 0x80
     53a:	7011      	strb	r1, [r2, #0]
     53c:	7b1a      	ldrb	r2, [r3, #12]
     53e:	f002 02fc 	and.w	r2, r2, #252	; 0xfc
     542:	731a      	strb	r2, [r3, #12]
     544:	22ba      	movs	r2, #186	; 0xba
     546:	701a      	strb	r2, [r3, #0]
     548:	78da      	ldrb	r2, [r3, #3]
     54a:	f002 021f 	and.w	r2, r2, #31
     54e:	70da      	strb	r2, [r3, #3]
     550:	2213      	movs	r2, #19
     552:	711a      	strb	r2, [r3, #4]
     554:	2218      	movs	r2, #24
     556:	715a      	strb	r2, [r3, #5]
     558:	799a      	ldrb	r2, [r3, #6]
     55a:	06d1      	lsls	r1, r2, #27
     55c:	d4fc      	bmi.n	558 <SystemInit+0x88>
     55e:	7999      	ldrb	r1, [r3, #6]
     560:	4a13      	ldr	r2, [pc, #76]	; (5b0 <SystemInit+0xe0>)
     562:	f001 010c 	and.w	r1, r1, #12
     566:	2908      	cmp	r1, #8
     568:	d1f9      	bne.n	55e <SystemInit+0x8e>
     56a:	2358      	movs	r3, #88	; 0x58
     56c:	7153      	strb	r3, [r2, #5]
     56e:	7993      	ldrb	r3, [r2, #6]
     570:	490f      	ldr	r1, [pc, #60]	; (5b0 <SystemInit+0xe0>)
     572:	f003 030c 	and.w	r3, r3, #12
     576:	2b08      	cmp	r3, #8
     578:	d1f9      	bne.n	56e <SystemInit+0x9e>
     57a:	798a      	ldrb	r2, [r1, #6]
     57c:	4b0c      	ldr	r3, [pc, #48]	; (5b0 <SystemInit+0xe0>)
     57e:	0652      	lsls	r2, r2, #25
     580:	d5fb      	bpl.n	57a <SystemInit+0xaa>
     582:	222a      	movs	r2, #42	; 0x2a
     584:	701a      	strb	r2, [r3, #0]
     586:	799a      	ldrb	r2, [r3, #6]
     588:	f002 020c 	and.w	r2, r2, #12
     58c:	2a0c      	cmp	r2, #12
     58e:	d1fa      	bne.n	586 <SystemInit+0xb6>
     590:	4905      	ldr	r1, [pc, #20]	; (5a8 <SystemInit+0xd8>)
     592:	f241 0248 	movw	r2, #4168	; 0x1048
     596:	588b      	ldr	r3, [r1, r2]
     598:	f023 030f 	bic.w	r3, r3, #15
     59c:	f043 0309 	orr.w	r3, r3, #9
     5a0:	508b      	str	r3, [r1, r2]
     5a2:	4770      	bx	lr
     5a4:	40052000 	andmi	r2, r5, r0
     5a8:	40047000 	andmi	r7, r4, r0
     5ac:	40049000 	andmi	r9, r4, r0
     5b0:	40064000 	andmi	r4, r6, r0
     5b4:	40065000 	andmi	r5, r6, r0

000005b8 <PIDInitialize>:
     5b8:	e92d 41f0 	stmdb	sp!, {r4, r5, r6, r7, r8, lr}
     5bc:	9e08      	ldr	r6, [sp, #32]
     5be:	6001      	str	r1, [r0, #0]
     5c0:	4604      	mov	r4, r0
     5c2:	6042      	str	r2, [r0, #4]
     5c4:	4631      	mov	r1, r6
     5c6:	6083      	str	r3, [r0, #8]
     5c8:	9806      	ldr	r0, [sp, #24]
     5ca:	9f07      	ldr	r7, [sp, #28]
     5cc:	f001 f8d6 	bl	177c <__aeabi_fsub>
     5d0:	4631      	mov	r1, r6
     5d2:	4605      	mov	r5, r0
     5d4:	4638      	mov	r0, r7
     5d6:	f001 f8d1 	bl	177c <__aeabi_fsub>
     5da:	f04f 517e 	mov.w	r1, #1065353216	; 0x3f800000
     5de:	4680      	mov	r8, r0
     5e0:	f001 fb92 	bl	1d08 <__aeabi_fcmpgt>
     5e4:	4641      	mov	r1, r8
     5e6:	b118      	cbz	r0, 5f0 <PIDInitialize+0x38>
     5e8:	4628      	mov	r0, r5
     5ea:	f001 fa85 	bl	1af8 <__aeabi_fdiv>
     5ee:	e002      	b.n	5f6 <PIDInitialize+0x3e>
     5f0:	4628      	mov	r0, r5
     5f2:	f001 f9cd 	bl	1990 <__aeabi_fmul>
     5f6:	4639      	mov	r1, r7
     5f8:	4605      	mov	r5, r0
     5fa:	f001 fb85 	bl	1d08 <__aeabi_fcmpgt>
     5fe:	b930      	cbnz	r0, 60e <PIDInitialize+0x56>
     600:	4631      	mov	r1, r6
     602:	4628      	mov	r0, r5
     604:	f001 fb62 	bl	1ccc <__aeabi_fcmplt>
     608:	b110      	cbz	r0, 610 <PIDInitialize+0x58>
     60a:	4635      	mov	r5, r6
     60c:	e000      	b.n	610 <PIDInitialize+0x58>
     60e:	463d      	mov	r5, r7
     610:	9b0a      	ldr	r3, [sp, #40]	; 0x28
     612:	60e5      	str	r5, [r4, #12]
     614:	6127      	str	r7, [r4, #16]
     616:	6166      	str	r6, [r4, #20]
     618:	61a3      	str	r3, [r4, #24]
     61a:	9b09      	ldr	r3, [sp, #36]	; 0x24
     61c:	61e3      	str	r3, [r4, #28]
     61e:	9b0b      	ldr	r3, [sp, #44]	; 0x2c
     620:	6223      	str	r3, [r4, #32]
     622:	2300      	movs	r3, #0
     624:	6263      	str	r3, [r4, #36]	; 0x24
     626:	2000      	movs	r0, #0
     628:	e8bd 81f0 	ldmia.w	sp!, {r4, r5, r6, r7, r8, pc}

0000062c <PIDUpdate>:
     62c:	e92d 43f8 	stmdb	sp!, {r3, r4, r5, r6, r7, r8, r9, lr}
     630:	4604      	mov	r4, r0
     632:	6900      	ldr	r0, [r0, #16]
     634:	460d      	mov	r5, r1
     636:	f001 fb49 	bl	1ccc <__aeabi_fcmplt>
     63a:	b108      	cbz	r0, 640 <PIDUpdate+0x14>
     63c:	6925      	ldr	r5, [r4, #16]
     63e:	e005      	b.n	64c <PIDUpdate+0x20>
     640:	6961      	ldr	r1, [r4, #20]
     642:	4628      	mov	r0, r5
     644:	f001 fb42 	bl	1ccc <__aeabi_fcmplt>
     648:	b100      	cbz	r0, 64c <PIDUpdate+0x20>
     64a:	6965      	ldr	r5, [r4, #20]
     64c:	6961      	ldr	r1, [r4, #20]
     64e:	4628      	mov	r0, r5
     650:	f001 f894 	bl	177c <__aeabi_fsub>
     654:	4605      	mov	r5, r0
     656:	6920      	ldr	r0, [r4, #16]
     658:	6961      	ldr	r1, [r4, #20]
     65a:	6920      	ldr	r0, [r4, #16]
     65c:	6961      	ldr	r1, [r4, #20]
     65e:	f001 f88d 	bl	177c <__aeabi_fsub>
     662:	4601      	mov	r1, r0
     664:	4628      	mov	r0, r5
     666:	f001 fa47 	bl	1af8 <__aeabi_fdiv>
     66a:	4601      	mov	r1, r0
     66c:	68e0      	ldr	r0, [r4, #12]
     66e:	f001 f885 	bl	177c <__aeabi_fsub>
     672:	f8d4 9024 	ldr.w	r9, [r4, #36]	; 0x24
     676:	6a27      	ldr	r7, [r4, #32]
     678:	6260      	str	r0, [r4, #36]	; 0x24
     67a:	6821      	ldr	r1, [r4, #0]
     67c:	4605      	mov	r5, r0
     67e:	f001 f987 	bl	1990 <__aeabi_fmul>
     682:	f8d4 8004 	ldr.w	r8, [r4, #4]
     686:	4606      	mov	r6, r0
     688:	4649      	mov	r1, r9
     68a:	4628      	mov	r0, r5
     68c:	f001 f876 	bl	177c <__aeabi_fsub>
     690:	4641      	mov	r1, r8
     692:	f001 f97d 	bl	1990 <__aeabi_fmul>
     696:	4631      	mov	r1, r6
     698:	f001 f872 	bl	1780 <__addsf3>
     69c:	68a6      	ldr	r6, [r4, #8]
     69e:	4605      	mov	r5, r0
     6a0:	2100      	movs	r1, #0
     6a2:	4638      	mov	r0, r7
     6a4:	f001 f974 	bl	1990 <__aeabi_fmul>
     6a8:	4631      	mov	r1, r6
     6aa:	f001 f971 	bl	1990 <__aeabi_fmul>
     6ae:	4629      	mov	r1, r5
     6b0:	f001 f866 	bl	1780 <__addsf3>
     6b4:	f04f 517e 	mov.w	r1, #1065353216	; 0x3f800000
     6b8:	f001 f862 	bl	1780 <__addsf3>
     6bc:	f04f 517c 	mov.w	r1, #1056964608	; 0x3f000000
     6c0:	f001 f966 	bl	1990 <__aeabi_fmul>
     6c4:	4605      	mov	r5, r0
     6c6:	69a0      	ldr	r0, [r4, #24]
     6c8:	69e1      	ldr	r1, [r4, #28]
     6ca:	f001 f857 	bl	177c <__aeabi_fsub>
     6ce:	4629      	mov	r1, r5
     6d0:	f001 f95e 	bl	1990 <__aeabi_fmul>
     6d4:	69e1      	ldr	r1, [r4, #28]
     6d6:	f001 f853 	bl	1780 <__addsf3>
     6da:	69a1      	ldr	r1, [r4, #24]
     6dc:	4605      	mov	r5, r0
     6de:	f001 fb13 	bl	1d08 <__aeabi_fcmpgt>
     6e2:	b108      	cbz	r0, 6e8 <PIDUpdate+0xbc>
     6e4:	69a5      	ldr	r5, [r4, #24]
     6e6:	e005      	b.n	6f4 <PIDUpdate+0xc8>
     6e8:	69e1      	ldr	r1, [r4, #28]
     6ea:	4628      	mov	r0, r5
     6ec:	f001 faee 	bl	1ccc <__aeabi_fcmplt>
     6f0:	b100      	cbz	r0, 6f4 <PIDUpdate+0xc8>
     6f2:	69e5      	ldr	r5, [r4, #28]
     6f4:	4628      	mov	r0, r5
     6f6:	e8bd 83f8 	ldmia.w	sp!, {r3, r4, r5, r6, r7, r8, r9, pc}
	...

000006fc <startPIT0>:
     6fc:	4b0f      	ldr	r3, [pc, #60]	; (73c <startPIT0+0x40>)
     6fe:	f241 023c 	movw	r2, #4156	; 0x103c
     702:	6018      	str	r0, [r3, #0]
     704:	480e      	ldr	r0, [pc, #56]	; (740 <startPIT0+0x44>)
     706:	5883      	ldr	r3, [r0, r2]
     708:	f443 0300 	orr.w	r3, r3, #8388608	; 0x800000
     70c:	5083      	str	r3, [r0, r2]
     70e:	4b0d      	ldr	r3, [pc, #52]	; (744 <startPIT0+0x48>)
     710:	2200      	movs	r2, #0
     712:	601a      	str	r2, [r3, #0]
     714:	2201      	movs	r2, #1
     716:	f8c3 1100 	str.w	r1, [r3, #256]	; 0x100
     71a:	f8c3 210c 	str.w	r2, [r3, #268]	; 0x10c
     71e:	2202      	movs	r2, #2
     720:	f8c3 2108 	str.w	r2, [r3, #264]	; 0x108
     724:	f8d3 2108 	ldr.w	r2, [r3, #264]	; 0x108
     728:	f042 0201 	orr.w	r2, r2, #1
     72c:	f8c3 2108 	str.w	r2, [r3, #264]	; 0x108
     730:	4b05      	ldr	r3, [pc, #20]	; (748 <startPIT0+0x4c>)
     732:	f44f 3280 	mov.w	r2, #65536	; 0x10000
     736:	605a      	str	r2, [r3, #4]
     738:	b662      	cpsie	i
     73a:	4770      	bx	lr
     73c:	1fff02cc 	svcne	0x00ff02cc
     740:	40047000 	andmi	r7, r4, r0
     744:	40037000 	andmi	r7, r3, r0
     748:	e000e100 	and	lr, r0, r0, lsl #2

0000074c <PIT0_IRQHandler>:
     74c:	b508      	push	{r3, lr}
     74e:	b672      	cpsid	i
     750:	4b04      	ldr	r3, [pc, #16]	; (764 <PIT0_IRQHandler+0x18>)
     752:	2201      	movs	r2, #1
     754:	f8c3 210c 	str.w	r2, [r3, #268]	; 0x10c
     758:	4b03      	ldr	r3, [pc, #12]	; (768 <PIT0_IRQHandler+0x1c>)
     75a:	681b      	ldr	r3, [r3, #0]
     75c:	4798      	blx	r3
     75e:	b662      	cpsie	i
     760:	bd08      	pop	{r3, pc}
     762:	bf00      	nop
     764:	40037000 	andmi	r7, r3, r0
     768:	1fff02cc 	svcne	0x00ff02cc

0000076c <PIT1_IRQHandler>:
     76c:	b508      	push	{r3, lr}
     76e:	b672      	cpsid	i
     770:	4b04      	ldr	r3, [pc, #16]	; (784 <PIT1_IRQHandler+0x18>)
     772:	2201      	movs	r2, #1
     774:	f8c3 211c 	str.w	r2, [r3, #284]	; 0x11c
     778:	4b03      	ldr	r3, [pc, #12]	; (788 <PIT1_IRQHandler+0x1c>)
     77a:	685b      	ldr	r3, [r3, #4]
     77c:	4798      	blx	r3
     77e:	b662      	cpsie	i
     780:	bd08      	pop	{r3, pc}
     782:	bf00      	nop
     784:	40037000 	andmi	r7, r3, r0
     788:	1fff02cc 	svcne	0x00ff02cc

0000078c <uartInit>:
     78c:	4b1a      	ldr	r3, [pc, #104]	; (7f8 <uartInit+0x6c>)
     78e:	4298      	cmp	r0, r3
     790:	b530      	push	{r4, r5, lr}
     792:	d130      	bne.n	7f6 <uartInit+0x6a>
     794:	f5a3 330c 	sub.w	r3, r3, #143360	; 0x23000
     798:	f241 0134 	movw	r1, #4148	; 0x1034
     79c:	4d17      	ldr	r5, [pc, #92]	; (7fc <uartInit+0x70>)
     79e:	585a      	ldr	r2, [r3, r1]
     7a0:	f442 6280 	orr.w	r2, r2, #1024	; 0x400
     7a4:	505a      	str	r2, [r3, r1]
     7a6:	f241 0138 	movw	r1, #4152	; 0x1038
     7aa:	f44f 3416 	mov.w	r4, #153600	; 0x25800
     7ae:	585a      	ldr	r2, [r3, r1]
     7b0:	f442 6280 	orr.w	r2, r2, #1024	; 0x400
     7b4:	505a      	str	r2, [r3, r1]
     7b6:	f503 5340 	add.w	r3, r3, #12288	; 0x3000
     7ba:	f44f 7240 	mov.w	r2, #768	; 0x300
     7be:	641a      	str	r2, [r3, #64]	; 0x40
     7c0:	645a      	str	r2, [r3, #68]	; 0x44
     7c2:	4b0f      	ldr	r3, [pc, #60]	; (800 <uartInit+0x74>)
     7c4:	2203      	movs	r2, #3
     7c6:	6018      	str	r0, [r3, #0]
     7c8:	682b      	ldr	r3, [r5, #0]
     7ca:	fbb3 f1f4 	udiv	r1, r3, r4
     7ce:	b2cb      	uxtb	r3, r1
     7d0:	7043      	strb	r3, [r0, #1]
     7d2:	7002      	strb	r2, [r0, #0]
     7d4:	7002      	strb	r2, [r0, #0]
     7d6:	7002      	strb	r2, [r0, #0]
     7d8:	7002      	strb	r2, [r0, #0]
     7da:	7002      	strb	r2, [r0, #0]
     7dc:	7002      	strb	r2, [r0, #0]
     7de:	7002      	strb	r2, [r0, #0]
     7e0:	7043      	strb	r3, [r0, #1]
     7e2:	682b      	ldr	r3, [r5, #0]
     7e4:	015b      	lsls	r3, r3, #5
     7e6:	fbb3 f3f4 	udiv	r3, r3, r4
     7ea:	eba3 1341 	sub.w	r3, r3, r1, lsl #5
     7ee:	b2db      	uxtb	r3, r3
     7f0:	7283      	strb	r3, [r0, #10]
     7f2:	230c      	movs	r3, #12
     7f4:	70c3      	strb	r3, [r0, #3]
     7f6:	bd30      	pop	{r4, r5, pc}
     7f8:	4006a000 	andmi	sl, r6, r0
     7fc:	1fff0198 	svcne	0x00ff0198
     800:	1fff02d4 	svcne	0x00ff02d4

00000804 <uartPutCharBlock>:
     804:	78c3      	ldrb	r3, [r0, #3]
     806:	f003 037f 	and.w	r3, r3, #127	; 0x7f
     80a:	70c3      	strb	r3, [r0, #3]
     80c:	7903      	ldrb	r3, [r0, #4]
     80e:	061b      	lsls	r3, r3, #24
     810:	d5fc      	bpl.n	80c <uartPutCharBlock+0x8>
     812:	71c1      	strb	r1, [r0, #7]
     814:	4770      	bx	lr

00000816 <uartPutString>:
     816:	b510      	push	{r4, lr}
     818:	460a      	mov	r2, r1
     81a:	7809      	ldrb	r1, [r1, #0]
     81c:	4604      	mov	r4, r0
     81e:	b901      	cbnz	r1, 822 <uartPutString+0xc>
     820:	bd10      	pop	{r4, pc}
     822:	4620      	mov	r0, r4
     824:	f7ff ffee 	bl	804 <uartPutCharBlock>
     828:	f812 1f01 	ldrb.w	r1, [r2, #1]!
     82c:	e7f7      	b.n	81e <uartPutString+0x8>
	...

00000830 <SetDutyCycle2>:
     830:	4b06      	ldr	r3, [pc, #24]	; (84c <SetDutyCycle2+0x1c>)
     832:	681a      	ldr	r2, [r3, #0]
     834:	4b06      	ldr	r3, [pc, #24]	; (850 <SetDutyCycle2+0x20>)
     836:	fbb3 f3f2 	udiv	r3, r3, r2
     83a:	4358      	muls	r0, r3
     83c:	2364      	movs	r3, #100	; 0x64
     83e:	fbb0 f0f3 	udiv	r0, r0, r3
     842:	4b04      	ldr	r3, [pc, #16]	; (854 <SetDutyCycle2+0x24>)
     844:	b280      	uxth	r0, r0
     846:	6218      	str	r0, [r3, #32]
     848:	4770      	bx	lr
     84a:	bf00      	nop
     84c:	1fff0228 	svcne	0x00ff0228
     850:	03938700 	orrseq	r8, r3, #0, 14
     854:	40038000 	andmi	r8, r3, r0

00000858 <InitPWM2>:
     858:	b570      	push	{r4, r5, r6, lr}
     85a:	4b25      	ldr	r3, [pc, #148]	; (8f0 <InitPWM2+0x98>)
     85c:	f241 013c 	movw	r1, #4156	; 0x103c
     860:	585a      	ldr	r2, [r3, r1]
     862:	f042 7280 	orr.w	r2, r2, #16777216	; 0x1000000
     866:	505a      	str	r2, [r3, r1]
     868:	f241 0238 	movw	r2, #4152	; 0x1038
     86c:	5899      	ldr	r1, [r3, r2]
     86e:	f441 6160 	orr.w	r1, r1, #3584	; 0xe00
     872:	5099      	str	r1, [r3, r2]
     874:	f503 4380 	add.w	r3, r3, #16384	; 0x4000
     878:	491e      	ldr	r1, [pc, #120]	; (8f4 <InitPWM2+0x9c>)
     87a:	f44f 6288 	mov.w	r2, #1088	; 0x440
     87e:	60da      	str	r2, [r3, #12]
     880:	6d4b      	ldr	r3, [r1, #84]	; 0x54
     882:	f043 0304 	orr.w	r3, r3, #4
     886:	654b      	str	r3, [r1, #84]	; 0x54
     888:	2300      	movs	r3, #0
     88a:	604b      	str	r3, [r1, #4]
     88c:	64cb      	str	r3, [r1, #76]	; 0x4c
     88e:	491a      	ldr	r1, [pc, #104]	; (8f8 <InitPWM2+0xa0>)
     890:	fbb1 f1f0 	udiv	r1, r1, r0
     894:	f5b1 3f80 	cmp.w	r1, #65536	; 0x10000
     898:	d30f      	bcc.n	8ba <InitPWM2+0x62>
     89a:	2201      	movs	r2, #1
     89c:	f64f 75fe 	movw	r5, #65534	; 0xfffe
     8a0:	fa02 f403 	lsl.w	r4, r2, r3
     8a4:	fbb1 f6f4 	udiv	r6, r1, r4
     8a8:	42ae      	cmp	r6, r5
     8aa:	d904      	bls.n	8b6 <InitPWM2+0x5e>
     8ac:	3301      	adds	r3, #1
     8ae:	2b08      	cmp	r3, #8
     8b0:	d1f6      	bne.n	8a0 <InitPWM2+0x48>
     8b2:	2001      	movs	r0, #1
     8b4:	bd70      	pop	{r4, r5, r6, pc}
     8b6:	2b00      	cmp	r3, #0
     8b8:	d0fb      	beq.n	8b2 <InitPWM2+0x5a>
     8ba:	4a10      	ldr	r2, [pc, #64]	; (8fc <InitPWM2+0xa4>)
     8bc:	4910      	ldr	r1, [pc, #64]	; (900 <InitPWM2+0xa8>)
     8be:	6010      	str	r0, [r2, #0]
     8c0:	f003 0307 	and.w	r3, r3, #7
     8c4:	4a0c      	ldr	r2, [pc, #48]	; (8f8 <InitPWM2+0xa0>)
     8c6:	fbb2 f2f4 	udiv	r2, r2, r4
     8ca:	fbb2 f0f0 	udiv	r0, r2, r0
     8ce:	4a09      	ldr	r2, [pc, #36]	; (8f4 <InitPWM2+0x9c>)
     8d0:	6008      	str	r0, [r1, #0]
     8d2:	f043 0348 	orr.w	r3, r3, #72	; 0x48
     8d6:	6013      	str	r3, [r2, #0]
     8d8:	680b      	ldr	r3, [r1, #0]
     8da:	6093      	str	r3, [r2, #8]
     8dc:	69d3      	ldr	r3, [r2, #28]
     8de:	f043 0328 	orr.w	r3, r3, #40	; 0x28
     8e2:	61d3      	str	r3, [r2, #28]
     8e4:	69d3      	ldr	r3, [r2, #28]
     8e6:	f023 0304 	bic.w	r3, r3, #4
     8ea:	61d3      	str	r3, [r2, #28]
     8ec:	bd70      	pop	{r4, r5, r6, pc}
     8ee:	bf00      	nop
     8f0:	40047000 	andmi	r7, r4, r0
     8f4:	40038000 	andmi	r8, r3, r0
     8f8:	03938700 	orrseq	r8, r3, #0, 14
     8fc:	1fff0228 	svcne	0x00ff0228
     900:	1fff022c 	svcne	0x00ff022c

00000904 <FTM0_IRQHandler>:
     904:	4a06      	ldr	r2, [pc, #24]	; (920 <FTM0_IRQHandler+0x1c>)
     906:	6813      	ldr	r3, [r2, #0]
     908:	f023 0380 	bic.w	r3, r3, #128	; 0x80
     90c:	6013      	str	r3, [r2, #0]
     90e:	4b05      	ldr	r3, [pc, #20]	; (924 <FTM0_IRQHandler+0x20>)
     910:	681a      	ldr	r2, [r3, #0]
     912:	2afe      	cmp	r2, #254	; 0xfe
     914:	bf9e      	ittt	ls
     916:	681a      	ldrls	r2, [r3, #0]
     918:	3201      	addls	r2, #1
     91a:	601a      	strls	r2, [r3, #0]
     91c:	4770      	bx	lr
     91e:	bf00      	nop
     920:	40038000 	andmi	r8, r3, r0
     924:	1fff0224 	svcne	0x00ff0224

00000928 <updatePIDs>:
     928:	b538      	push	{r3, r4, r5, lr}
     92a:	4b45      	ldr	r3, [pc, #276]	; (a40 <updatePIDs+0x118>)
     92c:	881c      	ldrh	r4, [r3, #0]
     92e:	8858      	ldrh	r0, [r3, #2]
     930:	b200      	sxth	r0, r0
     932:	f000 ffd9 	bl	18e8 <__aeabi_i2f>
     936:	f000 fbb7 	bl	10a8 <__aeabi_f2d>
     93a:	a33d      	add	r3, pc, #244	; (adr r3, a30 <updatePIDs+0x108>)
     93c:	e9d3 2300 	ldrd	r2, r3, [r3]
     940:	f000 fc06 	bl	1150 <__aeabi_dmul>
     944:	2200      	movs	r2, #0
     946:	f04f 537c 	mov.w	r3, #1056964608	; 0x3f000000
     94a:	f000 fc01 	bl	1150 <__aeabi_dmul>
     94e:	f000 fec1 	bl	16d4 <__aeabi_d2f>
     952:	4605      	mov	r5, r0
     954:	f000 fba8 	bl	10a8 <__aeabi_f2d>
     958:	a335      	add	r3, pc, #212	; (adr r3, a30 <updatePIDs+0x108>)
     95a:	e9d3 2300 	ldrd	r2, r3, [r3]
     95e:	f000 fe87 	bl	1670 <__aeabi_dcmpgt>
     962:	b224      	sxth	r4, r4
     964:	4b37      	ldr	r3, [pc, #220]	; (a44 <updatePIDs+0x11c>)
     966:	2800      	cmp	r0, #0
     968:	d154      	bne.n	a14 <updatePIDs+0xec>
     96a:	601d      	str	r5, [r3, #0]
     96c:	6819      	ldr	r1, [r3, #0]
     96e:	4836      	ldr	r0, [pc, #216]	; (a48 <updatePIDs+0x120>)
     970:	f7ff fe5c 	bl	62c <PIDUpdate>
     974:	4b35      	ldr	r3, [pc, #212]	; (a4c <updatePIDs+0x124>)
     976:	2100      	movs	r1, #0
     978:	6018      	str	r0, [r3, #0]
     97a:	4605      	mov	r5, r0
     97c:	f001 f9a6 	bl	1ccc <__aeabi_fcmplt>
     980:	4b33      	ldr	r3, [pc, #204]	; (a50 <updatePIDs+0x128>)
     982:	689a      	ldr	r2, [r3, #8]
     984:	2800      	cmp	r0, #0
     986:	d048      	beq.n	a1a <updatePIDs+0xf2>
     988:	f442 0280 	orr.w	r2, r2, #4194304	; 0x400000
     98c:	609a      	str	r2, [r3, #8]
     98e:	685a      	ldr	r2, [r3, #4]
     990:	f442 1200 	orr.w	r2, r2, #2097152	; 0x200000
     994:	605a      	str	r2, [r3, #4]
     996:	4620      	mov	r0, r4
     998:	f000 ffa6 	bl	18e8 <__aeabi_i2f>
     99c:	f000 fb84 	bl	10a8 <__aeabi_f2d>
     9a0:	a323      	add	r3, pc, #140	; (adr r3, a30 <updatePIDs+0x108>)
     9a2:	e9d3 2300 	ldrd	r2, r3, [r3]
     9a6:	f000 fbd3 	bl	1150 <__aeabi_dmul>
     9aa:	2200      	movs	r2, #0
     9ac:	f04f 537c 	mov.w	r3, #1056964608	; 0x3f000000
     9b0:	f000 fbce 	bl	1150 <__aeabi_dmul>
     9b4:	f000 fe8e 	bl	16d4 <__aeabi_d2f>
     9b8:	4604      	mov	r4, r0
     9ba:	f000 fb75 	bl	10a8 <__aeabi_f2d>
     9be:	a31c      	add	r3, pc, #112	; (adr r3, a30 <updatePIDs+0x108>)
     9c0:	e9d3 2300 	ldrd	r2, r3, [r3]
     9c4:	f000 fe54 	bl	1670 <__aeabi_dcmpgt>
     9c8:	4b22      	ldr	r3, [pc, #136]	; (a54 <updatePIDs+0x12c>)
     9ca:	2800      	cmp	r0, #0
     9cc:	d12c      	bne.n	a28 <updatePIDs+0x100>
     9ce:	601c      	str	r4, [r3, #0]
     9d0:	4628      	mov	r0, r5
     9d2:	f000 fb69 	bl	10a8 <__aeabi_f2d>
     9d6:	a318      	add	r3, pc, #96	; (adr r3, a38 <updatePIDs+0x110>)
     9d8:	e9d3 2300 	ldrd	r2, r3, [r3]
     9dc:	f000 fbb8 	bl	1150 <__aeabi_dmul>
     9e0:	f000 fe50 	bl	1684 <__aeabi_d2iz>
     9e4:	3032      	adds	r0, #50	; 0x32
     9e6:	4b1c      	ldr	r3, [pc, #112]	; (a58 <updatePIDs+0x130>)
     9e8:	2869      	cmp	r0, #105	; 0x69
     9ea:	bfca      	itet	gt
     9ec:	2269      	movgt	r2, #105	; 0x69
     9ee:	6018      	strle	r0, [r3, #0]
     9f0:	601a      	strgt	r2, [r3, #0]
     9f2:	681a      	ldr	r2, [r3, #0]
     9f4:	2a00      	cmp	r2, #0
     9f6:	bfdc      	itt	le
     9f8:	2201      	movle	r2, #1
     9fa:	601a      	strle	r2, [r3, #0]
     9fc:	6818      	ldr	r0, [r3, #0]
     9fe:	f7ff ff17 	bl	830 <SetDutyCycle2>
     a02:	4b16      	ldr	r3, [pc, #88]	; (a5c <updatePIDs+0x134>)
     a04:	2200      	movs	r2, #0
     a06:	601a      	str	r2, [r3, #0]
     a08:	681b      	ldr	r3, [r3, #0]
     a0a:	4a15      	ldr	r2, [pc, #84]	; (a60 <updatePIDs+0x138>)
     a0c:	5cd2      	ldrb	r2, [r2, r3]
     a0e:	4b15      	ldr	r3, [pc, #84]	; (a64 <updatePIDs+0x13c>)
     a10:	601a      	str	r2, [r3, #0]
     a12:	bd38      	pop	{r3, r4, r5, pc}
     a14:	4a14      	ldr	r2, [pc, #80]	; (a68 <updatePIDs+0x140>)
     a16:	601a      	str	r2, [r3, #0]
     a18:	e7a8      	b.n	96c <updatePIDs+0x44>
     a1a:	f442 1200 	orr.w	r2, r2, #2097152	; 0x200000
     a1e:	609a      	str	r2, [r3, #8]
     a20:	685a      	ldr	r2, [r3, #4]
     a22:	f442 0280 	orr.w	r2, r2, #4194304	; 0x400000
     a26:	e7b5      	b.n	994 <updatePIDs+0x6c>
     a28:	4a0f      	ldr	r2, [pc, #60]	; (a68 <updatePIDs+0x140>)
     a2a:	601a      	str	r2, [r3, #0]
     a2c:	e7d0      	b.n	9d0 <updatePIDs+0xa8>
     a2e:	bf00      	nop
     a30:	66666666 	strbtvs	r6, [r6], -r6, ror #12
     a34:	400a6666 	andmi	r6, sl, r6, ror #12
     a38:	00000000 	andeq	r0, r0, r0
     a3c:	40b38800 	adcsmi	r8, r3, r0, lsl #16
     a40:	1fff036c 	svcne	0x00ff036c
     a44:	1fff02d8 	svcne	0x00ff02d8
     a48:	1fff033c 	svcne	0x00ff033c
     a4c:	1fff0308 	svcne	0x00ff0308
     a50:	400ff040 	andmi	pc, pc, r0, asr #32
     a54:	1fff0338 	svcne	0x00ff0338
     a58:	1fff0334 	svcne	0x00ff0334
     a5c:	1fff0368 	svcne	0x00ff0368
     a60:	0000296a 	andeq	r2, r0, sl, ror #18
     a64:	400bb000 	andmi	fp, fp, r0
     a68:	40533333 	subsmi	r3, r3, r3, lsr r3

00000a6c <main>:
     a6c:	e92d 4ff0 	stmdb	sp!, {r4, r5, r6, r7, r8, r9, sl, fp, lr}
     a70:	f8df 9218 	ldr.w	r9, [pc, #536]	; c8c <main+0x220>
     a74:	4c6b      	ldr	r4, [pc, #428]	; (c24 <main+0x1b8>)
     a76:	4d6c      	ldr	r5, [pc, #432]	; (c28 <main+0x1bc>)
     a78:	f8df b214 	ldr.w	fp, [pc, #532]	; c90 <main+0x224>
     a7c:	f241 0838 	movw	r8, #4152	; 0x1038
     a80:	f2ad 4d04 	subw	sp, sp, #1028	; 0x404
     a84:	f44f 707a 	mov.w	r0, #1000	; 0x3e8
     a88:	f7ff fee6 	bl	858 <InitPWM2>
     a8c:	f859 3008 	ldr.w	r3, [r9, r8]
     a90:	f443 5310 	orr.w	r3, r3, #9216	; 0x2400
     a94:	f849 3008 	str.w	r3, [r9, r8]
     a98:	6963      	ldr	r3, [r4, #20]
     a9a:	f443 03c0 	orr.w	r3, r3, #6291456	; 0x600000
     a9e:	6163      	str	r3, [r4, #20]
     aa0:	696b      	ldr	r3, [r5, #20]
     aa2:	f043 6380 	orr.w	r3, r3, #67108864	; 0x4000000
     aa6:	616b      	str	r3, [r5, #20]
     aa8:	4b60      	ldr	r3, [pc, #384]	; (c2c <main+0x1c0>)
     aaa:	f44f 7780 	mov.w	r7, #256	; 0x100
     aae:	659f      	str	r7, [r3, #88]	; 0x58
     ab0:	655f      	str	r7, [r3, #84]	; 0x54
     ab2:	f503 5340 	add.w	r3, r3, #12288	; 0x3000
     ab6:	2600      	movs	r6, #0
     ab8:	669f      	str	r7, [r3, #104]	; 0x68
     aba:	6963      	ldr	r3, [r4, #20]
     abc:	f443 03c0 	orr.w	r3, r3, #6291456	; 0x600000
     ac0:	6163      	str	r3, [r4, #20]
     ac2:	696b      	ldr	r3, [r5, #20]
     ac4:	f043 6380 	orr.w	r3, r3, #67108864	; 0x4000000
     ac8:	616b      	str	r3, [r5, #20]
     aca:	68ab      	ldr	r3, [r5, #8]
     acc:	f043 6380 	orr.w	r3, r3, #67108864	; 0x4000000
     ad0:	60ab      	str	r3, [r5, #8]
     ad2:	68a3      	ldr	r3, [r4, #8]
     ad4:	f443 1300 	orr.w	r3, r3, #2097152	; 0x200000
     ad8:	60a3      	str	r3, [r4, #8]
     ada:	f000 f8df 	bl	c9c <ADC1_INIT>
     ade:	4b54      	ldr	r3, [pc, #336]	; (c30 <main+0x1c4>)
     ae0:	4a54      	ldr	r2, [pc, #336]	; (c34 <main+0x1c8>)
     ae2:	f8d3 a000 	ldr.w	sl, [r3]
     ae6:	4b54      	ldr	r3, [pc, #336]	; (c38 <main+0x1cc>)
     ae8:	9603      	str	r6, [sp, #12]
     aea:	4592      	cmp	sl, r2
     aec:	bf08      	it	eq
     aee:	469a      	moveq	sl, r3
     af0:	4b52      	ldr	r3, [pc, #328]	; (c3c <main+0x1d0>)
     af2:	9305      	str	r3, [sp, #20]
     af4:	4b52      	ldr	r3, [pc, #328]	; (c40 <main+0x1d4>)
     af6:	9304      	str	r3, [sp, #16]
     af8:	4b52      	ldr	r3, [pc, #328]	; (c44 <main+0x1d8>)
     afa:	9302      	str	r3, [sp, #8]
     afc:	4b52      	ldr	r3, [pc, #328]	; (c48 <main+0x1dc>)
     afe:	9301      	str	r3, [sp, #4]
     b00:	4b52      	ldr	r3, [pc, #328]	; (c4c <main+0x1e0>)
     b02:	9300      	str	r3, [sp, #0]
     b04:	4632      	mov	r2, r6
     b06:	465b      	mov	r3, fp
     b08:	f04f 517c 	mov.w	r1, #1056964608	; 0x3f000000
     b0c:	4850      	ldr	r0, [pc, #320]	; (c50 <main+0x1e4>)
     b0e:	f7ff fd53 	bl	5b8 <PIDInitialize>
     b12:	4b4a      	ldr	r3, [pc, #296]	; (c3c <main+0x1d0>)
     b14:	9305      	str	r3, [sp, #20]
     b16:	4b4f      	ldr	r3, [pc, #316]	; (c54 <main+0x1e8>)
     b18:	9303      	str	r3, [sp, #12]
     b1a:	4b4f      	ldr	r3, [pc, #316]	; (c58 <main+0x1ec>)
     b1c:	9301      	str	r3, [sp, #4]
     b1e:	4b4f      	ldr	r3, [pc, #316]	; (c5c <main+0x1f0>)
     b20:	f8cd b010 	str.w	fp, [sp, #16]
     b24:	4632      	mov	r2, r6
     b26:	9602      	str	r6, [sp, #8]
     b28:	9300      	str	r3, [sp, #0]
     b2a:	f04f 4182 	mov.w	r1, #1090519040	; 0x41000000
     b2e:	4633      	mov	r3, r6
     b30:	484b      	ldr	r0, [pc, #300]	; (c60 <main+0x1f4>)
     b32:	f7ff fd41 	bl	5b8 <PIDInitialize>
     b36:	4b41      	ldr	r3, [pc, #260]	; (c3c <main+0x1d0>)
     b38:	9305      	str	r3, [sp, #20]
     b3a:	4b41      	ldr	r3, [pc, #260]	; (c40 <main+0x1d4>)
     b3c:	9304      	str	r3, [sp, #16]
     b3e:	4b45      	ldr	r3, [pc, #276]	; (c54 <main+0x1e8>)
     b40:	9603      	str	r6, [sp, #12]
     b42:	4632      	mov	r2, r6
     b44:	9302      	str	r3, [sp, #8]
     b46:	f8cd b004 	str.w	fp, [sp, #4]
     b4a:	4633      	mov	r3, r6
     b4c:	9600      	str	r6, [sp, #0]
     b4e:	f04f 517e 	mov.w	r1, #1065353216	; 0x3f800000
     b52:	4844      	ldr	r0, [pc, #272]	; (c64 <main+0x1f8>)
     b54:	f8df b13c 	ldr.w	fp, [pc, #316]	; c94 <main+0x228>
     b58:	f7ff fd2e 	bl	5b8 <PIDInitialize>
     b5c:	4a42      	ldr	r2, [pc, #264]	; (c68 <main+0x1fc>)
     b5e:	f8cb 6000 	str.w	r6, [fp]
     b62:	2300      	movs	r3, #0
     b64:	6013      	str	r3, [r2, #0]
     b66:	4e41      	ldr	r6, [pc, #260]	; (c6c <main+0x200>)
     b68:	4a41      	ldr	r2, [pc, #260]	; (c70 <main+0x204>)
     b6a:	4842      	ldr	r0, [pc, #264]	; (c74 <main+0x208>)
     b6c:	6013      	str	r3, [r2, #0]
     b6e:	f44f 717a 	mov.w	r1, #1000	; 0x3e8
     b72:	fb9a f1f1 	sdiv	r1, sl, r1
     b76:	6033      	str	r3, [r6, #0]
     b78:	f7ff fdc0 	bl	6fc <startPIT0>
     b7c:	f859 3008 	ldr.w	r3, [r9, r8]
     b80:	483d      	ldr	r0, [pc, #244]	; (c78 <main+0x20c>)
     b82:	f8df a114 	ldr.w	sl, [pc, #276]	; c98 <main+0x22c>
     b86:	f443 5310 	orr.w	r3, r3, #9216	; 0x2400
     b8a:	f849 3008 	str.w	r3, [r9, r8]
     b8e:	6963      	ldr	r3, [r4, #20]
     b90:	f443 03c0 	orr.w	r3, r3, #6291456	; 0x600000
     b94:	6163      	str	r3, [r4, #20]
     b96:	696b      	ldr	r3, [r5, #20]
     b98:	f043 6380 	orr.w	r3, r3, #67108864	; 0x4000000
     b9c:	616b      	str	r3, [r5, #20]
     b9e:	4b23      	ldr	r3, [pc, #140]	; (c2c <main+0x1c0>)
     ba0:	659f      	str	r7, [r3, #88]	; 0x58
     ba2:	655f      	str	r7, [r3, #84]	; 0x54
     ba4:	f503 5340 	add.w	r3, r3, #12288	; 0x3000
     ba8:	f44f 5116 	mov.w	r1, #9600	; 0x2580
     bac:	669f      	str	r7, [r3, #104]	; 0x68
     bae:	6963      	ldr	r3, [r4, #20]
     bb0:	4f32      	ldr	r7, [pc, #200]	; (c7c <main+0x210>)
     bb2:	f443 03c0 	orr.w	r3, r3, #6291456	; 0x600000
     bb6:	6163      	str	r3, [r4, #20]
     bb8:	696b      	ldr	r3, [r5, #20]
     bba:	f043 6380 	orr.w	r3, r3, #67108864	; 0x4000000
     bbe:	616b      	str	r3, [r5, #20]
     bc0:	f7ff fde4 	bl	78c <uartInit>
     bc4:	6863      	ldr	r3, [r4, #4]
     bc6:	f443 1300 	orr.w	r3, r3, #2097152	; 0x200000
     bca:	6063      	str	r3, [r4, #4]
     bcc:	6863      	ldr	r3, [r4, #4]
     bce:	f443 0380 	orr.w	r3, r3, #4194304	; 0x400000
     bd2:	6063      	str	r3, [r4, #4]
     bd4:	686b      	ldr	r3, [r5, #4]
     bd6:	f043 6380 	orr.w	r3, r3, #67108864	; 0x4000000
     bda:	606b      	str	r3, [r5, #4]
     bdc:	4d28      	ldr	r5, [pc, #160]	; (c80 <main+0x214>)
     bde:	f8da 0000 	ldr.w	r0, [sl]
     be2:	4c28      	ldr	r4, [pc, #160]	; (c84 <main+0x218>)
     be4:	f000 fa60 	bl	10a8 <__aeabi_f2d>
     be8:	4680      	mov	r8, r0
     bea:	6838      	ldr	r0, [r7, #0]
     bec:	4689      	mov	r9, r1
     bee:	f000 fa5b 	bl	10a8 <__aeabi_f2d>
     bf2:	e9cd 0104 	strd	r0, r1, [sp, #16]
     bf6:	f8db 0000 	ldr.w	r0, [fp]
     bfa:	f000 fa55 	bl	10a8 <__aeabi_f2d>
     bfe:	e9cd 0102 	strd	r0, r1, [sp, #8]
     c02:	6833      	ldr	r3, [r6, #0]
     c04:	9300      	str	r3, [sp, #0]
     c06:	4642      	mov	r2, r8
     c08:	464b      	mov	r3, r9
     c0a:	4629      	mov	r1, r5
     c0c:	a806      	add	r0, sp, #24
     c0e:	f001 f995 	bl	1f3c <siprintf>
     c12:	6820      	ldr	r0, [r4, #0]
     c14:	491c      	ldr	r1, [pc, #112]	; (c88 <main+0x21c>)
     c16:	f7ff fdfe 	bl	816 <uartPutString>
     c1a:	a906      	add	r1, sp, #24
     c1c:	6820      	ldr	r0, [r4, #0]
     c1e:	f7ff fdfa 	bl	816 <uartPutString>
     c22:	e7dc      	b.n	bde <main+0x172>
     c24:	400ff040 	andmi	pc, pc, r0, asr #32
     c28:	400ff100 	andmi	pc, pc, r0, lsl #2
     c2c:	4004a000 	andmi	sl, r4, r0
     c30:	1fff0198 	svcne	0x00ff0198
     c34:	07270e00 	streq	r0, [r7, -r0, lsl #28]!
     c38:	03938700 	orrseq	r8, r3, #0, 14
     c3c:	3a83126f 	bcc	fe0c5600 <__stack+0xde095600>
     c40:	42c80000 	sbcmi	r0, r8, #0
     c44:	42200000 	eormi	r0, r0, #0
     c48:	42f00000 	rscsmi	r0, r0, #0
     c4c:	42a00000 	adcmi	r0, r0, #0
     c50:	1fff030c 	svcne	0x00ff030c
     c54:	bc23d70a 	stclt	7, cr13, [r3], #-40	; 0xffffffd8
     c58:	40533333 	subsmi	r3, r3, r3, lsr r3
     c5c:	3ee66666 	cdpcc	6, 14, cr6, cr6, cr6, {3}
     c60:	1fff033c 	svcne	0x00ff033c
     c64:	1fff02dc 	svcne	0x00ff02dc
     c68:	1fff0304 	svcne	0x00ff0304
     c6c:	1fff0334 	svcne	0x00ff0334
     c70:	1fff0364 	svcne	0x00ff0364
     c74:	00000929 	andeq	r0, r0, r9, lsr #18
     c78:	4006a000 	andmi	sl, r6, r0
     c7c:	1fff0308 	svcne	0x00ff0308
     c80:	00002880 	andeq	r2, r0, r0, lsl #17
     c84:	1fff02d4 	svcne	0x00ff02d4
     c88:	000028dd 	ldrdeq	r2, [r0], -sp
     c8c:	40047000 	andmi	r7, r4, r0
     c90:	3c23d70a 	stccc	7, cr13, [r3], #-40	; 0xffffffd8
     c94:	1fff0338 	svcne	0x00ff0338
     c98:	1fff02d8 	svcne	0x00ff02d8

00000c9c <ADC1_INIT>:
     c9c:	b510      	push	{r4, lr}
     c9e:	f241 0230 	movw	r2, #4144	; 0x1030
     ca2:	491e      	ldr	r1, [pc, #120]	; (d1c <ADC1_INIT+0x80>)
     ca4:	481e      	ldr	r0, [pc, #120]	; (d20 <ADC1_INIT+0x84>)
     ca6:	588b      	ldr	r3, [r1, r2]
     ca8:	f043 6300 	orr.w	r3, r3, #134217728	; 0x8000000
     cac:	508b      	str	r3, [r1, r2]
     cae:	2300      	movs	r3, #0
     cb0:	6003      	str	r3, [r0, #0]
     cb2:	4b1c      	ldr	r3, [pc, #112]	; (d24 <ADC1_INIT+0x88>)
     cb4:	226c      	movs	r2, #108	; 0x6c
     cb6:	609a      	str	r2, [r3, #8]
     cb8:	2280      	movs	r2, #128	; 0x80
     cba:	625a      	str	r2, [r3, #36]	; 0x24
     cbc:	461a      	mov	r2, r3
     cbe:	6a54      	ldr	r4, [r2, #36]	; 0x24
     cc0:	4b18      	ldr	r3, [pc, #96]	; (d24 <ADC1_INIT+0x88>)
     cc2:	f014 0480 	ands.w	r4, r4, #128	; 0x80
     cc6:	d1fa      	bne.n	cbe <ADC1_INIT+0x22>
     cc8:	6cd9      	ldr	r1, [r3, #76]	; 0x4c
     cca:	6c9a      	ldr	r2, [r3, #72]	; 0x48
     ccc:	440a      	add	r2, r1
     cce:	6c59      	ldr	r1, [r3, #68]	; 0x44
     cd0:	440a      	add	r2, r1
     cd2:	6c19      	ldr	r1, [r3, #64]	; 0x40
     cd4:	440a      	add	r2, r1
     cd6:	6bd9      	ldr	r1, [r3, #60]	; 0x3c
     cd8:	440a      	add	r2, r1
     cda:	6b99      	ldr	r1, [r3, #56]	; 0x38
     cdc:	440a      	add	r2, r1
     cde:	0852      	lsrs	r2, r2, #1
     ce0:	f442 4200 	orr.w	r2, r2, #32768	; 0x8000
     ce4:	62da      	str	r2, [r3, #44]	; 0x2c
     ce6:	6ed9      	ldr	r1, [r3, #108]	; 0x6c
     ce8:	6e9a      	ldr	r2, [r3, #104]	; 0x68
     cea:	440a      	add	r2, r1
     cec:	6e59      	ldr	r1, [r3, #100]	; 0x64
     cee:	440a      	add	r2, r1
     cf0:	6e19      	ldr	r1, [r3, #96]	; 0x60
     cf2:	440a      	add	r2, r1
     cf4:	6dd9      	ldr	r1, [r3, #92]	; 0x5c
     cf6:	440a      	add	r2, r1
     cf8:	6d99      	ldr	r1, [r3, #88]	; 0x58
     cfa:	440a      	add	r2, r1
     cfc:	0852      	lsrs	r2, r2, #1
     cfe:	f442 4200 	orr.w	r2, r2, #32768	; 0x8000
     d02:	631a      	str	r2, [r3, #48]	; 0x30
     d04:	6004      	str	r4, [r0, #0]
     d06:	6802      	ldr	r2, [r0, #0]
     d08:	4907      	ldr	r1, [pc, #28]	; (d28 <ADC1_INIT+0x8c>)
     d0a:	5c8a      	ldrb	r2, [r1, r2]
     d0c:	601a      	str	r2, [r3, #0]
     d0e:	4b07      	ldr	r3, [pc, #28]	; (d2c <ADC1_INIT+0x90>)
     d10:	f44f 7200 	mov.w	r2, #512	; 0x200
     d14:	609a      	str	r2, [r3, #8]
     d16:	b662      	cpsie	i
     d18:	bd10      	pop	{r4, pc}
     d1a:	bf00      	nop
     d1c:	40047000 	andmi	r7, r4, r0
     d20:	1fff0368 	svcne	0x00ff0368
     d24:	400bb000 	andmi	fp, fp, r0
     d28:	0000296a 	andeq	r2, r0, sl, ror #18
     d2c:	e000e100 	and	lr, r0, r0, lsl #2

00000d30 <ADC1_IRQHandler>:
     d30:	b530      	push	{r4, r5, lr}
     d32:	b672      	cpsid	i
     d34:	4b10      	ldr	r3, [pc, #64]	; (d78 <ADC1_IRQHandler+0x48>)
     d36:	4811      	ldr	r0, [pc, #68]	; (d7c <ADC1_IRQHandler+0x4c>)
     d38:	681a      	ldr	r2, [r3, #0]
     d3a:	2a04      	cmp	r2, #4
     d3c:	461a      	mov	r2, r3
     d3e:	dc02      	bgt.n	d46 <ADC1_IRQHandler+0x16>
     d40:	6819      	ldr	r1, [r3, #0]
     d42:	2900      	cmp	r1, #0
     d44:	da05      	bge.n	d52 <ADC1_IRQHandler+0x22>
     d46:	2300      	movs	r3, #0
     d48:	6013      	str	r3, [r2, #0]
     d4a:	6813      	ldr	r3, [r2, #0]
     d4c:	5cc2      	ldrb	r2, [r0, r3]
     d4e:	4b0c      	ldr	r3, [pc, #48]	; (d80 <ADC1_IRQHandler+0x50>)
     d50:	e010      	b.n	d74 <ADC1_IRQHandler+0x44>
     d52:	681c      	ldr	r4, [r3, #0]
     d54:	490a      	ldr	r1, [pc, #40]	; (d80 <ADC1_IRQHandler+0x50>)
     d56:	4d0b      	ldr	r5, [pc, #44]	; (d84 <ADC1_IRQHandler+0x54>)
     d58:	1c62      	adds	r2, r4, #1
     d5a:	601a      	str	r2, [r3, #0]
     d5c:	690a      	ldr	r2, [r1, #16]
     d5e:	b292      	uxth	r2, r2
     d60:	f825 2014 	strh.w	r2, [r5, r4, lsl #1]
     d64:	681a      	ldr	r2, [r3, #0]
     d66:	5c82      	ldrb	r2, [r0, r2]
     d68:	600a      	str	r2, [r1, #0]
     d6a:	b662      	cpsie	i
     d6c:	681a      	ldr	r2, [r3, #0]
     d6e:	2a04      	cmp	r2, #4
     d70:	d101      	bne.n	d76 <ADC1_IRQHandler+0x46>
     d72:	2200      	movs	r2, #0
     d74:	601a      	str	r2, [r3, #0]
     d76:	bd30      	pop	{r4, r5, pc}
     d78:	1fff0368 	svcne	0x00ff0368
     d7c:	0000296a 	andeq	r2, r0, sl, ror #18
     d80:	400bb000 	andmi	fp, fp, r0
     d84:	1fff036c 	svcne	0x00ff036c

00000d88 <Reset_Handler>:
     d88:	4906      	ldr	r1, [pc, #24]	; (da4 <Reset_Handler+0x1c>)
     d8a:	4a07      	ldr	r2, [pc, #28]	; (da8 <Reset_Handler+0x20>)
     d8c:	4b07      	ldr	r3, [pc, #28]	; (dac <Reset_Handler+0x24>)
     d8e:	1a9b      	subs	r3, r3, r2
     d90:	dd03      	ble.n	d9a <Reset_Handler+0x12>
     d92:	3b04      	subs	r3, #4
     d94:	58c8      	ldr	r0, [r1, r3]
     d96:	50d0      	str	r0, [r2, r3]
     d98:	dcfb      	bgt.n	d92 <Reset_Handler+0xa>
     d9a:	4805      	ldr	r0, [pc, #20]	; (db0 <Reset_Handler+0x28>)
     d9c:	4780      	blx	r0
     d9e:	4805      	ldr	r0, [pc, #20]	; (db4 <Reset_Handler+0x2c>)
     da0:	4700      	bx	r0
     da2:	29b80000 	ldmibcs	r8!, {}	; <UNPREDICTABLE>
     da6:	01980000 	orrseq	r0, r8, r0
     daa:	02081fff 	andeq	r1, r8, #1020	; 0x3fc
     dae:	04d11fff 	ldrbeq	r1, [r1], #4095	; 0xfff
     db2:	04690000 	strbteq	r0, [r9], #-0
	...

00000db8 <NMI_Handler>:
     db8:	e7fe      	b.n	db8 <NMI_Handler>
     dba:	bf00      	nop

00000dbc <HardFault_Handler>:
     dbc:	e7fe      	b.n	dbc <HardFault_Handler>
     dbe:	bf00      	nop

00000dc0 <MemManage_Handler>:
     dc0:	e7fe      	b.n	dc0 <MemManage_Handler>
     dc2:	bf00      	nop

00000dc4 <BusFault_Handler>:
     dc4:	e7fe      	b.n	dc4 <BusFault_Handler>
     dc6:	bf00      	nop

00000dc8 <UsageFault_Handler>:
     dc8:	e7fe      	b.n	dc8 <UsageFault_Handler>
     dca:	bf00      	nop

00000dcc <SVC_Handler>:
     dcc:	e7fe      	b.n	dcc <SVC_Handler>
     dce:	bf00      	nop

00000dd0 <DebugMon_Handler>:
     dd0:	e7fe      	b.n	dd0 <DebugMon_Handler>
     dd2:	bf00      	nop

00000dd4 <PendSV_Handler>:
     dd4:	e7fe      	b.n	dd4 <PendSV_Handler>
     dd6:	bf00      	nop

00000dd8 <SysTick_Handler>:
     dd8:	e7fe      	b.n	dd8 <SysTick_Handler>
     dda:	bf00      	nop

00000ddc <ADC0_IRQHandler>:
     ddc:	e7fe      	b.n	ddc <ADC0_IRQHandler>
     dde:	bf00      	nop

00000de0 <__aeabi_drsub>:
     de0:	f081 4100 	eor.w	r1, r1, #2147483648	; 0x80000000
     de4:	e002      	b.n	dec <__adddf3>
     de6:	bf00      	nop

00000de8 <__aeabi_dsub>:
     de8:	f083 4300 	eor.w	r3, r3, #2147483648	; 0x80000000

00000dec <__adddf3>:
     dec:	b530      	push	{r4, r5, lr}
     dee:	ea4f 0441 	mov.w	r4, r1, lsl #1
     df2:	ea4f 0543 	mov.w	r5, r3, lsl #1
     df6:	ea94 0f05 	teq	r4, r5
     dfa:	bf08      	it	eq
     dfc:	ea90 0f02 	teqeq	r0, r2
     e00:	bf1f      	itttt	ne
     e02:	ea54 0c00 	orrsne.w	ip, r4, r0
     e06:	ea55 0c02 	orrsne.w	ip, r5, r2
     e0a:	ea7f 5c64 	mvnsne.w	ip, r4, asr #21
     e0e:	ea7f 5c65 	mvnsne.w	ip, r5, asr #21
     e12:	f000 80e2 	beq.w	fda <__adddf3+0x1ee>
     e16:	ea4f 5454 	mov.w	r4, r4, lsr #21
     e1a:	ebd4 5555 	rsbs	r5, r4, r5, lsr #21
     e1e:	bfb8      	it	lt
     e20:	426d      	neglt	r5, r5
     e22:	dd0c      	ble.n	e3e <__adddf3+0x52>
     e24:	442c      	add	r4, r5
     e26:	ea80 0202 	eor.w	r2, r0, r2
     e2a:	ea81 0303 	eor.w	r3, r1, r3
     e2e:	ea82 0000 	eor.w	r0, r2, r0
     e32:	ea83 0101 	eor.w	r1, r3, r1
     e36:	ea80 0202 	eor.w	r2, r0, r2
     e3a:	ea81 0303 	eor.w	r3, r1, r3
     e3e:	2d36      	cmp	r5, #54	; 0x36
     e40:	bf88      	it	hi
     e42:	bd30      	pophi	{r4, r5, pc}
     e44:	f011 4f00 	tst.w	r1, #2147483648	; 0x80000000
     e48:	ea4f 3101 	mov.w	r1, r1, lsl #12
     e4c:	f44f 1c80 	mov.w	ip, #1048576	; 0x100000
     e50:	ea4c 3111 	orr.w	r1, ip, r1, lsr #12
     e54:	d002      	beq.n	e5c <__adddf3+0x70>
     e56:	4240      	negs	r0, r0
     e58:	eb61 0141 	sbc.w	r1, r1, r1, lsl #1
     e5c:	f013 4f00 	tst.w	r3, #2147483648	; 0x80000000
     e60:	ea4f 3303 	mov.w	r3, r3, lsl #12
     e64:	ea4c 3313 	orr.w	r3, ip, r3, lsr #12
     e68:	d002      	beq.n	e70 <__adddf3+0x84>
     e6a:	4252      	negs	r2, r2
     e6c:	eb63 0343 	sbc.w	r3, r3, r3, lsl #1
     e70:	ea94 0f05 	teq	r4, r5
     e74:	f000 80a7 	beq.w	fc6 <__adddf3+0x1da>
     e78:	f1a4 0401 	sub.w	r4, r4, #1
     e7c:	f1d5 0e20 	rsbs	lr, r5, #32
     e80:	db0d      	blt.n	e9e <__adddf3+0xb2>
     e82:	fa02 fc0e 	lsl.w	ip, r2, lr
     e86:	fa22 f205 	lsr.w	r2, r2, r5
     e8a:	1880      	adds	r0, r0, r2
     e8c:	f141 0100 	adc.w	r1, r1, #0
     e90:	fa03 f20e 	lsl.w	r2, r3, lr
     e94:	1880      	adds	r0, r0, r2
     e96:	fa43 f305 	asr.w	r3, r3, r5
     e9a:	4159      	adcs	r1, r3
     e9c:	e00e      	b.n	ebc <__adddf3+0xd0>
     e9e:	f1a5 0520 	sub.w	r5, r5, #32
     ea2:	f10e 0e20 	add.w	lr, lr, #32
     ea6:	2a01      	cmp	r2, #1
     ea8:	fa03 fc0e 	lsl.w	ip, r3, lr
     eac:	bf28      	it	cs
     eae:	f04c 0c02 	orrcs.w	ip, ip, #2
     eb2:	fa43 f305 	asr.w	r3, r3, r5
     eb6:	18c0      	adds	r0, r0, r3
     eb8:	eb51 71e3 	adcs.w	r1, r1, r3, asr #31
     ebc:	f001 4500 	and.w	r5, r1, #2147483648	; 0x80000000
     ec0:	d507      	bpl.n	ed2 <__adddf3+0xe6>
     ec2:	f04f 0e00 	mov.w	lr, #0
     ec6:	f1dc 0c00 	rsbs	ip, ip, #0
     eca:	eb7e 0000 	sbcs.w	r0, lr, r0
     ece:	eb6e 0101 	sbc.w	r1, lr, r1
     ed2:	f5b1 1f80 	cmp.w	r1, #1048576	; 0x100000
     ed6:	d31b      	bcc.n	f10 <__adddf3+0x124>
     ed8:	f5b1 1f00 	cmp.w	r1, #2097152	; 0x200000
     edc:	d30c      	bcc.n	ef8 <__adddf3+0x10c>
     ede:	0849      	lsrs	r1, r1, #1
     ee0:	ea5f 0030 	movs.w	r0, r0, rrx
     ee4:	ea4f 0c3c 	mov.w	ip, ip, rrx
     ee8:	f104 0401 	add.w	r4, r4, #1
     eec:	ea4f 5244 	mov.w	r2, r4, lsl #21
     ef0:	f512 0f80 	cmn.w	r2, #4194304	; 0x400000
     ef4:	f080 809a 	bcs.w	102c <__adddf3+0x240>
     ef8:	f1bc 4f00 	cmp.w	ip, #2147483648	; 0x80000000
     efc:	bf08      	it	eq
     efe:	ea5f 0c50 	movseq.w	ip, r0, lsr #1
     f02:	f150 0000 	adcs.w	r0, r0, #0
     f06:	eb41 5104 	adc.w	r1, r1, r4, lsl #20
     f0a:	ea41 0105 	orr.w	r1, r1, r5
     f0e:	bd30      	pop	{r4, r5, pc}
     f10:	ea5f 0c4c 	movs.w	ip, ip, lsl #1
     f14:	4140      	adcs	r0, r0
     f16:	eb41 0101 	adc.w	r1, r1, r1
     f1a:	f411 1f80 	tst.w	r1, #1048576	; 0x100000
     f1e:	f1a4 0401 	sub.w	r4, r4, #1
     f22:	d1e9      	bne.n	ef8 <__adddf3+0x10c>
     f24:	f091 0f00 	teq	r1, #0
     f28:	bf04      	itt	eq
     f2a:	4601      	moveq	r1, r0
     f2c:	2000      	moveq	r0, #0
     f2e:	fab1 f381 	clz	r3, r1
     f32:	bf08      	it	eq
     f34:	3320      	addeq	r3, #32
     f36:	f1a3 030b 	sub.w	r3, r3, #11
     f3a:	f1b3 0220 	subs.w	r2, r3, #32
     f3e:	da0c      	bge.n	f5a <__adddf3+0x16e>
     f40:	320c      	adds	r2, #12
     f42:	dd08      	ble.n	f56 <__adddf3+0x16a>
     f44:	f102 0c14 	add.w	ip, r2, #20
     f48:	f1c2 020c 	rsb	r2, r2, #12
     f4c:	fa01 f00c 	lsl.w	r0, r1, ip
     f50:	fa21 f102 	lsr.w	r1, r1, r2
     f54:	e00c      	b.n	f70 <__adddf3+0x184>
     f56:	f102 0214 	add.w	r2, r2, #20
     f5a:	bfd8      	it	le
     f5c:	f1c2 0c20 	rsble	ip, r2, #32
     f60:	fa01 f102 	lsl.w	r1, r1, r2
     f64:	fa20 fc0c 	lsr.w	ip, r0, ip
     f68:	bfdc      	itt	le
     f6a:	ea41 010c 	orrle.w	r1, r1, ip
     f6e:	4090      	lslle	r0, r2
     f70:	1ae4      	subs	r4, r4, r3
     f72:	bfa2      	ittt	ge
     f74:	eb01 5104 	addge.w	r1, r1, r4, lsl #20
     f78:	4329      	orrge	r1, r5
     f7a:	bd30      	popge	{r4, r5, pc}
     f7c:	ea6f 0404 	mvn.w	r4, r4
     f80:	3c1f      	subs	r4, #31
     f82:	da1c      	bge.n	fbe <__adddf3+0x1d2>
     f84:	340c      	adds	r4, #12
     f86:	dc0e      	bgt.n	fa6 <__adddf3+0x1ba>
     f88:	f104 0414 	add.w	r4, r4, #20
     f8c:	f1c4 0220 	rsb	r2, r4, #32
     f90:	fa20 f004 	lsr.w	r0, r0, r4
     f94:	fa01 f302 	lsl.w	r3, r1, r2
     f98:	ea40 0003 	orr.w	r0, r0, r3
     f9c:	fa21 f304 	lsr.w	r3, r1, r4
     fa0:	ea45 0103 	orr.w	r1, r5, r3
     fa4:	bd30      	pop	{r4, r5, pc}
     fa6:	f1c4 040c 	rsb	r4, r4, #12
     faa:	f1c4 0220 	rsb	r2, r4, #32
     fae:	fa20 f002 	lsr.w	r0, r0, r2
     fb2:	fa01 f304 	lsl.w	r3, r1, r4
     fb6:	ea40 0003 	orr.w	r0, r0, r3
     fba:	4629      	mov	r1, r5
     fbc:	bd30      	pop	{r4, r5, pc}
     fbe:	fa21 f004 	lsr.w	r0, r1, r4
     fc2:	4629      	mov	r1, r5
     fc4:	bd30      	pop	{r4, r5, pc}
     fc6:	f094 0f00 	teq	r4, #0
     fca:	f483 1380 	eor.w	r3, r3, #1048576	; 0x100000
     fce:	bf06      	itte	eq
     fd0:	f481 1180 	eoreq.w	r1, r1, #1048576	; 0x100000
     fd4:	3401      	addeq	r4, #1
     fd6:	3d01      	subne	r5, #1
     fd8:	e74e      	b.n	e78 <__adddf3+0x8c>
     fda:	ea7f 5c64 	mvns.w	ip, r4, asr #21
     fde:	bf18      	it	ne
     fe0:	ea7f 5c65 	mvnsne.w	ip, r5, asr #21
     fe4:	d029      	beq.n	103a <__adddf3+0x24e>
     fe6:	ea94 0f05 	teq	r4, r5
     fea:	bf08      	it	eq
     fec:	ea90 0f02 	teqeq	r0, r2
     ff0:	d005      	beq.n	ffe <__adddf3+0x212>
     ff2:	ea54 0c00 	orrs.w	ip, r4, r0
     ff6:	bf04      	itt	eq
     ff8:	4619      	moveq	r1, r3
     ffa:	4610      	moveq	r0, r2
     ffc:	bd30      	pop	{r4, r5, pc}
     ffe:	ea91 0f03 	teq	r1, r3
    1002:	bf1e      	ittt	ne
    1004:	2100      	movne	r1, #0
    1006:	2000      	movne	r0, #0
    1008:	bd30      	popne	{r4, r5, pc}
    100a:	ea5f 5c54 	movs.w	ip, r4, lsr #21
    100e:	d105      	bne.n	101c <__adddf3+0x230>
    1010:	0040      	lsls	r0, r0, #1
    1012:	4149      	adcs	r1, r1
    1014:	bf28      	it	cs
    1016:	f041 4100 	orrcs.w	r1, r1, #2147483648	; 0x80000000
    101a:	bd30      	pop	{r4, r5, pc}
    101c:	f514 0480 	adds.w	r4, r4, #4194304	; 0x400000
    1020:	bf3c      	itt	cc
    1022:	f501 1180 	addcc.w	r1, r1, #1048576	; 0x100000
    1026:	bd30      	popcc	{r4, r5, pc}
    1028:	f001 4500 	and.w	r5, r1, #2147483648	; 0x80000000
    102c:	f045 41fe 	orr.w	r1, r5, #2130706432	; 0x7f000000
    1030:	f441 0170 	orr.w	r1, r1, #15728640	; 0xf00000
    1034:	f04f 0000 	mov.w	r0, #0
    1038:	bd30      	pop	{r4, r5, pc}
    103a:	ea7f 5c64 	mvns.w	ip, r4, asr #21
    103e:	bf1a      	itte	ne
    1040:	4619      	movne	r1, r3
    1042:	4610      	movne	r0, r2
    1044:	ea7f 5c65 	mvnseq.w	ip, r5, asr #21
    1048:	bf1c      	itt	ne
    104a:	460b      	movne	r3, r1
    104c:	4602      	movne	r2, r0
    104e:	ea50 3401 	orrs.w	r4, r0, r1, lsl #12
    1052:	bf06      	itte	eq
    1054:	ea52 3503 	orrseq.w	r5, r2, r3, lsl #12
    1058:	ea91 0f03 	teqeq	r1, r3
    105c:	f441 2100 	orrne.w	r1, r1, #524288	; 0x80000
    1060:	bd30      	pop	{r4, r5, pc}
    1062:	bf00      	nop

00001064 <__aeabi_ui2d>:
    1064:	f090 0f00 	teq	r0, #0
    1068:	bf04      	itt	eq
    106a:	2100      	moveq	r1, #0
    106c:	4770      	bxeq	lr
    106e:	b530      	push	{r4, r5, lr}
    1070:	f44f 6480 	mov.w	r4, #1024	; 0x400
    1074:	f104 0432 	add.w	r4, r4, #50	; 0x32
    1078:	f04f 0500 	mov.w	r5, #0
    107c:	f04f 0100 	mov.w	r1, #0
    1080:	e750      	b.n	f24 <__adddf3+0x138>
    1082:	bf00      	nop

00001084 <__aeabi_i2d>:
    1084:	f090 0f00 	teq	r0, #0
    1088:	bf04      	itt	eq
    108a:	2100      	moveq	r1, #0
    108c:	4770      	bxeq	lr
    108e:	b530      	push	{r4, r5, lr}
    1090:	f44f 6480 	mov.w	r4, #1024	; 0x400
    1094:	f104 0432 	add.w	r4, r4, #50	; 0x32
    1098:	f010 4500 	ands.w	r5, r0, #2147483648	; 0x80000000
    109c:	bf48      	it	mi
    109e:	4240      	negmi	r0, r0
    10a0:	f04f 0100 	mov.w	r1, #0
    10a4:	e73e      	b.n	f24 <__adddf3+0x138>
    10a6:	bf00      	nop

000010a8 <__aeabi_f2d>:
    10a8:	0042      	lsls	r2, r0, #1
    10aa:	ea4f 01e2 	mov.w	r1, r2, asr #3
    10ae:	ea4f 0131 	mov.w	r1, r1, rrx
    10b2:	ea4f 7002 	mov.w	r0, r2, lsl #28
    10b6:	bf1f      	itttt	ne
    10b8:	f012 437f 	andsne.w	r3, r2, #4278190080	; 0xff000000
    10bc:	f093 4f7f 	teqne	r3, #4278190080	; 0xff000000
    10c0:	f081 5160 	eorne.w	r1, r1, #939524096	; 0x38000000
    10c4:	4770      	bxne	lr
    10c6:	f092 0f00 	teq	r2, #0
    10ca:	bf14      	ite	ne
    10cc:	f093 4f7f 	teqne	r3, #4278190080	; 0xff000000
    10d0:	4770      	bxeq	lr
    10d2:	b530      	push	{r4, r5, lr}
    10d4:	f44f 7460 	mov.w	r4, #896	; 0x380
    10d8:	f001 4500 	and.w	r5, r1, #2147483648	; 0x80000000
    10dc:	f021 4100 	bic.w	r1, r1, #2147483648	; 0x80000000
    10e0:	e720      	b.n	f24 <__adddf3+0x138>
    10e2:	bf00      	nop

000010e4 <__aeabi_ul2d>:
    10e4:	ea50 0201 	orrs.w	r2, r0, r1
    10e8:	bf08      	it	eq
    10ea:	4770      	bxeq	lr
    10ec:	b530      	push	{r4, r5, lr}
    10ee:	f04f 0500 	mov.w	r5, #0
    10f2:	e00a      	b.n	110a <__aeabi_l2d+0x16>

000010f4 <__aeabi_l2d>:
    10f4:	ea50 0201 	orrs.w	r2, r0, r1
    10f8:	bf08      	it	eq
    10fa:	4770      	bxeq	lr
    10fc:	b530      	push	{r4, r5, lr}
    10fe:	f011 4500 	ands.w	r5, r1, #2147483648	; 0x80000000
    1102:	d502      	bpl.n	110a <__aeabi_l2d+0x16>
    1104:	4240      	negs	r0, r0
    1106:	eb61 0141 	sbc.w	r1, r1, r1, lsl #1
    110a:	f44f 6480 	mov.w	r4, #1024	; 0x400
    110e:	f104 0432 	add.w	r4, r4, #50	; 0x32
    1112:	ea5f 5c91 	movs.w	ip, r1, lsr #22
    1116:	f43f aedc 	beq.w	ed2 <__adddf3+0xe6>
    111a:	f04f 0203 	mov.w	r2, #3
    111e:	ea5f 0cdc 	movs.w	ip, ip, lsr #3
    1122:	bf18      	it	ne
    1124:	3203      	addne	r2, #3
    1126:	ea5f 0cdc 	movs.w	ip, ip, lsr #3
    112a:	bf18      	it	ne
    112c:	3203      	addne	r2, #3
    112e:	eb02 02dc 	add.w	r2, r2, ip, lsr #3
    1132:	f1c2 0320 	rsb	r3, r2, #32
    1136:	fa00 fc03 	lsl.w	ip, r0, r3
    113a:	fa20 f002 	lsr.w	r0, r0, r2
    113e:	fa01 fe03 	lsl.w	lr, r1, r3
    1142:	ea40 000e 	orr.w	r0, r0, lr
    1146:	fa21 f102 	lsr.w	r1, r1, r2
    114a:	4414      	add	r4, r2
    114c:	e6c1      	b.n	ed2 <__adddf3+0xe6>
    114e:	bf00      	nop

00001150 <__aeabi_dmul>:
    1150:	b570      	push	{r4, r5, r6, lr}
    1152:	f04f 0cff 	mov.w	ip, #255	; 0xff
    1156:	f44c 6ce0 	orr.w	ip, ip, #1792	; 0x700
    115a:	ea1c 5411 	ands.w	r4, ip, r1, lsr #20
    115e:	bf1d      	ittte	ne
    1160:	ea1c 5513 	andsne.w	r5, ip, r3, lsr #20
    1164:	ea94 0f0c 	teqne	r4, ip
    1168:	ea95 0f0c 	teqne	r5, ip
    116c:	f000 f8de 	bleq	132c <__aeabi_dmul+0x1dc>
    1170:	442c      	add	r4, r5
    1172:	ea81 0603 	eor.w	r6, r1, r3
    1176:	ea21 514c 	bic.w	r1, r1, ip, lsl #21
    117a:	ea23 534c 	bic.w	r3, r3, ip, lsl #21
    117e:	ea50 3501 	orrs.w	r5, r0, r1, lsl #12
    1182:	bf18      	it	ne
    1184:	ea52 3503 	orrsne.w	r5, r2, r3, lsl #12
    1188:	f441 1180 	orr.w	r1, r1, #1048576	; 0x100000
    118c:	f443 1380 	orr.w	r3, r3, #1048576	; 0x100000
    1190:	d038      	beq.n	1204 <__aeabi_dmul+0xb4>
    1192:	fba0 ce02 	umull	ip, lr, r0, r2
    1196:	f04f 0500 	mov.w	r5, #0
    119a:	fbe1 e502 	umlal	lr, r5, r1, r2
    119e:	f006 4200 	and.w	r2, r6, #2147483648	; 0x80000000
    11a2:	fbe0 e503 	umlal	lr, r5, r0, r3
    11a6:	f04f 0600 	mov.w	r6, #0
    11aa:	fbe1 5603 	umlal	r5, r6, r1, r3
    11ae:	f09c 0f00 	teq	ip, #0
    11b2:	bf18      	it	ne
    11b4:	f04e 0e01 	orrne.w	lr, lr, #1
    11b8:	f1a4 04ff 	sub.w	r4, r4, #255	; 0xff
    11bc:	f5b6 7f00 	cmp.w	r6, #512	; 0x200
    11c0:	f564 7440 	sbc.w	r4, r4, #768	; 0x300
    11c4:	d204      	bcs.n	11d0 <__aeabi_dmul+0x80>
    11c6:	ea5f 0e4e 	movs.w	lr, lr, lsl #1
    11ca:	416d      	adcs	r5, r5
    11cc:	eb46 0606 	adc.w	r6, r6, r6
    11d0:	ea42 21c6 	orr.w	r1, r2, r6, lsl #11
    11d4:	ea41 5155 	orr.w	r1, r1, r5, lsr #21
    11d8:	ea4f 20c5 	mov.w	r0, r5, lsl #11
    11dc:	ea40 505e 	orr.w	r0, r0, lr, lsr #21
    11e0:	ea4f 2ece 	mov.w	lr, lr, lsl #11
    11e4:	f1b4 0cfd 	subs.w	ip, r4, #253	; 0xfd
    11e8:	bf88      	it	hi
    11ea:	f5bc 6fe0 	cmphi.w	ip, #1792	; 0x700
    11ee:	d81e      	bhi.n	122e <__aeabi_dmul+0xde>
    11f0:	f1be 4f00 	cmp.w	lr, #2147483648	; 0x80000000
    11f4:	bf08      	it	eq
    11f6:	ea5f 0e50 	movseq.w	lr, r0, lsr #1
    11fa:	f150 0000 	adcs.w	r0, r0, #0
    11fe:	eb41 5104 	adc.w	r1, r1, r4, lsl #20
    1202:	bd70      	pop	{r4, r5, r6, pc}
    1204:	f006 4600 	and.w	r6, r6, #2147483648	; 0x80000000
    1208:	ea46 0101 	orr.w	r1, r6, r1
    120c:	ea40 0002 	orr.w	r0, r0, r2
    1210:	ea81 0103 	eor.w	r1, r1, r3
    1214:	ebb4 045c 	subs.w	r4, r4, ip, lsr #1
    1218:	bfc2      	ittt	gt
    121a:	ebd4 050c 	rsbsgt	r5, r4, ip
    121e:	ea41 5104 	orrgt.w	r1, r1, r4, lsl #20
    1222:	bd70      	popgt	{r4, r5, r6, pc}
    1224:	f441 1180 	orr.w	r1, r1, #1048576	; 0x100000
    1228:	f04f 0e00 	mov.w	lr, #0
    122c:	3c01      	subs	r4, #1
    122e:	f300 80ab 	bgt.w	1388 <__aeabi_dmul+0x238>
    1232:	f114 0f36 	cmn.w	r4, #54	; 0x36
    1236:	bfde      	ittt	le
    1238:	2000      	movle	r0, #0
    123a:	f001 4100 	andle.w	r1, r1, #2147483648	; 0x80000000
    123e:	bd70      	pople	{r4, r5, r6, pc}
    1240:	f1c4 0400 	rsb	r4, r4, #0
    1244:	3c20      	subs	r4, #32
    1246:	da35      	bge.n	12b4 <__aeabi_dmul+0x164>
    1248:	340c      	adds	r4, #12
    124a:	dc1b      	bgt.n	1284 <__aeabi_dmul+0x134>
    124c:	f104 0414 	add.w	r4, r4, #20
    1250:	f1c4 0520 	rsb	r5, r4, #32
    1254:	fa00 f305 	lsl.w	r3, r0, r5
    1258:	fa20 f004 	lsr.w	r0, r0, r4
    125c:	fa01 f205 	lsl.w	r2, r1, r5
    1260:	ea40 0002 	orr.w	r0, r0, r2
    1264:	f001 4200 	and.w	r2, r1, #2147483648	; 0x80000000
    1268:	f021 4100 	bic.w	r1, r1, #2147483648	; 0x80000000
    126c:	eb10 70d3 	adds.w	r0, r0, r3, lsr #31
    1270:	fa21 f604 	lsr.w	r6, r1, r4
    1274:	eb42 0106 	adc.w	r1, r2, r6
    1278:	ea5e 0e43 	orrs.w	lr, lr, r3, lsl #1
    127c:	bf08      	it	eq
    127e:	ea20 70d3 	biceq.w	r0, r0, r3, lsr #31
    1282:	bd70      	pop	{r4, r5, r6, pc}
    1284:	f1c4 040c 	rsb	r4, r4, #12
    1288:	f1c4 0520 	rsb	r5, r4, #32
    128c:	fa00 f304 	lsl.w	r3, r0, r4
    1290:	fa20 f005 	lsr.w	r0, r0, r5
    1294:	fa01 f204 	lsl.w	r2, r1, r4
    1298:	ea40 0002 	orr.w	r0, r0, r2
    129c:	f001 4100 	and.w	r1, r1, #2147483648	; 0x80000000
    12a0:	eb10 70d3 	adds.w	r0, r0, r3, lsr #31
    12a4:	f141 0100 	adc.w	r1, r1, #0
    12a8:	ea5e 0e43 	orrs.w	lr, lr, r3, lsl #1
    12ac:	bf08      	it	eq
    12ae:	ea20 70d3 	biceq.w	r0, r0, r3, lsr #31
    12b2:	bd70      	pop	{r4, r5, r6, pc}
    12b4:	f1c4 0520 	rsb	r5, r4, #32
    12b8:	fa00 f205 	lsl.w	r2, r0, r5
    12bc:	ea4e 0e02 	orr.w	lr, lr, r2
    12c0:	fa20 f304 	lsr.w	r3, r0, r4
    12c4:	fa01 f205 	lsl.w	r2, r1, r5
    12c8:	ea43 0302 	orr.w	r3, r3, r2
    12cc:	fa21 f004 	lsr.w	r0, r1, r4
    12d0:	f001 4100 	and.w	r1, r1, #2147483648	; 0x80000000
    12d4:	fa21 f204 	lsr.w	r2, r1, r4
    12d8:	ea20 0002 	bic.w	r0, r0, r2
    12dc:	eb00 70d3 	add.w	r0, r0, r3, lsr #31
    12e0:	ea5e 0e43 	orrs.w	lr, lr, r3, lsl #1
    12e4:	bf08      	it	eq
    12e6:	ea20 70d3 	biceq.w	r0, r0, r3, lsr #31
    12ea:	bd70      	pop	{r4, r5, r6, pc}
    12ec:	f094 0f00 	teq	r4, #0
    12f0:	d10f      	bne.n	1312 <__aeabi_dmul+0x1c2>
    12f2:	f001 4600 	and.w	r6, r1, #2147483648	; 0x80000000
    12f6:	0040      	lsls	r0, r0, #1
    12f8:	eb41 0101 	adc.w	r1, r1, r1
    12fc:	f411 1f80 	tst.w	r1, #1048576	; 0x100000
    1300:	bf08      	it	eq
    1302:	3c01      	subeq	r4, #1
    1304:	d0f7      	beq.n	12f6 <__aeabi_dmul+0x1a6>
    1306:	ea41 0106 	orr.w	r1, r1, r6
    130a:	f095 0f00 	teq	r5, #0
    130e:	bf18      	it	ne
    1310:	4770      	bxne	lr
    1312:	f003 4600 	and.w	r6, r3, #2147483648	; 0x80000000
    1316:	0052      	lsls	r2, r2, #1
    1318:	eb43 0303 	adc.w	r3, r3, r3
    131c:	f413 1f80 	tst.w	r3, #1048576	; 0x100000
    1320:	bf08      	it	eq
    1322:	3d01      	subeq	r5, #1
    1324:	d0f7      	beq.n	1316 <__aeabi_dmul+0x1c6>
    1326:	ea43 0306 	orr.w	r3, r3, r6
    132a:	4770      	bx	lr
    132c:	ea94 0f0c 	teq	r4, ip
    1330:	ea0c 5513 	and.w	r5, ip, r3, lsr #20
    1334:	bf18      	it	ne
    1336:	ea95 0f0c 	teqne	r5, ip
    133a:	d00c      	beq.n	1356 <__aeabi_dmul+0x206>
    133c:	ea50 0641 	orrs.w	r6, r0, r1, lsl #1
    1340:	bf18      	it	ne
    1342:	ea52 0643 	orrsne.w	r6, r2, r3, lsl #1
    1346:	d1d1      	bne.n	12ec <__aeabi_dmul+0x19c>
    1348:	ea81 0103 	eor.w	r1, r1, r3
    134c:	f001 4100 	and.w	r1, r1, #2147483648	; 0x80000000
    1350:	f04f 0000 	mov.w	r0, #0
    1354:	bd70      	pop	{r4, r5, r6, pc}
    1356:	ea50 0641 	orrs.w	r6, r0, r1, lsl #1
    135a:	bf06      	itte	eq
    135c:	4610      	moveq	r0, r2
    135e:	4619      	moveq	r1, r3
    1360:	ea52 0643 	orrsne.w	r6, r2, r3, lsl #1
    1364:	d019      	beq.n	139a <__aeabi_dmul+0x24a>
    1366:	ea94 0f0c 	teq	r4, ip
    136a:	d102      	bne.n	1372 <__aeabi_dmul+0x222>
    136c:	ea50 3601 	orrs.w	r6, r0, r1, lsl #12
    1370:	d113      	bne.n	139a <__aeabi_dmul+0x24a>
    1372:	ea95 0f0c 	teq	r5, ip
    1376:	d105      	bne.n	1384 <__aeabi_dmul+0x234>
    1378:	ea52 3603 	orrs.w	r6, r2, r3, lsl #12
    137c:	bf1c      	itt	ne
    137e:	4610      	movne	r0, r2
    1380:	4619      	movne	r1, r3
    1382:	d10a      	bne.n	139a <__aeabi_dmul+0x24a>
    1384:	ea81 0103 	eor.w	r1, r1, r3
    1388:	f001 4100 	and.w	r1, r1, #2147483648	; 0x80000000
    138c:	f041 41fe 	orr.w	r1, r1, #2130706432	; 0x7f000000
    1390:	f441 0170 	orr.w	r1, r1, #15728640	; 0xf00000
    1394:	f04f 0000 	mov.w	r0, #0
    1398:	bd70      	pop	{r4, r5, r6, pc}
    139a:	f041 41fe 	orr.w	r1, r1, #2130706432	; 0x7f000000
    139e:	f441 0178 	orr.w	r1, r1, #16252928	; 0xf80000
    13a2:	bd70      	pop	{r4, r5, r6, pc}

000013a4 <__aeabi_ddiv>:
    13a4:	b570      	push	{r4, r5, r6, lr}
    13a6:	f04f 0cff 	mov.w	ip, #255	; 0xff
    13aa:	f44c 6ce0 	orr.w	ip, ip, #1792	; 0x700
    13ae:	ea1c 5411 	ands.w	r4, ip, r1, lsr #20
    13b2:	bf1d      	ittte	ne
    13b4:	ea1c 5513 	andsne.w	r5, ip, r3, lsr #20
    13b8:	ea94 0f0c 	teqne	r4, ip
    13bc:	ea95 0f0c 	teqne	r5, ip
    13c0:	f000 f8a7 	bleq	1512 <__aeabi_ddiv+0x16e>
    13c4:	eba4 0405 	sub.w	r4, r4, r5
    13c8:	ea81 0e03 	eor.w	lr, r1, r3
    13cc:	ea52 3503 	orrs.w	r5, r2, r3, lsl #12
    13d0:	ea4f 3101 	mov.w	r1, r1, lsl #12
    13d4:	f000 8088 	beq.w	14e8 <__aeabi_ddiv+0x144>
    13d8:	ea4f 3303 	mov.w	r3, r3, lsl #12
    13dc:	f04f 5580 	mov.w	r5, #268435456	; 0x10000000
    13e0:	ea45 1313 	orr.w	r3, r5, r3, lsr #4
    13e4:	ea43 6312 	orr.w	r3, r3, r2, lsr #24
    13e8:	ea4f 2202 	mov.w	r2, r2, lsl #8
    13ec:	ea45 1511 	orr.w	r5, r5, r1, lsr #4
    13f0:	ea45 6510 	orr.w	r5, r5, r0, lsr #24
    13f4:	ea4f 2600 	mov.w	r6, r0, lsl #8
    13f8:	f00e 4100 	and.w	r1, lr, #2147483648	; 0x80000000
    13fc:	429d      	cmp	r5, r3
    13fe:	bf08      	it	eq
    1400:	4296      	cmpeq	r6, r2
    1402:	f144 04fd 	adc.w	r4, r4, #253	; 0xfd
    1406:	f504 7440 	add.w	r4, r4, #768	; 0x300
    140a:	d202      	bcs.n	1412 <__aeabi_ddiv+0x6e>
    140c:	085b      	lsrs	r3, r3, #1
    140e:	ea4f 0232 	mov.w	r2, r2, rrx
    1412:	1ab6      	subs	r6, r6, r2
    1414:	eb65 0503 	sbc.w	r5, r5, r3
    1418:	085b      	lsrs	r3, r3, #1
    141a:	ea4f 0232 	mov.w	r2, r2, rrx
    141e:	f44f 1080 	mov.w	r0, #1048576	; 0x100000
    1422:	f44f 2c00 	mov.w	ip, #524288	; 0x80000
    1426:	ebb6 0e02 	subs.w	lr, r6, r2
    142a:	eb75 0e03 	sbcs.w	lr, r5, r3
    142e:	bf22      	ittt	cs
    1430:	1ab6      	subcs	r6, r6, r2
    1432:	4675      	movcs	r5, lr
    1434:	ea40 000c 	orrcs.w	r0, r0, ip
    1438:	085b      	lsrs	r3, r3, #1
    143a:	ea4f 0232 	mov.w	r2, r2, rrx
    143e:	ebb6 0e02 	subs.w	lr, r6, r2
    1442:	eb75 0e03 	sbcs.w	lr, r5, r3
    1446:	bf22      	ittt	cs
    1448:	1ab6      	subcs	r6, r6, r2
    144a:	4675      	movcs	r5, lr
    144c:	ea40 005c 	orrcs.w	r0, r0, ip, lsr #1
    1450:	085b      	lsrs	r3, r3, #1
    1452:	ea4f 0232 	mov.w	r2, r2, rrx
    1456:	ebb6 0e02 	subs.w	lr, r6, r2
    145a:	eb75 0e03 	sbcs.w	lr, r5, r3
    145e:	bf22      	ittt	cs
    1460:	1ab6      	subcs	r6, r6, r2
    1462:	4675      	movcs	r5, lr
    1464:	ea40 009c 	orrcs.w	r0, r0, ip, lsr #2
    1468:	085b      	lsrs	r3, r3, #1
    146a:	ea4f 0232 	mov.w	r2, r2, rrx
    146e:	ebb6 0e02 	subs.w	lr, r6, r2
    1472:	eb75 0e03 	sbcs.w	lr, r5, r3
    1476:	bf22      	ittt	cs
    1478:	1ab6      	subcs	r6, r6, r2
    147a:	4675      	movcs	r5, lr
    147c:	ea40 00dc 	orrcs.w	r0, r0, ip, lsr #3
    1480:	ea55 0e06 	orrs.w	lr, r5, r6
    1484:	d018      	beq.n	14b8 <__aeabi_ddiv+0x114>
    1486:	ea4f 1505 	mov.w	r5, r5, lsl #4
    148a:	ea45 7516 	orr.w	r5, r5, r6, lsr #28
    148e:	ea4f 1606 	mov.w	r6, r6, lsl #4
    1492:	ea4f 03c3 	mov.w	r3, r3, lsl #3
    1496:	ea43 7352 	orr.w	r3, r3, r2, lsr #29
    149a:	ea4f 02c2 	mov.w	r2, r2, lsl #3
    149e:	ea5f 1c1c 	movs.w	ip, ip, lsr #4
    14a2:	d1c0      	bne.n	1426 <__aeabi_ddiv+0x82>
    14a4:	f411 1f80 	tst.w	r1, #1048576	; 0x100000
    14a8:	d10b      	bne.n	14c2 <__aeabi_ddiv+0x11e>
    14aa:	ea41 0100 	orr.w	r1, r1, r0
    14ae:	f04f 0000 	mov.w	r0, #0
    14b2:	f04f 4c00 	mov.w	ip, #2147483648	; 0x80000000
    14b6:	e7b6      	b.n	1426 <__aeabi_ddiv+0x82>
    14b8:	f411 1f80 	tst.w	r1, #1048576	; 0x100000
    14bc:	bf04      	itt	eq
    14be:	4301      	orreq	r1, r0
    14c0:	2000      	moveq	r0, #0
    14c2:	f1b4 0cfd 	subs.w	ip, r4, #253	; 0xfd
    14c6:	bf88      	it	hi
    14c8:	f5bc 6fe0 	cmphi.w	ip, #1792	; 0x700
    14cc:	f63f aeaf 	bhi.w	122e <__aeabi_dmul+0xde>
    14d0:	ebb5 0c03 	subs.w	ip, r5, r3
    14d4:	bf04      	itt	eq
    14d6:	ebb6 0c02 	subseq.w	ip, r6, r2
    14da:	ea5f 0c50 	movseq.w	ip, r0, lsr #1
    14de:	f150 0000 	adcs.w	r0, r0, #0
    14e2:	eb41 5104 	adc.w	r1, r1, r4, lsl #20
    14e6:	bd70      	pop	{r4, r5, r6, pc}
    14e8:	f00e 4e00 	and.w	lr, lr, #2147483648	; 0x80000000
    14ec:	ea4e 3111 	orr.w	r1, lr, r1, lsr #12
    14f0:	eb14 045c 	adds.w	r4, r4, ip, lsr #1
    14f4:	bfc2      	ittt	gt
    14f6:	ebd4 050c 	rsbsgt	r5, r4, ip
    14fa:	ea41 5104 	orrgt.w	r1, r1, r4, lsl #20
    14fe:	bd70      	popgt	{r4, r5, r6, pc}
    1500:	f441 1180 	orr.w	r1, r1, #1048576	; 0x100000
    1504:	f04f 0e00 	mov.w	lr, #0
    1508:	3c01      	subs	r4, #1
    150a:	e690      	b.n	122e <__aeabi_dmul+0xde>
    150c:	ea45 0e06 	orr.w	lr, r5, r6
    1510:	e68d      	b.n	122e <__aeabi_dmul+0xde>
    1512:	ea0c 5513 	and.w	r5, ip, r3, lsr #20
    1516:	ea94 0f0c 	teq	r4, ip
    151a:	bf08      	it	eq
    151c:	ea95 0f0c 	teqeq	r5, ip
    1520:	f43f af3b 	beq.w	139a <__aeabi_dmul+0x24a>
    1524:	ea94 0f0c 	teq	r4, ip
    1528:	d10a      	bne.n	1540 <__aeabi_ddiv+0x19c>
    152a:	ea50 3401 	orrs.w	r4, r0, r1, lsl #12
    152e:	f47f af34 	bne.w	139a <__aeabi_dmul+0x24a>
    1532:	ea95 0f0c 	teq	r5, ip
    1536:	f47f af25 	bne.w	1384 <__aeabi_dmul+0x234>
    153a:	4610      	mov	r0, r2
    153c:	4619      	mov	r1, r3
    153e:	e72c      	b.n	139a <__aeabi_dmul+0x24a>
    1540:	ea95 0f0c 	teq	r5, ip
    1544:	d106      	bne.n	1554 <__aeabi_ddiv+0x1b0>
    1546:	ea52 3503 	orrs.w	r5, r2, r3, lsl #12
    154a:	f43f aefd 	beq.w	1348 <__aeabi_dmul+0x1f8>
    154e:	4610      	mov	r0, r2
    1550:	4619      	mov	r1, r3
    1552:	e722      	b.n	139a <__aeabi_dmul+0x24a>
    1554:	ea50 0641 	orrs.w	r6, r0, r1, lsl #1
    1558:	bf18      	it	ne
    155a:	ea52 0643 	orrsne.w	r6, r2, r3, lsl #1
    155e:	f47f aec5 	bne.w	12ec <__aeabi_dmul+0x19c>
    1562:	ea50 0441 	orrs.w	r4, r0, r1, lsl #1
    1566:	f47f af0d 	bne.w	1384 <__aeabi_dmul+0x234>
    156a:	ea52 0543 	orrs.w	r5, r2, r3, lsl #1
    156e:	f47f aeeb 	bne.w	1348 <__aeabi_dmul+0x1f8>
    1572:	e712      	b.n	139a <__aeabi_dmul+0x24a>

00001574 <__gedf2>:
    1574:	f04f 3cff 	mov.w	ip, #4294967295	; 0xffffffff
    1578:	e006      	b.n	1588 <__cmpdf2+0x4>
    157a:	bf00      	nop

0000157c <__ledf2>:
    157c:	f04f 0c01 	mov.w	ip, #1
    1580:	e002      	b.n	1588 <__cmpdf2+0x4>
    1582:	bf00      	nop

00001584 <__cmpdf2>:
    1584:	f04f 0c01 	mov.w	ip, #1
    1588:	f84d cd04 	str.w	ip, [sp, #-4]!
    158c:	ea4f 0c41 	mov.w	ip, r1, lsl #1
    1590:	ea7f 5c6c 	mvns.w	ip, ip, asr #21
    1594:	ea4f 0c43 	mov.w	ip, r3, lsl #1
    1598:	bf18      	it	ne
    159a:	ea7f 5c6c 	mvnsne.w	ip, ip, asr #21
    159e:	d01b      	beq.n	15d8 <__cmpdf2+0x54>
    15a0:	b001      	add	sp, #4
    15a2:	ea50 0c41 	orrs.w	ip, r0, r1, lsl #1
    15a6:	bf0c      	ite	eq
    15a8:	ea52 0c43 	orrseq.w	ip, r2, r3, lsl #1
    15ac:	ea91 0f03 	teqne	r1, r3
    15b0:	bf02      	ittt	eq
    15b2:	ea90 0f02 	teqeq	r0, r2
    15b6:	2000      	moveq	r0, #0
    15b8:	4770      	bxeq	lr
    15ba:	f110 0f00 	cmn.w	r0, #0
    15be:	ea91 0f03 	teq	r1, r3
    15c2:	bf58      	it	pl
    15c4:	4299      	cmppl	r1, r3
    15c6:	bf08      	it	eq
    15c8:	4290      	cmpeq	r0, r2
    15ca:	bf2c      	ite	cs
    15cc:	17d8      	asrcs	r0, r3, #31
    15ce:	ea6f 70e3 	mvncc.w	r0, r3, asr #31
    15d2:	f040 0001 	orr.w	r0, r0, #1
    15d6:	4770      	bx	lr
    15d8:	ea4f 0c41 	mov.w	ip, r1, lsl #1
    15dc:	ea7f 5c6c 	mvns.w	ip, ip, asr #21
    15e0:	d102      	bne.n	15e8 <__cmpdf2+0x64>
    15e2:	ea50 3c01 	orrs.w	ip, r0, r1, lsl #12
    15e6:	d107      	bne.n	15f8 <__cmpdf2+0x74>
    15e8:	ea4f 0c43 	mov.w	ip, r3, lsl #1
    15ec:	ea7f 5c6c 	mvns.w	ip, ip, asr #21
    15f0:	d1d6      	bne.n	15a0 <__cmpdf2+0x1c>
    15f2:	ea52 3c03 	orrs.w	ip, r2, r3, lsl #12
    15f6:	d0d3      	beq.n	15a0 <__cmpdf2+0x1c>
    15f8:	f85d 0b04 	ldr.w	r0, [sp], #4
    15fc:	4770      	bx	lr
    15fe:	bf00      	nop

00001600 <__aeabi_cdrcmple>:
    1600:	4684      	mov	ip, r0
    1602:	4610      	mov	r0, r2
    1604:	4662      	mov	r2, ip
    1606:	468c      	mov	ip, r1
    1608:	4619      	mov	r1, r3
    160a:	4663      	mov	r3, ip
    160c:	e000      	b.n	1610 <__aeabi_cdcmpeq>
    160e:	bf00      	nop

00001610 <__aeabi_cdcmpeq>:
    1610:	b501      	push	{r0, lr}
    1612:	f7ff ffb7 	bl	1584 <__cmpdf2>
    1616:	2800      	cmp	r0, #0
    1618:	bf48      	it	mi
    161a:	f110 0f00 	cmnmi.w	r0, #0
    161e:	bd01      	pop	{r0, pc}

00001620 <__aeabi_dcmpeq>:
    1620:	f84d ed08 	str.w	lr, [sp, #-8]!
    1624:	f7ff fff4 	bl	1610 <__aeabi_cdcmpeq>
    1628:	bf0c      	ite	eq
    162a:	2001      	moveq	r0, #1
    162c:	2000      	movne	r0, #0
    162e:	f85d fb08 	ldr.w	pc, [sp], #8
    1632:	bf00      	nop

00001634 <__aeabi_dcmplt>:
    1634:	f84d ed08 	str.w	lr, [sp, #-8]!
    1638:	f7ff ffea 	bl	1610 <__aeabi_cdcmpeq>
    163c:	bf34      	ite	cc
    163e:	2001      	movcc	r0, #1
    1640:	2000      	movcs	r0, #0
    1642:	f85d fb08 	ldr.w	pc, [sp], #8
    1646:	bf00      	nop

00001648 <__aeabi_dcmple>:
    1648:	f84d ed08 	str.w	lr, [sp, #-8]!
    164c:	f7ff ffe0 	bl	1610 <__aeabi_cdcmpeq>
    1650:	bf94      	ite	ls
    1652:	2001      	movls	r0, #1
    1654:	2000      	movhi	r0, #0
    1656:	f85d fb08 	ldr.w	pc, [sp], #8
    165a:	bf00      	nop

0000165c <__aeabi_dcmpge>:
    165c:	f84d ed08 	str.w	lr, [sp, #-8]!
    1660:	f7ff ffce 	bl	1600 <__aeabi_cdrcmple>
    1664:	bf94      	ite	ls
    1666:	2001      	movls	r0, #1
    1668:	2000      	movhi	r0, #0
    166a:	f85d fb08 	ldr.w	pc, [sp], #8
    166e:	bf00      	nop

00001670 <__aeabi_dcmpgt>:
    1670:	f84d ed08 	str.w	lr, [sp, #-8]!
    1674:	f7ff ffc4 	bl	1600 <__aeabi_cdrcmple>
    1678:	bf34      	ite	cc
    167a:	2001      	movcc	r0, #1
    167c:	2000      	movcs	r0, #0
    167e:	f85d fb08 	ldr.w	pc, [sp], #8
    1682:	bf00      	nop

00001684 <__aeabi_d2iz>:
    1684:	ea4f 0241 	mov.w	r2, r1, lsl #1
    1688:	f512 1200 	adds.w	r2, r2, #2097152	; 0x200000
    168c:	d215      	bcs.n	16ba <__aeabi_d2iz+0x36>
    168e:	d511      	bpl.n	16b4 <__aeabi_d2iz+0x30>
    1690:	f46f 7378 	mvn.w	r3, #992	; 0x3e0
    1694:	ebb3 5262 	subs.w	r2, r3, r2, asr #21
    1698:	d912      	bls.n	16c0 <__aeabi_d2iz+0x3c>
    169a:	ea4f 23c1 	mov.w	r3, r1, lsl #11
    169e:	f043 4300 	orr.w	r3, r3, #2147483648	; 0x80000000
    16a2:	ea43 5350 	orr.w	r3, r3, r0, lsr #21
    16a6:	f011 4f00 	tst.w	r1, #2147483648	; 0x80000000
    16aa:	fa23 f002 	lsr.w	r0, r3, r2
    16ae:	bf18      	it	ne
    16b0:	4240      	negne	r0, r0
    16b2:	4770      	bx	lr
    16b4:	f04f 0000 	mov.w	r0, #0
    16b8:	4770      	bx	lr
    16ba:	ea50 3001 	orrs.w	r0, r0, r1, lsl #12
    16be:	d105      	bne.n	16cc <__aeabi_d2iz+0x48>
    16c0:	f011 4000 	ands.w	r0, r1, #2147483648	; 0x80000000
    16c4:	bf08      	it	eq
    16c6:	f06f 4000 	mvneq.w	r0, #2147483648	; 0x80000000
    16ca:	4770      	bx	lr
    16cc:	f04f 0000 	mov.w	r0, #0
    16d0:	4770      	bx	lr
    16d2:	bf00      	nop

000016d4 <__aeabi_d2f>:
    16d4:	ea4f 0241 	mov.w	r2, r1, lsl #1
    16d8:	f1b2 43e0 	subs.w	r3, r2, #1879048192	; 0x70000000
    16dc:	bf24      	itt	cs
    16de:	f5b3 1c00 	subscs.w	ip, r3, #2097152	; 0x200000
    16e2:	f1dc 5cfe 	rsbscs	ip, ip, #532676608	; 0x1fc00000
    16e6:	d90d      	bls.n	1704 <__aeabi_d2f+0x30>
    16e8:	f001 4c00 	and.w	ip, r1, #2147483648	; 0x80000000
    16ec:	ea4f 02c0 	mov.w	r2, r0, lsl #3
    16f0:	ea4c 7050 	orr.w	r0, ip, r0, lsr #29
    16f4:	f1b2 4f00 	cmp.w	r2, #2147483648	; 0x80000000
    16f8:	eb40 0083 	adc.w	r0, r0, r3, lsl #2
    16fc:	bf08      	it	eq
    16fe:	f020 0001 	biceq.w	r0, r0, #1
    1702:	4770      	bx	lr
    1704:	f011 4f80 	tst.w	r1, #1073741824	; 0x40000000
    1708:	d121      	bne.n	174e <__aeabi_d2f+0x7a>
    170a:	f113 7238 	adds.w	r2, r3, #48234496	; 0x2e00000
    170e:	bfbc      	itt	lt
    1710:	f001 4000 	andlt.w	r0, r1, #2147483648	; 0x80000000
    1714:	4770      	bxlt	lr
    1716:	f441 1180 	orr.w	r1, r1, #1048576	; 0x100000
    171a:	ea4f 5252 	mov.w	r2, r2, lsr #21
    171e:	f1c2 0218 	rsb	r2, r2, #24
    1722:	f1c2 0c20 	rsb	ip, r2, #32
    1726:	fa10 f30c 	lsls.w	r3, r0, ip
    172a:	fa20 f002 	lsr.w	r0, r0, r2
    172e:	bf18      	it	ne
    1730:	f040 0001 	orrne.w	r0, r0, #1
    1734:	ea4f 23c1 	mov.w	r3, r1, lsl #11
    1738:	ea4f 23d3 	mov.w	r3, r3, lsr #11
    173c:	fa03 fc0c 	lsl.w	ip, r3, ip
    1740:	ea40 000c 	orr.w	r0, r0, ip
    1744:	fa23 f302 	lsr.w	r3, r3, r2
    1748:	ea4f 0343 	mov.w	r3, r3, lsl #1
    174c:	e7cc      	b.n	16e8 <__aeabi_d2f+0x14>
    174e:	ea7f 5362 	mvns.w	r3, r2, asr #21
    1752:	d107      	bne.n	1764 <__aeabi_d2f+0x90>
    1754:	ea50 3301 	orrs.w	r3, r0, r1, lsl #12
    1758:	bf1e      	ittt	ne
    175a:	f04f 40fe 	movne.w	r0, #2130706432	; 0x7f000000
    175e:	f440 0040 	orrne.w	r0, r0, #12582912	; 0xc00000
    1762:	4770      	bxne	lr
    1764:	f001 4000 	and.w	r0, r1, #2147483648	; 0x80000000
    1768:	f040 40fe 	orr.w	r0, r0, #2130706432	; 0x7f000000
    176c:	f440 0000 	orr.w	r0, r0, #8388608	; 0x800000
    1770:	4770      	bx	lr
    1772:	bf00      	nop

00001774 <__aeabi_frsub>:
    1774:	f080 4000 	eor.w	r0, r0, #2147483648	; 0x80000000
    1778:	e002      	b.n	1780 <__addsf3>
    177a:	bf00      	nop

0000177c <__aeabi_fsub>:
    177c:	f081 4100 	eor.w	r1, r1, #2147483648	; 0x80000000

00001780 <__addsf3>:
    1780:	0042      	lsls	r2, r0, #1
    1782:	bf1f      	itttt	ne
    1784:	ea5f 0341 	movsne.w	r3, r1, lsl #1
    1788:	ea92 0f03 	teqne	r2, r3
    178c:	ea7f 6c22 	mvnsne.w	ip, r2, asr #24
    1790:	ea7f 6c23 	mvnsne.w	ip, r3, asr #24
    1794:	d06a      	beq.n	186c <__addsf3+0xec>
    1796:	ea4f 6212 	mov.w	r2, r2, lsr #24
    179a:	ebd2 6313 	rsbs	r3, r2, r3, lsr #24
    179e:	bfc1      	itttt	gt
    17a0:	18d2      	addgt	r2, r2, r3
    17a2:	4041      	eorgt	r1, r0
    17a4:	4048      	eorgt	r0, r1
    17a6:	4041      	eorgt	r1, r0
    17a8:	bfb8      	it	lt
    17aa:	425b      	neglt	r3, r3
    17ac:	2b19      	cmp	r3, #25
    17ae:	bf88      	it	hi
    17b0:	4770      	bxhi	lr
    17b2:	f010 4f00 	tst.w	r0, #2147483648	; 0x80000000
    17b6:	f440 0000 	orr.w	r0, r0, #8388608	; 0x800000
    17ba:	f020 407f 	bic.w	r0, r0, #4278190080	; 0xff000000
    17be:	bf18      	it	ne
    17c0:	4240      	negne	r0, r0
    17c2:	f011 4f00 	tst.w	r1, #2147483648	; 0x80000000
    17c6:	f441 0100 	orr.w	r1, r1, #8388608	; 0x800000
    17ca:	f021 417f 	bic.w	r1, r1, #4278190080	; 0xff000000
    17ce:	bf18      	it	ne
    17d0:	4249      	negne	r1, r1
    17d2:	ea92 0f03 	teq	r2, r3
    17d6:	d03f      	beq.n	1858 <__addsf3+0xd8>
    17d8:	f1a2 0201 	sub.w	r2, r2, #1
    17dc:	fa41 fc03 	asr.w	ip, r1, r3
    17e0:	eb10 000c 	adds.w	r0, r0, ip
    17e4:	f1c3 0320 	rsb	r3, r3, #32
    17e8:	fa01 f103 	lsl.w	r1, r1, r3
    17ec:	f000 4300 	and.w	r3, r0, #2147483648	; 0x80000000
    17f0:	d502      	bpl.n	17f8 <__addsf3+0x78>
    17f2:	4249      	negs	r1, r1
    17f4:	eb60 0040 	sbc.w	r0, r0, r0, lsl #1
    17f8:	f5b0 0f00 	cmp.w	r0, #8388608	; 0x800000
    17fc:	d313      	bcc.n	1826 <__addsf3+0xa6>
    17fe:	f1b0 7f80 	cmp.w	r0, #16777216	; 0x1000000
    1802:	d306      	bcc.n	1812 <__addsf3+0x92>
    1804:	0840      	lsrs	r0, r0, #1
    1806:	ea4f 0131 	mov.w	r1, r1, rrx
    180a:	f102 0201 	add.w	r2, r2, #1
    180e:	2afe      	cmp	r2, #254	; 0xfe
    1810:	d251      	bcs.n	18b6 <__addsf3+0x136>
    1812:	f1b1 4f00 	cmp.w	r1, #2147483648	; 0x80000000
    1816:	eb40 50c2 	adc.w	r0, r0, r2, lsl #23
    181a:	bf08      	it	eq
    181c:	f020 0001 	biceq.w	r0, r0, #1
    1820:	ea40 0003 	orr.w	r0, r0, r3
    1824:	4770      	bx	lr
    1826:	0049      	lsls	r1, r1, #1
    1828:	eb40 0000 	adc.w	r0, r0, r0
    182c:	f410 0f00 	tst.w	r0, #8388608	; 0x800000
    1830:	f1a2 0201 	sub.w	r2, r2, #1
    1834:	d1ed      	bne.n	1812 <__addsf3+0x92>
    1836:	fab0 fc80 	clz	ip, r0
    183a:	f1ac 0c08 	sub.w	ip, ip, #8
    183e:	ebb2 020c 	subs.w	r2, r2, ip
    1842:	fa00 f00c 	lsl.w	r0, r0, ip
    1846:	bfaa      	itet	ge
    1848:	eb00 50c2 	addge.w	r0, r0, r2, lsl #23
    184c:	4252      	neglt	r2, r2
    184e:	4318      	orrge	r0, r3
    1850:	bfbc      	itt	lt
    1852:	40d0      	lsrlt	r0, r2
    1854:	4318      	orrlt	r0, r3
    1856:	4770      	bx	lr
    1858:	f092 0f00 	teq	r2, #0
    185c:	f481 0100 	eor.w	r1, r1, #8388608	; 0x800000
    1860:	bf06      	itte	eq
    1862:	f480 0000 	eoreq.w	r0, r0, #8388608	; 0x800000
    1866:	3201      	addeq	r2, #1
    1868:	3b01      	subne	r3, #1
    186a:	e7b5      	b.n	17d8 <__addsf3+0x58>
    186c:	ea4f 0341 	mov.w	r3, r1, lsl #1
    1870:	ea7f 6c22 	mvns.w	ip, r2, asr #24
    1874:	bf18      	it	ne
    1876:	ea7f 6c23 	mvnsne.w	ip, r3, asr #24
    187a:	d021      	beq.n	18c0 <__addsf3+0x140>
    187c:	ea92 0f03 	teq	r2, r3
    1880:	d004      	beq.n	188c <__addsf3+0x10c>
    1882:	f092 0f00 	teq	r2, #0
    1886:	bf08      	it	eq
    1888:	4608      	moveq	r0, r1
    188a:	4770      	bx	lr
    188c:	ea90 0f01 	teq	r0, r1
    1890:	bf1c      	itt	ne
    1892:	2000      	movne	r0, #0
    1894:	4770      	bxne	lr
    1896:	f012 4f7f 	tst.w	r2, #4278190080	; 0xff000000
    189a:	d104      	bne.n	18a6 <__addsf3+0x126>
    189c:	0040      	lsls	r0, r0, #1
    189e:	bf28      	it	cs
    18a0:	f040 4000 	orrcs.w	r0, r0, #2147483648	; 0x80000000
    18a4:	4770      	bx	lr
    18a6:	f112 7200 	adds.w	r2, r2, #33554432	; 0x2000000
    18aa:	bf3c      	itt	cc
    18ac:	f500 0000 	addcc.w	r0, r0, #8388608	; 0x800000
    18b0:	4770      	bxcc	lr
    18b2:	f000 4300 	and.w	r3, r0, #2147483648	; 0x80000000
    18b6:	f043 40fe 	orr.w	r0, r3, #2130706432	; 0x7f000000
    18ba:	f440 0000 	orr.w	r0, r0, #8388608	; 0x800000
    18be:	4770      	bx	lr
    18c0:	ea7f 6222 	mvns.w	r2, r2, asr #24
    18c4:	bf16      	itet	ne
    18c6:	4608      	movne	r0, r1
    18c8:	ea7f 6323 	mvnseq.w	r3, r3, asr #24
    18cc:	4601      	movne	r1, r0
    18ce:	0242      	lsls	r2, r0, #9
    18d0:	bf06      	itte	eq
    18d2:	ea5f 2341 	movseq.w	r3, r1, lsl #9
    18d6:	ea90 0f01 	teqeq	r0, r1
    18da:	f440 0080 	orrne.w	r0, r0, #4194304	; 0x400000
    18de:	4770      	bx	lr

000018e0 <__aeabi_ui2f>:
    18e0:	f04f 0300 	mov.w	r3, #0
    18e4:	e004      	b.n	18f0 <__aeabi_i2f+0x8>
    18e6:	bf00      	nop

000018e8 <__aeabi_i2f>:
    18e8:	f010 4300 	ands.w	r3, r0, #2147483648	; 0x80000000
    18ec:	bf48      	it	mi
    18ee:	4240      	negmi	r0, r0
    18f0:	ea5f 0c00 	movs.w	ip, r0
    18f4:	bf08      	it	eq
    18f6:	4770      	bxeq	lr
    18f8:	f043 4396 	orr.w	r3, r3, #1258291200	; 0x4b000000
    18fc:	4601      	mov	r1, r0
    18fe:	f04f 0000 	mov.w	r0, #0
    1902:	e01c      	b.n	193e <__aeabi_l2f+0x2a>

00001904 <__aeabi_ul2f>:
    1904:	ea50 0201 	orrs.w	r2, r0, r1
    1908:	bf08      	it	eq
    190a:	4770      	bxeq	lr
    190c:	f04f 0300 	mov.w	r3, #0
    1910:	e00a      	b.n	1928 <__aeabi_l2f+0x14>
    1912:	bf00      	nop

00001914 <__aeabi_l2f>:
    1914:	ea50 0201 	orrs.w	r2, r0, r1
    1918:	bf08      	it	eq
    191a:	4770      	bxeq	lr
    191c:	f011 4300 	ands.w	r3, r1, #2147483648	; 0x80000000
    1920:	d502      	bpl.n	1928 <__aeabi_l2f+0x14>
    1922:	4240      	negs	r0, r0
    1924:	eb61 0141 	sbc.w	r1, r1, r1, lsl #1
    1928:	ea5f 0c01 	movs.w	ip, r1
    192c:	bf02      	ittt	eq
    192e:	4684      	moveq	ip, r0
    1930:	4601      	moveq	r1, r0
    1932:	2000      	moveq	r0, #0
    1934:	f043 43b6 	orr.w	r3, r3, #1526726656	; 0x5b000000
    1938:	bf08      	it	eq
    193a:	f1a3 5380 	subeq.w	r3, r3, #268435456	; 0x10000000
    193e:	f5a3 0300 	sub.w	r3, r3, #8388608	; 0x800000
    1942:	fabc f28c 	clz	r2, ip
    1946:	3a08      	subs	r2, #8
    1948:	eba3 53c2 	sub.w	r3, r3, r2, lsl #23
    194c:	db10      	blt.n	1970 <__aeabi_l2f+0x5c>
    194e:	fa01 fc02 	lsl.w	ip, r1, r2
    1952:	4463      	add	r3, ip
    1954:	fa00 fc02 	lsl.w	ip, r0, r2
    1958:	f1c2 0220 	rsb	r2, r2, #32
    195c:	f1bc 4f00 	cmp.w	ip, #2147483648	; 0x80000000
    1960:	fa20 f202 	lsr.w	r2, r0, r2
    1964:	eb43 0002 	adc.w	r0, r3, r2
    1968:	bf08      	it	eq
    196a:	f020 0001 	biceq.w	r0, r0, #1
    196e:	4770      	bx	lr
    1970:	f102 0220 	add.w	r2, r2, #32
    1974:	fa01 fc02 	lsl.w	ip, r1, r2
    1978:	f1c2 0220 	rsb	r2, r2, #32
    197c:	ea50 004c 	orrs.w	r0, r0, ip, lsl #1
    1980:	fa21 f202 	lsr.w	r2, r1, r2
    1984:	eb43 0002 	adc.w	r0, r3, r2
    1988:	bf08      	it	eq
    198a:	ea20 70dc 	biceq.w	r0, r0, ip, lsr #31
    198e:	4770      	bx	lr

00001990 <__aeabi_fmul>:
    1990:	f04f 0cff 	mov.w	ip, #255	; 0xff
    1994:	ea1c 52d0 	ands.w	r2, ip, r0, lsr #23
    1998:	bf1e      	ittt	ne
    199a:	ea1c 53d1 	andsne.w	r3, ip, r1, lsr #23
    199e:	ea92 0f0c 	teqne	r2, ip
    19a2:	ea93 0f0c 	teqne	r3, ip
    19a6:	d06f      	beq.n	1a88 <__aeabi_fmul+0xf8>
    19a8:	441a      	add	r2, r3
    19aa:	ea80 0c01 	eor.w	ip, r0, r1
    19ae:	0240      	lsls	r0, r0, #9
    19b0:	bf18      	it	ne
    19b2:	ea5f 2141 	movsne.w	r1, r1, lsl #9
    19b6:	d01e      	beq.n	19f6 <__aeabi_fmul+0x66>
    19b8:	f04f 6300 	mov.w	r3, #134217728	; 0x8000000
    19bc:	ea43 1050 	orr.w	r0, r3, r0, lsr #5
    19c0:	ea43 1151 	orr.w	r1, r3, r1, lsr #5
    19c4:	fba0 3101 	umull	r3, r1, r0, r1
    19c8:	f00c 4000 	and.w	r0, ip, #2147483648	; 0x80000000
    19cc:	f5b1 0f00 	cmp.w	r1, #8388608	; 0x800000
    19d0:	bf3e      	ittt	cc
    19d2:	0049      	lslcc	r1, r1, #1
    19d4:	ea41 71d3 	orrcc.w	r1, r1, r3, lsr #31
    19d8:	005b      	lslcc	r3, r3, #1
    19da:	ea40 0001 	orr.w	r0, r0, r1
    19de:	f162 027f 	sbc.w	r2, r2, #127	; 0x7f
    19e2:	2afd      	cmp	r2, #253	; 0xfd
    19e4:	d81d      	bhi.n	1a22 <__aeabi_fmul+0x92>
    19e6:	f1b3 4f00 	cmp.w	r3, #2147483648	; 0x80000000
    19ea:	eb40 50c2 	adc.w	r0, r0, r2, lsl #23
    19ee:	bf08      	it	eq
    19f0:	f020 0001 	biceq.w	r0, r0, #1
    19f4:	4770      	bx	lr
    19f6:	f090 0f00 	teq	r0, #0
    19fa:	f00c 4c00 	and.w	ip, ip, #2147483648	; 0x80000000
    19fe:	bf08      	it	eq
    1a00:	0249      	lsleq	r1, r1, #9
    1a02:	ea4c 2050 	orr.w	r0, ip, r0, lsr #9
    1a06:	ea40 2051 	orr.w	r0, r0, r1, lsr #9
    1a0a:	3a7f      	subs	r2, #127	; 0x7f
    1a0c:	bfc2      	ittt	gt
    1a0e:	f1d2 03ff 	rsbsgt	r3, r2, #255	; 0xff
    1a12:	ea40 50c2 	orrgt.w	r0, r0, r2, lsl #23
    1a16:	4770      	bxgt	lr
    1a18:	f440 0000 	orr.w	r0, r0, #8388608	; 0x800000
    1a1c:	f04f 0300 	mov.w	r3, #0
    1a20:	3a01      	subs	r2, #1
    1a22:	dc5d      	bgt.n	1ae0 <__aeabi_fmul+0x150>
    1a24:	f112 0f19 	cmn.w	r2, #25
    1a28:	bfdc      	itt	le
    1a2a:	f000 4000 	andle.w	r0, r0, #2147483648	; 0x80000000
    1a2e:	4770      	bxle	lr
    1a30:	f1c2 0200 	rsb	r2, r2, #0
    1a34:	0041      	lsls	r1, r0, #1
    1a36:	fa21 f102 	lsr.w	r1, r1, r2
    1a3a:	f1c2 0220 	rsb	r2, r2, #32
    1a3e:	fa00 fc02 	lsl.w	ip, r0, r2
    1a42:	ea5f 0031 	movs.w	r0, r1, rrx
    1a46:	f140 0000 	adc.w	r0, r0, #0
    1a4a:	ea53 034c 	orrs.w	r3, r3, ip, lsl #1
    1a4e:	bf08      	it	eq
    1a50:	ea20 70dc 	biceq.w	r0, r0, ip, lsr #31
    1a54:	4770      	bx	lr
    1a56:	f092 0f00 	teq	r2, #0
    1a5a:	f000 4c00 	and.w	ip, r0, #2147483648	; 0x80000000
    1a5e:	bf02      	ittt	eq
    1a60:	0040      	lsleq	r0, r0, #1
    1a62:	f410 0f00 	tsteq.w	r0, #8388608	; 0x800000
    1a66:	3a01      	subeq	r2, #1
    1a68:	d0f9      	beq.n	1a5e <__aeabi_fmul+0xce>
    1a6a:	ea40 000c 	orr.w	r0, r0, ip
    1a6e:	f093 0f00 	teq	r3, #0
    1a72:	f001 4c00 	and.w	ip, r1, #2147483648	; 0x80000000
    1a76:	bf02      	ittt	eq
    1a78:	0049      	lsleq	r1, r1, #1
    1a7a:	f411 0f00 	tsteq.w	r1, #8388608	; 0x800000
    1a7e:	3b01      	subeq	r3, #1
    1a80:	d0f9      	beq.n	1a76 <__aeabi_fmul+0xe6>
    1a82:	ea41 010c 	orr.w	r1, r1, ip
    1a86:	e78f      	b.n	19a8 <__aeabi_fmul+0x18>
    1a88:	ea0c 53d1 	and.w	r3, ip, r1, lsr #23
    1a8c:	ea92 0f0c 	teq	r2, ip
    1a90:	bf18      	it	ne
    1a92:	ea93 0f0c 	teqne	r3, ip
    1a96:	d00a      	beq.n	1aae <__aeabi_fmul+0x11e>
    1a98:	f030 4c00 	bics.w	ip, r0, #2147483648	; 0x80000000
    1a9c:	bf18      	it	ne
    1a9e:	f031 4c00 	bicsne.w	ip, r1, #2147483648	; 0x80000000
    1aa2:	d1d8      	bne.n	1a56 <__aeabi_fmul+0xc6>
    1aa4:	ea80 0001 	eor.w	r0, r0, r1
    1aa8:	f000 4000 	and.w	r0, r0, #2147483648	; 0x80000000
    1aac:	4770      	bx	lr
    1aae:	f090 0f00 	teq	r0, #0
    1ab2:	bf17      	itett	ne
    1ab4:	f090 4f00 	teqne	r0, #2147483648	; 0x80000000
    1ab8:	4608      	moveq	r0, r1
    1aba:	f091 0f00 	teqne	r1, #0
    1abe:	f091 4f00 	teqne	r1, #2147483648	; 0x80000000
    1ac2:	d014      	beq.n	1aee <__aeabi_fmul+0x15e>
    1ac4:	ea92 0f0c 	teq	r2, ip
    1ac8:	d101      	bne.n	1ace <__aeabi_fmul+0x13e>
    1aca:	0242      	lsls	r2, r0, #9
    1acc:	d10f      	bne.n	1aee <__aeabi_fmul+0x15e>
    1ace:	ea93 0f0c 	teq	r3, ip
    1ad2:	d103      	bne.n	1adc <__aeabi_fmul+0x14c>
    1ad4:	024b      	lsls	r3, r1, #9
    1ad6:	bf18      	it	ne
    1ad8:	4608      	movne	r0, r1
    1ada:	d108      	bne.n	1aee <__aeabi_fmul+0x15e>
    1adc:	ea80 0001 	eor.w	r0, r0, r1
    1ae0:	f000 4000 	and.w	r0, r0, #2147483648	; 0x80000000
    1ae4:	f040 40fe 	orr.w	r0, r0, #2130706432	; 0x7f000000
    1ae8:	f440 0000 	orr.w	r0, r0, #8388608	; 0x800000
    1aec:	4770      	bx	lr
    1aee:	f040 40fe 	orr.w	r0, r0, #2130706432	; 0x7f000000
    1af2:	f440 0040 	orr.w	r0, r0, #12582912	; 0xc00000
    1af6:	4770      	bx	lr

00001af8 <__aeabi_fdiv>:
    1af8:	f04f 0cff 	mov.w	ip, #255	; 0xff
    1afc:	ea1c 52d0 	ands.w	r2, ip, r0, lsr #23
    1b00:	bf1e      	ittt	ne
    1b02:	ea1c 53d1 	andsne.w	r3, ip, r1, lsr #23
    1b06:	ea92 0f0c 	teqne	r2, ip
    1b0a:	ea93 0f0c 	teqne	r3, ip
    1b0e:	d069      	beq.n	1be4 <__aeabi_fdiv+0xec>
    1b10:	eba2 0203 	sub.w	r2, r2, r3
    1b14:	ea80 0c01 	eor.w	ip, r0, r1
    1b18:	0249      	lsls	r1, r1, #9
    1b1a:	ea4f 2040 	mov.w	r0, r0, lsl #9
    1b1e:	d037      	beq.n	1b90 <__aeabi_fdiv+0x98>
    1b20:	f04f 5380 	mov.w	r3, #268435456	; 0x10000000
    1b24:	ea43 1111 	orr.w	r1, r3, r1, lsr #4
    1b28:	ea43 1310 	orr.w	r3, r3, r0, lsr #4
    1b2c:	f00c 4000 	and.w	r0, ip, #2147483648	; 0x80000000
    1b30:	428b      	cmp	r3, r1
    1b32:	bf38      	it	cc
    1b34:	005b      	lslcc	r3, r3, #1
    1b36:	f142 027d 	adc.w	r2, r2, #125	; 0x7d
    1b3a:	f44f 0c00 	mov.w	ip, #8388608	; 0x800000
    1b3e:	428b      	cmp	r3, r1
    1b40:	bf24      	itt	cs
    1b42:	1a5b      	subcs	r3, r3, r1
    1b44:	ea40 000c 	orrcs.w	r0, r0, ip
    1b48:	ebb3 0f51 	cmp.w	r3, r1, lsr #1
    1b4c:	bf24      	itt	cs
    1b4e:	eba3 0351 	subcs.w	r3, r3, r1, lsr #1
    1b52:	ea40 005c 	orrcs.w	r0, r0, ip, lsr #1
    1b56:	ebb3 0f91 	cmp.w	r3, r1, lsr #2
    1b5a:	bf24      	itt	cs
    1b5c:	eba3 0391 	subcs.w	r3, r3, r1, lsr #2
    1b60:	ea40 009c 	orrcs.w	r0, r0, ip, lsr #2
    1b64:	ebb3 0fd1 	cmp.w	r3, r1, lsr #3
    1b68:	bf24      	itt	cs
    1b6a:	eba3 03d1 	subcs.w	r3, r3, r1, lsr #3
    1b6e:	ea40 00dc 	orrcs.w	r0, r0, ip, lsr #3
    1b72:	011b      	lsls	r3, r3, #4
    1b74:	bf18      	it	ne
    1b76:	ea5f 1c1c 	movsne.w	ip, ip, lsr #4
    1b7a:	d1e0      	bne.n	1b3e <__aeabi_fdiv+0x46>
    1b7c:	2afd      	cmp	r2, #253	; 0xfd
    1b7e:	f63f af50 	bhi.w	1a22 <__aeabi_fmul+0x92>
    1b82:	428b      	cmp	r3, r1
    1b84:	eb40 50c2 	adc.w	r0, r0, r2, lsl #23
    1b88:	bf08      	it	eq
    1b8a:	f020 0001 	biceq.w	r0, r0, #1
    1b8e:	4770      	bx	lr
    1b90:	f00c 4c00 	and.w	ip, ip, #2147483648	; 0x80000000
    1b94:	ea4c 2050 	orr.w	r0, ip, r0, lsr #9
    1b98:	327f      	adds	r2, #127	; 0x7f
    1b9a:	bfc2      	ittt	gt
    1b9c:	f1d2 03ff 	rsbsgt	r3, r2, #255	; 0xff
    1ba0:	ea40 50c2 	orrgt.w	r0, r0, r2, lsl #23
    1ba4:	4770      	bxgt	lr
    1ba6:	f440 0000 	orr.w	r0, r0, #8388608	; 0x800000
    1baa:	f04f 0300 	mov.w	r3, #0
    1bae:	3a01      	subs	r2, #1
    1bb0:	e737      	b.n	1a22 <__aeabi_fmul+0x92>
    1bb2:	f092 0f00 	teq	r2, #0
    1bb6:	f000 4c00 	and.w	ip, r0, #2147483648	; 0x80000000
    1bba:	bf02      	ittt	eq
    1bbc:	0040      	lsleq	r0, r0, #1
    1bbe:	f410 0f00 	tsteq.w	r0, #8388608	; 0x800000
    1bc2:	3a01      	subeq	r2, #1
    1bc4:	d0f9      	beq.n	1bba <__aeabi_fdiv+0xc2>
    1bc6:	ea40 000c 	orr.w	r0, r0, ip
    1bca:	f093 0f00 	teq	r3, #0
    1bce:	f001 4c00 	and.w	ip, r1, #2147483648	; 0x80000000
    1bd2:	bf02      	ittt	eq
    1bd4:	0049      	lsleq	r1, r1, #1
    1bd6:	f411 0f00 	tsteq.w	r1, #8388608	; 0x800000
    1bda:	3b01      	subeq	r3, #1
    1bdc:	d0f9      	beq.n	1bd2 <__aeabi_fdiv+0xda>
    1bde:	ea41 010c 	orr.w	r1, r1, ip
    1be2:	e795      	b.n	1b10 <__aeabi_fdiv+0x18>
    1be4:	ea0c 53d1 	and.w	r3, ip, r1, lsr #23
    1be8:	ea92 0f0c 	teq	r2, ip
    1bec:	d108      	bne.n	1c00 <__aeabi_fdiv+0x108>
    1bee:	0242      	lsls	r2, r0, #9
    1bf0:	f47f af7d 	bne.w	1aee <__aeabi_fmul+0x15e>
    1bf4:	ea93 0f0c 	teq	r3, ip
    1bf8:	f47f af70 	bne.w	1adc <__aeabi_fmul+0x14c>
    1bfc:	4608      	mov	r0, r1
    1bfe:	e776      	b.n	1aee <__aeabi_fmul+0x15e>
    1c00:	ea93 0f0c 	teq	r3, ip
    1c04:	d104      	bne.n	1c10 <__aeabi_fdiv+0x118>
    1c06:	024b      	lsls	r3, r1, #9
    1c08:	f43f af4c 	beq.w	1aa4 <__aeabi_fmul+0x114>
    1c0c:	4608      	mov	r0, r1
    1c0e:	e76e      	b.n	1aee <__aeabi_fmul+0x15e>
    1c10:	f030 4c00 	bics.w	ip, r0, #2147483648	; 0x80000000
    1c14:	bf18      	it	ne
    1c16:	f031 4c00 	bicsne.w	ip, r1, #2147483648	; 0x80000000
    1c1a:	d1ca      	bne.n	1bb2 <__aeabi_fdiv+0xba>
    1c1c:	f030 4200 	bics.w	r2, r0, #2147483648	; 0x80000000
    1c20:	f47f af5c 	bne.w	1adc <__aeabi_fmul+0x14c>
    1c24:	f031 4300 	bics.w	r3, r1, #2147483648	; 0x80000000
    1c28:	f47f af3c 	bne.w	1aa4 <__aeabi_fmul+0x114>
    1c2c:	e75f      	b.n	1aee <__aeabi_fmul+0x15e>
    1c2e:	bf00      	nop

00001c30 <__gesf2>:
    1c30:	f04f 3cff 	mov.w	ip, #4294967295	; 0xffffffff
    1c34:	e006      	b.n	1c44 <__cmpsf2+0x4>
    1c36:	bf00      	nop

00001c38 <__lesf2>:
    1c38:	f04f 0c01 	mov.w	ip, #1
    1c3c:	e002      	b.n	1c44 <__cmpsf2+0x4>
    1c3e:	bf00      	nop

00001c40 <__cmpsf2>:
    1c40:	f04f 0c01 	mov.w	ip, #1
    1c44:	f84d cd04 	str.w	ip, [sp, #-4]!
    1c48:	ea4f 0240 	mov.w	r2, r0, lsl #1
    1c4c:	ea4f 0341 	mov.w	r3, r1, lsl #1
    1c50:	ea7f 6c22 	mvns.w	ip, r2, asr #24
    1c54:	bf18      	it	ne
    1c56:	ea7f 6c23 	mvnsne.w	ip, r3, asr #24
    1c5a:	d011      	beq.n	1c80 <__cmpsf2+0x40>
    1c5c:	b001      	add	sp, #4
    1c5e:	ea52 0c53 	orrs.w	ip, r2, r3, lsr #1
    1c62:	bf18      	it	ne
    1c64:	ea90 0f01 	teqne	r0, r1
    1c68:	bf58      	it	pl
    1c6a:	ebb2 0003 	subspl.w	r0, r2, r3
    1c6e:	bf88      	it	hi
    1c70:	17c8      	asrhi	r0, r1, #31
    1c72:	bf38      	it	cc
    1c74:	ea6f 70e1 	mvncc.w	r0, r1, asr #31
    1c78:	bf18      	it	ne
    1c7a:	f040 0001 	orrne.w	r0, r0, #1
    1c7e:	4770      	bx	lr
    1c80:	ea7f 6c22 	mvns.w	ip, r2, asr #24
    1c84:	d102      	bne.n	1c8c <__cmpsf2+0x4c>
    1c86:	ea5f 2c40 	movs.w	ip, r0, lsl #9
    1c8a:	d105      	bne.n	1c98 <__cmpsf2+0x58>
    1c8c:	ea7f 6c23 	mvns.w	ip, r3, asr #24
    1c90:	d1e4      	bne.n	1c5c <__cmpsf2+0x1c>
    1c92:	ea5f 2c41 	movs.w	ip, r1, lsl #9
    1c96:	d0e1      	beq.n	1c5c <__cmpsf2+0x1c>
    1c98:	f85d 0b04 	ldr.w	r0, [sp], #4
    1c9c:	4770      	bx	lr
    1c9e:	bf00      	nop

00001ca0 <__aeabi_cfrcmple>:
    1ca0:	4684      	mov	ip, r0
    1ca2:	4608      	mov	r0, r1
    1ca4:	4661      	mov	r1, ip
    1ca6:	e7ff      	b.n	1ca8 <__aeabi_cfcmpeq>

00001ca8 <__aeabi_cfcmpeq>:
    1ca8:	b50f      	push	{r0, r1, r2, r3, lr}
    1caa:	f7ff ffc9 	bl	1c40 <__cmpsf2>
    1cae:	2800      	cmp	r0, #0
    1cb0:	bf48      	it	mi
    1cb2:	f110 0f00 	cmnmi.w	r0, #0
    1cb6:	bd0f      	pop	{r0, r1, r2, r3, pc}

00001cb8 <__aeabi_fcmpeq>:
    1cb8:	f84d ed08 	str.w	lr, [sp, #-8]!
    1cbc:	f7ff fff4 	bl	1ca8 <__aeabi_cfcmpeq>
    1cc0:	bf0c      	ite	eq
    1cc2:	2001      	moveq	r0, #1
    1cc4:	2000      	movne	r0, #0
    1cc6:	f85d fb08 	ldr.w	pc, [sp], #8
    1cca:	bf00      	nop

00001ccc <__aeabi_fcmplt>:
    1ccc:	f84d ed08 	str.w	lr, [sp, #-8]!
    1cd0:	f7ff ffea 	bl	1ca8 <__aeabi_cfcmpeq>
    1cd4:	bf34      	ite	cc
    1cd6:	2001      	movcc	r0, #1
    1cd8:	2000      	movcs	r0, #0
    1cda:	f85d fb08 	ldr.w	pc, [sp], #8
    1cde:	bf00      	nop

00001ce0 <__aeabi_fcmple>:
    1ce0:	f84d ed08 	str.w	lr, [sp, #-8]!
    1ce4:	f7ff ffe0 	bl	1ca8 <__aeabi_cfcmpeq>
    1ce8:	bf94      	ite	ls
    1cea:	2001      	movls	r0, #1
    1cec:	2000      	movhi	r0, #0
    1cee:	f85d fb08 	ldr.w	pc, [sp], #8
    1cf2:	bf00      	nop

00001cf4 <__aeabi_fcmpge>:
    1cf4:	f84d ed08 	str.w	lr, [sp, #-8]!
    1cf8:	f7ff ffd2 	bl	1ca0 <__aeabi_cfrcmple>
    1cfc:	bf94      	ite	ls
    1cfe:	2001      	movls	r0, #1
    1d00:	2000      	movhi	r0, #0
    1d02:	f85d fb08 	ldr.w	pc, [sp], #8
    1d06:	bf00      	nop

00001d08 <__aeabi_fcmpgt>:
    1d08:	f84d ed08 	str.w	lr, [sp, #-8]!
    1d0c:	f7ff ffc8 	bl	1ca0 <__aeabi_cfrcmple>
    1d10:	bf34      	ite	cc
    1d12:	2001      	movcc	r0, #1
    1d14:	2000      	movcs	r0, #0
    1d16:	f85d fb08 	ldr.w	pc, [sp], #8
    1d1a:	bf00      	nop

00001d1c <atexit>:
    1d1c:	2300      	movs	r3, #0
    1d1e:	4601      	mov	r1, r0
    1d20:	461a      	mov	r2, r3
    1d22:	4618      	mov	r0, r3
    1d24:	f000 b92e 	b.w	1f84 <__register_exitproc>

00001d28 <exit>:
    1d28:	b508      	push	{r3, lr}
    1d2a:	4b07      	ldr	r3, [pc, #28]	; (1d48 <exit+0x20>)
    1d2c:	4604      	mov	r4, r0
    1d2e:	b113      	cbz	r3, 1d36 <exit+0xe>
    1d30:	2100      	movs	r1, #0
    1d32:	f000 f98b 	bl	204c <__call_exitprocs>
    1d36:	4b05      	ldr	r3, [pc, #20]	; (1d4c <exit+0x24>)
    1d38:	6818      	ldr	r0, [r3, #0]
    1d3a:	6a83      	ldr	r3, [r0, #40]	; 0x28
    1d3c:	b103      	cbz	r3, 1d40 <exit+0x18>
    1d3e:	4798      	blx	r3
    1d40:	4620      	mov	r0, r4
    1d42:	f000 fd8f 	bl	2864 <_exit>
    1d46:	bf00      	nop
    1d48:	0000204d 	andeq	r2, r0, sp, asr #32
    1d4c:	00002970 	andeq	r2, r0, r0, ror r9

00001d50 <__libc_fini_array>:
    1d50:	b538      	push	{r3, r4, r5, lr}
    1d52:	4d07      	ldr	r5, [pc, #28]	; (1d70 <__libc_fini_array+0x20>)
    1d54:	4c07      	ldr	r4, [pc, #28]	; (1d74 <__libc_fini_array+0x24>)
    1d56:	1b64      	subs	r4, r4, r5
    1d58:	10a4      	asrs	r4, r4, #2
    1d5a:	b91c      	cbnz	r4, 1d64 <__libc_fini_array+0x14>
    1d5c:	e8bd 4038 	ldmia.w	sp!, {r3, r4, r5, lr}
    1d60:	f000 bd88 	b.w	2874 <_fini>
    1d64:	3c01      	subs	r4, #1
    1d66:	f855 3024 	ldr.w	r3, [r5, r4, lsl #2]
    1d6a:	4798      	blx	r3
    1d6c:	e7f5      	b.n	1d5a <__libc_fini_array+0xa>
    1d6e:	bf00      	nop
    1d70:	1fff0204 	svcne	0x00ff0204
    1d74:	1fff0208 	svcne	0x00ff0208

00001d78 <__libc_init_array>:
    1d78:	b570      	push	{r4, r5, r6, lr}
    1d7a:	4e0d      	ldr	r6, [pc, #52]	; (1db0 <__libc_init_array+0x38>)
    1d7c:	4c0d      	ldr	r4, [pc, #52]	; (1db4 <__libc_init_array+0x3c>)
    1d7e:	1ba4      	subs	r4, r4, r6
    1d80:	10a4      	asrs	r4, r4, #2
    1d82:	2500      	movs	r5, #0
    1d84:	42a5      	cmp	r5, r4
    1d86:	d109      	bne.n	1d9c <__libc_init_array+0x24>
    1d88:	4e0b      	ldr	r6, [pc, #44]	; (1db8 <__libc_init_array+0x40>)
    1d8a:	4c0c      	ldr	r4, [pc, #48]	; (1dbc <__libc_init_array+0x44>)
    1d8c:	f000 fd6c 	bl	2868 <_init>
    1d90:	1ba4      	subs	r4, r4, r6
    1d92:	10a4      	asrs	r4, r4, #2
    1d94:	2500      	movs	r5, #0
    1d96:	42a5      	cmp	r5, r4
    1d98:	d105      	bne.n	1da6 <__libc_init_array+0x2e>
    1d9a:	bd70      	pop	{r4, r5, r6, pc}
    1d9c:	f856 3025 	ldr.w	r3, [r6, r5, lsl #2]
    1da0:	4798      	blx	r3
    1da2:	3501      	adds	r5, #1
    1da4:	e7ee      	b.n	1d84 <__libc_init_array+0xc>
    1da6:	f856 3025 	ldr.w	r3, [r6, r5, lsl #2]
    1daa:	4798      	blx	r3
    1dac:	3501      	adds	r5, #1
    1dae:	e7f2      	b.n	1d96 <__libc_init_array+0x1e>
    1db0:	1fff0200 	svcne	0x00ff0200
    1db4:	1fff0200 	svcne	0x00ff0200
    1db8:	1fff0200 	svcne	0x00ff0200
    1dbc:	1fff0204 	svcne	0x00ff0204

00001dc0 <malloc>:
    1dc0:	4b02      	ldr	r3, [pc, #8]	; (1dcc <malloc+0xc>)
    1dc2:	4601      	mov	r1, r0
    1dc4:	6818      	ldr	r0, [r3, #0]
    1dc6:	f000 b857 	b.w	1e78 <_malloc_r>
    1dca:	bf00      	nop
    1dcc:	1fff019c 	svcne	0x00ff019c

00001dd0 <free>:
    1dd0:	4b02      	ldr	r3, [pc, #8]	; (1ddc <free+0xc>)
    1dd2:	4601      	mov	r1, r0
    1dd4:	6818      	ldr	r0, [r3, #0]
    1dd6:	f000 b80b 	b.w	1df0 <_free_r>
    1dda:	bf00      	nop
    1ddc:	1fff019c 	svcne	0x00ff019c

00001de0 <memset>:
    1de0:	4402      	add	r2, r0
    1de2:	4603      	mov	r3, r0
    1de4:	4293      	cmp	r3, r2
    1de6:	d100      	bne.n	1dea <memset+0xa>
    1de8:	4770      	bx	lr
    1dea:	f803 1b01 	strb.w	r1, [r3], #1
    1dee:	e7f9      	b.n	1de4 <memset+0x4>

00001df0 <_free_r>:
    1df0:	b530      	push	{r4, r5, lr}
    1df2:	2900      	cmp	r1, #0
    1df4:	d02e      	beq.n	1e54 <_free_r+0x64>
    1df6:	f851 2c04 	ldr.w	r2, [r1, #-4]
    1dfa:	1f0b      	subs	r3, r1, #4
    1dfc:	491d      	ldr	r1, [pc, #116]	; (1e74 <_free_r+0x84>)
    1dfe:	2a00      	cmp	r2, #0
    1e00:	bfb8      	it	lt
    1e02:	189b      	addlt	r3, r3, r2
    1e04:	680a      	ldr	r2, [r1, #0]
    1e06:	460c      	mov	r4, r1
    1e08:	b912      	cbnz	r2, 1e10 <_free_r+0x20>
    1e0a:	605a      	str	r2, [r3, #4]
    1e0c:	600b      	str	r3, [r1, #0]
    1e0e:	bd30      	pop	{r4, r5, pc}
    1e10:	429a      	cmp	r2, r3
    1e12:	d90c      	bls.n	1e2e <_free_r+0x3e>
    1e14:	6818      	ldr	r0, [r3, #0]
    1e16:	1819      	adds	r1, r3, r0
    1e18:	428a      	cmp	r2, r1
    1e1a:	bf04      	itt	eq
    1e1c:	6811      	ldreq	r1, [r2, #0]
    1e1e:	6852      	ldreq	r2, [r2, #4]
    1e20:	605a      	str	r2, [r3, #4]
    1e22:	bf04      	itt	eq
    1e24:	1809      	addeq	r1, r1, r0
    1e26:	6019      	streq	r1, [r3, #0]
    1e28:	6023      	str	r3, [r4, #0]
    1e2a:	bd30      	pop	{r4, r5, pc}
    1e2c:	460a      	mov	r2, r1
    1e2e:	6851      	ldr	r1, [r2, #4]
    1e30:	b109      	cbz	r1, 1e36 <_free_r+0x46>
    1e32:	4299      	cmp	r1, r3
    1e34:	d9fa      	bls.n	1e2c <_free_r+0x3c>
    1e36:	6814      	ldr	r4, [r2, #0]
    1e38:	1915      	adds	r5, r2, r4
    1e3a:	429d      	cmp	r5, r3
    1e3c:	d10b      	bne.n	1e56 <_free_r+0x66>
    1e3e:	681b      	ldr	r3, [r3, #0]
    1e40:	4423      	add	r3, r4
    1e42:	18d0      	adds	r0, r2, r3
    1e44:	4281      	cmp	r1, r0
    1e46:	6013      	str	r3, [r2, #0]
    1e48:	d104      	bne.n	1e54 <_free_r+0x64>
    1e4a:	6808      	ldr	r0, [r1, #0]
    1e4c:	4403      	add	r3, r0
    1e4e:	6013      	str	r3, [r2, #0]
    1e50:	684b      	ldr	r3, [r1, #4]
    1e52:	6053      	str	r3, [r2, #4]
    1e54:	bd30      	pop	{r4, r5, pc}
    1e56:	d902      	bls.n	1e5e <_free_r+0x6e>
    1e58:	230c      	movs	r3, #12
    1e5a:	6003      	str	r3, [r0, #0]
    1e5c:	bd30      	pop	{r4, r5, pc}
    1e5e:	681c      	ldr	r4, [r3, #0]
    1e60:	1918      	adds	r0, r3, r4
    1e62:	4281      	cmp	r1, r0
    1e64:	bf04      	itt	eq
    1e66:	6808      	ldreq	r0, [r1, #0]
    1e68:	6849      	ldreq	r1, [r1, #4]
    1e6a:	6059      	str	r1, [r3, #4]
    1e6c:	bf04      	itt	eq
    1e6e:	1900      	addeq	r0, r0, r4
    1e70:	6018      	streq	r0, [r3, #0]
    1e72:	e7ee      	b.n	1e52 <_free_r+0x62>
    1e74:	1fff0230 	svcne	0x00ff0230

00001e78 <_malloc_r>:
    1e78:	b570      	push	{r4, r5, r6, lr}
    1e7a:	1ccd      	adds	r5, r1, #3
    1e7c:	f025 0503 	bic.w	r5, r5, #3
    1e80:	3508      	adds	r5, #8
    1e82:	2d0c      	cmp	r5, #12
    1e84:	bf38      	it	cc
    1e86:	250c      	movcc	r5, #12
    1e88:	2d00      	cmp	r5, #0
    1e8a:	4606      	mov	r6, r0
    1e8c:	da03      	bge.n	1e96 <_malloc_r+0x1e>
    1e8e:	230c      	movs	r3, #12
    1e90:	6033      	str	r3, [r6, #0]
    1e92:	2000      	movs	r0, #0
    1e94:	bd70      	pop	{r4, r5, r6, pc}
    1e96:	42a9      	cmp	r1, r5
    1e98:	d8f9      	bhi.n	1e8e <_malloc_r+0x16>
    1e9a:	481e      	ldr	r0, [pc, #120]	; (1f14 <_malloc_r+0x9c>)
    1e9c:	6804      	ldr	r4, [r0, #0]
    1e9e:	4621      	mov	r1, r4
    1ea0:	b9c9      	cbnz	r1, 1ed6 <_malloc_r+0x5e>
    1ea2:	4c1d      	ldr	r4, [pc, #116]	; (1f18 <_malloc_r+0xa0>)
    1ea4:	6823      	ldr	r3, [r4, #0]
    1ea6:	b91b      	cbnz	r3, 1eb0 <_malloc_r+0x38>
    1ea8:	4630      	mov	r0, r6
    1eaa:	f000 f837 	bl	1f1c <_sbrk_r>
    1eae:	6020      	str	r0, [r4, #0]
    1eb0:	4629      	mov	r1, r5
    1eb2:	4630      	mov	r0, r6
    1eb4:	f000 f832 	bl	1f1c <_sbrk_r>
    1eb8:	1c43      	adds	r3, r0, #1
    1eba:	d0e8      	beq.n	1e8e <_malloc_r+0x16>
    1ebc:	1cc3      	adds	r3, r0, #3
    1ebe:	f023 0403 	bic.w	r4, r3, #3
    1ec2:	42a0      	cmp	r0, r4
    1ec4:	d005      	beq.n	1ed2 <_malloc_r+0x5a>
    1ec6:	1a21      	subs	r1, r4, r0
    1ec8:	4630      	mov	r0, r6
    1eca:	f000 f827 	bl	1f1c <_sbrk_r>
    1ece:	3001      	adds	r0, #1
    1ed0:	d0dd      	beq.n	1e8e <_malloc_r+0x16>
    1ed2:	6025      	str	r5, [r4, #0]
    1ed4:	e007      	b.n	1ee6 <_malloc_r+0x6e>
    1ed6:	680a      	ldr	r2, [r1, #0]
    1ed8:	1b52      	subs	r2, r2, r5
    1eda:	d417      	bmi.n	1f0c <_malloc_r+0x94>
    1edc:	2a0b      	cmp	r2, #11
    1ede:	d90c      	bls.n	1efa <_malloc_r+0x82>
    1ee0:	600a      	str	r2, [r1, #0]
    1ee2:	508d      	str	r5, [r1, r2]
    1ee4:	188c      	adds	r4, r1, r2
    1ee6:	f104 000b 	add.w	r0, r4, #11
    1eea:	1d22      	adds	r2, r4, #4
    1eec:	f020 0007 	bic.w	r0, r0, #7
    1ef0:	1a82      	subs	r2, r0, r2
    1ef2:	d00e      	beq.n	1f12 <_malloc_r+0x9a>
    1ef4:	4251      	negs	r1, r2
    1ef6:	50a1      	str	r1, [r4, r2]
    1ef8:	bd70      	pop	{r4, r5, r6, pc}
    1efa:	428c      	cmp	r4, r1
    1efc:	bf0d      	iteet	eq
    1efe:	6862      	ldreq	r2, [r4, #4]
    1f00:	684a      	ldrne	r2, [r1, #4]
    1f02:	6062      	strne	r2, [r4, #4]
    1f04:	6002      	streq	r2, [r0, #0]
    1f06:	bf18      	it	ne
    1f08:	460c      	movne	r4, r1
    1f0a:	e7ec      	b.n	1ee6 <_malloc_r+0x6e>
    1f0c:	460c      	mov	r4, r1
    1f0e:	6849      	ldr	r1, [r1, #4]
    1f10:	e7c6      	b.n	1ea0 <_malloc_r+0x28>
    1f12:	bd70      	pop	{r4, r5, r6, pc}
    1f14:	1fff0230 	svcne	0x00ff0230
    1f18:	1fff0234 	svcne	0x00ff0234

00001f1c <_sbrk_r>:
    1f1c:	b538      	push	{r3, r4, r5, lr}
    1f1e:	4c06      	ldr	r4, [pc, #24]	; (1f38 <_sbrk_r+0x1c>)
    1f20:	2300      	movs	r3, #0
    1f22:	4605      	mov	r5, r0
    1f24:	4608      	mov	r0, r1
    1f26:	6023      	str	r3, [r4, #0]
    1f28:	f000 fc8e 	bl	2848 <_sbrk>
    1f2c:	1c43      	adds	r3, r0, #1
    1f2e:	d102      	bne.n	1f36 <_sbrk_r+0x1a>
    1f30:	6823      	ldr	r3, [r4, #0]
    1f32:	b103      	cbz	r3, 1f36 <_sbrk_r+0x1a>
    1f34:	602b      	str	r3, [r5, #0]
    1f36:	bd38      	pop	{r3, r4, r5, pc}
    1f38:	1fff0374 	svcne	0x00ff0374

00001f3c <siprintf>:
    1f3c:	b40e      	push	{r1, r2, r3}
    1f3e:	b500      	push	{lr}
    1f40:	b09c      	sub	sp, #112	; 0x70
    1f42:	f44f 7102 	mov.w	r1, #520	; 0x208
    1f46:	ab1d      	add	r3, sp, #116	; 0x74
    1f48:	f8ad 1014 	strh.w	r1, [sp, #20]
    1f4c:	9002      	str	r0, [sp, #8]
    1f4e:	9006      	str	r0, [sp, #24]
    1f50:	f06f 4100 	mvn.w	r1, #2147483648	; 0x80000000
    1f54:	480a      	ldr	r0, [pc, #40]	; (1f80 <siprintf+0x44>)
    1f56:	9104      	str	r1, [sp, #16]
    1f58:	9107      	str	r1, [sp, #28]
    1f5a:	f64f 71ff 	movw	r1, #65535	; 0xffff
    1f5e:	f853 2b04 	ldr.w	r2, [r3], #4
    1f62:	f8ad 1016 	strh.w	r1, [sp, #22]
    1f66:	6800      	ldr	r0, [r0, #0]
    1f68:	9301      	str	r3, [sp, #4]
    1f6a:	a902      	add	r1, sp, #8
    1f6c:	f000 f938 	bl	21e0 <_svfiprintf_r>
    1f70:	9b02      	ldr	r3, [sp, #8]
    1f72:	2200      	movs	r2, #0
    1f74:	701a      	strb	r2, [r3, #0]
    1f76:	b01c      	add	sp, #112	; 0x70
    1f78:	f85d eb04 	ldr.w	lr, [sp], #4
    1f7c:	b003      	add	sp, #12
    1f7e:	4770      	bx	lr
    1f80:	1fff019c 	svcne	0x00ff019c

00001f84 <__register_exitproc>:
    1f84:	e92d 43f8 	stmdb	sp!, {r3, r4, r5, r6, r7, r8, r9, lr}
    1f88:	4d2c      	ldr	r5, [pc, #176]	; (203c <__register_exitproc+0xb8>)
    1f8a:	682c      	ldr	r4, [r5, #0]
    1f8c:	4607      	mov	r7, r0
    1f8e:	460e      	mov	r6, r1
    1f90:	4691      	mov	r9, r2
    1f92:	4698      	mov	r8, r3
    1f94:	b934      	cbnz	r4, 1fa4 <__register_exitproc+0x20>
    1f96:	4b2a      	ldr	r3, [pc, #168]	; (2040 <__register_exitproc+0xbc>)
    1f98:	4c2a      	ldr	r4, [pc, #168]	; (2044 <__register_exitproc+0xc0>)
    1f9a:	602c      	str	r4, [r5, #0]
    1f9c:	b113      	cbz	r3, 1fa4 <__register_exitproc+0x20>
    1f9e:	681b      	ldr	r3, [r3, #0]
    1fa0:	f8c4 3088 	str.w	r3, [r4, #136]	; 0x88
    1fa4:	6863      	ldr	r3, [r4, #4]
    1fa6:	2b1f      	cmp	r3, #31
    1fa8:	dd3e      	ble.n	2028 <__register_exitproc+0xa4>
    1faa:	4b27      	ldr	r3, [pc, #156]	; (2048 <__register_exitproc+0xc4>)
    1fac:	b91b      	cbnz	r3, 1fb6 <__register_exitproc+0x32>
    1fae:	f04f 30ff 	mov.w	r0, #4294967295	; 0xffffffff
    1fb2:	e8bd 83f8 	ldmia.w	sp!, {r3, r4, r5, r6, r7, r8, r9, pc}
    1fb6:	208c      	movs	r0, #140	; 0x8c
    1fb8:	f7ff ff02 	bl	1dc0 <malloc>
    1fbc:	4604      	mov	r4, r0
    1fbe:	2800      	cmp	r0, #0
    1fc0:	d0f5      	beq.n	1fae <__register_exitproc+0x2a>
    1fc2:	2300      	movs	r3, #0
    1fc4:	682a      	ldr	r2, [r5, #0]
    1fc6:	6002      	str	r2, [r0, #0]
    1fc8:	6043      	str	r3, [r0, #4]
    1fca:	6028      	str	r0, [r5, #0]
    1fcc:	f8c0 3088 	str.w	r3, [r0, #136]	; 0x88
    1fd0:	b30f      	cbz	r7, 2016 <__register_exitproc+0x92>
    1fd2:	f44f 7084 	mov.w	r0, #264	; 0x108
    1fd6:	f7ff fef3 	bl	1dc0 <malloc>
    1fda:	2800      	cmp	r0, #0
    1fdc:	d0e7      	beq.n	1fae <__register_exitproc+0x2a>
    1fde:	2300      	movs	r3, #0
    1fe0:	f8c0 3100 	str.w	r3, [r0, #256]	; 0x100
    1fe4:	f8c0 3104 	str.w	r3, [r0, #260]	; 0x104
    1fe8:	f8c4 0088 	str.w	r0, [r4, #136]	; 0x88
    1fec:	6862      	ldr	r2, [r4, #4]
    1fee:	f840 9022 	str.w	r9, [r0, r2, lsl #2]
    1ff2:	2301      	movs	r3, #1
    1ff4:	4093      	lsls	r3, r2
    1ff6:	eb00 0182 	add.w	r1, r0, r2, lsl #2
    1ffa:	f8d0 2100 	ldr.w	r2, [r0, #256]	; 0x100
    1ffe:	431a      	orrs	r2, r3
    2000:	2f02      	cmp	r7, #2
    2002:	f8c0 2100 	str.w	r2, [r0, #256]	; 0x100
    2006:	f8c1 8080 	str.w	r8, [r1, #128]	; 0x80
    200a:	bf02      	ittt	eq
    200c:	f8d0 2104 	ldreq.w	r2, [r0, #260]	; 0x104
    2010:	4313      	orreq	r3, r2
    2012:	f8c0 3104 	streq.w	r3, [r0, #260]	; 0x104
    2016:	6863      	ldr	r3, [r4, #4]
    2018:	1c5a      	adds	r2, r3, #1
    201a:	3302      	adds	r3, #2
    201c:	6062      	str	r2, [r4, #4]
    201e:	2000      	movs	r0, #0
    2020:	f844 6023 	str.w	r6, [r4, r3, lsl #2]
    2024:	e8bd 83f8 	ldmia.w	sp!, {r3, r4, r5, r6, r7, r8, r9, pc}
    2028:	2f00      	cmp	r7, #0
    202a:	d0f4      	beq.n	2016 <__register_exitproc+0x92>
    202c:	f8d4 0088 	ldr.w	r0, [r4, #136]	; 0x88
    2030:	2800      	cmp	r0, #0
    2032:	d1db      	bne.n	1fec <__register_exitproc+0x68>
    2034:	4b04      	ldr	r3, [pc, #16]	; (2048 <__register_exitproc+0xc4>)
    2036:	2b00      	cmp	r3, #0
    2038:	d0b9      	beq.n	1fae <__register_exitproc+0x2a>
    203a:	e7ca      	b.n	1fd2 <__register_exitproc+0x4e>
    203c:	1fff02c4 	svcne	0x00ff02c4
    2040:	00000000 	andeq	r0, r0, r0
    2044:	1fff0238 	svcne	0x00ff0238
    2048:	00001dc1 	andeq	r1, r0, r1, asr #27

0000204c <__call_exitprocs>:
    204c:	e92d 4ff7 	stmdb	sp!, {r0, r1, r2, r4, r5, r6, r7, r8, r9, sl, fp, lr}
    2050:	f8df a0d0 	ldr.w	sl, [pc, #208]	; 2124 <__call_exitprocs+0xd8>
    2054:	9001      	str	r0, [sp, #4]
    2056:	4689      	mov	r9, r1
    2058:	f8da 4000 	ldr.w	r4, [sl]
    205c:	f8df 80c4 	ldr.w	r8, [pc, #196]	; 2124 <__call_exitprocs+0xd8>
    2060:	b914      	cbnz	r4, 2068 <__call_exitprocs+0x1c>
    2062:	b003      	add	sp, #12
    2064:	e8bd 8ff0 	ldmia.w	sp!, {r4, r5, r6, r7, r8, r9, sl, fp, pc}
    2068:	6865      	ldr	r5, [r4, #4]
    206a:	f8d4 6088 	ldr.w	r6, [r4, #136]	; 0x88
    206e:	1e6f      	subs	r7, r5, #1
    2070:	00ad      	lsls	r5, r5, #2
    2072:	eb06 0b05 	add.w	fp, r6, r5
    2076:	3504      	adds	r5, #4
    2078:	4425      	add	r5, r4
    207a:	2f00      	cmp	r7, #0
    207c:	da14      	bge.n	20a8 <__call_exitprocs+0x5c>
    207e:	4b28      	ldr	r3, [pc, #160]	; (2120 <__call_exitprocs+0xd4>)
    2080:	2b00      	cmp	r3, #0
    2082:	d0ee      	beq.n	2062 <__call_exitprocs+0x16>
    2084:	6862      	ldr	r2, [r4, #4]
    2086:	6823      	ldr	r3, [r4, #0]
    2088:	2a00      	cmp	r2, #0
    208a:	d145      	bne.n	2118 <__call_exitprocs+0xcc>
    208c:	2b00      	cmp	r3, #0
    208e:	d043      	beq.n	2118 <__call_exitprocs+0xcc>
    2090:	f8c8 3000 	str.w	r3, [r8]
    2094:	b116      	cbz	r6, 209c <__call_exitprocs+0x50>
    2096:	4630      	mov	r0, r6
    2098:	f7ff fe9a 	bl	1dd0 <free>
    209c:	4620      	mov	r0, r4
    209e:	f7ff fe97 	bl	1dd0 <free>
    20a2:	f8d8 4000 	ldr.w	r4, [r8]
    20a6:	e7db      	b.n	2060 <__call_exitprocs+0x14>
    20a8:	f1b9 0f00 	cmp.w	r9, #0
    20ac:	d009      	beq.n	20c2 <__call_exitprocs+0x76>
    20ae:	b926      	cbnz	r6, 20ba <__call_exitprocs+0x6e>
    20b0:	3f01      	subs	r7, #1
    20b2:	f1ab 0b04 	sub.w	fp, fp, #4
    20b6:	3d04      	subs	r5, #4
    20b8:	e7df      	b.n	207a <__call_exitprocs+0x2e>
    20ba:	f8db 207c 	ldr.w	r2, [fp, #124]	; 0x7c
    20be:	4591      	cmp	r9, r2
    20c0:	d1f6      	bne.n	20b0 <__call_exitprocs+0x64>
    20c2:	6861      	ldr	r1, [r4, #4]
    20c4:	682a      	ldr	r2, [r5, #0]
    20c6:	3901      	subs	r1, #1
    20c8:	428f      	cmp	r7, r1
    20ca:	bf16      	itet	ne
    20cc:	2300      	movne	r3, #0
    20ce:	6067      	streq	r7, [r4, #4]
    20d0:	602b      	strne	r3, [r5, #0]
    20d2:	2a00      	cmp	r2, #0
    20d4:	d0ec      	beq.n	20b0 <__call_exitprocs+0x64>
    20d6:	6863      	ldr	r3, [r4, #4]
    20d8:	9300      	str	r3, [sp, #0]
    20da:	b136      	cbz	r6, 20ea <__call_exitprocs+0x9e>
    20dc:	2301      	movs	r3, #1
    20de:	f8d6 0100 	ldr.w	r0, [r6, #256]	; 0x100
    20e2:	fa03 f107 	lsl.w	r1, r3, r7
    20e6:	4201      	tst	r1, r0
    20e8:	d109      	bne.n	20fe <__call_exitprocs+0xb2>
    20ea:	4790      	blx	r2
    20ec:	6862      	ldr	r2, [r4, #4]
    20ee:	9b00      	ldr	r3, [sp, #0]
    20f0:	4293      	cmp	r3, r2
    20f2:	d1b1      	bne.n	2058 <__call_exitprocs+0xc>
    20f4:	f8d8 2000 	ldr.w	r2, [r8]
    20f8:	4294      	cmp	r4, r2
    20fa:	d0d9      	beq.n	20b0 <__call_exitprocs+0x64>
    20fc:	e7ac      	b.n	2058 <__call_exitprocs+0xc>
    20fe:	f8d6 0104 	ldr.w	r0, [r6, #260]	; 0x104
    2102:	4201      	tst	r1, r0
    2104:	d104      	bne.n	2110 <__call_exitprocs+0xc4>
    2106:	f85b 1c04 	ldr.w	r1, [fp, #-4]
    210a:	9801      	ldr	r0, [sp, #4]
    210c:	4790      	blx	r2
    210e:	e7ed      	b.n	20ec <__call_exitprocs+0xa0>
    2110:	f85b 0c04 	ldr.w	r0, [fp, #-4]
    2114:	4790      	blx	r2
    2116:	e7e9      	b.n	20ec <__call_exitprocs+0xa0>
    2118:	46a0      	mov	r8, r4
    211a:	461c      	mov	r4, r3
    211c:	e7a0      	b.n	2060 <__call_exitprocs+0x14>
    211e:	bf00      	nop
    2120:	00001dd1 	ldrdeq	r1, [r0], -r1	; <UNPREDICTABLE>
    2124:	1fff02c4 	svcne	0x00ff02c4

00002128 <__ssputs_r>:
    2128:	e92d 47f0 	stmdb	sp!, {r4, r5, r6, r7, r8, r9, sl, lr}
    212c:	688e      	ldr	r6, [r1, #8]
    212e:	429e      	cmp	r6, r3
    2130:	4682      	mov	sl, r0
    2132:	460c      	mov	r4, r1
    2134:	4691      	mov	r9, r2
    2136:	4698      	mov	r8, r3
    2138:	d835      	bhi.n	21a6 <__ssputs_r+0x7e>
    213a:	898a      	ldrh	r2, [r1, #12]
    213c:	f412 6f90 	tst.w	r2, #1152	; 0x480
    2140:	d031      	beq.n	21a6 <__ssputs_r+0x7e>
    2142:	6825      	ldr	r5, [r4, #0]
    2144:	6909      	ldr	r1, [r1, #16]
    2146:	1a6f      	subs	r7, r5, r1
    2148:	6965      	ldr	r5, [r4, #20]
    214a:	2302      	movs	r3, #2
    214c:	eb05 0545 	add.w	r5, r5, r5, lsl #1
    2150:	fb95 f5f3 	sdiv	r5, r5, r3
    2154:	f108 0301 	add.w	r3, r8, #1
    2158:	443b      	add	r3, r7
    215a:	429d      	cmp	r5, r3
    215c:	bf38      	it	cc
    215e:	461d      	movcc	r5, r3
    2160:	0553      	lsls	r3, r2, #21
    2162:	d531      	bpl.n	21c8 <__ssputs_r+0xa0>
    2164:	4629      	mov	r1, r5
    2166:	f7ff fe87 	bl	1e78 <_malloc_r>
    216a:	4606      	mov	r6, r0
    216c:	b950      	cbnz	r0, 2184 <__ssputs_r+0x5c>
    216e:	230c      	movs	r3, #12
    2170:	f8ca 3000 	str.w	r3, [sl]
    2174:	89a3      	ldrh	r3, [r4, #12]
    2176:	f043 0340 	orr.w	r3, r3, #64	; 0x40
    217a:	81a3      	strh	r3, [r4, #12]
    217c:	f04f 30ff 	mov.w	r0, #4294967295	; 0xffffffff
    2180:	e8bd 87f0 	ldmia.w	sp!, {r4, r5, r6, r7, r8, r9, sl, pc}
    2184:	463a      	mov	r2, r7
    2186:	6921      	ldr	r1, [r4, #16]
    2188:	f000 fb0a 	bl	27a0 <memcpy>
    218c:	89a3      	ldrh	r3, [r4, #12]
    218e:	f423 6390 	bic.w	r3, r3, #1152	; 0x480
    2192:	f043 0380 	orr.w	r3, r3, #128	; 0x80
    2196:	81a3      	strh	r3, [r4, #12]
    2198:	6126      	str	r6, [r4, #16]
    219a:	6165      	str	r5, [r4, #20]
    219c:	443e      	add	r6, r7
    219e:	1bed      	subs	r5, r5, r7
    21a0:	6026      	str	r6, [r4, #0]
    21a2:	60a5      	str	r5, [r4, #8]
    21a4:	4646      	mov	r6, r8
    21a6:	4546      	cmp	r6, r8
    21a8:	bf28      	it	cs
    21aa:	4646      	movcs	r6, r8
    21ac:	4632      	mov	r2, r6
    21ae:	4649      	mov	r1, r9
    21b0:	6820      	ldr	r0, [r4, #0]
    21b2:	f000 fb00 	bl	27b6 <memmove>
    21b6:	68a3      	ldr	r3, [r4, #8]
    21b8:	1b9b      	subs	r3, r3, r6
    21ba:	60a3      	str	r3, [r4, #8]
    21bc:	6823      	ldr	r3, [r4, #0]
    21be:	441e      	add	r6, r3
    21c0:	6026      	str	r6, [r4, #0]
    21c2:	2000      	movs	r0, #0
    21c4:	e8bd 87f0 	ldmia.w	sp!, {r4, r5, r6, r7, r8, r9, sl, pc}
    21c8:	462a      	mov	r2, r5
    21ca:	f000 fb0e 	bl	27ea <_realloc_r>
    21ce:	4606      	mov	r6, r0
    21d0:	2800      	cmp	r0, #0
    21d2:	d1e1      	bne.n	2198 <__ssputs_r+0x70>
    21d4:	6921      	ldr	r1, [r4, #16]
    21d6:	4650      	mov	r0, sl
    21d8:	f7ff fe0a 	bl	1df0 <_free_r>
    21dc:	e7c7      	b.n	216e <__ssputs_r+0x46>
	...

000021e0 <_svfiprintf_r>:
    21e0:	e92d 4ff0 	stmdb	sp!, {r4, r5, r6, r7, r8, r9, sl, fp, lr}
    21e4:	b09d      	sub	sp, #116	; 0x74
    21e6:	4680      	mov	r8, r0
    21e8:	9303      	str	r3, [sp, #12]
    21ea:	898b      	ldrh	r3, [r1, #12]
    21ec:	061c      	lsls	r4, r3, #24
    21ee:	460d      	mov	r5, r1
    21f0:	4616      	mov	r6, r2
    21f2:	d50f      	bpl.n	2214 <_svfiprintf_r+0x34>
    21f4:	690b      	ldr	r3, [r1, #16]
    21f6:	b96b      	cbnz	r3, 2214 <_svfiprintf_r+0x34>
    21f8:	2140      	movs	r1, #64	; 0x40
    21fa:	f7ff fe3d 	bl	1e78 <_malloc_r>
    21fe:	6028      	str	r0, [r5, #0]
    2200:	6128      	str	r0, [r5, #16]
    2202:	b928      	cbnz	r0, 2210 <_svfiprintf_r+0x30>
    2204:	230c      	movs	r3, #12
    2206:	f8c8 3000 	str.w	r3, [r8]
    220a:	f04f 30ff 	mov.w	r0, #4294967295	; 0xffffffff
    220e:	e0c5      	b.n	239c <_svfiprintf_r+0x1bc>
    2210:	2340      	movs	r3, #64	; 0x40
    2212:	616b      	str	r3, [r5, #20]
    2214:	2300      	movs	r3, #0
    2216:	9309      	str	r3, [sp, #36]	; 0x24
    2218:	2320      	movs	r3, #32
    221a:	f88d 3029 	strb.w	r3, [sp, #41]	; 0x29
    221e:	2330      	movs	r3, #48	; 0x30
    2220:	f88d 302a 	strb.w	r3, [sp, #42]	; 0x2a
    2224:	f04f 0b01 	mov.w	fp, #1
    2228:	4637      	mov	r7, r6
    222a:	463c      	mov	r4, r7
    222c:	f814 3b01 	ldrb.w	r3, [r4], #1
    2230:	2b00      	cmp	r3, #0
    2232:	d13c      	bne.n	22ae <_svfiprintf_r+0xce>
    2234:	ebb7 0a06 	subs.w	sl, r7, r6
    2238:	d00b      	beq.n	2252 <_svfiprintf_r+0x72>
    223a:	4653      	mov	r3, sl
    223c:	4632      	mov	r2, r6
    223e:	4629      	mov	r1, r5
    2240:	4640      	mov	r0, r8
    2242:	f7ff ff71 	bl	2128 <__ssputs_r>
    2246:	3001      	adds	r0, #1
    2248:	f000 80a3 	beq.w	2392 <_svfiprintf_r+0x1b2>
    224c:	9b09      	ldr	r3, [sp, #36]	; 0x24
    224e:	4453      	add	r3, sl
    2250:	9309      	str	r3, [sp, #36]	; 0x24
    2252:	783b      	ldrb	r3, [r7, #0]
    2254:	2b00      	cmp	r3, #0
    2256:	f000 809c 	beq.w	2392 <_svfiprintf_r+0x1b2>
    225a:	2300      	movs	r3, #0
    225c:	f04f 32ff 	mov.w	r2, #4294967295	; 0xffffffff
    2260:	9304      	str	r3, [sp, #16]
    2262:	9307      	str	r3, [sp, #28]
    2264:	9205      	str	r2, [sp, #20]
    2266:	9306      	str	r3, [sp, #24]
    2268:	f88d 3053 	strb.w	r3, [sp, #83]	; 0x53
    226c:	931a      	str	r3, [sp, #104]	; 0x68
    226e:	2205      	movs	r2, #5
    2270:	7821      	ldrb	r1, [r4, #0]
    2272:	4850      	ldr	r0, [pc, #320]	; (23b4 <_svfiprintf_r+0x1d4>)
    2274:	f000 fa44 	bl	2700 <memchr>
    2278:	1c67      	adds	r7, r4, #1
    227a:	9b04      	ldr	r3, [sp, #16]
    227c:	b9d8      	cbnz	r0, 22b6 <_svfiprintf_r+0xd6>
    227e:	06d9      	lsls	r1, r3, #27
    2280:	bf44      	itt	mi
    2282:	2220      	movmi	r2, #32
    2284:	f88d 2053 	strbmi.w	r2, [sp, #83]	; 0x53
    2288:	071a      	lsls	r2, r3, #28
    228a:	bf44      	itt	mi
    228c:	222b      	movmi	r2, #43	; 0x2b
    228e:	f88d 2053 	strbmi.w	r2, [sp, #83]	; 0x53
    2292:	7822      	ldrb	r2, [r4, #0]
    2294:	2a2a      	cmp	r2, #42	; 0x2a
    2296:	d016      	beq.n	22c6 <_svfiprintf_r+0xe6>
    2298:	9a07      	ldr	r2, [sp, #28]
    229a:	2100      	movs	r1, #0
    229c:	200a      	movs	r0, #10
    229e:	4627      	mov	r7, r4
    22a0:	3401      	adds	r4, #1
    22a2:	783b      	ldrb	r3, [r7, #0]
    22a4:	3b30      	subs	r3, #48	; 0x30
    22a6:	2b09      	cmp	r3, #9
    22a8:	d951      	bls.n	234e <_svfiprintf_r+0x16e>
    22aa:	b1c9      	cbz	r1, 22e0 <_svfiprintf_r+0x100>
    22ac:	e011      	b.n	22d2 <_svfiprintf_r+0xf2>
    22ae:	2b25      	cmp	r3, #37	; 0x25
    22b0:	d0c0      	beq.n	2234 <_svfiprintf_r+0x54>
    22b2:	4627      	mov	r7, r4
    22b4:	e7b9      	b.n	222a <_svfiprintf_r+0x4a>
    22b6:	4a3f      	ldr	r2, [pc, #252]	; (23b4 <_svfiprintf_r+0x1d4>)
    22b8:	1a80      	subs	r0, r0, r2
    22ba:	fa0b f000 	lsl.w	r0, fp, r0
    22be:	4318      	orrs	r0, r3
    22c0:	9004      	str	r0, [sp, #16]
    22c2:	463c      	mov	r4, r7
    22c4:	e7d3      	b.n	226e <_svfiprintf_r+0x8e>
    22c6:	9a03      	ldr	r2, [sp, #12]
    22c8:	1d11      	adds	r1, r2, #4
    22ca:	6812      	ldr	r2, [r2, #0]
    22cc:	9103      	str	r1, [sp, #12]
    22ce:	2a00      	cmp	r2, #0
    22d0:	db01      	blt.n	22d6 <_svfiprintf_r+0xf6>
    22d2:	9207      	str	r2, [sp, #28]
    22d4:	e004      	b.n	22e0 <_svfiprintf_r+0x100>
    22d6:	4252      	negs	r2, r2
    22d8:	f043 0302 	orr.w	r3, r3, #2
    22dc:	9207      	str	r2, [sp, #28]
    22de:	9304      	str	r3, [sp, #16]
    22e0:	783b      	ldrb	r3, [r7, #0]
    22e2:	2b2e      	cmp	r3, #46	; 0x2e
    22e4:	d10e      	bne.n	2304 <_svfiprintf_r+0x124>
    22e6:	787b      	ldrb	r3, [r7, #1]
    22e8:	2b2a      	cmp	r3, #42	; 0x2a
    22ea:	f107 0101 	add.w	r1, r7, #1
    22ee:	d132      	bne.n	2356 <_svfiprintf_r+0x176>
    22f0:	9b03      	ldr	r3, [sp, #12]
    22f2:	1d1a      	adds	r2, r3, #4
    22f4:	681b      	ldr	r3, [r3, #0]
    22f6:	9203      	str	r2, [sp, #12]
    22f8:	2b00      	cmp	r3, #0
    22fa:	bfb8      	it	lt
    22fc:	f04f 33ff 	movlt.w	r3, #4294967295	; 0xffffffff
    2300:	3702      	adds	r7, #2
    2302:	9305      	str	r3, [sp, #20]
    2304:	4c2c      	ldr	r4, [pc, #176]	; (23b8 <_svfiprintf_r+0x1d8>)
    2306:	7839      	ldrb	r1, [r7, #0]
    2308:	2203      	movs	r2, #3
    230a:	4620      	mov	r0, r4
    230c:	f000 f9f8 	bl	2700 <memchr>
    2310:	b138      	cbz	r0, 2322 <_svfiprintf_r+0x142>
    2312:	2340      	movs	r3, #64	; 0x40
    2314:	1b00      	subs	r0, r0, r4
    2316:	fa03 f000 	lsl.w	r0, r3, r0
    231a:	9b04      	ldr	r3, [sp, #16]
    231c:	4303      	orrs	r3, r0
    231e:	9304      	str	r3, [sp, #16]
    2320:	3701      	adds	r7, #1
    2322:	7839      	ldrb	r1, [r7, #0]
    2324:	4825      	ldr	r0, [pc, #148]	; (23bc <_svfiprintf_r+0x1dc>)
    2326:	f88d 1028 	strb.w	r1, [sp, #40]	; 0x28
    232a:	2206      	movs	r2, #6
    232c:	1c7e      	adds	r6, r7, #1
    232e:	f000 f9e7 	bl	2700 <memchr>
    2332:	2800      	cmp	r0, #0
    2334:	d035      	beq.n	23a2 <_svfiprintf_r+0x1c2>
    2336:	4b22      	ldr	r3, [pc, #136]	; (23c0 <_svfiprintf_r+0x1e0>)
    2338:	b9fb      	cbnz	r3, 237a <_svfiprintf_r+0x19a>
    233a:	9b03      	ldr	r3, [sp, #12]
    233c:	3307      	adds	r3, #7
    233e:	f023 0307 	bic.w	r3, r3, #7
    2342:	3308      	adds	r3, #8
    2344:	9303      	str	r3, [sp, #12]
    2346:	9b09      	ldr	r3, [sp, #36]	; 0x24
    2348:	444b      	add	r3, r9
    234a:	9309      	str	r3, [sp, #36]	; 0x24
    234c:	e76c      	b.n	2228 <_svfiprintf_r+0x48>
    234e:	fb00 3202 	mla	r2, r0, r2, r3
    2352:	2101      	movs	r1, #1
    2354:	e7a3      	b.n	229e <_svfiprintf_r+0xbe>
    2356:	2300      	movs	r3, #0
    2358:	9305      	str	r3, [sp, #20]
    235a:	4618      	mov	r0, r3
    235c:	240a      	movs	r4, #10
    235e:	460f      	mov	r7, r1
    2360:	3101      	adds	r1, #1
    2362:	783a      	ldrb	r2, [r7, #0]
    2364:	3a30      	subs	r2, #48	; 0x30
    2366:	2a09      	cmp	r2, #9
    2368:	d903      	bls.n	2372 <_svfiprintf_r+0x192>
    236a:	2b00      	cmp	r3, #0
    236c:	d0ca      	beq.n	2304 <_svfiprintf_r+0x124>
    236e:	9005      	str	r0, [sp, #20]
    2370:	e7c8      	b.n	2304 <_svfiprintf_r+0x124>
    2372:	fb04 2000 	mla	r0, r4, r0, r2
    2376:	2301      	movs	r3, #1
    2378:	e7f1      	b.n	235e <_svfiprintf_r+0x17e>
    237a:	ab03      	add	r3, sp, #12
    237c:	9300      	str	r3, [sp, #0]
    237e:	462a      	mov	r2, r5
    2380:	4b10      	ldr	r3, [pc, #64]	; (23c4 <_svfiprintf_r+0x1e4>)
    2382:	a904      	add	r1, sp, #16
    2384:	4640      	mov	r0, r8
    2386:	f3af 8000 	nop.w
    238a:	f1b0 3fff 	cmp.w	r0, #4294967295	; 0xffffffff
    238e:	4681      	mov	r9, r0
    2390:	d1d9      	bne.n	2346 <_svfiprintf_r+0x166>
    2392:	89ab      	ldrh	r3, [r5, #12]
    2394:	065b      	lsls	r3, r3, #25
    2396:	f53f af38 	bmi.w	220a <_svfiprintf_r+0x2a>
    239a:	9809      	ldr	r0, [sp, #36]	; 0x24
    239c:	b01d      	add	sp, #116	; 0x74
    239e:	e8bd 8ff0 	ldmia.w	sp!, {r4, r5, r6, r7, r8, r9, sl, fp, pc}
    23a2:	ab03      	add	r3, sp, #12
    23a4:	9300      	str	r3, [sp, #0]
    23a6:	462a      	mov	r2, r5
    23a8:	4b06      	ldr	r3, [pc, #24]	; (23c4 <_svfiprintf_r+0x1e4>)
    23aa:	a904      	add	r1, sp, #16
    23ac:	4640      	mov	r0, r8
    23ae:	f000 f881 	bl	24b4 <_printf_i>
    23b2:	e7ea      	b.n	238a <_svfiprintf_r+0x1aa>
    23b4:	00002976 	andeq	r2, r0, r6, ror r9
    23b8:	0000297c 	andeq	r2, r0, ip, ror r9
    23bc:	00002980 	andeq	r2, r0, r0, lsl #19
    23c0:	00000000 	andeq	r0, r0, r0
    23c4:	00002129 	andeq	r2, r0, r9, lsr #2

000023c8 <_printf_common>:
    23c8:	e92d 47f0 	stmdb	sp!, {r4, r5, r6, r7, r8, r9, sl, lr}
    23cc:	4691      	mov	r9, r2
    23ce:	461f      	mov	r7, r3
    23d0:	688a      	ldr	r2, [r1, #8]
    23d2:	690b      	ldr	r3, [r1, #16]
    23d4:	f8dd 8020 	ldr.w	r8, [sp, #32]
    23d8:	4293      	cmp	r3, r2
    23da:	bfb8      	it	lt
    23dc:	4613      	movlt	r3, r2
    23de:	f8c9 3000 	str.w	r3, [r9]
    23e2:	f891 2043 	ldrb.w	r2, [r1, #67]	; 0x43
    23e6:	4606      	mov	r6, r0
    23e8:	460c      	mov	r4, r1
    23ea:	b112      	cbz	r2, 23f2 <_printf_common+0x2a>
    23ec:	3301      	adds	r3, #1
    23ee:	f8c9 3000 	str.w	r3, [r9]
    23f2:	6823      	ldr	r3, [r4, #0]
    23f4:	0699      	lsls	r1, r3, #26
    23f6:	bf42      	ittt	mi
    23f8:	f8d9 3000 	ldrmi.w	r3, [r9]
    23fc:	3302      	addmi	r3, #2
    23fe:	f8c9 3000 	strmi.w	r3, [r9]
    2402:	6825      	ldr	r5, [r4, #0]
    2404:	f015 0506 	ands.w	r5, r5, #6
    2408:	d107      	bne.n	241a <_printf_common+0x52>
    240a:	f104 0a19 	add.w	sl, r4, #25
    240e:	68e3      	ldr	r3, [r4, #12]
    2410:	f8d9 2000 	ldr.w	r2, [r9]
    2414:	1a9b      	subs	r3, r3, r2
    2416:	429d      	cmp	r5, r3
    2418:	db29      	blt.n	246e <_printf_common+0xa6>
    241a:	f894 3043 	ldrb.w	r3, [r4, #67]	; 0x43
    241e:	6822      	ldr	r2, [r4, #0]
    2420:	3300      	adds	r3, #0
    2422:	bf18      	it	ne
    2424:	2301      	movne	r3, #1
    2426:	0692      	lsls	r2, r2, #26
    2428:	d42e      	bmi.n	2488 <_printf_common+0xc0>
    242a:	f104 0243 	add.w	r2, r4, #67	; 0x43
    242e:	4639      	mov	r1, r7
    2430:	4630      	mov	r0, r6
    2432:	47c0      	blx	r8
    2434:	3001      	adds	r0, #1
    2436:	d021      	beq.n	247c <_printf_common+0xb4>
    2438:	6823      	ldr	r3, [r4, #0]
    243a:	68e5      	ldr	r5, [r4, #12]
    243c:	f8d9 2000 	ldr.w	r2, [r9]
    2440:	f003 0306 	and.w	r3, r3, #6
    2444:	2b04      	cmp	r3, #4
    2446:	bf08      	it	eq
    2448:	1aad      	subeq	r5, r5, r2
    244a:	68a3      	ldr	r3, [r4, #8]
    244c:	6922      	ldr	r2, [r4, #16]
    244e:	bf0c      	ite	eq
    2450:	ea25 75e5 	biceq.w	r5, r5, r5, asr #31
    2454:	2500      	movne	r5, #0
    2456:	4293      	cmp	r3, r2
    2458:	bfc4      	itt	gt
    245a:	1a9b      	subgt	r3, r3, r2
    245c:	18ed      	addgt	r5, r5, r3
    245e:	f04f 0900 	mov.w	r9, #0
    2462:	341a      	adds	r4, #26
    2464:	454d      	cmp	r5, r9
    2466:	d11b      	bne.n	24a0 <_printf_common+0xd8>
    2468:	2000      	movs	r0, #0
    246a:	e8bd 87f0 	ldmia.w	sp!, {r4, r5, r6, r7, r8, r9, sl, pc}
    246e:	2301      	movs	r3, #1
    2470:	4652      	mov	r2, sl
    2472:	4639      	mov	r1, r7
    2474:	4630      	mov	r0, r6
    2476:	47c0      	blx	r8
    2478:	3001      	adds	r0, #1
    247a:	d103      	bne.n	2484 <_printf_common+0xbc>
    247c:	f04f 30ff 	mov.w	r0, #4294967295	; 0xffffffff
    2480:	e8bd 87f0 	ldmia.w	sp!, {r4, r5, r6, r7, r8, r9, sl, pc}
    2484:	3501      	adds	r5, #1
    2486:	e7c2      	b.n	240e <_printf_common+0x46>
    2488:	18e1      	adds	r1, r4, r3
    248a:	1c5a      	adds	r2, r3, #1
    248c:	2030      	movs	r0, #48	; 0x30
    248e:	f881 0043 	strb.w	r0, [r1, #67]	; 0x43
    2492:	4422      	add	r2, r4
    2494:	f894 1045 	ldrb.w	r1, [r4, #69]	; 0x45
    2498:	f882 1043 	strb.w	r1, [r2, #67]	; 0x43
    249c:	3302      	adds	r3, #2
    249e:	e7c4      	b.n	242a <_printf_common+0x62>
    24a0:	2301      	movs	r3, #1
    24a2:	4622      	mov	r2, r4
    24a4:	4639      	mov	r1, r7
    24a6:	4630      	mov	r0, r6
    24a8:	47c0      	blx	r8
    24aa:	3001      	adds	r0, #1
    24ac:	d0e6      	beq.n	247c <_printf_common+0xb4>
    24ae:	f109 0901 	add.w	r9, r9, #1
    24b2:	e7d7      	b.n	2464 <_printf_common+0x9c>

000024b4 <_printf_i>:
    24b4:	e92d 43f0 	stmdb	sp!, {r4, r5, r6, r7, r8, r9, lr}
    24b8:	4617      	mov	r7, r2
    24ba:	7e0a      	ldrb	r2, [r1, #24]
    24bc:	b085      	sub	sp, #20
    24be:	2a6e      	cmp	r2, #110	; 0x6e
    24c0:	4698      	mov	r8, r3
    24c2:	4606      	mov	r6, r0
    24c4:	460c      	mov	r4, r1
    24c6:	9b0c      	ldr	r3, [sp, #48]	; 0x30
    24c8:	f101 0e43 	add.w	lr, r1, #67	; 0x43
    24cc:	f000 80bc 	beq.w	2648 <_printf_i+0x194>
    24d0:	d81a      	bhi.n	2508 <_printf_i+0x54>
    24d2:	2a63      	cmp	r2, #99	; 0x63
    24d4:	d02e      	beq.n	2534 <_printf_i+0x80>
    24d6:	d80a      	bhi.n	24ee <_printf_i+0x3a>
    24d8:	2a00      	cmp	r2, #0
    24da:	f000 80c8 	beq.w	266e <_printf_i+0x1ba>
    24de:	2a58      	cmp	r2, #88	; 0x58
    24e0:	f000 808a 	beq.w	25f8 <_printf_i+0x144>
    24e4:	f104 0542 	add.w	r5, r4, #66	; 0x42
    24e8:	f884 2042 	strb.w	r2, [r4, #66]	; 0x42
    24ec:	e02a      	b.n	2544 <_printf_i+0x90>
    24ee:	2a64      	cmp	r2, #100	; 0x64
    24f0:	d001      	beq.n	24f6 <_printf_i+0x42>
    24f2:	2a69      	cmp	r2, #105	; 0x69
    24f4:	d1f6      	bne.n	24e4 <_printf_i+0x30>
    24f6:	6821      	ldr	r1, [r4, #0]
    24f8:	681a      	ldr	r2, [r3, #0]
    24fa:	f011 0f80 	tst.w	r1, #128	; 0x80
    24fe:	d023      	beq.n	2548 <_printf_i+0x94>
    2500:	1d11      	adds	r1, r2, #4
    2502:	6019      	str	r1, [r3, #0]
    2504:	6813      	ldr	r3, [r2, #0]
    2506:	e027      	b.n	2558 <_printf_i+0xa4>
    2508:	2a73      	cmp	r2, #115	; 0x73
    250a:	f000 80b4 	beq.w	2676 <_printf_i+0x1c2>
    250e:	d808      	bhi.n	2522 <_printf_i+0x6e>
    2510:	2a6f      	cmp	r2, #111	; 0x6f
    2512:	d02a      	beq.n	256a <_printf_i+0xb6>
    2514:	2a70      	cmp	r2, #112	; 0x70
    2516:	d1e5      	bne.n	24e4 <_printf_i+0x30>
    2518:	680a      	ldr	r2, [r1, #0]
    251a:	f042 0220 	orr.w	r2, r2, #32
    251e:	600a      	str	r2, [r1, #0]
    2520:	e003      	b.n	252a <_printf_i+0x76>
    2522:	2a75      	cmp	r2, #117	; 0x75
    2524:	d021      	beq.n	256a <_printf_i+0xb6>
    2526:	2a78      	cmp	r2, #120	; 0x78
    2528:	d1dc      	bne.n	24e4 <_printf_i+0x30>
    252a:	2278      	movs	r2, #120	; 0x78
    252c:	f884 2045 	strb.w	r2, [r4, #69]	; 0x45
    2530:	496e      	ldr	r1, [pc, #440]	; (26ec <_printf_i+0x238>)
    2532:	e064      	b.n	25fe <_printf_i+0x14a>
    2534:	681a      	ldr	r2, [r3, #0]
    2536:	f101 0542 	add.w	r5, r1, #66	; 0x42
    253a:	1d11      	adds	r1, r2, #4
    253c:	6019      	str	r1, [r3, #0]
    253e:	6813      	ldr	r3, [r2, #0]
    2540:	f884 3042 	strb.w	r3, [r4, #66]	; 0x42
    2544:	2301      	movs	r3, #1
    2546:	e0a3      	b.n	2690 <_printf_i+0x1dc>
    2548:	f011 0f40 	tst.w	r1, #64	; 0x40
    254c:	f102 0104 	add.w	r1, r2, #4
    2550:	6019      	str	r1, [r3, #0]
    2552:	d0d7      	beq.n	2504 <_printf_i+0x50>
    2554:	f9b2 3000 	ldrsh.w	r3, [r2]
    2558:	2b00      	cmp	r3, #0
    255a:	da03      	bge.n	2564 <_printf_i+0xb0>
    255c:	222d      	movs	r2, #45	; 0x2d
    255e:	425b      	negs	r3, r3
    2560:	f884 2043 	strb.w	r2, [r4, #67]	; 0x43
    2564:	4962      	ldr	r1, [pc, #392]	; (26f0 <_printf_i+0x23c>)
    2566:	220a      	movs	r2, #10
    2568:	e017      	b.n	259a <_printf_i+0xe6>
    256a:	6820      	ldr	r0, [r4, #0]
    256c:	6819      	ldr	r1, [r3, #0]
    256e:	f010 0f80 	tst.w	r0, #128	; 0x80
    2572:	d003      	beq.n	257c <_printf_i+0xc8>
    2574:	1d08      	adds	r0, r1, #4
    2576:	6018      	str	r0, [r3, #0]
    2578:	680b      	ldr	r3, [r1, #0]
    257a:	e006      	b.n	258a <_printf_i+0xd6>
    257c:	f010 0f40 	tst.w	r0, #64	; 0x40
    2580:	f101 0004 	add.w	r0, r1, #4
    2584:	6018      	str	r0, [r3, #0]
    2586:	d0f7      	beq.n	2578 <_printf_i+0xc4>
    2588:	880b      	ldrh	r3, [r1, #0]
    258a:	4959      	ldr	r1, [pc, #356]	; (26f0 <_printf_i+0x23c>)
    258c:	2a6f      	cmp	r2, #111	; 0x6f
    258e:	bf14      	ite	ne
    2590:	220a      	movne	r2, #10
    2592:	2208      	moveq	r2, #8
    2594:	2000      	movs	r0, #0
    2596:	f884 0043 	strb.w	r0, [r4, #67]	; 0x43
    259a:	6865      	ldr	r5, [r4, #4]
    259c:	60a5      	str	r5, [r4, #8]
    259e:	2d00      	cmp	r5, #0
    25a0:	f2c0 809c 	blt.w	26dc <_printf_i+0x228>
    25a4:	6820      	ldr	r0, [r4, #0]
    25a6:	f020 0004 	bic.w	r0, r0, #4
    25aa:	6020      	str	r0, [r4, #0]
    25ac:	2b00      	cmp	r3, #0
    25ae:	d13f      	bne.n	2630 <_printf_i+0x17c>
    25b0:	2d00      	cmp	r5, #0
    25b2:	f040 8095 	bne.w	26e0 <_printf_i+0x22c>
    25b6:	4675      	mov	r5, lr
    25b8:	2a08      	cmp	r2, #8
    25ba:	d10b      	bne.n	25d4 <_printf_i+0x120>
    25bc:	6823      	ldr	r3, [r4, #0]
    25be:	07da      	lsls	r2, r3, #31
    25c0:	d508      	bpl.n	25d4 <_printf_i+0x120>
    25c2:	6923      	ldr	r3, [r4, #16]
    25c4:	6862      	ldr	r2, [r4, #4]
    25c6:	429a      	cmp	r2, r3
    25c8:	bfde      	ittt	le
    25ca:	2330      	movle	r3, #48	; 0x30
    25cc:	f805 3c01 	strble.w	r3, [r5, #-1]
    25d0:	f105 35ff 	addle.w	r5, r5, #4294967295	; 0xffffffff
    25d4:	ebae 0305 	sub.w	r3, lr, r5
    25d8:	6123      	str	r3, [r4, #16]
    25da:	f8cd 8000 	str.w	r8, [sp]
    25de:	463b      	mov	r3, r7
    25e0:	aa03      	add	r2, sp, #12
    25e2:	4621      	mov	r1, r4
    25e4:	4630      	mov	r0, r6
    25e6:	f7ff feef 	bl	23c8 <_printf_common>
    25ea:	3001      	adds	r0, #1
    25ec:	d155      	bne.n	269a <_printf_i+0x1e6>
    25ee:	f04f 30ff 	mov.w	r0, #4294967295	; 0xffffffff
    25f2:	b005      	add	sp, #20
    25f4:	e8bd 83f0 	ldmia.w	sp!, {r4, r5, r6, r7, r8, r9, pc}
    25f8:	f881 2045 	strb.w	r2, [r1, #69]	; 0x45
    25fc:	493c      	ldr	r1, [pc, #240]	; (26f0 <_printf_i+0x23c>)
    25fe:	6822      	ldr	r2, [r4, #0]
    2600:	6818      	ldr	r0, [r3, #0]
    2602:	f012 0f80 	tst.w	r2, #128	; 0x80
    2606:	f100 0504 	add.w	r5, r0, #4
    260a:	601d      	str	r5, [r3, #0]
    260c:	d001      	beq.n	2612 <_printf_i+0x15e>
    260e:	6803      	ldr	r3, [r0, #0]
    2610:	e002      	b.n	2618 <_printf_i+0x164>
    2612:	0655      	lsls	r5, r2, #25
    2614:	d5fb      	bpl.n	260e <_printf_i+0x15a>
    2616:	8803      	ldrh	r3, [r0, #0]
    2618:	07d0      	lsls	r0, r2, #31
    261a:	bf44      	itt	mi
    261c:	f042 0220 	orrmi.w	r2, r2, #32
    2620:	6022      	strmi	r2, [r4, #0]
    2622:	b91b      	cbnz	r3, 262c <_printf_i+0x178>
    2624:	6822      	ldr	r2, [r4, #0]
    2626:	f022 0220 	bic.w	r2, r2, #32
    262a:	6022      	str	r2, [r4, #0]
    262c:	2210      	movs	r2, #16
    262e:	e7b1      	b.n	2594 <_printf_i+0xe0>
    2630:	4675      	mov	r5, lr
    2632:	fbb3 f0f2 	udiv	r0, r3, r2
    2636:	fb02 3310 	mls	r3, r2, r0, r3
    263a:	5ccb      	ldrb	r3, [r1, r3]
    263c:	f805 3d01 	strb.w	r3, [r5, #-1]!
    2640:	4603      	mov	r3, r0
    2642:	2800      	cmp	r0, #0
    2644:	d1f5      	bne.n	2632 <_printf_i+0x17e>
    2646:	e7b7      	b.n	25b8 <_printf_i+0x104>
    2648:	6808      	ldr	r0, [r1, #0]
    264a:	681a      	ldr	r2, [r3, #0]
    264c:	6949      	ldr	r1, [r1, #20]
    264e:	f010 0f80 	tst.w	r0, #128	; 0x80
    2652:	d004      	beq.n	265e <_printf_i+0x1aa>
    2654:	1d10      	adds	r0, r2, #4
    2656:	6018      	str	r0, [r3, #0]
    2658:	6813      	ldr	r3, [r2, #0]
    265a:	6019      	str	r1, [r3, #0]
    265c:	e007      	b.n	266e <_printf_i+0x1ba>
    265e:	f010 0f40 	tst.w	r0, #64	; 0x40
    2662:	f102 0004 	add.w	r0, r2, #4
    2666:	6018      	str	r0, [r3, #0]
    2668:	6813      	ldr	r3, [r2, #0]
    266a:	d0f6      	beq.n	265a <_printf_i+0x1a6>
    266c:	8019      	strh	r1, [r3, #0]
    266e:	2300      	movs	r3, #0
    2670:	6123      	str	r3, [r4, #16]
    2672:	4675      	mov	r5, lr
    2674:	e7b1      	b.n	25da <_printf_i+0x126>
    2676:	681a      	ldr	r2, [r3, #0]
    2678:	1d11      	adds	r1, r2, #4
    267a:	6019      	str	r1, [r3, #0]
    267c:	6815      	ldr	r5, [r2, #0]
    267e:	6862      	ldr	r2, [r4, #4]
    2680:	2100      	movs	r1, #0
    2682:	4628      	mov	r0, r5
    2684:	f000 f83c 	bl	2700 <memchr>
    2688:	b108      	cbz	r0, 268e <_printf_i+0x1da>
    268a:	1b40      	subs	r0, r0, r5
    268c:	6060      	str	r0, [r4, #4]
    268e:	6863      	ldr	r3, [r4, #4]
    2690:	6123      	str	r3, [r4, #16]
    2692:	2300      	movs	r3, #0
    2694:	f884 3043 	strb.w	r3, [r4, #67]	; 0x43
    2698:	e79f      	b.n	25da <_printf_i+0x126>
    269a:	6923      	ldr	r3, [r4, #16]
    269c:	462a      	mov	r2, r5
    269e:	4639      	mov	r1, r7
    26a0:	4630      	mov	r0, r6
    26a2:	47c0      	blx	r8
    26a4:	3001      	adds	r0, #1
    26a6:	d0a2      	beq.n	25ee <_printf_i+0x13a>
    26a8:	6823      	ldr	r3, [r4, #0]
    26aa:	079b      	lsls	r3, r3, #30
    26ac:	d507      	bpl.n	26be <_printf_i+0x20a>
    26ae:	2500      	movs	r5, #0
    26b0:	f104 0919 	add.w	r9, r4, #25
    26b4:	68e3      	ldr	r3, [r4, #12]
    26b6:	9a03      	ldr	r2, [sp, #12]
    26b8:	1a9b      	subs	r3, r3, r2
    26ba:	429d      	cmp	r5, r3
    26bc:	db05      	blt.n	26ca <_printf_i+0x216>
    26be:	68e0      	ldr	r0, [r4, #12]
    26c0:	9b03      	ldr	r3, [sp, #12]
    26c2:	4298      	cmp	r0, r3
    26c4:	bfb8      	it	lt
    26c6:	4618      	movlt	r0, r3
    26c8:	e793      	b.n	25f2 <_printf_i+0x13e>
    26ca:	2301      	movs	r3, #1
    26cc:	464a      	mov	r2, r9
    26ce:	4639      	mov	r1, r7
    26d0:	4630      	mov	r0, r6
    26d2:	47c0      	blx	r8
    26d4:	3001      	adds	r0, #1
    26d6:	d08a      	beq.n	25ee <_printf_i+0x13a>
    26d8:	3501      	adds	r5, #1
    26da:	e7eb      	b.n	26b4 <_printf_i+0x200>
    26dc:	2b00      	cmp	r3, #0
    26de:	d1a7      	bne.n	2630 <_printf_i+0x17c>
    26e0:	780b      	ldrb	r3, [r1, #0]
    26e2:	f884 3042 	strb.w	r3, [r4, #66]	; 0x42
    26e6:	f104 0542 	add.w	r5, r4, #66	; 0x42
    26ea:	e765      	b.n	25b8 <_printf_i+0x104>
    26ec:	00002998 	muleq	r0, r8, r9
    26f0:	00002987 	andeq	r2, r0, r7, lsl #19
	...

00002700 <memchr>:
    2700:	f001 01ff 	and.w	r1, r1, #255	; 0xff
    2704:	2a10      	cmp	r2, #16
    2706:	db2b      	blt.n	2760 <memchr+0x60>
    2708:	f010 0f07 	tst.w	r0, #7
    270c:	d008      	beq.n	2720 <memchr+0x20>
    270e:	f810 3b01 	ldrb.w	r3, [r0], #1
    2712:	3a01      	subs	r2, #1
    2714:	428b      	cmp	r3, r1
    2716:	d02d      	beq.n	2774 <memchr+0x74>
    2718:	f010 0f07 	tst.w	r0, #7
    271c:	b342      	cbz	r2, 2770 <memchr+0x70>
    271e:	d1f6      	bne.n	270e <memchr+0xe>
    2720:	b4f0      	push	{r4, r5, r6, r7}
    2722:	ea41 2101 	orr.w	r1, r1, r1, lsl #8
    2726:	ea41 4101 	orr.w	r1, r1, r1, lsl #16
    272a:	f022 0407 	bic.w	r4, r2, #7
    272e:	f07f 0700 	mvns.w	r7, #0
    2732:	2300      	movs	r3, #0
    2734:	e8f0 5602 	ldrd	r5, r6, [r0], #8
    2738:	3c08      	subs	r4, #8
    273a:	ea85 0501 	eor.w	r5, r5, r1
    273e:	ea86 0601 	eor.w	r6, r6, r1
    2742:	fa85 f547 	uadd8	r5, r5, r7
    2746:	faa3 f587 	sel	r5, r3, r7
    274a:	fa86 f647 	uadd8	r6, r6, r7
    274e:	faa5 f687 	sel	r6, r5, r7
    2752:	b98e      	cbnz	r6, 2778 <memchr+0x78>
    2754:	d1ee      	bne.n	2734 <memchr+0x34>
    2756:	bcf0      	pop	{r4, r5, r6, r7}
    2758:	f001 01ff 	and.w	r1, r1, #255	; 0xff
    275c:	f002 0207 	and.w	r2, r2, #7
    2760:	b132      	cbz	r2, 2770 <memchr+0x70>
    2762:	f810 3b01 	ldrb.w	r3, [r0], #1
    2766:	3a01      	subs	r2, #1
    2768:	ea83 0301 	eor.w	r3, r3, r1
    276c:	b113      	cbz	r3, 2774 <memchr+0x74>
    276e:	d1f8      	bne.n	2762 <memchr+0x62>
    2770:	2000      	movs	r0, #0
    2772:	4770      	bx	lr
    2774:	3801      	subs	r0, #1
    2776:	4770      	bx	lr
    2778:	2d00      	cmp	r5, #0
    277a:	bf06      	itte	eq
    277c:	4635      	moveq	r5, r6
    277e:	3803      	subeq	r0, #3
    2780:	3807      	subne	r0, #7
    2782:	f015 0f01 	tst.w	r5, #1
    2786:	d107      	bne.n	2798 <memchr+0x98>
    2788:	3001      	adds	r0, #1
    278a:	f415 7f80 	tst.w	r5, #256	; 0x100
    278e:	bf02      	ittt	eq
    2790:	3001      	addeq	r0, #1
    2792:	f415 3fc0 	tsteq.w	r5, #98304	; 0x18000
    2796:	3001      	addeq	r0, #1
    2798:	bcf0      	pop	{r4, r5, r6, r7}
    279a:	3801      	subs	r0, #1
    279c:	4770      	bx	lr
    279e:	bf00      	nop

000027a0 <memcpy>:
    27a0:	b510      	push	{r4, lr}
    27a2:	1e43      	subs	r3, r0, #1
    27a4:	440a      	add	r2, r1
    27a6:	4291      	cmp	r1, r2
    27a8:	d100      	bne.n	27ac <memcpy+0xc>
    27aa:	bd10      	pop	{r4, pc}
    27ac:	f811 4b01 	ldrb.w	r4, [r1], #1
    27b0:	f803 4f01 	strb.w	r4, [r3, #1]!
    27b4:	e7f7      	b.n	27a6 <memcpy+0x6>

000027b6 <memmove>:
    27b6:	4288      	cmp	r0, r1
    27b8:	b510      	push	{r4, lr}
    27ba:	eb01 0302 	add.w	r3, r1, r2
    27be:	d803      	bhi.n	27c8 <memmove+0x12>
    27c0:	1e42      	subs	r2, r0, #1
    27c2:	4299      	cmp	r1, r3
    27c4:	d10c      	bne.n	27e0 <memmove+0x2a>
    27c6:	bd10      	pop	{r4, pc}
    27c8:	4298      	cmp	r0, r3
    27ca:	d2f9      	bcs.n	27c0 <memmove+0xa>
    27cc:	1881      	adds	r1, r0, r2
    27ce:	1ad2      	subs	r2, r2, r3
    27d0:	42d3      	cmn	r3, r2
    27d2:	d100      	bne.n	27d6 <memmove+0x20>
    27d4:	bd10      	pop	{r4, pc}
    27d6:	f813 4d01 	ldrb.w	r4, [r3, #-1]!
    27da:	f801 4d01 	strb.w	r4, [r1, #-1]!
    27de:	e7f7      	b.n	27d0 <memmove+0x1a>
    27e0:	f811 4b01 	ldrb.w	r4, [r1], #1
    27e4:	f802 4f01 	strb.w	r4, [r2, #1]!
    27e8:	e7eb      	b.n	27c2 <memmove+0xc>

000027ea <_realloc_r>:
    27ea:	b5f8      	push	{r3, r4, r5, r6, r7, lr}
    27ec:	4607      	mov	r7, r0
    27ee:	4614      	mov	r4, r2
    27f0:	460e      	mov	r6, r1
    27f2:	b921      	cbnz	r1, 27fe <_realloc_r+0x14>
    27f4:	4611      	mov	r1, r2
    27f6:	e8bd 40f8 	ldmia.w	sp!, {r3, r4, r5, r6, r7, lr}
    27fa:	f7ff bb3d 	b.w	1e78 <_malloc_r>
    27fe:	b922      	cbnz	r2, 280a <_realloc_r+0x20>
    2800:	f7ff faf6 	bl	1df0 <_free_r>
    2804:	4625      	mov	r5, r4
    2806:	4628      	mov	r0, r5
    2808:	bdf8      	pop	{r3, r4, r5, r6, r7, pc}
    280a:	f000 f814 	bl	2836 <_malloc_usable_size_r>
    280e:	4284      	cmp	r4, r0
    2810:	d90f      	bls.n	2832 <_realloc_r+0x48>
    2812:	4621      	mov	r1, r4
    2814:	4638      	mov	r0, r7
    2816:	f7ff fb2f 	bl	1e78 <_malloc_r>
    281a:	4605      	mov	r5, r0
    281c:	2800      	cmp	r0, #0
    281e:	d0f2      	beq.n	2806 <_realloc_r+0x1c>
    2820:	4631      	mov	r1, r6
    2822:	4622      	mov	r2, r4
    2824:	f7ff ffbc 	bl	27a0 <memcpy>
    2828:	4631      	mov	r1, r6
    282a:	4638      	mov	r0, r7
    282c:	f7ff fae0 	bl	1df0 <_free_r>
    2830:	e7e9      	b.n	2806 <_realloc_r+0x1c>
    2832:	4635      	mov	r5, r6
    2834:	e7e7      	b.n	2806 <_realloc_r+0x1c>

00002836 <_malloc_usable_size_r>:
    2836:	f851 0c04 	ldr.w	r0, [r1, #-4]
    283a:	2800      	cmp	r0, #0
    283c:	f1a0 0004 	sub.w	r0, r0, #4
    2840:	bfbc      	itt	lt
    2842:	580b      	ldrlt	r3, [r1, r0]
    2844:	18c0      	addlt	r0, r0, r3
    2846:	4770      	bx	lr

00002848 <_sbrk>:
    2848:	4a04      	ldr	r2, [pc, #16]	; (285c <_sbrk+0x14>)
    284a:	4905      	ldr	r1, [pc, #20]	; (2860 <_sbrk+0x18>)
    284c:	6813      	ldr	r3, [r2, #0]
    284e:	2b00      	cmp	r3, #0
    2850:	bf08      	it	eq
    2852:	460b      	moveq	r3, r1
    2854:	4418      	add	r0, r3
    2856:	6010      	str	r0, [r2, #0]
    2858:	4618      	mov	r0, r3
    285a:	4770      	bx	lr
    285c:	1fff02c8 	svcne	0x00ff02c8
    2860:	1fff0378 	svcne	0x00ff0378

00002864 <_exit>:
    2864:	e7fe      	b.n	2864 <_exit>
    2866:	bf00      	nop

00002868 <_init>:
    2868:	b5f8      	push	{r3, r4, r5, r6, r7, lr}
    286a:	bf00      	nop
    286c:	bcf8      	pop	{r3, r4, r5, r6, r7}
    286e:	bc08      	pop	{r3}
    2870:	469e      	mov	lr, r3
    2872:	4770      	bx	lr

00002874 <_fini>:
    2874:	b5f8      	push	{r3, r4, r5, r6, r7, lr}
    2876:	bf00      	nop
    2878:	bcf8      	pop	{r3, r4, r5, r6, r7}
    287a:	bc08      	pop	{r3}
    287c:	469e      	mov	lr, r3
    287e:	4770      	bx	lr
    2880:	7361654d 	cmnvc	r1, #322961408	; 0x13400000
    2884:	64657275 	strbtvs	r7, [r5], #-629	; 0xfffffd8b
    2888:	72654e20 	rsbvc	r4, r5, #32, 28	; 0x200
    288c:	2074736e 	rsbscs	r7, r4, lr, ror #6
    2890:	66252056 			; <UNDEFINED> instruction: 0x66252056
    2894:	75502009 	ldrbvc	r2, [r0, #-9]
    2898:	7543706d 	strbvc	r7, [r3, #-109]	; 0xffffff93
    289c:	6e657272 	mcrvs	2, 3, r7, cr5, cr2, {3}
    28a0:	43442074 	movtmi	r2, #16500	; 0x4074
    28a4:	09752520 	ldmdbeq	r5!, {r5, r8, sl, sp}^
    28a8:	61654d20 	cmnvs	r5, r0, lsr #26
    28ac:	65727573 	ldrbvs	r7, [r2, #-1395]!	; 0xfffffa8d
    28b0:	75502064 	ldrbvc	r2, [r0, #-100]	; 0xffffff9c
    28b4:	7543706d 	strbvc	r7, [r3, #-109]	; 0xffffff93
    28b8:	6e657272 	mcrvs	2, 3, r7, cr5, cr2, {3}
    28bc:	25203a74 	strcs	r3, [r0, #-2676]!	; 0xfffff58c
    28c0:	20092066 	andcs	r2, r9, r6, rrx
    28c4:	69736544 	ldmdbvs	r3!, {r2, r6, r8, sl, sp, lr}^
    28c8:	50646572 	rsbpl	r6, r4, r2, ror r5
    28cc:	43706d75 	cmnmi	r0, #7488	; 0x1d40
    28d0:	65727275 	ldrbvs	r7, [r2, #-629]!	; 0xfffffd8b
    28d4:	2520746e 	strcs	r7, [r0, #-1134]!	; 0xfffffb92
    28d8:	0d202066 	stceq	0, cr2, [r0, #-408]!	; 0xfffffe68
    28dc:	20202000 	eorcs	r2, r0, r0
    28e0:	20202020 	eorcs	r2, r0, r0, lsr #32
    28e4:	20202020 	eorcs	r2, r0, r0, lsr #32
    28e8:	20202020 	eorcs	r2, r0, r0, lsr #32
    28ec:	20202020 	eorcs	r2, r0, r0, lsr #32
    28f0:	20202020 	eorcs	r2, r0, r0, lsr #32
    28f4:	20202020 	eorcs	r2, r0, r0, lsr #32
    28f8:	20202020 	eorcs	r2, r0, r0, lsr #32
    28fc:	20202020 	eorcs	r2, r0, r0, lsr #32
    2900:	20202020 	eorcs	r2, r0, r0, lsr #32
    2904:	20202020 	eorcs	r2, r0, r0, lsr #32
    2908:	20202020 	eorcs	r2, r0, r0, lsr #32
    290c:	20202020 	eorcs	r2, r0, r0, lsr #32
    2910:	20202020 	eorcs	r2, r0, r0, lsr #32
    2914:	20202020 	eorcs	r2, r0, r0, lsr #32
    2918:	20202020 	eorcs	r2, r0, r0, lsr #32
    291c:	20202020 	eorcs	r2, r0, r0, lsr #32
    2920:	20202020 	eorcs	r2, r0, r0, lsr #32
    2924:	20202020 	eorcs	r2, r0, r0, lsr #32
    2928:	20202020 	eorcs	r2, r0, r0, lsr #32
    292c:	20202020 	eorcs	r2, r0, r0, lsr #32
    2930:	20202020 	eorcs	r2, r0, r0, lsr #32
    2934:	20202020 	eorcs	r2, r0, r0, lsr #32
    2938:	20202020 	eorcs	r2, r0, r0, lsr #32
    293c:	20202020 	eorcs	r2, r0, r0, lsr #32
    2940:	20202020 	eorcs	r2, r0, r0, lsr #32
    2944:	20202020 	eorcs	r2, r0, r0, lsr #32
    2948:	20202020 	eorcs	r2, r0, r0, lsr #32
    294c:	20202020 	eorcs	r2, r0, r0, lsr #32
    2950:	20202020 	eorcs	r2, r0, r0, lsr #32
    2954:	20202020 	eorcs	r2, r0, r0, lsr #32
    2958:	20202020 	eorcs	r2, r0, r0, lsr #32
    295c:	20202020 	eorcs	r2, r0, r0, lsr #32
    2960:	20202020 	eorcs	r2, r0, r0, lsr #32
    2964:	20202020 	eorcs	r2, r0, r0, lsr #32
    2968:	6360000d 	cmnvs	r0, #13

0000296a <ADC1SourceBytes>:
    296a:	4f4e6360 	svcmi	0x004e6360
	...

00002970 <_global_impure_ptr>:
    2970:	1fff01a0 	svcne	0x00ff01a0
    2974:	2d230043 	stccs	0, cr0, [r3, #-268]!	; 0xfffffef4
    2978:	00202b30 	eoreq	r2, r0, r0, lsr fp
    297c:	004c6c68 	subeq	r6, ip, r8, ror #24
    2980:	45676665 	strbmi	r6, [r7, #-1637]!	; 0xfffff99b
    2984:	30004746 	andcc	r4, r0, r6, asr #14
    2988:	34333231 	ldrtcc	r3, [r3], #-561	; 0xfffffdcf
    298c:	38373635 	ldmdacc	r7!, {r0, r2, r4, r5, r9, sl, ip, sp}
    2990:	43424139 	movtmi	r4, #8505	; 0x2139
    2994:	00464544 	subeq	r4, r6, r4, asr #10
    2998:	33323130 	teqcc	r2, #48, 2
    299c:	37363534 			; <UNDEFINED> instruction: 0x37363534
    29a0:	62613938 	rsbvs	r3, r1, #56, 18	; 0xe0000
    29a4:	66656463 	strbtvs	r6, [r5], -r3, ror #8
    29a8:	00000000 	andeq	r0, r0, r0

000029ac <__EH_FRAME_BEGIN__>:
    29ac:	00000000 	andeq	r0, r0, r0

Disassembly of section .ARM.exidx:

000029b0 <__exidx_end-0x8>:
    29b0:	7fffdab8 	svcvc	0x00ffdab8
    29b4:	00000001 	andeq	r0, r0, r1

Disassembly of section .data:

1fff0198 <SystemCoreClock>:
1fff0198:	07270e00 	streq	r0, [r7, -r0, lsl #28]!

1fff019c <_impure_ptr>:
1fff019c:	1fff01a0 	svcne	0x00ff01a0

1fff01a0 <impure_data>:
	...
1fff01c0:	00002974 	andeq	r2, r0, r4, ror r9
	...

1fff0200 <__frame_dummy_init_array_entry>:
1fff0200:	00000435 	andeq	r0, r0, r5, lsr r4

1fff0204 <__do_global_dtors_aux_fini_array_entry>:
1fff0204:	00000411 	andeq	r0, r0, r1, lsl r4

Disassembly of section .bss:

1fff0208 <__bss_start__>:
1fff0208:	00000000 	andeq	r0, r0, r0

1fff020c <object.8512>:
	...

1fff0224 <PWMTick>:
1fff0224:	00000000 	andeq	r0, r0, r0

1fff0228 <chan2Freq>:
1fff0228:	00000000 	andeq	r0, r0, r0

1fff022c <chan2Mod>:
1fff022c:	00000000 	andeq	r0, r0, r0

1fff0230 <__malloc_free_list>:
1fff0230:	00000000 	andeq	r0, r0, r0

1fff0234 <__malloc_sbrk_start>:
1fff0234:	00000000 	andeq	r0, r0, r0

1fff0238 <_global_atexit0>:
	...

1fff02c4 <_global_atexit>:
1fff02c4:	00000000 	andeq	r0, r0, r0

1fff02c8 <heap_end.4092>:
1fff02c8:	00000000 	andeq	r0, r0, r0

1fff02cc <PITData>:
	...

1fff02d4 <uart0Data>:
1fff02d4:	00000000 	andeq	r0, r0, r0

1fff02d8 <nernstVoltage>:
1fff02d8:	00000000 	andeq	r0, r0, r0

1fff02dc <pumpCurrentPID>:
	...

1fff0304 <nernstR>:
1fff0304:	00000000 	andeq	r0, r0, r0

1fff0308 <pumpCurrentDesired>:
1fff0308:	00000000 	andeq	r0, r0, r0

1fff030c <heaterPID>:
	...

1fff0334 <pumpCurrentDutyCycle>:
1fff0334:	00000000 	andeq	r0, r0, r0

1fff0338 <pumpCurrentMeasured>:
1fff0338:	00000000 	andeq	r0, r0, r0

1fff033c <nernstVoltagePID>:
	...

1fff0364 <heaterDutyCycle>:
1fff0364:	00000000 	andeq	r0, r0, r0

1fff0368 <ADC1ResultIndex>:
1fff0368:	00000000 	andeq	r0, r0, r0

1fff036c <ADC1Results>:
	...

1fff0374 <errno>:
1fff0374:	00000000 	andeq	r0, r0, r0

Disassembly of section .heap:

1fff0378 <__HeapBase>:
	...

Disassembly of section .stack_dummy:

1fff0378 <.stack_dummy>:
	...

Disassembly of section .ARM.attributes:

00000000 <.ARM.attributes>:
   0:	00002941 	andeq	r2, r0, r1, asr #18
   4:	61656100 	cmnvs	r5, r0, lsl #2
   8:	01006962 	tsteq	r0, r2, ror #18
   c:	0000001f 	andeq	r0, r0, pc, lsl r0
  10:	2d453705 	stclcs	7, cr3, [r5, #-20]	; 0xffffffec
  14:	0d06004d 	stceq	0, cr0, [r6, #-308]	; 0xfffffecc
  18:	02094d07 	andeq	r4, r9, #448	; 0x1c0
  1c:	01140412 	tsteq	r4, r2, lsl r4
  20:	03170115 	tsteq	r7, #1073741829	; 0x40000005
  24:	011a0118 	tsteq	sl, r8, lsl r1
  28:	Address 0x0000000000000028 is out of bounds.


Disassembly of section .comment:

00000000 <.comment>:
   0:	3a434347 	bcc	10d0d24 <__exidx_end+0x10ce36c>
   4:	72412820 	subvc	r2, r1, #32, 16	; 0x200000
   8:	52206863 	eorpl	r6, r0, #6488064	; 0x630000
   c:	736f7065 	cmnvc	pc, #101	; 0x65
  10:	726f7469 	rsbvc	r7, pc, #1761607680	; 0x69000000
  14:	35202979 	strcc	r2, [r0, #-2425]!	; 0xfffff687
  18:	302e322e 	eorcc	r3, lr, lr, lsr #4
  1c:	43434700 	movtmi	r4, #14080	; 0x3700
  20:	4128203a 			; <UNDEFINED> instruction: 0x4128203a
  24:	20686372 	rsbcs	r6, r8, r2, ror r3
  28:	6f706552 	svcvs	0x00706552
  2c:	6f746973 	svcvs	0x00746973
  30:	20297972 	eorcs	r7, r9, r2, ror r9
  34:	2e312e36 	mrccs	14, 1, r2, cr1, cr6, {1}
  38:	30322031 	eorscc	r2, r2, r1, lsr r0
  3c:	38303631 	ldmdacc	r0!, {r0, r4, r5, r9, sl, ip, sp}
  40:	Address 0x0000000000000040 is out of bounds.


Disassembly of section .debug_info:

00000000 <.debug_info>:
       0:	000005a9 	andeq	r0, r0, r9, lsr #11
       4:	00000004 	andeq	r0, r0, r4
       8:	01040000 	mrseq	r0, (UNDEF: 4)
       c:	000000bc 	strheq	r0, [r0], -ip
      10:	00001a0c 	andeq	r1, r0, ip, lsl #20
      14:	00026d00 	andeq	r6, r2, r0, lsl #26
	...
      24:	06010200 	streq	r0, [r1], -r0, lsl #4
      28:	000001ff 	strdeq	r0, [r0], -pc	; <UNPREDICTABLE>
      2c:	00037003 	andeq	r7, r3, r3
      30:	371d0200 	ldrcc	r0, [sp, -r0, lsl #4]
      34:	02000000 	andeq	r0, r0, #0
      38:	01fd0801 	mvnseq	r0, r1, lsl #16
      3c:	02020000 	andeq	r0, r2, #0
      40:	0000a605 	andeq	sl, r0, r5, lsl #12
      44:	00960300 	addseq	r0, r6, r0, lsl #6
      48:	2b020000 	blcs	80050 <__exidx_end+0x7d698>
      4c:	00000050 	andeq	r0, r0, r0, asr r0
      50:	52070202 	andpl	r0, r7, #536870912	; 0x20000000
      54:	03000002 	movweq	r0, #2
      58:	00000325 	andeq	r0, r0, r5, lsr #6
      5c:	00623f02 	rsbeq	r3, r2, r2, lsl #30
      60:	04020000 	streq	r0, [r2], #-0
      64:	00019705 	andeq	r9, r1, r5, lsl #14
      68:	007a0300 	rsbseq	r0, sl, r0, lsl #6
      6c:	41020000 	mrsmi	r0, (UNDEF: 2)
      70:	00000074 	andeq	r0, r0, r4, ror r0
      74:	15070402 	strne	r0, [r7, #-1026]	; 0xfffffbfe
      78:	02000002 	andeq	r0, r0, #2
      7c:	01920508 	orrseq	r0, r2, r8, lsl #10
      80:	08020000 	stmdaeq	r2, {}	; <UNPREDICTABLE>
      84:	00021007 	andeq	r1, r2, r7
      88:	05040400 	streq	r0, [r4, #-1024]	; 0xfffffc00
      8c:	00746e69 	rsbseq	r6, r4, r9, ror #28
      90:	1a070402 	bne	1c10a0 <__exidx_end+0x1be6e8>
      94:	03000002 	movweq	r0, #2
      98:	00000372 	andeq	r0, r0, r2, ror r3
      9c:	002c1403 	eoreq	r1, ip, r3, lsl #8
      a0:	98030000 	stmdals	r3, {}	; <UNPREDICTABLE>
      a4:	03000000 	movweq	r0, #0
      a8:	0000451a 	andeq	r4, r0, sl, lsl r5
      ac:	03270300 			; <UNDEFINED> instruction: 0x03270300
      b0:	1f030000 	svcne	0x00030000
      b4:	00000057 	andeq	r0, r0, r7, asr r0
      b8:	00007c03 	andeq	r7, r0, r3, lsl #24
      bc:	69200300 	stmdbvs	r0!, {r8, r9}
      c0:	02000000 	andeq	r0, r0, #0
      c4:	00550704 	subseq	r0, r5, r4, lsl #14
      c8:	b8050000 	stmdalt	r5, {}	; <UNPREDICTABLE>
      cc:	06000000 	streq	r0, [r0], -r0
      d0:	000000ca 	andeq	r0, r0, sl, asr #1
      d4:	00009705 	andeq	r9, r0, r5, lsl #14
      d8:	00a20500 	adceq	r0, r2, r0, lsl #10
      dc:	97070000 	strls	r0, [r7, -r0]
      e0:	ee000000 	cdp	0, 0, cr0, cr0, cr0, {0}
      e4:	08000000 	stmdaeq	r0, {}	; <UNPREDICTABLE>
      e8:	000000c3 	andeq	r0, r0, r3, asr #1
      ec:	97070003 	strls	r0, [r7, -r3]
      f0:	fe000000 	cdp2	0, 0, cr0, cr0, cr0, {0}
      f4:	08000000 	stmdaeq	r0, {}	; <UNPREDICTABLE>
      f8:	000000c3 	andeq	r0, r0, r3, asr #1
      fc:	9707001b 	smladls	r7, fp, r0, r0
     100:	0e000000 	cdpeq	0, 0, cr0, cr0, cr0, {0}
     104:	08000001 	stmdaeq	r0, {r0}
     108:	000000c3 	andeq	r0, r0, r3, asr #1
     10c:	97070007 	strls	r0, [r7, -r7]
     110:	1e000000 	cdpne	0, 0, cr0, cr0, cr0, {0}
     114:	08000001 	stmdaeq	r0, {r0}
     118:	000000c3 	andeq	r0, r0, r3, asr #1
     11c:	d4060017 	strle	r0, [r6], #-23	; 0xffffffe9
     120:	09000000 	stmdbeq	r0, {}	; <UNPREDICTABLE>
     124:	1ef6040f 	cdpne	4, 15, cr0, cr6, cr15, {0}
     128:	000001e4 	andeq	r0, r0, r4, ror #3
     12c:	0031430a 	eorseq	r4, r1, sl, lsl #6
     130:	d41ef704 	ldrle	pc, [lr], #-1796	; 0xfffff8fc
     134:	00000000 	andeq	r0, r0, r0
     138:	0032430a 	eorseq	r4, r2, sl, lsl #6
     13c:	d41ef804 	ldrle	pc, [lr], #-2052	; 0xfffff7fc
     140:	01000000 	mrseq	r0, (UNDEF: 0)
     144:	0033430a 	eorseq	r4, r3, sl, lsl #6
     148:	d41ef904 	ldrle	pc, [lr], #-2308	; 0xfffff6fc
     14c:	02000000 	andeq	r0, r0, #0
     150:	0034430a 	eorseq	r4, r4, sl, lsl #6
     154:	d41efa04 	ldrle	pc, [lr], #-2564	; 0xfffff5fc
     158:	03000000 	movweq	r0, #0
     15c:	0035430a 	eorseq	r4, r5, sl, lsl #6
     160:	d41efb04 	ldrle	pc, [lr], #-2820	; 0xfffff4fc
     164:	04000000 	streq	r0, [r0], #-0
     168:	0036430a 	eorseq	r4, r6, sl, lsl #6
     16c:	d41efc04 	ldrle	pc, [lr], #-3076	; 0xfffff3fc
     170:	05000000 	streq	r0, [r0, #-0]
     174:	0400530a 	streq	r5, [r0], #-778	; 0xfffffcf6
     178:	00d41efd 	ldrsheq	r1, [r4], #237	; 0xed
     17c:	0b060000 	bleq	180184 <__exidx_end+0x17d7cc>
     180:	000002f9 	strdeq	r0, [r0], -r9
     184:	e41efe04 	ldr	pc, [lr], #-3588	; 0xfffff1fc
     188:	07000001 	streq	r0, [r0, -r1]
     18c:	0043530a 	subeq	r5, r3, sl, lsl #6
     190:	d41eff04 	ldrle	pc, [lr], #-3844	; 0xfffff0fc
     194:	08000000 	stmdaeq	r0, {}	; <UNPREDICTABLE>
     198:	0003040b 	andeq	r0, r3, fp, lsl #8
     19c:	1f000400 	svcne	0x00000400
     1a0:	000001e4 	andeq	r0, r0, r4, ror #3
     1a4:	004f0b09 	subeq	r0, pc, r9, lsl #22
     1a8:	01040000 	mrseq	r0, (UNDEF: 4)
     1ac:	0000d41f 	andeq	sp, r0, pc, lsl r4
     1b0:	2f0b0a00 	svccs	0x000b0a00
     1b4:	04000003 	streq	r0, [r0], #-3
     1b8:	00d41f02 	sbcseq	r1, r4, r2, lsl #30
     1bc:	0a0b0000 	beq	2c01c4 <__exidx_end+0x2bd80c>
     1c0:	04003743 	streq	r3, [r0], #-1859	; 0xfffff8bd
     1c4:	00d41f03 	sbcseq	r1, r4, r3, lsl #30
     1c8:	0a0c0000 	beq	3001d0 <__exidx_end+0x2fd818>
     1cc:	04003843 	streq	r3, [r0], #-2115	; 0xfffff7bd
     1d0:	00d41f04 	sbcseq	r1, r4, r4, lsl #30
     1d4:	0a0d0000 	beq	3401dc <__exidx_end+0x33d824>
     1d8:	04003943 	streq	r3, [r0], #-2371	; 0xfffff6bd
     1dc:	011e1f05 	tsteq	lr, r5, lsl #30
     1e0:	000e0000 	andeq	r0, lr, r0
     1e4:	00009707 	andeq	r9, r0, r7, lsl #14
     1e8:	0001f400 	andeq	pc, r1, r0, lsl #8
     1ec:	00c30800 	sbceq	r0, r3, r0, lsl #16
     1f0:	00000000 	andeq	r0, r0, r0
     1f4:	0002b00c 	andeq	fp, r2, ip
     1f8:	1f060400 	svcne	0x00060400
     1fc:	00000123 	andeq	r0, r0, r3, lsr #2
     200:	88040109 	stmdahi	r4, {r0, r3, r8}
     204:	00021622 	andeq	r1, r2, r2, lsr #12
     208:	52430a00 	subpl	r0, r3, #0, 20
     20c:	22890400 	addcs	r0, r9, #0, 8
     210:	000000d4 	ldrdeq	r0, [r0], -r4
     214:	d50c0000 	strle	r0, [ip, #-0]
     218:	04000002 	streq	r0, [r0], #-2
     21c:	0200228a 	andeq	r2, r0, #-1610612728	; 0xa0000008
     220:	03090000 	movweq	r0, #36864	; 0x9000
     224:	53244504 			; <UNDEFINED> instruction: 0x53244504
     228:	0b000002 	bleq	238 <Heap_Size+0x138>
     22c:	00000234 	andeq	r0, r0, r4, lsr r2
     230:	d4244604 	strtle	r4, [r4], #-1540	; 0xfffff9fc
     234:	00000000 	andeq	r0, r0, r0
     238:	00023b0b 	andeq	r3, r2, fp, lsl #22
     23c:	24470400 	strbcs	r0, [r7], #-1024	; 0xfffffc00
     240:	000000d4 	ldrdeq	r0, [r0], -r4
     244:	00740b01 	rsbseq	r0, r4, r1, lsl #22
     248:	48040000 	stmdami	r4, {}	; <UNPREDICTABLE>
     24c:	0000d424 	andeq	sp, r0, r4, lsr #8
     250:	0c000200 	sfmeq	f0, 4, [r0], {-0}
     254:	00000346 	andeq	r0, r0, r6, asr #6
     258:	22244904 	eorcs	r4, r4, #4, 18	; 0x10000
     25c:	09000002 	stmdbeq	r0, {r1}
     260:	24ba04cc 	ldrtcs	r0, [sl], #1228	; 0x4cc
     264:	000002de 	ldrdeq	r0, [r0], -lr
     268:	5243500a 	subpl	r5, r3, #10
     26c:	24bb0400 	ldrtcs	r0, [fp], #1024	; 0x400
     270:	000002ee 	andeq	r0, r0, lr, ror #5
     274:	02270b00 	eoreq	r0, r7, #0, 22
     278:	bc040000 	stclt	0, cr0, [r4], {-0}
     27c:	0000ca24 	andeq	ip, r0, r4, lsr #20
     280:	e10b8000 	mrs	r8, (UNDEF: 11)
     284:	04000001 	streq	r0, [r0], #-1
     288:	00ca24bd 	strheq	r2, [sl], #77	; 0x4d
     28c:	0b840000 	bleq	fe100294 <__stack+0xde0d0294>
     290:	000002f9 	strdeq	r0, [r0], -r9
     294:	0e24be04 	cdpeq	14, 2, cr11, cr4, cr4, {0}
     298:	88000001 	stmdahi	r0, {r0}
     29c:	00020b0b 	andeq	r0, r2, fp, lsl #22
     2a0:	24bf0400 	ldrtcs	r0, [pc], #1024	; 2a8 <Heap_Size+0x1a8>
     2a4:	000000ca 	andeq	r0, r0, sl, asr #1
     2a8:	03040ba0 	movweq	r0, #19360	; 0x4ba0
     2ac:	c0040000 	andgt	r0, r4, r0
     2b0:	0000ee24 	andeq	lr, r0, r4, lsr #28
     2b4:	610ba400 	tstvs	fp, r0, lsl #8
     2b8:	04000003 	streq	r0, [r0], #-3
     2bc:	00ca24c1 	sbceq	r2, sl, r1, asr #9
     2c0:	0bc00000 	bleq	ff0002c8 <__stack+0xdefd02c8>
     2c4:	00000242 	andeq	r0, r0, r2, asr #4
     2c8:	ca24c204 	bgt	930ae0 <__exidx_end+0x92e128>
     2cc:	c4000000 	strgt	r0, [r0], #-0
     2d0:	0002ee0b 	andeq	lr, r2, fp, lsl #28
     2d4:	24c30400 	strbcs	r0, [r3], #1024	; 0x400
     2d8:	000000ca 	andeq	r0, r0, sl, asr #1
     2dc:	b80700c8 	stmdalt	r7, {r3, r6, r7}
     2e0:	ee000000 	cdp	0, 0, cr0, cr0, cr0, {0}
     2e4:	08000002 	stmdaeq	r0, {r1}
     2e8:	000000c3 	andeq	r0, r0, r3, asr #1
     2ec:	de05001f 	mcrle	0, 0, r0, cr5, cr15, {0}
     2f0:	0c000002 	stceq	0, cr0, [r0], {2}
     2f4:	00000366 	andeq	r0, r0, r6, ror #6
     2f8:	5f24c404 	svcpl	0x0024c404
     2fc:	0d000002 	stceq	0, cr0, [r0, #-8]
     300:	ce041064 	cdpgt	0, 0, cr1, cr4, cr4, {3}
     304:	0004732a 	andeq	r7, r4, sl, lsr #6
     308:	02b90b00 	adcseq	r0, r9, #0, 22
     30c:	cf040000 	svcgt	0x00040000
     310:	0000ca2a 	andeq	ip, r0, sl, lsr #20
     314:	460b0000 	strmi	r0, [fp], -r0
     318:	04000000 	streq	r0, [r0], #-0
     31c:	00ca2ad0 	ldrdeq	r2, [sl], #160	; 0xa0
     320:	0b040000 	bleq	100328 <__exidx_end+0xfd970>
     324:	000002f9 	strdeq	r0, [r0], -r9
     328:	732ad104 			; <UNDEFINED> instruction: 0x732ad104
     32c:	08000004 	stmdaeq	r0, {r2}
     330:	0002cf0e 	andeq	ip, r2, lr, lsl #30
     334:	2ad20400 	bcs	ff48133c <__stack+0xdf45133c>
     338:	000000ca 	andeq	r0, r0, sl, asr #1
     33c:	040e1004 	streq	r1, [lr], #-4
     340:	04000003 	streq	r0, [r0], #-3
     344:	00de2ad3 	ldrsbeq	r2, [lr], #163	; 0xa3
     348:	10080000 	andne	r0, r8, r0
     34c:	00037a0e 	andeq	r7, r3, lr, lsl #20
     350:	2ad40400 	bcs	ff501358 <__stack+0xdf4d1358>
     354:	000000ca 	andeq	r0, r0, sl, asr #1
     358:	000e100c 	andeq	r1, lr, ip
     35c:	04000000 	streq	r0, [r0], #-0
     360:	00ca2ad5 	ldrdeq	r2, [sl], #165	; 0xa5
     364:	10100000 	andsne	r0, r0, r0
     368:	00030f0e 	andeq	r0, r3, lr, lsl #30
     36c:	2ad60400 	bcs	ff581374 <__stack+0xdf551374>
     370:	000000de 	ldrdeq	r0, [r0], -lr
     374:	e70e1014 	smlad	lr, r4, r0, r1
     378:	04000001 	streq	r0, [r0], #-1
     37c:	00ca2ad7 	ldrdeq	r2, [sl], #167	; 0xa7
     380:	10180000 	andsne	r0, r8, r0
     384:	00031a0e 	andeq	r1, r3, lr, lsl #20
     388:	2ad80400 	bcs	ff601390 <__stack+0xdf5d1390>
     38c:	000000fe 	strdeq	r0, [r0], -lr
     390:	410e101c 	tstmi	lr, ip, lsl r0
     394:	04000000 	streq	r0, [r0], #-0
     398:	00cf2ad9 	ldrdeq	r2, [pc], #169	; <UNPREDICTABLE>
     39c:	10240000 	eorne	r0, r4, r0
     3a0:	0001a70e 	andeq	sl, r1, lr, lsl #14
     3a4:	2ada0400 	bcs	ff6813ac <__stack+0xdf6513ac>
     3a8:	000000ca 	andeq	r0, r0, sl, asr #1
     3ac:	ad0e1028 	stcge	0, cr1, [lr, #-160]	; 0xffffff60
     3b0:	04000001 	streq	r0, [r0], #-1
     3b4:	00ca2adb 	ldrdeq	r2, [sl], #171	; 0xab
     3b8:	102c0000 	eorne	r0, ip, r0
     3bc:	0001b30e 	andeq	fp, r1, lr, lsl #6
     3c0:	2adc0400 	bcs	ff7013c8 <__stack+0xdf6d13c8>
     3c4:	000000ca 	andeq	r0, r0, sl, asr #1
     3c8:	b90e1030 	stmdblt	lr, {r4, r5, ip}
     3cc:	04000001 	streq	r0, [r0], #-1
     3d0:	00ca2add 	ldrdeq	r2, [sl], #173	; 0xad
     3d4:	10340000 	eorsne	r0, r4, r0
     3d8:	0001bf0e 	andeq	fp, r1, lr, lsl #30
     3dc:	2ade0400 	bcs	ff7813e4 <__stack+0xdf7513e4>
     3e0:	000000ca 	andeq	r0, r0, sl, asr #1
     3e4:	c50e1038 	strgt	r1, [lr, #-56]	; 0xffffffc8
     3e8:	04000001 	streq	r0, [r0], #-1
     3ec:	00ca2adf 	ldrdeq	r2, [sl], #175	; 0xaf
     3f0:	103c0000 	eorsne	r0, ip, r0
     3f4:	0001cb0e 	andeq	ip, r1, lr, lsl #22
     3f8:	2ae00400 	bcs	ff801400 <__stack+0xdf7d1400>
     3fc:	000000ca 	andeq	r0, r0, sl, asr #1
     400:	ed0e1040 	stc	0, cr1, [lr, #-256]	; 0xffffff00
     404:	04000001 	streq	r0, [r0], #-1
     408:	00ca2ae1 	sbceq	r2, sl, r1, ror #21
     40c:	10440000 	subne	r0, r4, r0
     410:	0001f50e 	andeq	pc, r1, lr, lsl #10
     414:	2ae20400 	bcs	ff88141c <__stack+0xdf85141c>
     418:	000000ca 	andeq	r0, r0, sl, asr #1
     41c:	060e1048 	streq	r1, [lr], -r8, asr #32
     420:	04000000 	streq	r0, [r0], #-0
     424:	00ca2ae3 	sbceq	r2, sl, r3, ror #21
     428:	104c0000 	subne	r0, ip, r0
     42c:	00000c0e 	andeq	r0, r0, lr, lsl #24
     430:	2ae40400 	bcs	ff901438 <__stack+0xdf8d1438>
     434:	000000cf 	andeq	r0, r0, pc, asr #1
     438:	a10e1050 	qaddge	r1, r0, lr
     43c:	04000000 	streq	r0, [r0], #-0
     440:	00cf2ae5 	sbceq	r2, pc, r5, ror #21
     444:	10540000 	subsne	r0, r4, r0
     448:	0001d10e 	andeq	sp, r1, lr, lsl #2
     44c:	2ae60400 	bcs	ff981454 <__stack+0xdf951454>
     450:	000000cf 	andeq	r0, r0, pc, asr #1
     454:	f30e1058 	vqadd.u8	<illegal reg q0.5>, q7, q4
     458:	04000002 	streq	r0, [r0], #-2
     45c:	00cf2ae7 	sbceq	r2, pc, r7, ror #21
     460:	105c0000 	subsne	r0, ip, r0
     464:	0000b00e 	andeq	fp, r0, lr
     468:	2ae80400 	bcs	ffa01470 <__stack+0xdf9d1470>
     46c:	000000cf 	andeq	r0, r0, pc, asr #1
     470:	07001060 	streq	r1, [r0, -r0, rrx]
     474:	00000097 	muleq	r0, r7, r0
     478:	00000484 	andeq	r0, r0, r4, lsl #9
     47c:	0000c30f 	andeq	ip, r0, pc, lsl #6
     480:	000ffb00 	andeq	pc, pc, r0, lsl #22
     484:	00008d0c 	andeq	r8, r0, ip, lsl #26
     488:	2ae90400 	bcs	ffa41490 <__stack+0xdfa11490>
     48c:	000002ff 	strdeq	r0, [r0], -pc	; <UNPREDICTABLE>
     490:	8d041809 	stchi	8, cr1, [r4, #-36]	; 0xffffffdc
     494:	00053633 	andeq	r3, r5, r3, lsr r6
     498:	018a0b00 	orreq	r0, sl, r0, lsl #22
     49c:	8e040000 	cdphi	0, 0, cr0, cr4, cr0, {0}
     4a0:	0000d933 	andeq	sp, r0, r3, lsr r9
     4a4:	e60b0000 	str	r0, [fp], -r0
     4a8:	04000002 	streq	r0, [r0], #-2
     4ac:	00d9338f 	sbcseq	r3, r9, pc, lsl #7
     4b0:	0b020000 	bleq	804b8 <__exidx_end+0x7db00>
     4b4:	000000b5 	strheq	r0, [r0], -r5
     4b8:	d9339004 	ldmdble	r3!, {r2, ip, pc}
     4bc:	04000000 	streq	r0, [r0], #-0
     4c0:	0001830b 	andeq	r8, r1, fp, lsl #6
     4c4:	33910400 	orrscc	r0, r1, #0, 8
     4c8:	000000d9 	ldrdeq	r0, [r0], -r9
     4cc:	03410b06 	movteq	r0, #6918	; 0x1b06
     4d0:	92040000 	andls	r0, r4, #0
     4d4:	0000d933 	andeq	sp, r0, r3, lsr r9
     4d8:	4f0b0800 	svcmi	0x000b0800
     4dc:	04000003 	streq	r0, [r0], #-3
     4e0:	00d93393 	smullseq	r3, r9, r3, r3
     4e4:	0b0a0000 	bleq	2804ec <__exidx_end+0x27db34>
     4e8:	000002de 	ldrdeq	r0, [r0], -lr
     4ec:	d9339404 	ldmdble	r3!, {r2, sl, ip, pc}
     4f0:	0c000000 	stceq	0, cr0, [r0], {-0}
     4f4:	0001a00b 	andeq	sl, r1, fp
     4f8:	33950400 	orrscc	r0, r5, #0, 8
     4fc:	000000d9 	ldrdeq	r0, [r0], -r9
     500:	00850b0e 	addeq	r0, r5, lr, lsl #22
     504:	96040000 	strls	r0, [r4], -r0
     508:	0000d933 	andeq	sp, r0, r3, lsr r9
     50c:	120b1000 	andne	r1, fp, #0
     510:	04000000 	streq	r0, [r0], #-0
     514:	00d93397 	smullseq	r3, r9, r7, r3
     518:	0b120000 	bleq	480520 <__exidx_end+0x47db68>
     51c:	0000022d 	andeq	r0, r0, sp, lsr #4
     520:	d9339804 	ldmdble	r3!, {r2, fp, ip, pc}
     524:	14000000 	strne	r0, [r0], #-0
     528:	00003b0b 	andeq	r3, r0, fp, lsl #22
     52c:	33990400 	orrscc	r0, r9, #0, 8
     530:	000000d9 	ldrdeq	r0, [r0], -r9
     534:	d70c0016 	smladle	ip, r6, r0, r0
     538:	04000001 	streq	r0, [r0], #-1
     53c:	0490339a 	ldreq	r3, [r0], #922	; 0x39a
     540:	47100000 	ldrmi	r0, [r0, -r0]
     544:	01000002 	tsteq	r0, r2
     548:	0004d081 	andeq	sp, r4, r1, lsl #1
     54c:	0000e800 	andeq	lr, r0, r0, lsl #16
     550:	119c0100 	orrsne	r0, ip, r0, lsl #2
     554:	0000005e 	andeq	r0, r0, lr, asr r0
     558:	00015801 	andeq	r5, r1, r1, lsl #16
     55c:	28000000 	stmdacs	r0, {}	; <UNPREDICTABLE>
     560:	01000001 	tsteq	r0, r1
     564:	00058a9c 	muleq	r5, ip, sl
     568:	03351200 	teqeq	r5, #0, 4
     56c:	59010000 	stmdbpl	r1, {}	; <UNPREDICTABLE>
     570:	0000b801 	andeq	fp, r0, r1, lsl #16
     574:	00000000 	andeq	r0, r0, r0
     578:	02651200 	rsbeq	r1, r5, #0, 4
     57c:	5a010000 	bpl	40584 <__exidx_end+0x3dbcc>
     580:	00009701 	andeq	r9, r0, r1, lsl #14
     584:	00005500 	andeq	r5, r0, r0, lsl #10
     588:	54130000 	ldrpl	r0, [r3], #-0
     58c:	05000003 	streq	r0, [r0, #-3]
     590:	059606a7 	ldreq	r0, [r6, #1703]	; 0x6a7
     594:	ad050000 	stcge	0, cr0, [r5, #-0]
     598:	14000000 	strne	r0, [r0], #-0
     59c:	000002bf 			; <UNDEFINED> instruction: 0x000002bf
     5a0:	00b87b01 	adcseq	r7, r8, r1, lsl #22
     5a4:	03050000 	movweq	r0, #20480	; 0x5000
     5a8:	1fff0198 	svcne	0x00ff0198
     5ac:	00023b00 	andeq	r3, r2, r0, lsl #22
     5b0:	17000400 	strne	r0, [r0, -r0, lsl #8]
     5b4:	04000001 	streq	r0, [r0], #-1
     5b8:	0000bc01 	andeq	fp, r0, r1, lsl #24
     5bc:	04150c00 	ldreq	r0, [r5], #-3072	; 0xfffff400
     5c0:	026d0000 	rsbeq	r0, sp, #0
     5c4:	00180000 	andseq	r0, r8, r0
     5c8:	00000000 	andeq	r0, r0, r0
     5cc:	014b0000 	mrseq	r0, (UNDEF: 75)
     5d0:	04020000 	streq	r0, [r2], #-0
     5d4:	00041b04 	andeq	r1, r4, r4, lsl #22
     5d8:	03cc0300 	biceq	r0, ip, #0, 6
     5dc:	02280000 	eoreq	r0, r8, #0
     5e0:	0000ae1e 	andeq	sl, r0, lr, lsl lr
     5e4:	706b0400 	rsbvc	r0, fp, r0, lsl #8
     5e8:	251f0200 	ldrcs	r0, [pc, #-512]	; 3f0 <Heap_Size+0x2f0>
     5ec:	00000000 	andeq	r0, r0, r0
     5f0:	00646b04 	rsbeq	r6, r4, r4, lsl #22
     5f4:	00252002 	eoreq	r2, r5, r2
     5f8:	04040000 	streq	r0, [r4], #-0
     5fc:	0200696b 	andeq	r6, r0, #1753088	; 0x1ac000
     600:	00002521 	andeq	r2, r0, r1, lsr #10
     604:	00050800 	andeq	r0, r5, r0, lsl #16
     608:	02000004 	andeq	r0, r0, #4
     60c:	00002522 	andeq	r2, r0, r2, lsr #10
     610:	da050c00 	ble	143618 <__exidx_end+0x140c60>
     614:	02000003 	andeq	r0, r0, #3
     618:	00002523 	andeq	r2, r0, r3, lsr #10
     61c:	90051000 	andls	r1, r5, r0
     620:	02000003 	andeq	r0, r0, #3
     624:	00002524 	andeq	r2, r0, r4, lsr #10
     628:	b3051400 	movwlt	r1, #21504	; 0x5400
     62c:	02000003 	andeq	r0, r0, #3
     630:	00002525 	andeq	r2, r0, r5, lsr #10
     634:	05051800 	streq	r1, [r5, #-2048]	; 0xfffff800
     638:	02000004 	andeq	r0, r0, #4
     63c:	00002526 	andeq	r2, r0, r6, lsr #10
     640:	e4051c00 	str	r1, [r5], #-3072	; 0xfffff400
     644:	02000003 	andeq	r0, r0, #3
     648:	00002527 	andeq	r2, r0, r7, lsr #10
     64c:	f7052000 			; <UNDEFINED> instruction: 0xf7052000
     650:	02000003 	andeq	r0, r0, #3
     654:	0000ae28 	andeq	sl, r0, r8, lsr #28
     658:	06002400 	streq	r2, [r0], -r0, lsl #8
     65c:	00000025 	andeq	r0, r0, r5, lsr #32
     660:	000000be 	strheq	r0, [r0], -lr
     664:	0000be07 	andeq	fp, r0, r7, lsl #28
     668:	02000000 	andeq	r0, r0, #0
     66c:	00550704 	subseq	r0, r5, r4, lsl #14
     670:	be080000 	cdplt	0, 0, cr0, cr8, cr0, {0}
     674:	01000003 	tsteq	r0, r3
     678:	00017a15 	andeq	r7, r1, r5, lsl sl
     67c:	0005b800 	andeq	fp, r5, r0, lsl #16
     680:	00007400 	andeq	r7, r0, r0, lsl #8
     684:	7a9c0100 	bvc	fe700a8c <__stack+0xde6d0a8c>
     688:	09000001 	stmdbeq	r0, {r0}
     68c:	00000399 	muleq	r0, r9, r3
     690:	01811501 	orreq	r1, r1, r1, lsl #10
     694:	007f0000 	rsbseq	r0, pc, r0
     698:	6b0a0000 	blvs	2806a0 <__exidx_end+0x27dce8>
     69c:	15010070 	strne	r0, [r1, #-112]	; 0xffffff90
     6a0:	00000025 	andeq	r0, r0, r5, lsr #32
     6a4:	0000009d 	muleq	r0, sp, r0
     6a8:	00646b0a 	rsbeq	r6, r4, sl, lsl #22
     6ac:	00251501 	eoreq	r1, r5, r1, lsl #10
     6b0:	00c00000 	sbceq	r0, r0, r0
     6b4:	6b0a0000 	blvs	2806bc <__exidx_end+0x27dd04>
     6b8:	16010069 	strne	r0, [r1], -r9, rrx
     6bc:	00000025 	andeq	r0, r0, r5, lsr #32
     6c0:	000000e3 	andeq	r0, r0, r3, ror #1
     6c4:	00040009 	andeq	r0, r4, r9
     6c8:	25160100 	ldrcs	r0, [r6, #-256]	; 0xffffff00
     6cc:	06000000 	streq	r0, [r0], -r0
     6d0:	0b000001 	bleq	6dc <PIDUpdate+0xb0>
     6d4:	000003da 	ldrdeq	r0, [r0], -sl
     6d8:	00251601 	eoreq	r1, r5, r1, lsl #12
     6dc:	91020000 	mrsls	r0, (UNDEF: 2)
     6e0:	03900b04 	orrseq	r0, r0, #4, 22	; 0x1000
     6e4:	16010000 	strne	r0, [r1], -r0
     6e8:	00000025 	andeq	r0, r0, r5, lsr #32
     6ec:	0b089102 	bleq	224afc <__exidx_end+0x222144>
     6f0:	00000405 	andeq	r0, r0, r5, lsl #8
     6f4:	00251701 	eoreq	r1, r5, r1, lsl #14
     6f8:	91020000 	mrsls	r0, (UNDEF: 2)
     6fc:	03b30b0c 			; <UNDEFINED> instruction: 0x03b30b0c
     700:	17010000 	strne	r0, [r1, -r0]
     704:	00000025 	andeq	r0, r0, r5, lsr #32
     708:	0b109102 	bleq	424b18 <__exidx_end+0x422160>
     70c:	000003e4 	andeq	r0, r0, r4, ror #7
     710:	00251801 	eoreq	r1, r5, r1, lsl #16
     714:	91020000 	mrsls	r0, (UNDEF: 2)
     718:	00690c14 	rsbeq	r0, r9, r4, lsl ip
     71c:	017a1901 	cmneq	sl, r1, lsl #18
     720:	01510000 	cmpeq	r1, r0
     724:	0d000000 	stceq	0, cr0, [r0, #-0]
     728:	6e690504 	cdpvs	5, 6, cr0, cr9, cr4, {0}
     72c:	040e0074 	streq	r0, [lr], #-116	; 0xffffff8c
     730:	00000187 	andeq	r0, r0, r7, lsl #3
     734:	00002c0f 	andeq	r2, r0, pc, lsl #24
     738:	03800800 	orreq	r0, r0, #0, 16
     73c:	6c010000 	stcvs	0, cr0, [r1], {-0}
     740:	00000025 	andeq	r0, r0, r5, lsr #32
     744:	0000062c 	andeq	r0, r0, ip, lsr #12
     748:	000000ce 	andeq	r0, r0, lr, asr #1
     74c:	020a9c01 	andeq	r9, sl, #256	; 0x100
     750:	99090000 	stmdbls	r9, {}	; <UNPREDICTABLE>
     754:	01000003 	tsteq	r0, r3
     758:	0001816c 	andeq	r8, r1, ip, ror #2
     75c:	00017100 	andeq	r7, r1, r0, lsl #2
     760:	038a0900 	orreq	r0, sl, #0, 18
     764:	6c010000 	stcvs	0, cr0, [r1], {-0}
     768:	00000025 	andeq	r0, r0, r5, lsr #32
     76c:	0000018f 	andeq	r0, r0, pc, lsl #3
     770:	00042a10 	andeq	r2, r4, r0, lsl sl
     774:	256d0100 	strbcs	r0, [sp, #-256]!	; 0xffffff00
     778:	d9000000 	stmdble	r0, {}	; <UNPREDICTABLE>
     77c:	11000001 	tstne	r0, r1
     780:	6e010069 	cdpvs	0, 0, cr0, cr1, cr9, {3}
     784:	0000017a 	andeq	r0, r0, sl, ror r1
     788:	03ac1000 			; <UNDEFINED> instruction: 0x03ac1000
     78c:	6f010000 	svcvs	0x00010000
     790:	00000025 	andeq	r0, r0, r5, lsr #32
     794:	000001f7 	strdeq	r0, [r0], -r7
     798:	00040f10 	andeq	r0, r4, r0, lsl pc
     79c:	25700100 	ldrbcs	r0, [r0, #-256]!	; 0xffffff00
     7a0:	78000000 	stmdavc	r0, {}	; <UNPREDICTABLE>
     7a4:	10000002 	andne	r0, r0, r2
     7a8:	00000421 	andeq	r0, r0, r1, lsr #8
     7ac:	00257101 	eoreq	r7, r5, r1, lsl #2
     7b0:	02a40000 	adceq	r0, r4, #0
     7b4:	12000000 	andne	r0, r0, #0
     7b8:	000003a1 	andeq	r0, r0, r1, lsr #7
     7bc:	00259f01 	eoreq	r9, r5, r1, lsl #30
     7c0:	00000000 	andeq	r0, r0, r0
     7c4:	003e0000 	eorseq	r0, lr, r0
     7c8:	9c010000 	stcls	0, cr0, [r1], {-0}
     7cc:	00039909 	andeq	r9, r3, r9, lsl #18
     7d0:	819f0100 	orrshi	r0, pc, r0, lsl #2
     7d4:	d2000001 	andle	r0, r0, #1
     7d8:	09000002 	stmdbeq	r0, {r1}
     7dc:	00000400 	andeq	r0, r0, r0, lsl #8
     7e0:	00259f01 	eoreq	r9, r5, r1, lsl #30
     7e4:	02f00000 	rscseq	r0, r0, #0
     7e8:	00000000 	andeq	r0, r0, r0
     7ec:	00000857 	andeq	r0, r0, r7, asr r8
     7f0:	02200004 	eoreq	r0, r0, #4
     7f4:	01040000 	mrseq	r0, (UNDEF: 4)
     7f8:	000000bc 	strheq	r0, [r0], -ip
     7fc:	0008da0c 	andeq	sp, r8, ip, lsl #20
     800:	00026d00 	andeq	r6, r2, r0, lsl #26
     804:	00003800 	andeq	r3, r0, r0, lsl #16
     808:	00000000 	andeq	r0, r0, r0
     80c:	0001fd00 	andeq	pc, r1, r0, lsl #26
     810:	06010200 	streq	r0, [r1], -r0, lsl #4
     814:	000001ff 	strdeq	r0, [r0], -pc	; <UNPREDICTABLE>
     818:	00037003 	andeq	r7, r3, r3
     81c:	371d0400 	ldrcc	r0, [sp, -r0, lsl #8]
     820:	02000000 	andeq	r0, r0, #0
     824:	01fd0801 	mvnseq	r0, r1, lsl #16
     828:	02020000 	andeq	r0, r2, #0
     82c:	0000a605 	andeq	sl, r0, r5, lsl #12
     830:	07020200 	streq	r0, [r2, -r0, lsl #4]
     834:	00000252 	andeq	r0, r0, r2, asr r2
     838:	00032503 	andeq	r2, r3, r3, lsl #10
     83c:	573f0400 	ldrpl	r0, [pc, -r0, lsl #8]!
     840:	02000000 	andeq	r0, r0, #0
     844:	01970504 	orrseq	r0, r7, r4, lsl #10
     848:	7a030000 	bvc	c0850 <__exidx_end+0xbde98>
     84c:	04000000 	streq	r0, [r0], #-0
     850:	00006941 	andeq	r6, r0, r1, asr #18
     854:	07040200 	streq	r0, [r4, -r0, lsl #4]
     858:	00000215 	andeq	r0, r0, r5, lsl r2
     85c:	92050802 	andls	r0, r5, #131072	; 0x20000
     860:	02000001 	andeq	r0, r0, #1
     864:	02100708 	andseq	r0, r0, #8, 14	; 0x200000
     868:	04040000 	streq	r0, [r4], #-0
     86c:	746e6905 	strbtvc	r6, [lr], #-2309	; 0xfffff6fb
     870:	07040200 	streq	r0, [r4, -r0, lsl #4]
     874:	0000021a 	andeq	r0, r0, sl, lsl r2
     878:	00037203 	andeq	r7, r3, r3, lsl #4
     87c:	2c140500 	cfldr32cs	mvfx0, [r4], {-0}
     880:	03000000 	movweq	r0, #0
     884:	00000327 	andeq	r0, r0, r7, lsr #6
     888:	004c1f05 	subeq	r1, ip, r5, lsl #30
     88c:	7c030000 	stcvc	0, cr0, [r3], {-0}
     890:	05000000 	streq	r0, [r0, #-0]
     894:	00005e20 	andeq	r5, r0, r0, lsr #28
     898:	06b20500 	ldrteq	r0, [r2], r0, lsl #10
     89c:	25010000 	strcs	r0, [r1, #-0]
     8a0:	06000000 	streq	r0, [r0], -r0
     8a4:	0002f879 	andeq	pc, r2, r9, ror r8	; <UNPREDICTABLE>
     8a8:	092b0600 	stmdbeq	fp!, {r9, sl}
     8ac:	06720000 	ldrbteq	r0, [r2], -r0
     8b0:	00000576 	andeq	r0, r0, r6, ror r5
     8b4:	063e0673 			; <UNDEFINED> instruction: 0x063e0673
     8b8:	06740000 	ldrbteq	r0, [r4], -r0
     8bc:	0000058f 	andeq	r0, r0, pc, lsl #11
     8c0:	08ca0675 	stmiaeq	sl, {r0, r2, r4, r5, r6, r9, sl}^
     8c4:	06760000 	ldrbteq	r0, [r6], -r0
     8c8:	00000693 	muleq	r0, r3, r6
     8cc:	09e6067b 	stmibeq	r6!, {r0, r1, r3, r4, r5, r6, r9, sl}^
     8d0:	067c0000 	ldrbteq	r0, [ip], -r0
     8d4:	000008be 			; <UNDEFINED> instruction: 0x000008be
     8d8:	0719067e 			; <UNDEFINED> instruction: 0x0719067e
     8dc:	077f0000 	ldrbeq	r0, [pc, -r0]!
     8e0:	0000079a 	muleq	r0, sl, r7
     8e4:	05af0700 	streq	r0, [pc, #1792]!	; fec <__adddf3+0x200>
     8e8:	07010000 	streq	r0, [r1, -r0]
     8ec:	00000918 	andeq	r0, r0, r8, lsl r9
     8f0:	05240702 	streq	r0, [r4, #-1794]!	; 0xfffff8fe
     8f4:	07030000 	streq	r0, [r3, -r0]
     8f8:	00000616 	andeq	r0, r0, r6, lsl r6
     8fc:	070f0704 	streq	r0, [pc, -r4, lsl #14]
     900:	07050000 	streq	r0, [r5, -r0]
     904:	000009b6 			; <UNDEFINED> instruction: 0x000009b6
     908:	04300706 	ldrteq	r0, [r0], #-1798	; 0xfffff8fa
     90c:	07070000 	streq	r0, [r7, -r0]
     910:	000004d8 	ldrdeq	r0, [r0], -r8
     914:	07ae0708 	streq	r0, [lr, r8, lsl #14]!
     918:	07090000 	streq	r0, [r9, -r0]
     91c:	000006ac 	andeq	r0, r0, ip, lsr #13
     920:	077a070a 	ldrbeq	r0, [sl, -sl, lsl #14]!
     924:	070b0000 	streq	r0, [fp, -r0]
     928:	000009f8 	strdeq	r0, [r0], -r8
     92c:	0471070c 	ldrbteq	r0, [r1], #-1804	; 0xfffff8f4
     930:	070d0000 	streq	r0, [sp, -r0]
     934:	00000504 	andeq	r0, r0, r4, lsl #10
     938:	0820070e 	stmdaeq	r0!, {r1, r2, r3, r8, r9, sl}
     93c:	070f0000 	streq	r0, [pc, -r0]
     940:	0000094c 	andeq	r0, r0, ip, asr #18
     944:	09220710 	stmdbeq	r2!, {r4, r8, r9, sl}
     948:	07110000 	ldreq	r0, [r1, -r0]
     94c:	0000095b 	andeq	r0, r0, fp, asr r9
     950:	06d60712 			; <UNDEFINED> instruction: 0x06d60712
     954:	07130000 	ldreq	r0, [r3, -r0]
     958:	00000732 	andeq	r0, r0, r2, lsr r7
     95c:	09d30714 	ldmibeq	r3, {r2, r4, r8, r9, sl}^
     960:	07150000 	ldreq	r0, [r5, -r0]
     964:	000004b0 			; <UNDEFINED> instruction: 0x000004b0
     968:	05530716 	ldrbeq	r0, [r3, #-1814]	; 0xfffff8ea
     96c:	07170000 	ldreq	r0, [r7, -r0]
     970:	000007dc 	ldrdeq	r0, [r0], -ip
     974:	08840718 	stmeq	r4, {r3, r4, r8, r9, sl}
     978:	07190000 	ldreq	r0, [r9, -r0]
     97c:	000005d4 	ldrdeq	r0, [r0], -r4
     980:	06c1071a 			; <UNDEFINED> instruction: 0x06c1071a
     984:	071b0000 	ldreq	r0, [fp, -r0]
     988:	00000980 	andeq	r0, r0, r0, lsl #19
     98c:	093f071c 	ldmdbeq	pc!, {r2, r3, r4, r8, r9, sl}	; <UNPREDICTABLE>
     990:	071d0000 	ldreq	r0, [sp, -r0]
     994:	000009a7 	andeq	r0, r0, r7, lsr #19
     998:	0a03071e 	beq	c2618 <__exidx_end+0xbfc60>
     99c:	071f0000 	ldreq	r0, [pc, -r0]
     9a0:	000005f8 	strdeq	r0, [r0], -r8
     9a4:	06630720 	strbteq	r0, [r3], -r0, lsr #14
     9a8:	07210000 	streq	r0, [r1, -r0]!
     9ac:	00000607 	andeq	r0, r0, r7, lsl #12
     9b0:	08930722 	ldmeq	r3, {r1, r5, r8, r9, sl}
     9b4:	07230000 	streq	r0, [r3, -r0]!
     9b8:	00000620 	andeq	r0, r0, r0, lsr #12
     9bc:	047c0724 	ldrbteq	r0, [ip], #-1828	; 0xfffff8dc
     9c0:	07250000 	streq	r0, [r5, -r0]!
     9c4:	0000062f 	andeq	r0, r0, pc, lsr #12
     9c8:	07a40726 	streq	r0, [r4, r6, lsr #14]!
     9cc:	07270000 	streq	r0, [r7, -r0]!
     9d0:	00000705 	andeq	r0, r0, r5, lsl #14
     9d4:	07e60728 	strbeq	r0, [r6, r8, lsr #14]!
     9d8:	07290000 	streq	r0, [r9, -r0]!
     9dc:	0000050f 	andeq	r0, r0, pc, lsl #10
     9e0:	09c0072a 	stmibeq	r0, {r1, r3, r5, r8, r9, sl}^
     9e4:	072b0000 	streq	r0, [fp, -r0]!
     9e8:	000008e6 	andeq	r0, r0, r6, ror #17
     9ec:	04fb072c 	ldrbteq	r0, [fp], #1836	; 0x72c
     9f0:	072d0000 	streq	r0, [sp, -r0]!
     9f4:	00000840 	andeq	r0, r0, r0, asr #16
     9f8:	0682072e 	streq	r0, [r2], lr, lsr #14
     9fc:	072f0000 	streq	r0, [pc, -r0]!
     a00:	000005ee 	andeq	r0, r0, lr, ror #11
     a04:	043f0730 	ldrteq	r0, [pc], #-1840	; a0c <updatePIDs+0xe4>
     a08:	07310000 	ldreq	r0, [r1, -r0]!
     a0c:	00000997 	muleq	r0, r7, r9
     a10:	0a140732 	beq	5026e0 <__exidx_end+0x4ffd28>
     a14:	07330000 	ldreq	r0, [r3, -r0]!
     a18:	00000585 	andeq	r0, r0, r5, lsl #11
     a1c:	049b0734 	ldreq	r0, [fp], #1844	; 0x734
     a20:	07350000 	ldreq	r0, [r5, -r0]!
     a24:	00000726 	andeq	r0, r0, r6, lsr #14
     a28:	04610736 	strbteq	r0, [r1], #-1846	; 0xfffff8ca
     a2c:	07370000 	ldreq	r0, [r7, -r0]!
     a30:	000006b7 			; <UNDEFINED> instruction: 0x000006b7
     a34:	082b0738 	stmdaeq	fp!, {r3, r4, r5, r8, r9, sl}
     a38:	07390000 	ldreq	r0, [r9, -r0]!
     a3c:	0000069f 	muleq	r0, pc, r6	; <UNPREDICTABLE>
     a40:	06cb073a 			; <UNDEFINED> instruction: 0x06cb073a
     a44:	073b0000 	ldreq	r0, [fp, -r0]!
     a48:	0000078f 	andeq	r0, r0, pc, lsl #15
     a4c:	083e073c 	ldmdaeq	lr!, {r2, r3, r4, r5, r8, r9, sl}
     a50:	073d0000 	ldreq	r0, [sp, -r0]!
     a54:	000004a5 	andeq	r0, r0, r5, lsr #9
     a58:	0519073e 	ldreq	r0, [r9, #-1854]	; 0xfffff8c2
     a5c:	073f0000 	ldreq	r0, [pc, -r0]!
     a60:	00000453 	andeq	r0, r0, r3, asr r4
     a64:	07850740 	streq	r0, [r5, r0, asr #14]
     a68:	07410000 	strbeq	r0, [r1, -r0]
     a6c:	000006f4 	strdeq	r0, [r0], -r4
     a70:	06540742 	ldrbeq	r0, [r4], -r2, asr #14
     a74:	07430000 	strbeq	r0, [r3, -r0]
     a78:	00000751 	andeq	r0, r0, r1, asr r7
     a7c:	04ec0744 	strbteq	r0, [ip], #1860	; 0x744
     a80:	07450000 	strbeq	r0, [r5, -r0]
     a84:	00000834 	andeq	r0, r0, r4, lsr r8
     a88:	06ea0746 	strbteq	r0, [sl], r6, asr #14
     a8c:	07470000 	strbeq	r0, [r7, -r0]
     a90:	00000449 	andeq	r0, r0, r9, asr #8
     a94:	07bd0748 	ldreq	r0, [sp, r8, asr #14]!
     a98:	07490000 	strbeq	r0, [r9, -r0]
     a9c:	000004e2 	andeq	r0, r0, r2, ror #9
     aa0:	08f0074a 	ldmeq	r0!, {r1, r3, r6, r8, r9, sl}^
     aa4:	074b0000 	strbeq	r0, [fp, -r0]
     aa8:	0000073f 	andeq	r0, r0, pc, lsr r7
     aac:	053e074c 	ldreq	r0, [lr, #-1868]!	; 0xfffff8b4
     ab0:	074d0000 	strbeq	r0, [sp, -r0]
     ab4:	000004be 			; <UNDEFINED> instruction: 0x000004be
     ab8:	096b074e 	stmdbeq	fp!, {r1, r2, r3, r6, r8, r9, sl}^
     abc:	074f0000 	strbeq	r0, [pc, -r0]
     ac0:	000005b9 			; <UNDEFINED> instruction: 0x000005b9
     ac4:	09dc0750 	ldmibeq	ip, {r4, r6, r8, r9, sl}^
     ac8:	07510000 	ldrbeq	r0, [r1, -r0]
     acc:	00000561 	andeq	r0, r0, r1, ror #10
     ad0:	07620752 			; <UNDEFINED> instruction: 0x07620752
     ad4:	07530000 	ldrbeq	r0, [r3, -r0]
     ad8:	0000059d 	muleq	r0, sp, r5
     adc:	052e0754 	streq	r0, [lr, #-1876]!	; 0xfffff8ac
     ae0:	00550000 	subseq	r0, r5, r0
     ae4:	0008ae03 	andeq	sl, r8, r3, lsl #28
     ae8:	addc0600 	ldclge	6, cr0, [ip]
     aec:	08000000 	stmdaeq	r0, {}	; <UNPREDICTABLE>
     af0:	50020e04 	andpl	r0, r2, r4, lsl #28
     af4:	0003bf01 	andeq	fp, r3, r1, lsl #30
     af8:	054e0900 	strbeq	r0, [lr, #-2304]	; 0xfffff700
     afc:	52020000 	andpl	r0, r2, #0
     b00:	0003d601 	andeq	sp, r3, r1, lsl #12
     b04:	f0090000 			; <UNDEFINED> instruction: 0xf0090000
     b08:	02000007 	andeq	r0, r0, #7
     b0c:	03db0153 	bicseq	r0, fp, #-1073741804	; 0xc0000014
     b10:	09200000 	stmdbeq	r0!, {}	; <UNPREDICTABLE>
     b14:	000007b8 			; <UNDEFINED> instruction: 0x000007b8
     b18:	eb015402 	bl	55b28 <__exidx_end+0x53170>
     b1c:	80000003 	andhi	r0, r0, r3
     b20:	0009ca09 	andeq	ip, r9, r9, lsl #20
     b24:	01550200 	cmpeq	r5, r0, lsl #4
     b28:	000003db 	ldrdeq	r0, [r0], -fp
     b2c:	04d30aa0 	ldrbeq	r0, [r3], #2720	; 0xaa0
     b30:	56020000 	strpl	r0, [r2], -r0
     b34:	0003f001 	andeq	pc, r3, r1
     b38:	0a010000 	beq	40b40 <__exidx_end+0x3e188>
     b3c:	000007fa 	strdeq	r0, [r0], -sl
     b40:	db015702 	blle	56750 <__exidx_end+0x53d98>
     b44:	20000003 	andcs	r0, r0, r3
     b48:	043a0a01 	ldrteq	r0, [sl], #-2561	; 0xfffff5ff
     b4c:	58020000 	stmdapl	r2, {}	; <UNPREDICTABLE>
     b50:	0003f501 	andeq	pc, r3, r1, lsl #10
     b54:	0a018000 	beq	60b5c <__exidx_end+0x5e1a4>
     b58:	000008a4 	andeq	r0, r0, r4, lsr #17
     b5c:	db015902 	blle	56f6c <__exidx_end+0x545b4>
     b60:	a0000003 	andge	r0, r0, r3
     b64:	07750a01 	ldrbeq	r0, [r5, -r1, lsl #20]!
     b68:	5a020000 	bpl	80b70 <__exidx_end+0x7e1b8>
     b6c:	0003fa01 	andeq	pc, r3, r1, lsl #20
     b70:	0a020000 	beq	80b78 <__exidx_end+0x7e1c0>
     b74:	00000804 	andeq	r0, r0, r4, lsl #16
     b78:	ff015b02 			; <UNDEFINED> instruction: 0xff015b02
     b7c:	20000003 	andcs	r0, r0, r3
     b80:	50490b02 	subpl	r0, r9, r2, lsl #22
     b84:	015c0200 	cmpeq	ip, r0, lsl #4
     b88:	0000041f 	andeq	r0, r0, pc, lsl r4
     b8c:	0e0a0300 	cdpeq	3, 0, cr0, cr10, cr0, {0}
     b90:	02000008 	andeq	r0, r0, #8
     b94:	0424015d 	strteq	r0, [r4], #-349	; 0xfffffea3
     b98:	03f00000 	mvnseq	r0, #0
     b9c:	00045c0a 	andeq	r5, r4, sl, lsl #24
     ba0:	015e0200 	cmpeq	lr, r0, lsl #4
     ba4:	00000435 	andeq	r0, r0, r5, lsr r4
     ba8:	0c000e00 	stceq	14, cr0, [r0], {-0}
     bac:	000000a2 	andeq	r0, r0, r2, lsr #1
     bb0:	000003cf 	andeq	r0, r0, pc, asr #7
     bb4:	0003cf0d 	andeq	ip, r3, sp, lsl #30
     bb8:	02000700 	andeq	r0, r0, #0, 14
     bbc:	00550704 	subseq	r0, r5, r4, lsl #14
     bc0:	bf0e0000 	svclt	0x000e0000
     bc4:	0c000003 	stceq	0, cr0, [r0], {3}
     bc8:	000000a2 	andeq	r0, r0, r2, lsr #1
     bcc:	000003eb 	andeq	r0, r0, fp, ror #7
     bd0:	0003cf0d 	andeq	ip, r3, sp, lsl #30
     bd4:	0e001700 	cdpeq	7, 0, cr1, cr0, cr0, {0}
     bd8:	000003bf 			; <UNDEFINED> instruction: 0x000003bf
     bdc:	0003bf0e 	andeq	fp, r3, lr, lsl #30
     be0:	03bf0e00 			; <UNDEFINED> instruction: 0x03bf0e00
     be4:	bf0e0000 	svclt	0x000e0000
     be8:	0c000003 	stceq	0, cr0, [r0], {3}
     bec:	000000a2 	andeq	r0, r0, r2, lsr #1
     bf0:	0000040f 	andeq	r0, r0, pc, lsl #8
     bf4:	0003cf0d 	andeq	ip, r3, sp, lsl #30
     bf8:	0c003700 	stceq	7, cr3, [r0], {-0}
     bfc:	0000008c 	andeq	r0, r0, ip, lsl #1
     c00:	0000041f 	andeq	r0, r0, pc, lsl r4
     c04:	0003cf0d 	andeq	ip, r3, sp, lsl #30
     c08:	0e00ef00 	cdpeq	15, 0, cr14, cr0, cr0, {0}
     c0c:	0000040f 	andeq	r0, r0, pc, lsl #8
     c10:	0000a20c 	andeq	sl, r0, ip, lsl #4
     c14:	00043500 	andeq	r3, r4, r0, lsl #10
     c18:	03cf0f00 	biceq	r0, pc, #0, 30
     c1c:	02830000 	addeq	r0, r3, #0
     c20:	00a20e00 	adceq	r0, r2, r0, lsl #28
     c24:	59100000 	ldmdbpl	r0, {}	; <UNPREDICTABLE>
     c28:	02000008 	andeq	r0, r0, #8
     c2c:	0303015f 	movweq	r0, #12639	; 0x315f
     c30:	35110000 	ldrcc	r0, [r1, #-0]
     c34:	0c000004 	stceq	0, cr0, [r0], {4}
     c38:	0000008c 	andeq	r0, r0, ip, lsl #1
     c3c:	0000045b 	andeq	r0, r0, fp, asr r4
     c40:	0003cf0d 	andeq	ip, r3, sp, lsl #30
     c44:	0c000300 	stceq	3, cr0, [r0], {-0}
     c48:	0000008c 	andeq	r0, r0, ip, lsl #1
     c4c:	0000046b 	andeq	r0, r0, fp, ror #8
     c50:	0003cf0d 	andeq	ip, r3, sp, lsl #30
     c54:	0c00fb00 			; <UNDEFINED> instruction: 0x0c00fb00
     c58:	0000008c 	andeq	r0, r0, ip, lsl #1
     c5c:	0000047b 	andeq	r0, r0, fp, ror r4
     c60:	0003cf0d 	andeq	ip, r3, sp, lsl #30
     c64:	12000700 	andne	r0, r0, #0, 14
     c68:	23c00610 	biccs	r0, r0, #16, 12	; 0x1000000
     c6c:	000004b9 			; <UNDEFINED> instruction: 0x000004b9
     c70:	0009a109 	andeq	sl, r9, r9, lsl #2
     c74:	23c10600 	biccs	r0, r1, #0, 12
     c78:	00000435 	andeq	r0, r0, r5, lsr r4
     c7c:	055c0900 	ldrbeq	r0, [ip, #-2304]	; 0xfffff700
     c80:	c2060000 	andgt	r0, r6, #0
     c84:	00044623 	andeq	r4, r4, r3, lsr #12
     c88:	cb090400 	blgt	241c90 <__exidx_end+0x23f2d8>
     c8c:	0600000c 	streq	r0, [r0], -ip
     c90:	043523c3 	ldrteq	r2, [r5], #-963	; 0xfffffc3d
     c94:	09080000 	stmdbeq	r8, {}	; <UNPREDICTABLE>
     c98:	0000088e 	andeq	r0, r0, lr, lsl #17
     c9c:	3523c406 	strcc	ip, [r3, #-1030]!	; 0xfffffbfa
     ca0:	0c000004 	stceq	0, cr0, [r0], {4}
     ca4:	01400800 	cmpeq	r0, r0, lsl #16
     ca8:	ec23bd06 	stc	13, cr11, [r3], #-24	; 0xffffffe8
     cac:	13000004 	movwne	r0, #4
     cb0:	0052434d 	subseq	r4, r2, sp, asr #6
     cb4:	3523be06 	strcc	fp, [r3, #-3590]!	; 0xfffff1fa
     cb8:	00000004 	andeq	r0, r0, r4
     cbc:	0002f909 	andeq	pc, r2, r9, lsl #18
     cc0:	23bf0600 			; <UNDEFINED> instruction: 0x23bf0600
     cc4:	0000045b 	andeq	r0, r0, fp, asr r4
     cc8:	08180a04 	ldmdaeq	r8, {r2, r9, fp}
     ccc:	c5060000 	strgt	r0, [r6, #-0]
     cd0:	0004ec23 	andeq	lr, r4, r3, lsr #24
     cd4:	00010000 	andeq	r0, r1, r0
     cd8:	00047b0c 	andeq	r7, r4, ip, lsl #22
     cdc:	0004fc00 	andeq	pc, r4, r0, lsl #24
     ce0:	03cf0d00 	biceq	r0, pc, #0, 26
     ce4:	00030000 	andeq	r0, r3, r0
     ce8:	0005cb10 	andeq	ip, r5, r0, lsl fp
     cec:	23c60600 	biccs	r0, r6, #0, 12
     cf0:	000004b9 			; <UNDEFINED> instruction: 0x000004b9
     cf4:	06106408 	ldreq	r6, [r0], -r8, lsl #8
     cf8:	067c2ace 	ldrbteq	r2, [ip], -lr, asr #21
     cfc:	b9090000 	stmdblt	r9, {}	; <UNPREDICTABLE>
     d00:	06000002 	streq	r0, [r0], -r2
     d04:	04352acf 	ldrteq	r2, [r5], #-2767	; 0xfffff531
     d08:	09000000 	stmdbeq	r0, {}	; <UNPREDICTABLE>
     d0c:	00000046 	andeq	r0, r0, r6, asr #32
     d10:	352ad006 	strcc	sp, [sl, #-6]!
     d14:	04000004 	streq	r0, [r0], #-4
     d18:	0002f909 	andeq	pc, r2, r9, lsl #18
     d1c:	2ad10600 	bcs	ff442524 <__stack+0xdf412524>
     d20:	0000067c 	andeq	r0, r0, ip, ror r6
     d24:	02cf0a08 	sbceq	r0, pc, #8, 20	; 0x8000
     d28:	d2060000 	andle	r0, r6, #0
     d2c:	0004352a 	andeq	r3, r4, sl, lsr #10
     d30:	0a100400 	beq	401d38 <__exidx_end+0x3ff380>
     d34:	00000304 	andeq	r0, r0, r4, lsl #6
     d38:	4b2ad306 	blmi	ab5958 <__exidx_end+0xab2fa0>
     d3c:	08000004 	stmdaeq	r0, {r2}
     d40:	037a0a10 	cmneq	sl, #16, 20	; 0x10000
     d44:	d4060000 	strle	r0, [r6], #-0
     d48:	0004352a 	andeq	r3, r4, sl, lsr #10
     d4c:	0a100c00 	beq	403d54 <__exidx_end+0x40139c>
     d50:	00000000 	andeq	r0, r0, r0
     d54:	352ad506 	strcc	sp, [sl, #-1286]!	; 0xfffffafa
     d58:	10000004 	andne	r0, r0, r4
     d5c:	030f0a10 	movweq	r0, #64016	; 0xfa10
     d60:	d6060000 	strle	r0, [r6], -r0
     d64:	00044b2a 	andeq	r4, r4, sl, lsr #22
     d68:	0a101400 	beq	405d70 <__exidx_end+0x4033b8>
     d6c:	000001e7 	andeq	r0, r0, r7, ror #3
     d70:	352ad706 	strcc	sp, [sl, #-1798]!	; 0xfffff8fa
     d74:	18000004 	stmdane	r0, {r2}
     d78:	031a0a10 	tsteq	sl, #16, 20	; 0x10000
     d7c:	d8060000 	stmdale	r6, {}	; <UNPREDICTABLE>
     d80:	00046b2a 	andeq	r6, r4, sl, lsr #22
     d84:	0a101c00 	beq	407d8c <__exidx_end+0x4053d4>
     d88:	00000041 	andeq	r0, r0, r1, asr #32
     d8c:	462ad906 	strtmi	sp, [sl], -r6, lsl #18
     d90:	24000004 	strcs	r0, [r0], #-4
     d94:	01a70a10 			; <UNDEFINED> instruction: 0x01a70a10
     d98:	da060000 	ble	180da0 <__exidx_end+0x17e3e8>
     d9c:	0004352a 	andeq	r3, r4, sl, lsr #10
     da0:	0a102800 	beq	40ada8 <__exidx_end+0x4083f0>
     da4:	000001ad 	andeq	r0, r0, sp, lsr #3
     da8:	352adb06 	strcc	sp, [sl, #-2822]!	; 0xfffff4fa
     dac:	2c000004 	stccs	0, cr0, [r0], {4}
     db0:	01b30a10 			; <UNDEFINED> instruction: 0x01b30a10
     db4:	dc060000 	stcle	0, cr0, [r6], {-0}
     db8:	0004352a 	andeq	r3, r4, sl, lsr #10
     dbc:	0a103000 	beq	40cdc4 <__exidx_end+0x40a40c>
     dc0:	000001b9 			; <UNDEFINED> instruction: 0x000001b9
     dc4:	352add06 	strcc	sp, [sl, #-3334]!	; 0xfffff2fa
     dc8:	34000004 	strcc	r0, [r0], #-4
     dcc:	01bf0a10 			; <UNDEFINED> instruction: 0x01bf0a10
     dd0:	de060000 	cdple	0, 0, cr0, cr6, cr0, {0}
     dd4:	0004352a 	andeq	r3, r4, sl, lsr #10
     dd8:	0a103800 	beq	40ede0 <__exidx_end+0x40c428>
     ddc:	000001c5 	andeq	r0, r0, r5, asr #3
     de0:	352adf06 	strcc	sp, [sl, #-3846]!	; 0xfffff0fa
     de4:	3c000004 	stccc	0, cr0, [r0], {4}
     de8:	01cb0a10 	biceq	r0, fp, r0, lsl sl
     dec:	e0060000 	and	r0, r6, r0
     df0:	0004352a 	andeq	r3, r4, sl, lsr #10
     df4:	0a104000 	beq	410dfc <__exidx_end+0x40e444>
     df8:	000001ed 	andeq	r0, r0, sp, ror #3
     dfc:	352ae106 	strcc	lr, [sl, #-262]!	; 0xfffffefa
     e00:	44000004 	strmi	r0, [r0], #-4
     e04:	01f50a10 	mvnseq	r0, r0, lsl sl
     e08:	e2060000 	and	r0, r6, #0
     e0c:	0004352a 	andeq	r3, r4, sl, lsr #10
     e10:	0a104800 	beq	412e18 <__exidx_end+0x410460>
     e14:	00000006 	andeq	r0, r0, r6
     e18:	352ae306 	strcc	lr, [sl, #-774]!	; 0xfffffcfa
     e1c:	4c000004 	stcmi	0, cr0, [r0], {4}
     e20:	000c0a10 	andeq	r0, ip, r0, lsl sl
     e24:	e4060000 	str	r0, [r6], #-0
     e28:	0004462a 	andeq	r4, r4, sl, lsr #12
     e2c:	0a105000 	beq	414e34 <__exidx_end+0x41247c>
     e30:	000000a1 	andeq	r0, r0, r1, lsr #1
     e34:	462ae506 	strtmi	lr, [sl], -r6, lsl #10
     e38:	54000004 	strpl	r0, [r0], #-4
     e3c:	01d10a10 	bicseq	r0, r1, r0, lsl sl
     e40:	e6060000 	str	r0, [r6], -r0
     e44:	0004462a 	andeq	r4, r4, sl, lsr #12
     e48:	0a105800 	beq	416e50 <__exidx_end+0x414498>
     e4c:	000002f3 	strdeq	r0, [r0], -r3
     e50:	462ae706 	strtmi	lr, [sl], -r6, lsl #14
     e54:	5c000004 	stcpl	0, cr0, [r0], {4}
     e58:	00b00a10 	adcseq	r0, r0, r0, lsl sl
     e5c:	e8060000 	stmda	r6, {}	; <UNPREDICTABLE>
     e60:	0004462a 	andeq	r4, r4, sl, lsr #12
     e64:	00106000 	andseq	r6, r0, r0
     e68:	00008c0c 	andeq	r8, r0, ip, lsl #24
     e6c:	00068d00 	andeq	r8, r6, r0, lsl #26
     e70:	03cf0f00 	biceq	r0, pc, #0, 30
     e74:	0ffb0000 	svceq	0x00fb0000
     e78:	008d1000 	addeq	r1, sp, r0
     e7c:	e9060000 	stmdb	r6, {}	; <UNPREDICTABLE>
     e80:	0005082a 	andeq	r0, r5, sl, lsr #16
     e84:	07081400 	streq	r1, [r8, -r0, lsl #8]
     e88:	0006ba06 	andeq	fp, r6, r6, lsl #20
     e8c:	09651500 	stmdbeq	r5!, {r8, sl, ip}^
     e90:	07070000 	streq	r0, [r7, -r0]
     e94:	000006bb 			; <UNDEFINED> instruction: 0x000006bb
     e98:	08b81500 	ldmeq	r8!, {r8, sl, ip}
     e9c:	08070000 	stmdaeq	r7, {}	; <UNPREDICTABLE>
     ea0:	000006bb 			; <UNDEFINED> instruction: 0x000006bb
     ea4:	17160004 	ldrne	r0, [r6, -r4]
     ea8:	0006ba04 	andeq	fp, r6, r4, lsl #20
     eac:	06740300 	ldrbteq	r0, [r4], -r0, lsl #6
     eb0:	09070000 	stmdbeq	r7, {}	; <UNPREDICTABLE>
     eb4:	00000699 	muleq	r0, r9, r6
     eb8:	0007c718 	andeq	ip, r7, r8, lsl r7
     ebc:	01490300 	mrseq	r0, (UNDEF: 121)
     ec0:	08751903 	ldmdaeq	r5!, {r0, r1, r8, fp, ip}^
     ec4:	bb020000 	bllt	80ecc <__exidx_end+0x7e514>
     ec8:	06ef0305 	strbteq	r0, [pc], r5, lsl #6
     ecc:	b21a0000 	andslt	r0, sl, #0
     ed0:	02000006 	andeq	r0, r0, #6
     ed4:	02f805bb 	rscseq	r0, r8, #784334848	; 0x2ec00000
     ed8:	18000000 	stmdane	r0, {}	; <UNPREDICTABLE>
     edc:	0000048d 	andeq	r0, r0, sp, lsl #9
     ee0:	03015403 	movweq	r5, #5123	; 0x1403
     ee4:	00090e1b 	andeq	r0, r9, fp, lsl lr
     ee8:	fc070100 	stc2	1, cr0, [r7], {-0}
     eec:	50000006 	andpl	r0, r0, r6
     ef0:	01000000 	mrseq	r0, (UNDEF: 0)
     ef4:	0007539c 	muleq	r7, ip, r3
     ef8:	09651c00 	stmdbeq	r5!, {sl, fp, ip}^
     efc:	07010000 	streq	r0, [r1, -r0]
     f00:	000006bb 			; <UNDEFINED> instruction: 0x000006bb
     f04:	0000033b 	andeq	r0, r0, fp, lsr r3
     f08:	0008e01d 	andeq	lr, r8, sp, lsl r0
     f0c:	7e070100 	adfvcs	f0, f7, f0
     f10:	01000000 	mrseq	r0, (UNDEF: 0)
     f14:	06d51e51 			; <UNDEFINED> instruction: 0x06d51e51
     f18:	07300000 	ldreq	r0, [r0, -r0]!
     f1c:	00080000 	andeq	r0, r8, r0
     f20:	12010000 	andne	r0, r1, #0
     f24:	00000743 	andeq	r0, r0, r3, asr #14
     f28:	0006e21f 	andeq	lr, r6, pc, lsl r2
     f2c:	20003000 	andcs	r3, r0, r0
     f30:	000006cc 	andeq	r0, r0, ip, asr #13
     f34:	00000738 	andeq	r0, r0, r8, lsr r7
     f38:	00000014 	andeq	r0, r0, r4, lsl r0
     f3c:	1b001301 	blne	5b48 <__exidx_end+0x3190>
     f40:	0000098d 	andeq	r0, r0, sp, lsl #19
     f44:	00001501 	andeq	r1, r0, r1, lsl #10
     f48:	00500000 	subseq	r0, r0, r0
     f4c:	9c010000 	stcls	0, cr0, [r1], {-0}
     f50:	000007ae 	andeq	r0, r0, lr, lsr #15
     f54:	0008b81c 	andeq	fp, r8, ip, lsl r8
     f58:	bb150100 	bllt	541360 <__exidx_end+0x53e9a8>
     f5c:	6b000006 	blvs	f7c <__adddf3+0x190>
     f60:	1d000003 	stcne	0, cr0, [r0, #-12]
     f64:	000008e0 	andeq	r0, r0, r0, ror #17
     f68:	007e1501 	rsbseq	r1, lr, r1, lsl #10
     f6c:	51010000 	mrspl	r0, (UNDEF: 1)
     f70:	0006d51e 	andeq	sp, r6, lr, lsl r5
     f74:	00000000 	andeq	r0, r0, r0
     f78:	00000800 	andeq	r0, r0, r0, lsl #16
     f7c:	9e210100 	suflss	f0, f1, f0
     f80:	1f000007 	svcne	0x00000007
     f84:	000006e2 	andeq	r0, r0, r2, ror #13
     f88:	cc200031 	stcgt	0, cr0, [r0], #-196	; 0xffffff3c
     f8c:	00000006 	andeq	r0, r0, r6
     f90:	14000000 	strne	r0, [r0], #-0
     f94:	01000000 	mrseq	r0, (UNDEF: 0)
     f98:	63210022 			; <UNDEFINED> instruction: 0x63210022
     f9c:	01000008 	tsteq	r0, r8
     fa0:	00000025 	andeq	r0, r0, r5, lsr #32
     fa4:	00001000 	andeq	r1, r0, r0
     fa8:	219c0100 	orrscs	r0, ip, r0, lsl #2
     fac:	0000086c 	andeq	r0, r0, ip, ror #16
     fb0:	00002901 	andeq	r2, r0, r1, lsl #18
     fb4:	00100000 	andseq	r0, r0, r0
     fb8:	9c010000 	stcls	0, cr0, [r1], {-0}
     fbc:	0005de22 	andeq	sp, r5, r2, lsr #28
     fc0:	4c2d0100 	stfmis	f0, [sp], #-0
     fc4:	20000007 	andcs	r0, r0, r7
     fc8:	01000000 	mrseq	r0, (UNDEF: 0)
     fcc:	0008049c 	muleq	r8, ip, r4
     fd0:	06ef2000 	strbteq	r2, [pc], r0
     fd4:	074e0000 	strbeq	r0, [lr, -r0]
     fd8:	00020000 	andeq	r0, r2, r0
     fdc:	2f010000 	svccs	0x00010000
     fe0:	0006cc20 	andeq	ip, r6, r0, lsr #24
     fe4:	00075e00 	andeq	r5, r7, r0, lsl #28
     fe8:	00000e00 	andeq	r0, r0, r0, lsl #28
     fec:	00320100 	eorseq	r0, r2, r0, lsl #2
     ff0:	00084922 	andeq	r4, r8, r2, lsr #18
     ff4:	6c340100 	ldfvss	f0, [r4], #-0
     ff8:	20000007 	andcs	r0, r0, r7
     ffc:	01000000 	mrseq	r0, (UNDEF: 0)
    1000:	0008389c 	muleq	r8, ip, r8
    1004:	06ef2000 	strbteq	r2, [pc], r0
    1008:	076e0000 	strbeq	r0, [lr, -r0]!
    100c:	00020000 	andeq	r0, r2, r0
    1010:	36010000 	strcc	r0, [r1], -r0
    1014:	0006cc20 	andeq	ip, r6, r0, lsr #24
    1018:	00077e00 	andeq	r7, r7, r0, lsl #28
    101c:	00000e00 	andeq	r0, r0, r0, lsl #28
    1020:	00390100 	eorseq	r0, r9, r0, lsl #2
    1024:	00035423 	andeq	r5, r3, r3, lsr #8
    1028:	06a70200 	strteq	r0, [r7], r0, lsl #4
    102c:	00000844 	andeq	r0, r0, r4, asr #16
    1030:	0000970e 	andeq	r9, r0, lr, lsl #14
    1034:	07d42400 	ldrbeq	r2, [r4, r0, lsl #8]
    1038:	06010000 	streq	r0, [r1], -r0
    103c:	000006c1 	andeq	r0, r0, r1, asr #13
    1040:	02cc0305 	sbceq	r0, ip, #335544320	; 0x14000000
    1044:	b9001fff 	stmdblt	r0, {r0, r1, r2, r3, r4, r5, r6, r7, r8, r9, sl, fp, ip}
    1048:	04000006 	streq	r0, [r0], #-6
    104c:	00041400 	andeq	r1, r4, r0, lsl #8
    1050:	3a010400 	bcc	42058 <__exidx_end+0x3f6a0>
    1054:	0c00000a 	stceq	0, cr0, [r0], {10}
    1058:	00000bcf 	andeq	r0, r0, pc, asr #23
    105c:	00000b10 	andeq	r0, r0, r0, lsl fp
    1060:	00000070 	andeq	r0, r0, r0, ror r0
    1064:	00000000 	andeq	r0, r0, r0
    1068:	0000037d 	andeq	r0, r0, sp, ror r3
    106c:	1a070402 	bne	1c207c <__exidx_end+0x1bf6c4>
    1070:	02000002 	andeq	r0, r0, #2
    1074:	01ff0601 	mvnseq	r0, r1, lsl #12
    1078:	70030000 	andvc	r0, r3, r0
    107c:	02000003 	andeq	r0, r0, #3
    1080:	00003e1d 	andeq	r3, r0, sp, lsl lr
    1084:	08010200 	stmdaeq	r1, {r9}
    1088:	000001fd 	strdeq	r0, [r0], -sp
    108c:	a6050202 	strge	r0, [r5], -r2, lsl #4
    1090:	03000000 	movweq	r0, #0
    1094:	00000096 	muleq	r0, r6, r0
    1098:	00572b02 	subseq	r2, r7, r2, lsl #22
    109c:	02020000 	andeq	r0, r2, #0
    10a0:	00025207 	andeq	r5, r2, r7, lsl #4
    10a4:	03250300 			; <UNDEFINED> instruction: 0x03250300
    10a8:	3f020000 	svccc	0x00020000
    10ac:	00000069 	andeq	r0, r0, r9, rrx
    10b0:	97050402 	strls	r0, [r5, -r2, lsl #8]
    10b4:	03000001 	movweq	r0, #1
    10b8:	0000007a 	andeq	r0, r0, sl, ror r0
    10bc:	007b4102 	rsbseq	r4, fp, r2, lsl #2
    10c0:	04020000 	streq	r0, [r2], #-0
    10c4:	00021507 	andeq	r1, r2, r7, lsl #10
    10c8:	05080200 	streq	r0, [r8, #-512]	; 0xfffffe00
    10cc:	00000192 	muleq	r0, r2, r1
    10d0:	10070802 	andne	r0, r7, r2, lsl #16
    10d4:	04000002 	streq	r0, [r0], #-2
    10d8:	6e690504 	cdpvs	5, 6, cr0, cr9, cr4, {0}
    10dc:	72030074 	andvc	r0, r3, #116	; 0x74
    10e0:	03000003 	movweq	r0, #3
    10e4:	00003318 	andeq	r3, r0, r8, lsl r3
    10e8:	00970500 	addseq	r0, r7, r0, lsl #10
    10ec:	a2060000 	andge	r0, r6, #0
    10f0:	03000000 	movweq	r0, #0
    10f4:	00000098 	muleq	r0, r8, r0
    10f8:	004c2403 	subeq	r2, ip, r3, lsl #8
    10fc:	27030000 	strcs	r0, [r3, -r0]
    1100:	03000003 	movweq	r0, #3
    1104:	00005e2c 	andeq	r5, r0, ip, lsr #28
    1108:	00b70500 	adcseq	r0, r7, r0, lsl #10
    110c:	7c030000 	stcvc	0, cr0, [r3], {-0}
    1110:	03000000 	movweq	r0, #0
    1114:	00007030 	andeq	r7, r0, r0, lsr r0
    1118:	00c70500 	sbceq	r0, r7, r0, lsl #10
    111c:	d2060000 	andle	r0, r6, #0
    1120:	02000000 	andeq	r0, r0, #0
    1124:	00550704 	subseq	r0, r5, r4, lsl #14
    1128:	54070000 	strpl	r0, [r7], #-0
    112c:	04000003 	streq	r0, [r0], #-3
    1130:	00c206a7 	sbceq	r0, r2, r7, lsr #13
    1134:	bf080000 	svclt	0x00080000
    1138:	05000002 	streq	r0, [r0, #-2]
    113c:	0000c744 	andeq	ip, r0, r4, asr #14
    1140:	00970900 	addseq	r0, r7, r0, lsl #18
    1144:	010a0000 	mrseq	r0, (UNDEF: 10)
    1148:	dc0a0000 	stcle	0, cr0, [sl], {-0}
    114c:	03000000 	movweq	r0, #0
    1150:	00970900 	addseq	r0, r7, r0, lsl #18
    1154:	011a0000 	tsteq	sl, r0
    1158:	dc0a0000 	stcle	0, cr0, [sl], {-0}
    115c:	1b000000 	blne	1164 <__aeabi_dmul+0x14>
    1160:	00970900 	addseq	r0, r7, r0, lsl #18
    1164:	012a0000 			; <UNDEFINED> instruction: 0x012a0000
    1168:	dc0a0000 	stcle	0, cr0, [sl], {-0}
    116c:	07000000 	streq	r0, [r0, -r0]
    1170:	00970900 	addseq	r0, r7, r0, lsl #18
    1174:	013a0000 	teqeq	sl, r0
    1178:	dc0a0000 	stcle	0, cr0, [sl], {-0}
    117c:	17000000 	strne	r0, [r0, -r0]
    1180:	00970900 	addseq	r0, r7, r0, lsl #18
    1184:	014a0000 	mrseq	r0, (UNDEF: 74)
    1188:	dc0a0000 	stcle	0, cr0, [sl], {-0}
    118c:	00000000 	andeq	r0, r0, r0
    1190:	06cc0b00 	strbeq	r0, [ip], r0, lsl #22
    1194:	01c924ba 	strheq	r2, [r9, #74]	; 0x4a
    1198:	500c0000 	andpl	r0, ip, r0
    119c:	06005243 	streq	r5, [r0], -r3, asr #4
    11a0:	01d924bb 	ldrheq	r2, [r9, #75]	; 0x4b
    11a4:	0d000000 	stceq	0, cr0, [r0, #-0]
    11a8:	00000227 	andeq	r0, r0, r7, lsr #4
    11ac:	d224bc06 	eorle	fp, r4, #1536	; 0x600
    11b0:	80000000 	andhi	r0, r0, r0
    11b4:	0001e10d 	andeq	lr, r1, sp, lsl #2
    11b8:	24bd0600 	ldrtcs	r0, [sp], #1536	; 0x600
    11bc:	000000d2 	ldrdeq	r0, [r0], -r2
    11c0:	02f90d84 	rscseq	r0, r9, #132, 26	; 0x2100
    11c4:	be060000 	cdplt	0, 0, cr0, cr6, cr0, {0}
    11c8:	00012a24 	andeq	r2, r1, r4, lsr #20
    11cc:	0b0d8800 	bleq	3631d4 <__exidx_end+0x36081c>
    11d0:	06000002 	streq	r0, [r0], -r2
    11d4:	00d224bf 	ldrheq	r2, [r2], #79	; 0x4f
    11d8:	0da00000 	stceq	0, cr0, [r0]
    11dc:	00000304 	andeq	r0, r0, r4, lsl #6
    11e0:	0a24c006 	beq	931200 <__exidx_end+0x92e848>
    11e4:	a4000001 	strge	r0, [r0], #-1
    11e8:	0003610d 	andeq	r6, r3, sp, lsl #2
    11ec:	24c10600 	strbcs	r0, [r1], #1536	; 0x600
    11f0:	000000d2 	ldrdeq	r0, [r0], -r2
    11f4:	02420dc0 	subeq	r0, r2, #192, 26	; 0x3000
    11f8:	c2060000 	andgt	r0, r6, #0
    11fc:	0000d224 	andeq	sp, r0, r4, lsr #4
    1200:	ee0dc400 	cfcpys	mvf12, mvf13
    1204:	06000002 	streq	r0, [r0], -r2
    1208:	00d224c3 	sbcseq	r2, r2, r3, asr #9
    120c:	00c80000 	sbceq	r0, r8, r0
    1210:	0000d209 	andeq	sp, r0, r9, lsl #4
    1214:	0001d900 	andeq	sp, r1, r0, lsl #18
    1218:	00dc0a00 	sbcseq	r0, ip, r0, lsl #20
    121c:	001f0000 	andseq	r0, pc, r0
    1220:	0001c905 	andeq	ip, r1, r5, lsl #18
    1224:	03660e00 	cmneq	r6, #0, 28
    1228:	c4060000 	strgt	r0, [r6], #-0
    122c:	00014a24 	andeq	r4, r1, r4, lsr #20
    1230:	10640f00 	rsbne	r0, r4, r0, lsl #30
    1234:	5e2ace06 	cdppl	14, 2, cr12, cr10, cr6, {0}
    1238:	0d000003 	stceq	0, cr0, [r0, #-12]
    123c:	000002b9 			; <UNDEFINED> instruction: 0x000002b9
    1240:	d22acf06 	eorle	ip, sl, #6, 30
    1244:	00000000 	andeq	r0, r0, r0
    1248:	0000460d 	andeq	r4, r0, sp, lsl #12
    124c:	2ad00600 	bcs	ff402a54 <__stack+0xdf3d2a54>
    1250:	000000d2 	ldrdeq	r0, [r0], -r2
    1254:	02f90d04 	rscseq	r0, r9, #4, 26	; 0x100
    1258:	d1060000 	mrsle	r0, (UNDEF: 6)
    125c:	00035e2a 	andeq	r5, r3, sl, lsr #28
    1260:	cf100800 	svcgt	0x00100800
    1264:	06000002 	streq	r0, [r0], -r2
    1268:	00d22ad2 	ldrsbeq	r2, [r2], #162	; 0xa2
    126c:	10040000 	andne	r0, r4, r0
    1270:	00030410 	andeq	r0, r3, r0, lsl r4
    1274:	2ad30600 	bcs	ff4c2a7c <__stack+0xdf492a7c>
    1278:	000000fa 	strdeq	r0, [r0], -sl
    127c:	7a101008 	bvc	4052a4 <__exidx_end+0x4028ec>
    1280:	06000003 	streq	r0, [r0], -r3
    1284:	00d22ad4 	ldrsbeq	r2, [r2], #164	; 0xa4
    1288:	100c0000 	andne	r0, ip, r0
    128c:	00000010 	andeq	r0, r0, r0, lsl r0
    1290:	2ad50600 	bcs	ff542a98 <__stack+0xdf512a98>
    1294:	000000d2 	ldrdeq	r0, [r0], -r2
    1298:	0f101010 	svceq	0x00101010
    129c:	06000003 	streq	r0, [r0], -r3
    12a0:	00fa2ad6 	ldrsbteq	r2, [sl], #166	; 0xa6
    12a4:	10140000 	andsne	r0, r4, r0
    12a8:	0001e710 	andeq	lr, r1, r0, lsl r7
    12ac:	2ad70600 	bcs	ff5c2ab4 <__stack+0xdf592ab4>
    12b0:	000000d2 	ldrdeq	r0, [r0], -r2
    12b4:	1a101018 	bne	40531c <__exidx_end+0x402964>
    12b8:	06000003 	streq	r0, [r0], -r3
    12bc:	011a2ad8 			; <UNDEFINED> instruction: 0x011a2ad8
    12c0:	101c0000 	andsne	r0, ip, r0
    12c4:	00004110 	andeq	r4, r0, r0, lsl r1
    12c8:	2ad90600 	bcs	ff642ad0 <__stack+0xdf612ad0>
    12cc:	000000d7 	ldrdeq	r0, [r0], -r7
    12d0:	a7101024 	ldrge	r1, [r0, -r4, lsr #32]
    12d4:	06000001 	streq	r0, [r0], -r1
    12d8:	00d22ada 	ldrsbeq	r2, [r2], #170	; 0xaa
    12dc:	10280000 	eorne	r0, r8, r0
    12e0:	0001ad10 	andeq	sl, r1, r0, lsl sp
    12e4:	2adb0600 	bcs	ff6c2aec <__stack+0xdf692aec>
    12e8:	000000d2 	ldrdeq	r0, [r0], -r2
    12ec:	b310102c 	tstlt	r0, #44	; 0x2c
    12f0:	06000001 	streq	r0, [r0], -r1
    12f4:	00d22adc 	ldrsbeq	r2, [r2], #172	; 0xac
    12f8:	10300000 	eorsne	r0, r0, r0
    12fc:	0001b910 	andeq	fp, r1, r0, lsl r9
    1300:	2add0600 	bcs	ff742b08 <__stack+0xdf712b08>
    1304:	000000d2 	ldrdeq	r0, [r0], -r2
    1308:	bf101034 	svclt	0x00101034
    130c:	06000001 	streq	r0, [r0], -r1
    1310:	00d22ade 	ldrsbeq	r2, [r2], #174	; 0xae
    1314:	10380000 	eorsne	r0, r8, r0
    1318:	0001c510 	andeq	ip, r1, r0, lsl r5
    131c:	2adf0600 	bcs	ff7c2b24 <__stack+0xdf792b24>
    1320:	000000d2 	ldrdeq	r0, [r0], -r2
    1324:	cb10103c 	blgt	40541c <__exidx_end+0x402a64>
    1328:	06000001 	streq	r0, [r0], -r1
    132c:	00d22ae0 	sbcseq	r2, r2, r0, ror #21
    1330:	10400000 	subne	r0, r0, r0
    1334:	0001ed10 	andeq	lr, r1, r0, lsl sp
    1338:	2ae10600 	bcs	ff842b40 <__stack+0xdf812b40>
    133c:	000000d2 	ldrdeq	r0, [r0], -r2
    1340:	f5101044 			; <UNDEFINED> instruction: 0xf5101044
    1344:	06000001 	streq	r0, [r0], -r1
    1348:	00d22ae2 	sbcseq	r2, r2, r2, ror #21
    134c:	10480000 	subne	r0, r8, r0
    1350:	00000610 	andeq	r0, r0, r0, lsl r6
    1354:	2ae30600 	bcs	ff8c2b5c <__stack+0xdf892b5c>
    1358:	000000d2 	ldrdeq	r0, [r0], -r2
    135c:	0c10104c 	ldceq	0, cr1, [r0], {76}	; 0x4c
    1360:	06000000 	streq	r0, [r0], -r0
    1364:	00d72ae4 	sbcseq	r2, r7, r4, ror #21
    1368:	10500000 	subsne	r0, r0, r0
    136c:	0000a110 	andeq	sl, r0, r0, lsl r1
    1370:	2ae50600 	bcs	ff942b78 <__stack+0xdf912b78>
    1374:	000000d7 	ldrdeq	r0, [r0], -r7
    1378:	d1101054 	tstle	r0, r4, asr r0
    137c:	06000001 	streq	r0, [r0], -r1
    1380:	00d72ae6 	sbcseq	r2, r7, r6, ror #21
    1384:	10580000 	subsne	r0, r8, r0
    1388:	0002f310 	andeq	pc, r2, r0, lsl r3	; <UNPREDICTABLE>
    138c:	2ae70600 	bcs	ff9c2b94 <__stack+0xdf992b94>
    1390:	000000d7 	ldrdeq	r0, [r0], -r7
    1394:	b010105c 	andslt	r1, r0, ip, asr r0
    1398:	06000000 	streq	r0, [r0], -r0
    139c:	00d72ae8 	sbcseq	r2, r7, r8, ror #21
    13a0:	10600000 	rsbne	r0, r0, r0
    13a4:	00970900 	addseq	r0, r7, r0, lsl #18
    13a8:	036f0000 	cmneq	pc, #0
    13ac:	dc110000 	ldcle	0, cr0, [r1], {-0}
    13b0:	fb000000 	blx	13ba <__aeabi_ddiv+0x16>
    13b4:	8d0e000f 	stchi	0, cr0, [lr, #-60]	; 0xffffffc4
    13b8:	06000000 	streq	r0, [r0], -r0
    13bc:	01ea2ae9 	mvneq	r2, r9, ror #21
    13c0:	01120000 	tsteq	r2, r0
    13c4:	9d2e9e06 	stcls	14, cr9, [lr, #-24]!	; 0xffffffe8
    13c8:	13000003 	movwne	r0, #3
    13cc:	00000bd6 	ldrdeq	r0, [r0], -r6
    13d0:	a22e9f06 	eorge	r9, lr, #6, 30
    13d4:	13000000 	movwne	r0, #0
    13d8:	00000be5 	andeq	r0, r0, r5, ror #23
    13dc:	a22ea006 	eorge	sl, lr, #6
    13e0:	00000000 	andeq	r0, r0, r0
    13e4:	8206200b 	andhi	r2, r6, #11
    13e8:	0005352e 	andeq	r3, r5, lr, lsr #10
    13ec:	44420c00 	strbmi	r0, [r2], #-3072	; 0xfffff400
    13f0:	83060048 	movwhi	r0, #24648	; 0x6048
    13f4:	0000a22e 	andeq	sl, r0, lr, lsr #4
    13f8:	420c0000 	andmi	r0, ip, #0
    13fc:	06004c44 	streq	r4, [r0], -r4, asr #24
    1400:	00a22e84 	adceq	r2, r2, r4, lsl #29
    1404:	0c010000 	stceq	0, cr0, [r1], {-0}
    1408:	06003143 	streq	r3, [r0], -r3, asr #2
    140c:	00a22e85 	adceq	r2, r2, r5, lsl #29
    1410:	0c020000 	stceq	0, cr0, [r2], {-0}
    1414:	06003243 	streq	r3, [r0], -r3, asr #4
    1418:	00a22e86 	adceq	r2, r2, r6, lsl #29
    141c:	0c030000 	stceq	0, cr0, [r3], {-0}
    1420:	06003153 			; <UNDEFINED> instruction: 0x06003153
    1424:	00a72e87 	adceq	r2, r7, r7, lsl #29
    1428:	0c040000 	stceq	0, cr0, [r4], {-0}
    142c:	06003253 			; <UNDEFINED> instruction: 0x06003253
    1430:	00a22e88 	adceq	r2, r2, r8, lsl #29
    1434:	0c050000 	stceq	0, cr0, [r5], {-0}
    1438:	06003343 	streq	r3, [r0], -r3, asr #6
    143c:	00a22e89 	adceq	r2, r2, r9, lsl #29
    1440:	0c060000 	stceq	0, cr0, [r6], {-0}
    1444:	8a060044 	bhi	18155c <__exidx_end+0x17eba4>
    1448:	0000a22e 	andeq	sl, r0, lr, lsr #4
    144c:	4d0c0700 	stcmi	7, cr0, [ip, #-0]
    1450:	06003141 	streq	r3, [r0], -r1, asr #2
    1454:	00a22e8b 	adceq	r2, r2, fp, lsl #29
    1458:	0c080000 	stceq	0, cr0, [r8], {-0}
    145c:	0032414d 	eorseq	r4, r2, sp, asr #2
    1460:	a22e8c06 	eorge	r8, lr, #1536	; 0x600
    1464:	09000000 	stmdbeq	r0, {}	; <UNPREDICTABLE>
    1468:	0034430c 	eorseq	r4, r4, ip, lsl #6
    146c:	a22e8d06 	eorge	r8, lr, #384	; 0x180
    1470:	0a000000 	beq	1478 <__aeabi_ddiv+0xd4>
    1474:	0035430c 	eorseq	r4, r5, ip, lsl #6
    1478:	a22e8e06 	eorge	r8, lr, #6, 28	; 0x60
    147c:	0b000000 	bleq	1484 <__aeabi_ddiv+0xe0>
    1480:	0044450c 	subeq	r4, r4, ip, lsl #10
    1484:	a72e8f06 	strge	r8, [lr, -r6, lsl #30]!
    1488:	0c000000 	stceq	0, cr0, [r0], {-0}
    148c:	000b0a0d 	andeq	r0, fp, sp, lsl #20
    1490:	2e900600 	cdpcs	6, 9, cr0, cr0, cr0, {0}
    1494:	000000a2 	andeq	r0, r0, r2, lsr #1
    1498:	52490c0d 	subpl	r0, r9, #3328	; 0xd00
    149c:	2e910600 	cdpcs	6, 9, cr0, cr1, cr0, {0}
    14a0:	000000a2 	andeq	r0, r0, r2, lsr #1
    14a4:	02f90d0e 	rscseq	r0, r9, #896	; 0x380
    14a8:	92060000 	andls	r0, r6, #0
    14ac:	00013a2e 	andeq	r3, r1, lr, lsr #20
    14b0:	b50d0f00 	strlt	r0, [sp, #-3840]	; 0xfffff100
    14b4:	0600000b 	streq	r0, [r0], -fp
    14b8:	00a22e93 	umlaleq	r2, r2, r3, lr	; <UNPREDICTABLE>
    14bc:	0d100000 	ldceq	0, cr0, [r0, #-0]
    14c0:	00000b3b 	andeq	r0, r0, fp, lsr fp
    14c4:	a22e9406 	eorge	r9, lr, #100663296	; 0x6000000
    14c8:	11000000 	mrsne	r0, (UNDEF: 0)
    14cc:	000bf40d 	andeq	pc, fp, sp, lsl #8
    14d0:	2e950600 	cdpcs	6, 9, cr0, cr5, cr0, {0}
    14d4:	000000a2 	andeq	r0, r0, r2, lsr #1
    14d8:	0b6b0d12 	bleq	1ac4928 <__exidx_end+0x1ac1f70>
    14dc:	96060000 	strls	r0, [r6], -r0
    14e0:	0000a22e 	andeq	sl, r0, lr, lsr #4
    14e4:	2c0d1300 	stccs	3, cr1, [sp], {-0}
    14e8:	0600000b 	streq	r0, [r0], -fp
    14ec:	00a72e97 	umlaleq	r2, r7, r7, lr
    14f0:	0d140000 	ldceq	0, cr0, [r4, #-0]
    14f4:	00000b41 	andeq	r0, r0, r1, asr #22
    14f8:	a22e9806 	eorge	r9, lr, #393216	; 0x60000
    14fc:	15000000 	strne	r0, [r0, #-0]
    1500:	000b3a0d 	andeq	r3, fp, sp, lsl #20
    1504:	2e990600 	cdpcs	6, 9, cr0, cr9, cr0, {0}
    1508:	000000a7 	andeq	r0, r0, r7, lsr #1
    150c:	03040d16 	movweq	r0, #19734	; 0x4d16
    1510:	9a060000 	bls	181518 <__exidx_end+0x17eb60>
    1514:	00013a2e 	andeq	r3, r1, lr, lsr #20
    1518:	820d1700 	andhi	r1, sp, #0, 14
    151c:	0600000b 	streq	r0, [r0], -fp
    1520:	00a22e9b 	umlaleq	r2, r2, fp, lr	; <UNPREDICTABLE>
    1524:	0d180000 	ldceq	0, cr0, [r8, #-0]
    1528:	00000b72 	andeq	r0, r0, r2, ror fp
    152c:	a22e9c06 	eorge	r9, lr, #1536	; 0x600
    1530:	19000000 	stmdbne	r0, {}	; <UNPREDICTABLE>
    1534:	000b640d 	andeq	r6, fp, sp, lsl #8
    1538:	2e9d0600 	cdpcs	6, 9, cr0, cr13, cr0, {0}
    153c:	000000a2 	andeq	r0, r0, r2, lsr #1
    1540:	037b141a 	cmneq	fp, #436207616	; 0x1a000000
    1544:	0d1b0000 	ldceq	0, cr0, [fp, #-0]
    1548:	00000ba0 	andeq	r0, r0, r0, lsr #23
    154c:	a22ea206 	eorge	sl, lr, #1610612736	; 0x60000000
    1550:	1c000000 	stcne	0, cr0, [r0], {-0}
    1554:	000a2c0d 	andeq	r2, sl, sp, lsl #24
    1558:	2ea30600 	cdpcs	6, 10, cr0, cr3, cr0, {0}
    155c:	000000a2 	andeq	r0, r0, r2, lsr #1
    1560:	0a330d1d 	beq	cc49dc <__exidx_end+0xcc2024>
    1564:	a4060000 	strge	r0, [r6], #-0
    1568:	0000a22e 	andeq	sl, r0, lr, lsr #4
    156c:	330d1e00 	movwcc	r1, #56832	; 0xde00
    1570:	0600000b 	streq	r0, [r0], -fp
    1574:	00a22ea5 	adceq	r2, r2, r5, lsr #29
    1578:	001f0000 	andseq	r0, pc, r0
    157c:	000bc50e 	andeq	ip, fp, lr, lsl #10
    1580:	2ea60600 	cdpcs	6, 10, cr0, cr6, cr0, {0}
    1584:	0000039d 	muleq	r0, sp, r3
    1588:	00053505 	andeq	r3, r5, r5, lsl #10
    158c:	07041500 	streq	r1, [r4, -r0, lsl #10]
    1590:	00055b07 	andeq	r5, r5, r7, lsl #22
    1594:	0b5f1600 	bleq	17c6d9c <__exidx_end+0x17c43e4>
    1598:	09070000 	stmdbeq	r7, {}	; <UNPREDICTABLE>
    159c:	0000055b 	andeq	r0, r0, fp, asr r5
    15a0:	04170000 	ldreq	r0, [r7], #-0
    15a4:	00000541 	andeq	r0, r0, r1, asr #10
    15a8:	000c0b03 	andeq	r0, ip, r3, lsl #22
    15ac:	460b0700 	strmi	r0, [fp], -r0, lsl #14
    15b0:	05000005 	streq	r0, [r0, #-5]
    15b4:	00000561 	andeq	r0, r0, r1, ror #10
    15b8:	000bbb08 	andeq	fp, fp, r8, lsl #22
    15bc:	6c0e0700 	stcvs	7, cr0, [lr], {-0}
    15c0:	18000005 	stmdane	r0, {r0, r2}
    15c4:	00000571 	andeq	r0, r0, r1, ror r5
    15c8:	03050a01 	movweq	r0, #23041	; 0x5a01
    15cc:	1fff02d4 	svcne	0x00ff02d4
    15d0:	000b8f19 	andeq	r8, fp, r9, lsl pc
    15d4:	ce730100 	rpwgts	f0, f3, f0
    15d8:	00000005 	andeq	r0, r0, r5
    15dc:	14000000 	strne	r0, [r0], #-0
    15e0:	01000000 	mrseq	r0, (UNDEF: 0)
    15e4:	0005ce9c 	muleq	r5, ip, lr
    15e8:	0ba71a00 	bleq	fe9c7df0 <__stack+0xde997df0>
    15ec:	73010000 	movwvc	r0, #4096	; 0x1000
    15f0:	00000561 	andeq	r0, r0, r1, ror #10
    15f4:	0000039b 	muleq	r0, fp, r3
    15f8:	7465721b 	strbtvc	r7, [r5], #-539	; 0xfffffde5
    15fc:	ce770100 	rpwgts	f0, f7, f0
    1600:	01000005 	tsteq	r0, r5
    1604:	0b881c50 	bleq	fe20874c <__stack+0xde1d874c>
    1608:	79010000 	stmdbvc	r1, {}	; <UNPREDICTABLE>
    160c:	000005ce 	andeq	r0, r0, lr, asr #11
    1610:	000003bb 			; <UNDEFINED> instruction: 0x000003bb
    1614:	08010200 	stmdaeq	r1, {r9}
    1618:	00000206 	andeq	r0, r0, r6, lsl #4
    161c:	000bfa1d 	andeq	pc, fp, sp, lsl sl	; <UNPREDICTABLE>
    1620:	04650100 	strbteq	r0, [r5], #-256	; 0xffffff00
    1624:	12000008 	andne	r0, r0, #8
    1628:	01000000 	mrseq	r0, (UNDEF: 0)
    162c:	0006069c 	muleq	r6, ip, r6
    1630:	0ba71a00 	bleq	fe9c7e38 <__stack+0xde997e38>
    1634:	65010000 	strvs	r0, [r1, #-0]
    1638:	00000561 	andeq	r0, r0, r1, ror #10
    163c:	000003ce 	andeq	r0, r0, lr, asr #7
    1640:	0068631e 	rsbeq	r6, r8, lr, lsl r3
    1644:	05ce6501 	strbeq	r6, [lr, #1281]	; 0x501
    1648:	51010000 	mrspl	r0, (UNDEF: 1)
    164c:	0a1e1d00 	beq	788a54 <__exidx_end+0x78609c>
    1650:	4d010000 	stcmi	0, cr0, [r1, #-0]
    1654:	00000816 	andeq	r0, r0, r6, lsl r8
    1658:	00000018 	andeq	r0, r0, r8, lsl r0
    165c:	06609c01 	strbteq	r9, [r0], -r1, lsl #24
    1660:	a71a0000 	ldrge	r0, [sl, -r0]
    1664:	0100000b 	tsteq	r0, fp
    1668:	0005614d 	andeq	r6, r5, sp, asr #2
    166c:	0003ee00 	andeq	lr, r3, r0, lsl #28
    1670:	74731f00 	ldrbtvc	r1, [r3], #-3840	; 0xfffff100
    1674:	4d010072 	stcmi	0, cr0, [r1, #-456]	; 0xfffffe38
    1678:	00000660 	andeq	r0, r0, r0, ror #12
    167c:	0000040c 	andeq	r0, r0, ip, lsl #8
    1680:	01006920 	tsteq	r0, r0, lsr #18
    1684:	00009051 	andeq	r9, r0, r1, asr r0
    1688:	0bb02100 	bleq	fec09a90 <__stack+0xdebd9a90>
    168c:	53010000 	movwpl	r0, #4096	; 0x1000
    1690:	000005ce 	andeq	r0, r0, lr, asr #11
    1694:	28225101 	stmdacs	r2!, {r0, r8, ip, lr}
    1698:	d5000008 	strle	r0, [r0, #-8]
    169c:	23000005 	movwcs	r0, #5
    16a0:	70025001 	andvc	r5, r2, r1
    16a4:	17000000 	strne	r0, [r0, -r0]
    16a8:	0005ce04 	andeq	ip, r5, r4, lsl #28
    16ac:	0b791d00 	bleq	1e48ab4 <__exidx_end+0x1e460fc>
    16b0:	0d010000 	stceq	0, cr0, [r1, #-0]
    16b4:	0000078c 	andeq	r0, r0, ip, lsl #15
    16b8:	00000078 	andeq	r0, r0, r8, ror r0
    16bc:	06b69c01 	ldrteq	r9, [r6], r1, lsl #24
    16c0:	4d240000 	stcmi	0, cr0, [r4, #-0]
    16c4:	0100000b 	tsteq	r0, fp
    16c8:	0006b60d 	andeq	fp, r6, sp, lsl #12
    16cc:	1a500100 	bne	1401ad4 <__exidx_end+0x13ff11c>
    16d0:	00000b48 	andeq	r0, r0, r8, asr #22
    16d4:	00900d01 	addseq	r0, r0, r1, lsl #26
    16d8:	04380000 	ldrteq	r0, [r8], #-0
    16dc:	75250000 	strvc	r0, [r5, #-0]!
    16e0:	01006462 	tsteq	r0, r2, ror #8
    16e4:	0000ac10 	andeq	sl, r0, r0, lsl ip
    16e8:	00045900 	andeq	r5, r4, r0, lsl #18
    16ec:	0b5a1c00 	bleq	16886f4 <__exidx_end+0x1685d3c>
    16f0:	10010000 	andne	r0, r1, r0
    16f4:	000000ac 	andeq	r0, r0, ip, lsr #1
    16f8:	0000046c 	andeq	r0, r0, ip, ror #8
    16fc:	35041700 	strcc	r1, [r4, #-1792]	; 0xfffff900
    1700:	00000005 	andeq	r0, r0, r5
    1704:	000005ac 	andeq	r0, r0, ip, lsr #11
    1708:	06110004 	ldreq	r0, [r1], -r4
    170c:	01040000 	mrseq	r0, (UNDEF: 4)
    1710:	00000a3a 	andeq	r0, r0, sl, lsr sl
    1714:	000c330c 	andeq	r3, ip, ip, lsl #6
    1718:	000b1000 	andeq	r1, fp, r0
    171c:	00009800 	andeq	r9, r0, r0, lsl #16
    1720:	00000000 	andeq	r0, r0, r0
    1724:	0004dd00 	andeq	sp, r4, r0, lsl #26
    1728:	07040200 	streq	r0, [r4, -r0, lsl #4]
    172c:	0000021a 	andeq	r0, r0, sl, lsl r2
    1730:	ff060102 			; <UNDEFINED> instruction: 0xff060102
    1734:	03000001 	movweq	r0, #1
    1738:	00000370 	andeq	r0, r0, r0, ror r3
    173c:	003e1d02 	eorseq	r1, lr, r2, lsl #26
    1740:	01020000 	mrseq	r0, (UNDEF: 2)
    1744:	0001fd08 	andeq	pc, r1, r8, lsl #26
    1748:	05020200 	streq	r0, [r2, #-512]	; 0xfffffe00
    174c:	000000a6 	andeq	r0, r0, r6, lsr #1
    1750:	00009603 	andeq	r9, r0, r3, lsl #12
    1754:	572b0200 	strpl	r0, [fp, -r0, lsl #4]!
    1758:	02000000 	andeq	r0, r0, #0
    175c:	02520702 	subseq	r0, r2, #524288	; 0x80000
    1760:	25030000 	strcs	r0, [r3, #-0]
    1764:	02000003 	andeq	r0, r0, #3
    1768:	0000693f 	andeq	r6, r0, pc, lsr r9
    176c:	05040200 	streq	r0, [r4, #-512]	; 0xfffffe00
    1770:	00000197 	muleq	r0, r7, r1
    1774:	00007a03 	andeq	r7, r0, r3, lsl #20
    1778:	7b410200 	blvc	1041f80 <__exidx_end+0x103f5c8>
    177c:	02000000 	andeq	r0, r0, #0
    1780:	02150704 	andseq	r0, r5, #4, 14	; 0x100000
    1784:	08020000 	stmdaeq	r2, {}	; <UNPREDICTABLE>
    1788:	00019205 	andeq	r9, r1, r5, lsl #4
    178c:	07080200 	streq	r0, [r8, -r0, lsl #4]
    1790:	00000210 	andeq	r0, r0, r0, lsl r2
    1794:	69050404 	stmdbvs	r5, {r2, sl}
    1798:	0500746e 	streq	r7, [r0, #-1134]	; 0xfffffb92
    179c:	00000025 	andeq	r0, r0, r5, lsr #32
    17a0:	00037203 	andeq	r7, r3, r3, lsl #4
    17a4:	33180300 	tstcc	r8, #0, 6
    17a8:	03000000 	movweq	r0, #0
    17ac:	00000098 	muleq	r0, r8, r0
    17b0:	004c2403 	subeq	r2, ip, r3, lsl #8
    17b4:	27030000 	strcs	r0, [r3, -r0]
    17b8:	03000003 	movweq	r0, #3
    17bc:	00005e2c 	andeq	r5, r0, ip, lsr #28
    17c0:	00b20500 	adcseq	r0, r2, r0, lsl #10
    17c4:	7c030000 	stcvc	0, cr0, [r3], {-0}
    17c8:	03000000 	movweq	r0, #0
    17cc:	00007030 	andeq	r7, r0, r0, lsr r0
    17d0:	00c20500 	sbceq	r0, r2, r0, lsl #10
    17d4:	cd060000 	stcgt	0, cr0, [r6, #-0]
    17d8:	02000000 	andeq	r0, r0, #0
    17dc:	00550704 	subseq	r0, r5, r4, lsl #14
    17e0:	54070000 	strpl	r0, [r7], #-0
    17e4:	04000003 	streq	r0, [r0], #-3
    17e8:	00bd06a7 	adcseq	r0, sp, r7, lsr #13
    17ec:	bf080000 	svclt	0x00080000
    17f0:	05000002 	streq	r0, [r0, #-2]
    17f4:	0000c244 	andeq	ip, r0, r4, asr #4
    17f8:	009c0900 	addseq	r0, ip, r0, lsl #18
    17fc:	01050000 	mrseq	r0, (UNDEF: 5)
    1800:	d70a0000 	strle	r0, [sl, -r0]
    1804:	03000000 	movweq	r0, #0
    1808:	009c0900 	addseq	r0, ip, r0, lsl #18
    180c:	01150000 	tsteq	r5, r0
    1810:	d70a0000 	strle	r0, [sl, -r0]
    1814:	1b000000 	blne	181c <__addsf3+0x9c>
    1818:	009c0900 	addseq	r0, ip, r0, lsl #18
    181c:	01250000 			; <UNDEFINED> instruction: 0x01250000
    1820:	d70a0000 	strle	r0, [sl, -r0]
    1824:	07000000 	streq	r0, [r0, -r0]
    1828:	009c0900 	addseq	r0, ip, r0, lsl #18
    182c:	01350000 	teqeq	r5, r0
    1830:	d70a0000 	strle	r0, [sl, -r0]
    1834:	17000000 	strne	r0, [r0, -r0]
    1838:	06080b00 	streq	r0, [r8], -r0, lsl #22
    183c:	015917a9 	cmpeq	r9, r9, lsr #15
    1840:	c40c0000 	strgt	r0, [ip], #-0
    1844:	0600000c 	streq	r0, [r0], -ip
    1848:	00cd17aa 	sbceq	r1, sp, sl, lsr #15
    184c:	0d000000 	stceq	0, cr0, [r0, #-0]
    1850:	00566e43 	subseq	r6, r6, r3, asr #28
    1854:	cd17ab06 	vldrgt	d10, [r7, #-24]	; 0xffffffe8
    1858:	04000000 	streq	r0, [r0], #-0
    185c:	069c0b00 	ldreq	r0, [ip], r0, lsl #22
    1860:	029a17a5 	addseq	r1, sl, #43253760	; 0x2940000
    1864:	530d0000 	movwpl	r0, #53248	; 0xd000
    1868:	a6060043 	strge	r0, [r6], -r3, asr #32
    186c:	0000cd17 	andeq	ip, r0, r7, lsl sp
    1870:	430d0000 	movwmi	r0, #53248	; 0xd000
    1874:	0600544e 	streq	r5, [r0], -lr, asr #8
    1878:	00cd17a7 	sbceq	r1, sp, r7, lsr #15
    187c:	0d040000 	stceq	0, cr0, [r4, #-0]
    1880:	00444f4d 	subeq	r4, r4, sp, asr #30
    1884:	cd17a806 	ldcgt	8, cr10, [r7, #-24]	; 0xffffffe8
    1888:	08000000 	stmdaeq	r0, {}	; <UNPREDICTABLE>
    188c:	000cbb0c 	andeq	fp, ip, ip, lsl #22
    1890:	17ac0600 	strne	r0, [ip, r0, lsl #12]!
    1894:	0000029a 	muleq	r0, sl, r2
    1898:	0cd70c0c 	ldcleq	12, cr0, [r7], {12}
    189c:	ad060000 	stcge	0, cr0, [r6, #-0]
    18a0:	0000cd17 	andeq	ip, r0, r7, lsl sp
    18a4:	fa0c4c00 	blx	3148ac <__exidx_end+0x311ef4>
    18a8:	0600000c 	streq	r0, [r0], -ip
    18ac:	00cd17ae 	sbceq	r1, sp, lr, lsr #15
    18b0:	0c500000 	mraeq	r0, r0, acc0
    18b4:	00000cee 	andeq	r0, r0, lr, ror #25
    18b8:	cd17af06 	ldcgt	15, cr10, [r7, #-24]	; 0xffffffe8
    18bc:	54000000 	strpl	r0, [r0], #-0
    18c0:	000d010c 	andeq	r0, sp, ip, lsl #2
    18c4:	17b00600 	ldrne	r0, [r0, r0, lsl #12]!
    18c8:	000000cd 	andeq	r0, r0, sp, asr #1
    18cc:	0c680c58 	stcleq	12, cr0, [r8], #-352	; 0xfffffea0
    18d0:	b1060000 	mrslt	r0, (UNDEF: 6)
    18d4:	0000cd17 	andeq	ip, r0, r7, lsl sp
    18d8:	a20c5c00 	andge	r5, ip, #0, 24
    18dc:	0600000c 	streq	r0, [r0], -ip
    18e0:	00cd17b2 	strheq	r1, [sp], #114	; 0x72
    18e4:	0c600000 	stcleq	0, cr0, [r0], #-0
    18e8:	00000c91 	muleq	r0, r1, ip
    18ec:	cd17b306 	ldcgt	3, cr11, [r7, #-24]	; 0xffffffe8
    18f0:	64000000 	strvs	r0, [r0], #-0
    18f4:	000c880c 	andeq	r8, ip, ip, lsl #16
    18f8:	17b40600 	ldrne	r0, [r4, r0, lsl #12]!
    18fc:	000000cd 	andeq	r0, r0, sp, asr #1
    1900:	0c520c68 	mrrceq	12, 6, r0, r2, cr8
    1904:	b5060000 	strlt	r0, [r6, #-0]
    1908:	0000cd17 	andeq	ip, r0, r7, lsl sp
    190c:	500d6c00 	andpl	r6, sp, r0, lsl #24
    1910:	06004c4f 	streq	r4, [r0], -pc, asr #24
    1914:	00cd17b6 	strheq	r1, [sp], #118	; 0x76
    1918:	0d700000 	ldcleq	0, cr0, [r0, #-0]
    191c:	00534d46 	subseq	r4, r3, r6, asr #26
    1920:	cd17b706 	ldcgt	7, cr11, [r7, #-24]	; 0xffffffe8
    1924:	74000000 	strvc	r0, [r0], #-0
    1928:	000caa0c 	andeq	sl, ip, ip, lsl #20
    192c:	17b80600 	ldrne	r0, [r8, r0, lsl #12]!
    1930:	000000cd 	andeq	r0, r0, sp, asr #1
    1934:	0cc90c78 	stcleq	12, cr0, [r9], {120}	; 0x78
    1938:	b9060000 	stmdblt	r6, {}	; <UNPREDICTABLE>
    193c:	0000cd17 	andeq	ip, r0, r7, lsl sp
    1940:	f30c7c00 			; <UNDEFINED> instruction: 0xf30c7c00
    1944:	0600000c 	streq	r0, [r0], -ip
    1948:	00cd17ba 	strheq	r1, [sp], #122	; 0x7a
    194c:	0c800000 	stceq	0, cr0, [r0], {0}
    1950:	00000c1d 	andeq	r0, r0, sp, lsl ip
    1954:	cd17bb06 	vldrgt	d11, [r7, #-24]	; 0xffffffe8
    1958:	84000000 	strhi	r0, [r0], #-0
    195c:	000ce70c 	andeq	lr, ip, ip, lsl #14
    1960:	17bc0600 	ldrne	r0, [ip, r0, lsl #12]!
    1964:	000000cd 	andeq	r0, r0, sp, asr #1
    1968:	0c1a0c88 	ldceq	12, cr0, [sl], {136}	; 0x88
    196c:	bd060000 	stclt	0, cr0, [r6, #-0]
    1970:	0000cd17 	andeq	ip, r0, r7, lsl sp
    1974:	800c8c00 	andhi	r8, ip, r0, lsl #24
    1978:	0600000c 	streq	r0, [r0], -ip
    197c:	00cd17be 	strheq	r1, [sp], #126	; 0x7e
    1980:	0c900000 	ldceq	0, cr0, [r0], {0}
    1984:	00000c70 	andeq	r0, r0, r0, ror ip
    1988:	cd17bf06 	ldcgt	15, cr11, [r7, #-24]	; 0xffffffe8
    198c:	94000000 	strls	r0, [r0], #-0
    1990:	000c780c 	andeq	r7, ip, ip, lsl #16
    1994:	17c00600 	strbne	r0, [r0, r0, lsl #12]
    1998:	000000cd 	andeq	r0, r0, sp, asr #1
    199c:	35090098 	strcc	r0, [r9, #-152]	; 0xffffff68
    19a0:	aa000001 	bge	19ac <__aeabi_fmul+0x1c>
    19a4:	0a000002 	beq	19b4 <__aeabi_fmul+0x24>
    19a8:	000000d7 	ldrdeq	r0, [r0], -r7
    19ac:	220e0007 	andcs	r0, lr, #7
    19b0:	0600000c 	streq	r0, [r0], -ip
    19b4:	015917c1 	cmpeq	r9, r1, asr #15
    19b8:	cc0b0000 	stcgt	0, cr0, [fp], {-0}
    19bc:	3524ba06 	strcc	fp, [r4, #-2566]!	; 0xfffff5fa
    19c0:	0d000003 	stceq	0, cr0, [r0, #-12]
    19c4:	00524350 	subseq	r4, r2, r0, asr r3
    19c8:	4524bb06 	strmi	fp, [r4, #-2822]!	; 0xfffff4fa
    19cc:	00000003 	andeq	r0, r0, r3
    19d0:	0002270c 	andeq	r2, r2, ip, lsl #14
    19d4:	24bc0600 	ldrtcs	r0, [ip], #1536	; 0x600
    19d8:	000000cd 	andeq	r0, r0, sp, asr #1
    19dc:	01e10c80 	mvneq	r0, r0, lsl #25
    19e0:	bd060000 	stclt	0, cr0, [r6, #-0]
    19e4:	0000cd24 	andeq	ip, r0, r4, lsr #26
    19e8:	f90c8400 			; <UNDEFINED> instruction: 0xf90c8400
    19ec:	06000002 	streq	r0, [r0], -r2
    19f0:	012524be 			; <UNDEFINED> instruction: 0x012524be
    19f4:	0c880000 	stceq	0, cr0, [r8], {0}
    19f8:	0000020b 	andeq	r0, r0, fp, lsl #4
    19fc:	cd24bf06 	stcgt	15, cr11, [r4, #-24]!	; 0xffffffe8
    1a00:	a0000000 	andge	r0, r0, r0
    1a04:	0003040c 	andeq	r0, r3, ip, lsl #8
    1a08:	24c00600 	strbcs	r0, [r0], #1536	; 0x600
    1a0c:	00000105 	andeq	r0, r0, r5, lsl #2
    1a10:	03610ca4 	cmneq	r1, #164, 24	; 0xa400
    1a14:	c1060000 	mrsgt	r0, (UNDEF: 6)
    1a18:	0000cd24 	andeq	ip, r0, r4, lsr #26
    1a1c:	420cc000 	andmi	ip, ip, #0
    1a20:	06000002 	streq	r0, [r0], -r2
    1a24:	00cd24c2 	sbceq	r2, sp, r2, asr #9
    1a28:	0cc40000 	stcleq	0, cr0, [r4], {0}
    1a2c:	000002ee 	andeq	r0, r0, lr, ror #5
    1a30:	cd24c306 	stcgt	3, cr12, [r4, #-24]!	; 0xffffffe8
    1a34:	c8000000 	stmdagt	r0, {}	; <UNPREDICTABLE>
    1a38:	00cd0900 	sbceq	r0, sp, r0, lsl #18
    1a3c:	03450000 	movteq	r0, #20480	; 0x5000
    1a40:	d70a0000 	strle	r0, [sl, -r0]
    1a44:	1f000000 	svcne	0x00000000
    1a48:	03350500 	teqeq	r5, #0, 10
    1a4c:	660e0000 	strvs	r0, [lr], -r0
    1a50:	06000003 	streq	r0, [r0], -r3
    1a54:	02b624c4 	adcseq	r2, r6, #196, 8	; 0xc4000000
    1a58:	640f0000 	strvs	r0, [pc], #-0	; 1a60 <__aeabi_fmul+0xd0>
    1a5c:	2ace0610 	bcs	ff3832a4 <__stack+0xdf3532a4>
    1a60:	000004ca 	andeq	r0, r0, sl, asr #9
    1a64:	0002b90c 	andeq	fp, r2, ip, lsl #18
    1a68:	2acf0600 	bcs	ff3c3270 <__stack+0xdf393270>
    1a6c:	000000cd 	andeq	r0, r0, sp, asr #1
    1a70:	00460c00 	subeq	r0, r6, r0, lsl #24
    1a74:	d0060000 	andle	r0, r6, r0
    1a78:	0000cd2a 	andeq	ip, r0, sl, lsr #26
    1a7c:	f90c0400 			; <UNDEFINED> instruction: 0xf90c0400
    1a80:	06000002 	streq	r0, [r0], -r2
    1a84:	04ca2ad1 	strbeq	r2, [sl], #2769	; 0xad1
    1a88:	10080000 	andne	r0, r8, r0
    1a8c:	000002cf 	andeq	r0, r0, pc, asr #5
    1a90:	cd2ad206 	sfmgt	f5, 1, [sl, #-24]!	; 0xffffffe8
    1a94:	04000000 	streq	r0, [r0], #-0
    1a98:	03041010 	movweq	r1, #16400	; 0x4010
    1a9c:	d3060000 	movwle	r0, #24576	; 0x6000
    1aa0:	0000f52a 	andeq	pc, r0, sl, lsr #10
    1aa4:	10100800 	andsne	r0, r0, r0, lsl #16
    1aa8:	0000037a 	andeq	r0, r0, sl, ror r3
    1aac:	cd2ad406 	cfstrsgt	mvf13, [sl, #-24]!	; 0xffffffe8
    1ab0:	0c000000 	stceq	0, cr0, [r0], {-0}
    1ab4:	00001010 	andeq	r1, r0, r0, lsl r0
    1ab8:	d5060000 	strle	r0, [r6, #-0]
    1abc:	0000cd2a 	andeq	ip, r0, sl, lsr #26
    1ac0:	10101000 	andsne	r1, r0, r0
    1ac4:	0000030f 	andeq	r0, r0, pc, lsl #6
    1ac8:	f52ad606 			; <UNDEFINED> instruction: 0xf52ad606
    1acc:	14000000 	strne	r0, [r0], #-0
    1ad0:	01e71010 	mvneq	r1, r0, lsl r0
    1ad4:	d7060000 	strle	r0, [r6, -r0]
    1ad8:	0000cd2a 	andeq	ip, r0, sl, lsr #26
    1adc:	10101800 	andsne	r1, r0, r0, lsl #16
    1ae0:	0000031a 	andeq	r0, r0, sl, lsl r3
    1ae4:	152ad806 	strne	sp, [sl, #-2054]!	; 0xfffff7fa
    1ae8:	1c000001 	stcne	0, cr0, [r0], {1}
    1aec:	00411010 	subeq	r1, r1, r0, lsl r0
    1af0:	d9060000 	stmdble	r6, {}	; <UNPREDICTABLE>
    1af4:	0000d22a 	andeq	sp, r0, sl, lsr #4
    1af8:	10102400 	andsne	r2, r0, r0, lsl #8
    1afc:	000001a7 	andeq	r0, r0, r7, lsr #3
    1b00:	cd2ada06 	vstmdbgt	sl!, {s26-s31}
    1b04:	28000000 	stmdacs	r0, {}	; <UNPREDICTABLE>
    1b08:	01ad1010 			; <UNDEFINED> instruction: 0x01ad1010
    1b0c:	db060000 	blle	181b14 <__exidx_end+0x17f15c>
    1b10:	0000cd2a 	andeq	ip, r0, sl, lsr #26
    1b14:	10102c00 	andsne	r2, r0, r0, lsl #24
    1b18:	000001b3 			; <UNDEFINED> instruction: 0x000001b3
    1b1c:	cd2adc06 	stcgt	12, cr13, [sl, #-24]!	; 0xffffffe8
    1b20:	30000000 	andcc	r0, r0, r0
    1b24:	01b91010 			; <UNDEFINED> instruction: 0x01b91010
    1b28:	dd060000 	stcle	0, cr0, [r6, #-0]
    1b2c:	0000cd2a 	andeq	ip, r0, sl, lsr #26
    1b30:	10103400 	andsne	r3, r0, r0, lsl #8
    1b34:	000001bf 			; <UNDEFINED> instruction: 0x000001bf
    1b38:	cd2ade06 	stcgt	14, cr13, [sl, #-24]!	; 0xffffffe8
    1b3c:	38000000 	stmdacc	r0, {}	; <UNPREDICTABLE>
    1b40:	01c51010 	biceq	r1, r5, r0, lsl r0
    1b44:	df060000 	svcle	0x00060000
    1b48:	0000cd2a 	andeq	ip, r0, sl, lsr #26
    1b4c:	10103c00 	andsne	r3, r0, r0, lsl #24
    1b50:	000001cb 	andeq	r0, r0, fp, asr #3
    1b54:	cd2ae006 	stcgt	0, cr14, [sl, #-24]!	; 0xffffffe8
    1b58:	40000000 	andmi	r0, r0, r0
    1b5c:	01ed1010 	mvneq	r1, r0, lsl r0
    1b60:	e1060000 	mrs	r0, (UNDEF: 6)
    1b64:	0000cd2a 	andeq	ip, r0, sl, lsr #26
    1b68:	10104400 	andsne	r4, r0, r0, lsl #8
    1b6c:	000001f5 	strdeq	r0, [r0], -r5
    1b70:	cd2ae206 	sfmgt	f6, 1, [sl, #-24]!	; 0xffffffe8
    1b74:	48000000 	stmdami	r0, {}	; <UNPREDICTABLE>
    1b78:	00061010 	andeq	r1, r6, r0, lsl r0
    1b7c:	e3060000 	movw	r0, #24576	; 0x6000
    1b80:	0000cd2a 	andeq	ip, r0, sl, lsr #26
    1b84:	10104c00 	andsne	r4, r0, r0, lsl #24
    1b88:	0000000c 	andeq	r0, r0, ip
    1b8c:	d22ae406 	eorle	lr, sl, #100663296	; 0x6000000
    1b90:	50000000 	andpl	r0, r0, r0
    1b94:	00a11010 	adceq	r1, r1, r0, lsl r0
    1b98:	e5060000 	str	r0, [r6, #-0]
    1b9c:	0000d22a 	andeq	sp, r0, sl, lsr #4
    1ba0:	10105400 	andsne	r5, r0, r0, lsl #8
    1ba4:	000001d1 	ldrdeq	r0, [r0], -r1
    1ba8:	d22ae606 	eorle	lr, sl, #6291456	; 0x600000
    1bac:	58000000 	stmdapl	r0, {}	; <UNPREDICTABLE>
    1bb0:	02f31010 	rscseq	r1, r3, #16
    1bb4:	e7060000 	str	r0, [r6, -r0]
    1bb8:	0000d22a 	andeq	sp, r0, sl, lsr #4
    1bbc:	10105c00 	andsne	r5, r0, r0, lsl #24
    1bc0:	000000b0 	strheq	r0, [r0], -r0	; <UNPREDICTABLE>
    1bc4:	d22ae806 	eorle	lr, sl, #393216	; 0x60000
    1bc8:	60000000 	andvs	r0, r0, r0
    1bcc:	9c090010 	stcls	0, cr0, [r9], {16}
    1bd0:	db000000 	blle	1bd8 <__aeabi_fdiv+0xe0>
    1bd4:	11000004 	tstne	r0, r4
    1bd8:	000000d7 	ldrdeq	r0, [r0], -r7
    1bdc:	0e000ffb 	mcreq	15, 0, r0, cr0, cr11, {7}
    1be0:	0000008d 	andeq	r0, r0, sp, lsl #1
    1be4:	562ae906 	strtpl	lr, [sl], -r6, lsl #18
    1be8:	12000003 	andne	r0, r0, #3
    1bec:	00000c2b 	andeq	r0, r0, fp, lsr #24
    1bf0:	00971901 	addseq	r1, r7, r1, lsl #18
    1bf4:	03050000 	movweq	r0, #20480	; 0x5000
    1bf8:	1fff0224 	svcne	0x00ff0224
    1bfc:	000c9912 	andeq	r9, ip, r2, lsl r9
    1c00:	251a0100 	ldrcs	r0, [sl, #-256]	; 0xffffff00
    1c04:	05000000 	streq	r0, [r0, #-0]
    1c08:	ff022c03 			; <UNDEFINED> instruction: 0xff022c03
    1c0c:	0cb1121f 	lfmeq	f1, 4, [r1], #124	; 0x7c
    1c10:	1b010000 	blne	41c18 <__exidx_end+0x3f260>
    1c14:	00000025 	andeq	r0, r0, r5, lsr #32
    1c18:	02280305 	eoreq	r0, r8, #335544320	; 0x14000000
    1c1c:	42131fff 	andsmi	r1, r3, #1020	; 0x3fc
    1c20:	0100000c 	tsteq	r0, ip
    1c24:	0009047c 	andeq	r0, r9, ip, ror r4
    1c28:	00002400 	andeq	r2, r0, r0, lsl #8
    1c2c:	149c0100 	ldrne	r0, [ip], #256	; 0x100
    1c30:	00000c39 	andeq	r0, r0, r9, lsr ip
    1c34:	00903401 	addseq	r3, r0, r1, lsl #8
    1c38:	08580000 	ldmdaeq	r8, {}^	; <UNPREDICTABLE>
    1c3c:	00ac0000 	adceq	r0, ip, r0
    1c40:	9c010000 	stcls	0, cr0, [r1], {-0}
    1c44:	0000057f 	andeq	r0, r0, pc, ror r5
    1c48:	000cdd15 	andeq	sp, ip, r5, lsl sp
    1c4c:	c2340100 	eorsgt	r0, r4, #0, 2
    1c50:	94000000 	strls	r0, [r0], #-0
    1c54:	16000004 	strne	r0, [r0], -r4
    1c58:	36010069 	strcc	r0, [r1], -r9, rrx
    1c5c:	00000090 	muleq	r0, r0, r0
    1c60:	000004dd 	ldrdeq	r0, [r0], -sp
    1c64:	000d0617 	andeq	r0, sp, r7, lsl r6
    1c68:	90370100 	eorsls	r0, r7, r0, lsl #2
    1c6c:	f0000000 			; <UNDEFINED> instruction: 0xf0000000
    1c70:	17000004 	strne	r0, [r0, -r4]
    1c74:	00000cd1 	ldrdeq	r0, [r0], -r1
    1c78:	00903801 	addseq	r3, r0, r1, lsl #16
    1c7c:	05250000 	streq	r0, [r5, #-0]!
    1c80:	18000000 	stmdane	r0, {}	; <UNPREDICTABLE>
    1c84:	00000c5a 	andeq	r0, r0, sl, asr ip
    1c88:	08302401 	ldmdaeq	r0!, {r0, sl, sp}
    1c8c:	00280000 	eoreq	r0, r8, r0
    1c90:	9c010000 	stcls	0, cr0, [r1], {-0}
    1c94:	000d1f15 	andeq	r1, sp, r5, lsl pc
    1c98:	25240100 	strcs	r0, [r4, #-256]!	; 0xffffff00
    1c9c:	44000000 	strmi	r0, [r0], #-0
    1ca0:	16000005 	strne	r0, [r0], -r5
    1ca4:	00646f6d 	rsbeq	r6, r4, sp, ror #30
    1ca8:	00a72801 	adceq	r2, r7, r1, lsl #16
    1cac:	05650000 	strbeq	r0, [r5, #-0]!
    1cb0:	00000000 	andeq	r0, r0, r0
    1cb4:	000013c4 	andeq	r1, r0, r4, asr #7
    1cb8:	076f0004 	strbeq	r0, [pc, -r4]!
    1cbc:	01040000 	mrseq	r0, (UNDEF: 4)
    1cc0:	00000a3a 	andeq	r0, r0, sl, lsr sl
    1cc4:	000f8b0c 	andeq	r8, pc, ip, lsl #22
    1cc8:	000b1000 	andeq	r1, fp, r0
    1ccc:	0000b800 	andeq	fp, r0, r0, lsl #16
    1cd0:	00000000 	andeq	r0, r0, r0
    1cd4:	00060200 	andeq	r0, r6, r0, lsl #4
    1cd8:	04040200 	streq	r0, [r4], #-512	; 0xfffffe00
    1cdc:	0000041b 	andeq	r0, r0, fp, lsl r4
    1ce0:	ff060102 			; <UNDEFINED> instruction: 0xff060102
    1ce4:	03000001 	movweq	r0, #1
    1ce8:	00000370 	andeq	r0, r0, r0, ror r3
    1cec:	003e1d02 	eorseq	r1, lr, r2, lsl #26
    1cf0:	01020000 	mrseq	r0, (UNDEF: 2)
    1cf4:	0001fd08 	andeq	pc, r1, r8, lsl #26
    1cf8:	10ee0300 	rscne	r0, lr, r0, lsl #6
    1cfc:	29020000 	stmdbcs	r2, {}	; <UNPREDICTABLE>
    1d00:	00000050 	andeq	r0, r0, r0, asr r0
    1d04:	a6050202 	strge	r0, [r5], -r2, lsl #4
    1d08:	03000000 	movweq	r0, #0
    1d0c:	00000096 	muleq	r0, r6, r0
    1d10:	00622b02 	rsbeq	r2, r2, r2, lsl #22
    1d14:	02020000 	andeq	r0, r2, #0
    1d18:	00025207 	andeq	r5, r2, r7, lsl #4
    1d1c:	03250300 			; <UNDEFINED> instruction: 0x03250300
    1d20:	3f020000 	svccc	0x00020000
    1d24:	00000074 	andeq	r0, r0, r4, ror r0
    1d28:	97050402 	strls	r0, [r5, -r2, lsl #8]
    1d2c:	03000001 	movweq	r0, #1
    1d30:	0000007a 	andeq	r0, r0, sl, ror r0
    1d34:	00864102 	addeq	r4, r6, r2, lsl #2
    1d38:	04020000 	streq	r0, [r2], #-0
    1d3c:	00021507 	andeq	r1, r2, r7, lsl #10
    1d40:	05080200 	streq	r0, [r8, #-512]	; 0xfffffe00
    1d44:	00000192 	muleq	r0, r2, r1
    1d48:	10070802 	andne	r0, r7, r2, lsl #16
    1d4c:	04000002 	streq	r0, [r0], #-2
    1d50:	6e690504 	cdpvs	5, 6, cr0, cr9, cr4, {0}
    1d54:	9b050074 	blls	141f2c <__exidx_end+0x13f574>
    1d58:	02000000 	andeq	r0, r0, #0
    1d5c:	021a0704 	andseq	r0, sl, #4, 14	; 0x100000
    1d60:	72030000 	andvc	r0, r3, #0
    1d64:	03000003 	movweq	r0, #3
    1d68:	00003318 	andeq	r3, r0, r8, lsl r3
    1d6c:	00ae0500 	adceq	r0, lr, r0, lsl #10
    1d70:	b9060000 	stmdblt	r6, {}	; <UNPREDICTABLE>
    1d74:	06000000 	streq	r0, [r0], -r0
    1d78:	000000ae 	andeq	r0, r0, lr, lsr #1
    1d7c:	0010f003 	andseq	pc, r0, r3
    1d80:	45200300 	strmi	r0, [r0, #-768]!	; 0xfffffd00
    1d84:	05000000 	streq	r0, [r0, #-0]
    1d88:	000000c8 	andeq	r0, r0, r8, asr #1
    1d8c:	00009803 	andeq	r9, r0, r3, lsl #16
    1d90:	57240300 	strpl	r0, [r4, -r0, lsl #6]!
    1d94:	03000000 	movweq	r0, #0
    1d98:	00000327 	andeq	r0, r0, r7, lsr #6
    1d9c:	00692c03 	rsbeq	r2, r9, r3, lsl #24
    1da0:	e3050000 	movw	r0, #20480	; 0x5000
    1da4:	03000000 	movweq	r0, #0
    1da8:	0000007c 	andeq	r0, r0, ip, ror r0
    1dac:	007b3003 	rsbseq	r3, fp, r3
    1db0:	f3050000 	vhadd.u8	d0, d5, d0
    1db4:	06000000 	streq	r0, [r0], -r0
    1db8:	000000fe 	strdeq	r0, [r0], -lr
    1dbc:	55070402 	strpl	r0, [r7, #-1026]	; 0xfffffbfe
    1dc0:	07000000 	streq	r0, [r0, -r0]
    1dc4:	00000103 	andeq	r0, r0, r3, lsl #2
    1dc8:	0000011f 	andeq	r0, r0, pc, lsl r1
    1dcc:	00010808 	andeq	r0, r1, r8, lsl #16
    1dd0:	06000100 	streq	r0, [r0], -r0, lsl #2
    1dd4:	0000010f 	andeq	r0, r0, pc, lsl #2
    1dd8:	00011f05 	andeq	r1, r1, r5, lsl #30
    1ddc:	03540900 	cmpeq	r4, #0, 18
    1de0:	a7040000 	strge	r0, [r4, -r0]
    1de4:	0000ee06 	andeq	lr, r0, r6, lsl #28
    1de8:	02bf0a00 	adcseq	r0, pc, #0, 20
    1dec:	44050000 	strmi	r0, [r5], #-0
    1df0:	000000f3 	strdeq	r0, [r0], -r3
    1df4:	1f06700b 	svcne	0x0006700b
    1df8:	00029801 	andeq	r9, r2, r1, lsl #16
    1dfc:	43530c00 	cmpmi	r3, #0, 24
    1e00:	20060031 	andcs	r0, r6, r1, lsr r0
    1e04:	0002a801 	andeq	sl, r2, r1, lsl #16
    1e08:	070d0000 	streq	r0, [sp, -r0]
    1e0c:	06000000 	streq	r0, [r0], -r0
    1e10:	00fe0121 	rscseq	r0, lr, r1, lsr #2
    1e14:	0d080000 	stceq	0, cr0, [r8, #-0]
    1e18:	0000000d 	andeq	r0, r0, sp
    1e1c:	fe012206 	cdp2	2, 0, cr2, cr1, cr6, {0}
    1e20:	0c000000 	stceq	0, cr0, [r0], {-0}
    1e24:	0600520c 	streq	r5, [r0], -ip, lsl #4
    1e28:	01240123 			; <UNDEFINED> instruction: 0x01240123
    1e2c:	0c100000 	ldceq	0, cr0, [r0], {-0}
    1e30:	00315643 	eorseq	r5, r1, r3, asr #12
    1e34:	fe012406 	cdp2	4, 0, cr2, cr1, cr6, {0}
    1e38:	18000000 	stmdane	r0, {}	; <UNPREDICTABLE>
    1e3c:	3256430c 	subscc	r4, r6, #12, 6	; 0x30000000
    1e40:	01250600 			; <UNDEFINED> instruction: 0x01250600
    1e44:	000000fe 	strdeq	r0, [r0], -lr
    1e48:	43530c1c 	cmpmi	r3, #28, 24	; 0x1c00
    1e4c:	26060032 			; <UNDEFINED> instruction: 0x26060032
    1e50:	0000fe01 	andeq	pc, r0, r1, lsl #28
    1e54:	530c2000 	movwpl	r2, #49152	; 0xc000
    1e58:	06003343 	streq	r3, [r0], -r3, asr #6
    1e5c:	00fe0127 	rscseq	r0, lr, r7, lsr #2
    1e60:	0c240000 	stceq	0, cr0, [r4], #-0
    1e64:	0053464f 	subseq	r4, r3, pc, asr #12
    1e68:	fe012806 	cdp2	8, 0, cr2, cr1, cr6, {0}
    1e6c:	28000000 	stmdacs	r0, {}	; <UNPREDICTABLE>
    1e70:	0047500c 	subeq	r5, r7, ip
    1e74:	fe012906 	vseleq.f16	s4, s2, s12
    1e78:	2c000000 	stccs	0, cr0, [r0], {-0}
    1e7c:	00474d0c 	subeq	r4, r7, ip, lsl #26
    1e80:	fe012a06 	vseleq.f32	s4, s2, s12
    1e84:	30000000 	andcc	r0, r0, r0
    1e88:	0011cf0d 	andseq	ip, r1, sp, lsl #30
    1e8c:	012b0600 			; <UNDEFINED> instruction: 0x012b0600
    1e90:	000000fe 	strdeq	r0, [r0], -lr
    1e94:	11eb0d34 	mvnne	r0, r4, lsr sp
    1e98:	2c060000 	stccs	0, cr0, [r6], {-0}
    1e9c:	0000fe01 	andeq	pc, r0, r1, lsl #28
    1ea0:	ca0d3800 	bgt	34fea8 <__exidx_end+0x34d4f0>
    1ea4:	06000011 			; <UNDEFINED> instruction: 0x06000011
    1ea8:	00fe012d 	rscseq	r0, lr, sp, lsr #2
    1eac:	0d3c0000 	ldceq	0, cr0, [ip, #-0]
    1eb0:	000011c5 	andeq	r1, r0, r5, asr #3
    1eb4:	fe012e06 	cdp2	14, 0, cr2, cr1, cr6, {0}
    1eb8:	40000000 	andmi	r0, r0, r0
    1ebc:	0011c00d 	andseq	ip, r1, sp
    1ec0:	012f0600 			; <UNDEFINED> instruction: 0x012f0600
    1ec4:	000000fe 	strdeq	r0, [r0], -lr
    1ec8:	11bb0d44 			; <UNDEFINED> instruction: 0x11bb0d44
    1ecc:	30060000 	andcc	r0, r6, r0
    1ed0:	0000fe01 	andeq	pc, r0, r1, lsl #28
    1ed4:	b60d4800 	strlt	r4, [sp], -r0, lsl #16
    1ed8:	06000011 			; <UNDEFINED> instruction: 0x06000011
    1edc:	00fe0131 	rscseq	r0, lr, r1, lsr r1
    1ee0:	0d4c0000 	stcleq	0, cr0, [ip, #-0]
    1ee4:	000002f9 	strdeq	r0, [r0], -r9
    1ee8:	ad013206 	sfmge	f3, 4, [r1, #-24]	; 0xffffffe8
    1eec:	50000002 	andpl	r0, r0, r2
    1ef0:	00115c0d 	andseq	r5, r1, sp, lsl #24
    1ef4:	01330600 	teqeq	r3, r0, lsl #12
    1ef8:	000000fe 	strdeq	r0, [r0], -lr
    1efc:	11610d54 	cmnne	r1, r4, asr sp
    1f00:	34060000 	strcc	r0, [r6], #-0
    1f04:	0000fe01 	andeq	pc, r0, r1, lsl #28
    1f08:	290d5800 	stmdbcs	sp, {fp, ip, lr}
    1f0c:	06000011 			; <UNDEFINED> instruction: 0x06000011
    1f10:	00fe0135 	rscseq	r0, lr, r5, lsr r1
    1f14:	0d5c0000 	ldcleq	0, cr0, [ip, #-0]
    1f18:	00001124 	andeq	r1, r0, r4, lsr #2
    1f1c:	fe013606 	cdp2	6, 0, cr3, cr1, cr6, {0}
    1f20:	60000000 	andvs	r0, r0, r0
    1f24:	00111f0d 	andseq	r1, r1, sp, lsl #30
    1f28:	01370600 	teqeq	r7, r0, lsl #12
    1f2c:	000000fe 	strdeq	r0, [r0], -lr
    1f30:	111a0d64 	tstne	sl, r4, ror #26
    1f34:	38060000 	stmdacc	r6, {}	; <UNPREDICTABLE>
    1f38:	0000fe01 	andeq	pc, r0, r1, lsl #28
    1f3c:	150d6800 	strne	r6, [sp, #-2048]	; 0xfffff800
    1f40:	06000011 			; <UNDEFINED> instruction: 0x06000011
    1f44:	00fe0139 	rscseq	r0, lr, r9, lsr r1
    1f48:	006c0000 	rsbeq	r0, ip, r0
    1f4c:	0000fe07 	andeq	pc, r0, r7, lsl #28
    1f50:	0002a800 	andeq	sl, r2, r0, lsl #16
    1f54:	01080800 	tsteq	r8, r0, lsl #16
    1f58:	00010000 	andeq	r0, r1, r0
    1f5c:	00029805 	andeq	r9, r2, r5, lsl #16
    1f60:	00ae0700 	adceq	r0, lr, r0, lsl #14
    1f64:	02bd0000 	adcseq	r0, sp, #0
    1f68:	08080000 	stmdaeq	r8, {}	; <UNPREDICTABLE>
    1f6c:	03000001 	movweq	r0, #1
    1f70:	11900e00 	orrsne	r0, r0, r0, lsl #28
    1f74:	3a060000 	bcc	181f7c <__exidx_end+0x17f5c4>
    1f78:	00014001 	andeq	r4, r1, r1
    1f7c:	00ae0700 	adceq	r0, lr, r0, lsl #14
    1f80:	02d90000 	sbcseq	r0, r9, #0
    1f84:	08080000 	stmdaeq	r8, {}	; <UNPREDICTABLE>
    1f88:	1b000001 	blne	1f94 <__register_exitproc+0x10>
    1f8c:	00ae0700 	adceq	r0, lr, r0, lsl #14
    1f90:	02e90000 	rsceq	r0, r9, #0
    1f94:	08080000 	stmdaeq	r8, {}	; <UNPREDICTABLE>
    1f98:	07000001 	streq	r0, [r0, -r1]
    1f9c:	00ae0700 	adceq	r0, lr, r0, lsl #14
    1fa0:	02f90000 	rscseq	r0, r9, #0
    1fa4:	08080000 	stmdaeq	r8, {}	; <UNPREDICTABLE>
    1fa8:	17000001 	strne	r0, [r0, -r1]
    1fac:	06180b00 	ldreq	r0, [r8], -r0, lsl #22
    1fb0:	03511a59 	cmpeq	r1, #364544	; 0x59000
    1fb4:	660d0000 	strvs	r0, [sp], -r0
    1fb8:	06000011 			; <UNDEFINED> instruction: 0x06000011
    1fbc:	00fe1a5a 	rscseq	r1, lr, sl, asr sl
    1fc0:	0d000000 	stceq	0, cr0, [r0, #-0]
    1fc4:	00001177 	andeq	r1, r0, r7, ror r1
    1fc8:	fe1a5b06 	vselvs.f64	d5, d10, d6
    1fcc:	04000000 	streq	r0, [r0], #-0
    1fd0:	0010310d 	andseq	r3, r0, sp, lsl #2
    1fd4:	1a5c0600 	bne	17037dc <__exidx_end+0x1700e24>
    1fd8:	000000fe 	strdeq	r0, [r0], -lr
    1fdc:	0d290d08 	stceq	13, cr0, [r9, #-32]!	; 0xffffffe0
    1fe0:	5d060000 	stcpl	0, cr0, [r6, #-0]
    1fe4:	0000fe1a 	andeq	pc, r0, sl, lsl lr	; <UNPREDICTABLE>
    1fe8:	360d0c00 	strcc	r0, [sp], -r0, lsl #24
    1fec:	06000010 			; <UNDEFINED> instruction: 0x06000010
    1ff0:	01031a5e 	tsteq	r3, lr, asr sl
    1ff4:	0d100000 	ldceq	0, cr0, [r0, #-0]
    1ff8:	00000f2c 	andeq	r0, r0, ip, lsr #30
    1ffc:	fe1a5f06 	cdp2	15, 1, cr5, cr10, cr6, {0}
    2000:	14000000 	strne	r0, [r0], #-0
    2004:	107a0e00 	rsbsne	r0, sl, r0, lsl #28
    2008:	60060000 	andvs	r0, r6, r0
    200c:	0002f91a 	andeq	pc, r2, sl, lsl r9	; <UNPREDICTABLE>
    2010:	00ae0700 	adceq	r0, lr, r0, lsl #14
    2014:	036d0000 	cmneq	sp, #0
    2018:	08080000 	stmdaeq	r8, {}	; <UNPREDICTABLE>
    201c:	00000001 	andeq	r0, r0, r1
    2020:	06cc0b00 	strbeq	r0, [ip], r0, lsl #22
    2024:	03ec24ba 	mvneq	r2, #-1174405120	; 0xba000000
    2028:	500c0000 	andpl	r0, ip, r0
    202c:	06005243 	streq	r5, [r0], -r3, asr #4
    2030:	03fc24bb 	mvnseq	r2, #-1157627904	; 0xbb000000
    2034:	0d000000 	stceq	0, cr0, [r0, #-0]
    2038:	00000227 	andeq	r0, r0, r7, lsr #4
    203c:	fe24bc06 	cdp2	12, 2, cr11, cr4, cr6, {0}
    2040:	80000000 	andhi	r0, r0, r0
    2044:	0001e10d 	andeq	lr, r1, sp, lsl #2
    2048:	24bd0600 	ldrtcs	r0, [sp], #1536	; 0x600
    204c:	000000fe 	strdeq	r0, [r0], -lr
    2050:	02f90d84 	rscseq	r0, r9, #132, 26	; 0x2100
    2054:	be060000 	cdplt	0, 0, cr0, cr6, cr0, {0}
    2058:	0002e924 	andeq	lr, r2, r4, lsr #18
    205c:	0b0d8800 	bleq	364064 <__exidx_end+0x3616ac>
    2060:	06000002 	streq	r0, [r0], -r2
    2064:	00fe24bf 	ldrhteq	r2, [lr], #79	; 0x4f
    2068:	0da00000 	stceq	0, cr0, [r0]
    206c:	00000304 	andeq	r0, r0, r4, lsl #6
    2070:	c924c006 	stmdbgt	r4!, {r1, r2, lr, pc}
    2074:	a4000002 	strge	r0, [r0], #-2
    2078:	0003610d 	andeq	r6, r3, sp, lsl #2
    207c:	24c10600 	strbcs	r0, [r1], #1536	; 0x600
    2080:	000000fe 	strdeq	r0, [r0], -lr
    2084:	02420dc0 	subeq	r0, r2, #192, 26	; 0x3000
    2088:	c2060000 	andgt	r0, r6, #0
    208c:	0000fe24 	andeq	pc, r0, r4, lsr #28
    2090:	ee0dc400 	cfcpys	mvf12, mvf13
    2094:	06000002 	streq	r0, [r0], -r2
    2098:	00fe24c3 	rscseq	r2, lr, r3, asr #9
    209c:	00c80000 	sbceq	r0, r8, r0
    20a0:	0000fe07 	andeq	pc, r0, r7, lsl #28
    20a4:	0003fc00 	andeq	pc, r3, r0, lsl #24
    20a8:	01080800 	tsteq	r8, r0, lsl #16
    20ac:	001f0000 	andseq	r0, pc, r0
    20b0:	0003ec05 	andeq	lr, r3, r5, lsl #24
    20b4:	03660e00 	cmneq	r6, #0, 28
    20b8:	c4060000 	strgt	r0, [r6], #-0
    20bc:	00036d24 	andeq	r6, r3, r4, lsr #26
    20c0:	10640f00 	rsbne	r0, r4, r0, lsl #30
    20c4:	812ace06 			; <UNDEFINED> instruction: 0x812ace06
    20c8:	0d000005 	stceq	0, cr0, [r0, #-20]	; 0xffffffec
    20cc:	000002b9 			; <UNDEFINED> instruction: 0x000002b9
    20d0:	fe2acf06 	cdp2	15, 2, cr12, cr10, cr6, {0}
    20d4:	00000000 	andeq	r0, r0, r0
    20d8:	0000460d 	andeq	r4, r0, sp, lsl #12
    20dc:	2ad00600 	bcs	ff4038e4 <__stack+0xdf3d38e4>
    20e0:	000000fe 	strdeq	r0, [r0], -lr
    20e4:	02f90d04 	rscseq	r0, r9, #4, 26	; 0x100
    20e8:	d1060000 	mrsle	r0, (UNDEF: 6)
    20ec:	0005812a 	andeq	r8, r5, sl, lsr #2
    20f0:	cf100800 	svcgt	0x00100800
    20f4:	06000002 	streq	r0, [r0], -r2
    20f8:	00fe2ad2 	ldrsbteq	r2, [lr], #162	; 0xa2
    20fc:	10040000 	andne	r0, r4, r0
    2100:	00030410 	andeq	r0, r3, r0, lsl r4
    2104:	2ad30600 	bcs	ff4c390c <__stack+0xdf49390c>
    2108:	000002ad 	andeq	r0, r0, sp, lsr #5
    210c:	7a101008 	bvc	406134 <__exidx_end+0x40377c>
    2110:	06000003 	streq	r0, [r0], -r3
    2114:	00fe2ad4 	ldrsbteq	r2, [lr], #164	; 0xa4
    2118:	100c0000 	andne	r0, ip, r0
    211c:	00000010 	andeq	r0, r0, r0, lsl r0
    2120:	2ad50600 	bcs	ff543928 <__stack+0xdf513928>
    2124:	000000fe 	strdeq	r0, [r0], -lr
    2128:	0f101010 	svceq	0x00101010
    212c:	06000003 	streq	r0, [r0], -r3
    2130:	02ad2ad6 	adceq	r2, sp, #876544	; 0xd6000
    2134:	10140000 	andsne	r0, r4, r0
    2138:	0001e710 	andeq	lr, r1, r0, lsl r7
    213c:	2ad70600 	bcs	ff5c3944 <__stack+0xdf593944>
    2140:	000000fe 	strdeq	r0, [r0], -lr
    2144:	1a101018 	bne	4061ac <__exidx_end+0x4037f4>
    2148:	06000003 	streq	r0, [r0], -r3
    214c:	02d92ad8 	sbcseq	r2, r9, #216, 20	; 0xd8000
    2150:	101c0000 	andsne	r0, ip, r0
    2154:	00004110 	andeq	r4, r0, r0, lsl r1
    2158:	2ad90600 	bcs	ff643960 <__stack+0xdf613960>
    215c:	00000103 	andeq	r0, r0, r3, lsl #2
    2160:	a7101024 	ldrge	r1, [r0, -r4, lsr #32]
    2164:	06000001 	streq	r0, [r0], -r1
    2168:	00fe2ada 	ldrsbteq	r2, [lr], #170	; 0xaa
    216c:	10280000 	eorne	r0, r8, r0
    2170:	0001ad10 	andeq	sl, r1, r0, lsl sp
    2174:	2adb0600 	bcs	ff6c397c <__stack+0xdf69397c>
    2178:	000000fe 	strdeq	r0, [r0], -lr
    217c:	b310102c 	tstlt	r0, #44	; 0x2c
    2180:	06000001 	streq	r0, [r0], -r1
    2184:	00fe2adc 	ldrsbteq	r2, [lr], #172	; 0xac
    2188:	10300000 	eorsne	r0, r0, r0
    218c:	0001b910 	andeq	fp, r1, r0, lsl r9
    2190:	2add0600 	bcs	ff743998 <__stack+0xdf713998>
    2194:	000000fe 	strdeq	r0, [r0], -lr
    2198:	bf101034 	svclt	0x00101034
    219c:	06000001 	streq	r0, [r0], -r1
    21a0:	00fe2ade 	ldrsbteq	r2, [lr], #174	; 0xae
    21a4:	10380000 	eorsne	r0, r8, r0
    21a8:	0001c510 	andeq	ip, r1, r0, lsl r5
    21ac:	2adf0600 	bcs	ff7c39b4 <__stack+0xdf7939b4>
    21b0:	000000fe 	strdeq	r0, [r0], -lr
    21b4:	cb10103c 	blgt	4062ac <__exidx_end+0x4038f4>
    21b8:	06000001 	streq	r0, [r0], -r1
    21bc:	00fe2ae0 	rscseq	r2, lr, r0, ror #21
    21c0:	10400000 	subne	r0, r0, r0
    21c4:	0001ed10 	andeq	lr, r1, r0, lsl sp
    21c8:	2ae10600 	bcs	ff8439d0 <__stack+0xdf8139d0>
    21cc:	000000fe 	strdeq	r0, [r0], -lr
    21d0:	f5101044 			; <UNDEFINED> instruction: 0xf5101044
    21d4:	06000001 	streq	r0, [r0], -r1
    21d8:	00fe2ae2 	rscseq	r2, lr, r2, ror #21
    21dc:	10480000 	subne	r0, r8, r0
    21e0:	00000610 	andeq	r0, r0, r0, lsl r6
    21e4:	2ae30600 	bcs	ff8c39ec <__stack+0xdf8939ec>
    21e8:	000000fe 	strdeq	r0, [r0], -lr
    21ec:	0c10104c 	ldceq	0, cr1, [r0], {76}	; 0x4c
    21f0:	06000000 	streq	r0, [r0], -r0
    21f4:	01032ae4 	smlatteq	r3, r4, sl, r2
    21f8:	10500000 	subsne	r0, r0, r0
    21fc:	0000a110 	andeq	sl, r0, r0, lsl r1
    2200:	2ae50600 	bcs	ff943a08 <__stack+0xdf913a08>
    2204:	00000103 	andeq	r0, r0, r3, lsl #2
    2208:	d1101054 	tstle	r0, r4, asr r0
    220c:	06000001 	streq	r0, [r0], -r1
    2210:	01032ae6 	smlatteq	r3, r6, sl, r2
    2214:	10580000 	subsne	r0, r8, r0
    2218:	0002f310 	andeq	pc, r2, r0, lsl r3	; <UNPREDICTABLE>
    221c:	2ae70600 	bcs	ff9c3a24 <__stack+0xdf993a24>
    2220:	00000103 	andeq	r0, r0, r3, lsl #2
    2224:	b010105c 	andslt	r1, r0, ip, asr r0
    2228:	06000000 	streq	r0, [r0], -r0
    222c:	01032ae8 	smlatteq	r3, r8, sl, r2
    2230:	10600000 	rsbne	r0, r0, r0
    2234:	00ae0700 	adceq	r0, lr, r0, lsl #14
    2238:	05920000 	ldreq	r0, [r2]
    223c:	08110000 	ldmdaeq	r1, {}	; <UNPREDICTABLE>
    2240:	fb000001 	blx	224e <_svfiprintf_r+0x6e>
    2244:	8d0e000f 	stchi	0, cr0, [lr, #-60]	; 0xffffffc4
    2248:	06000000 	streq	r0, [r0], -r0
    224c:	040d2ae9 	streq	r2, [sp], #-2793	; 0xfffff517
    2250:	01120000 	tsteq	r2, r0
    2254:	c02e9e06 	eorgt	r9, lr, r6, lsl #28
    2258:	13000005 	movwne	r0, #5
    225c:	00000bd6 	ldrdeq	r0, [r0], -r6
    2260:	b92e9f06 	stmdblt	lr!, {r1, r2, r8, r9, sl, fp, ip, pc}
    2264:	13000000 	movwne	r0, #0
    2268:	00000be5 	andeq	r0, r0, r5, ror #23
    226c:	b92ea006 	stmdblt	lr!, {r1, r2, sp, pc}
    2270:	00000000 	andeq	r0, r0, r0
    2274:	8206200b 	andhi	r2, r6, #11
    2278:	0007582e 	andeq	r5, r7, lr, lsr #16
    227c:	44420c00 	strbmi	r0, [r2], #-3072	; 0xfffff400
    2280:	83060048 	movwhi	r0, #24648	; 0x6048
    2284:	0000b92e 	andeq	fp, r0, lr, lsr #18
    2288:	420c0000 	andmi	r0, ip, #0
    228c:	06004c44 	streq	r4, [r0], -r4, asr #24
    2290:	00b92e84 	adcseq	r2, r9, r4, lsl #29
    2294:	0c010000 	stceq	0, cr0, [r1], {-0}
    2298:	06003143 	streq	r3, [r0], -r3, asr #2
    229c:	00b92e85 	adcseq	r2, r9, r5, lsl #29
    22a0:	0c020000 	stceq	0, cr0, [r2], {-0}
    22a4:	06003243 	streq	r3, [r0], -r3, asr #4
    22a8:	00b92e86 	adcseq	r2, r9, r6, lsl #29
    22ac:	0c030000 	stceq	0, cr0, [r3], {-0}
    22b0:	06003153 			; <UNDEFINED> instruction: 0x06003153
    22b4:	00be2e87 	adcseq	r2, lr, r7, lsl #29
    22b8:	0c040000 	stceq	0, cr0, [r4], {-0}
    22bc:	06003253 			; <UNDEFINED> instruction: 0x06003253
    22c0:	00b92e88 	adcseq	r2, r9, r8, lsl #29
    22c4:	0c050000 	stceq	0, cr0, [r5], {-0}
    22c8:	06003343 	streq	r3, [r0], -r3, asr #6
    22cc:	00b92e89 	adcseq	r2, r9, r9, lsl #29
    22d0:	0c060000 	stceq	0, cr0, [r6], {-0}
    22d4:	8a060044 	bhi	1823ec <__exidx_end+0x17fa34>
    22d8:	0000b92e 	andeq	fp, r0, lr, lsr #18
    22dc:	4d0c0700 	stcmi	7, cr0, [ip, #-0]
    22e0:	06003141 	streq	r3, [r0], -r1, asr #2
    22e4:	00b92e8b 	adcseq	r2, r9, fp, lsl #29
    22e8:	0c080000 	stceq	0, cr0, [r8], {-0}
    22ec:	0032414d 	eorseq	r4, r2, sp, asr #2
    22f0:	b92e8c06 	stmdblt	lr!, {r1, r2, sl, fp, pc}
    22f4:	09000000 	stmdbeq	r0, {}	; <UNPREDICTABLE>
    22f8:	0034430c 	eorseq	r4, r4, ip, lsl #6
    22fc:	b92e8d06 	stmdblt	lr!, {r1, r2, r8, sl, fp, pc}
    2300:	0a000000 	beq	2308 <_svfiprintf_r+0x128>
    2304:	0035430c 	eorseq	r4, r5, ip, lsl #6
    2308:	b92e8e06 	stmdblt	lr!, {r1, r2, r9, sl, fp, pc}
    230c:	0b000000 	bleq	2314 <_svfiprintf_r+0x134>
    2310:	0044450c 	subeq	r4, r4, ip, lsl #10
    2314:	be2e8f06 	cdplt	15, 2, cr8, cr14, cr6, {0}
    2318:	0c000000 	stceq	0, cr0, [r0], {-0}
    231c:	000b0a0d 	andeq	r0, fp, sp, lsl #20
    2320:	2e900600 	cdpcs	6, 9, cr0, cr0, cr0, {0}
    2324:	000000b9 	strheq	r0, [r0], -r9
    2328:	52490c0d 	subpl	r0, r9, #3328	; 0xd00
    232c:	2e910600 	cdpcs	6, 9, cr0, cr1, cr0, {0}
    2330:	000000b9 	strheq	r0, [r0], -r9
    2334:	02f90d0e 	rscseq	r0, r9, #896	; 0x380
    2338:	92060000 	andls	r0, r6, #0
    233c:	00035d2e 	andeq	r5, r3, lr, lsr #26
    2340:	b50d0f00 	strlt	r0, [sp, #-3840]	; 0xfffff100
    2344:	0600000b 	streq	r0, [r0], -fp
    2348:	00b92e93 	umlalseq	r2, r9, r3, lr
    234c:	0d100000 	ldceq	0, cr0, [r0, #-0]
    2350:	00000b3b 	andeq	r0, r0, fp, lsr fp
    2354:	b92e9406 	stmdblt	lr!, {r1, r2, sl, ip, pc}
    2358:	11000000 	mrsne	r0, (UNDEF: 0)
    235c:	000bf40d 	andeq	pc, fp, sp, lsl #8
    2360:	2e950600 	cdpcs	6, 9, cr0, cr5, cr0, {0}
    2364:	000000b9 	strheq	r0, [r0], -r9
    2368:	0b6b0d12 	bleq	1ac57b8 <__exidx_end+0x1ac2e00>
    236c:	96060000 	strls	r0, [r6], -r0
    2370:	0000b92e 	andeq	fp, r0, lr, lsr #18
    2374:	2c0d1300 	stccs	3, cr1, [sp], {-0}
    2378:	0600000b 	streq	r0, [r0], -fp
    237c:	00be2e97 	umlalseq	r2, lr, r7, lr
    2380:	0d140000 	ldceq	0, cr0, [r4, #-0]
    2384:	00000b41 	andeq	r0, r0, r1, asr #22
    2388:	b92e9806 	stmdblt	lr!, {r1, r2, fp, ip, pc}
    238c:	15000000 	strne	r0, [r0, #-0]
    2390:	000b3a0d 	andeq	r3, fp, sp, lsl #20
    2394:	2e990600 	cdpcs	6, 9, cr0, cr9, cr0, {0}
    2398:	000000be 	strheq	r0, [r0], -lr
    239c:	03040d16 	movweq	r0, #19734	; 0x4d16
    23a0:	9a060000 	bls	1823a8 <__exidx_end+0x17f9f0>
    23a4:	00035d2e 	andeq	r5, r3, lr, lsr #26
    23a8:	820d1700 	andhi	r1, sp, #0, 14
    23ac:	0600000b 	streq	r0, [r0], -fp
    23b0:	00b92e9b 	umlalseq	r2, r9, fp, lr
    23b4:	0d180000 	ldceq	0, cr0, [r8, #-0]
    23b8:	00000b72 	andeq	r0, r0, r2, ror fp
    23bc:	b92e9c06 	stmdblt	lr!, {r1, r2, sl, fp, ip, pc}
    23c0:	19000000 	stmdbne	r0, {}	; <UNPREDICTABLE>
    23c4:	000b640d 	andeq	r6, fp, sp, lsl #8
    23c8:	2e9d0600 	cdpcs	6, 9, cr0, cr13, cr0, {0}
    23cc:	000000b9 	strheq	r0, [r0], -r9
    23d0:	059e141a 	ldreq	r1, [lr, #1050]	; 0x41a
    23d4:	0d1b0000 	ldceq	0, cr0, [fp, #-0]
    23d8:	00000ba0 	andeq	r0, r0, r0, lsr #23
    23dc:	b92ea206 	stmdblt	lr!, {r1, r2, r9, sp, pc}
    23e0:	1c000000 	stcne	0, cr0, [r0], {-0}
    23e4:	000a2c0d 	andeq	r2, sl, sp, lsl #24
    23e8:	2ea30600 	cdpcs	6, 10, cr0, cr3, cr0, {0}
    23ec:	000000b9 	strheq	r0, [r0], -r9
    23f0:	0a330d1d 	beq	cc586c <__exidx_end+0xcc2eb4>
    23f4:	a4060000 	strge	r0, [r6], #-0
    23f8:	0000b92e 	andeq	fp, r0, lr, lsr #18
    23fc:	330d1e00 	movwcc	r1, #56832	; 0xde00
    2400:	0600000b 	streq	r0, [r0], -fp
    2404:	00b92ea5 	adcseq	r2, r9, r5, lsr #29
    2408:	001f0000 	andseq	r0, pc, r0
    240c:	000bc50e 	andeq	ip, fp, lr, lsl #10
    2410:	2ea60600 	cdpcs	6, 10, cr0, cr6, cr0, {0}
    2414:	000005c0 	andeq	r0, r0, r0, asr #11
    2418:	00075805 	andeq	r5, r7, r5, lsl #16
    241c:	07041500 	streq	r1, [r4, -r0, lsl #10]
    2420:	00077e07 	andeq	r7, r7, r7, lsl #28
    2424:	0b5f1600 	bleq	17c7c2c <__exidx_end+0x17c5274>
    2428:	09070000 	stmdbeq	r7, {}	; <UNPREDICTABLE>
    242c:	0000077e 	andeq	r0, r0, lr, ror r7
    2430:	04170000 	ldreq	r0, [r7], #-0
    2434:	00000764 	andeq	r0, r0, r4, ror #14
    2438:	000c0b03 	andeq	r0, ip, r3, lsl #22
    243c:	690b0700 	stmdbvs	fp, {r8, r9, sl}
    2440:	05000007 	streq	r0, [r0, #-7]
    2444:	00000784 	andeq	r0, r0, r4, lsl #15
    2448:	000bbb0a 	andeq	fp, fp, sl, lsl #22
    244c:	8f0e0700 	svchi	0x000e0700
    2450:	07000007 	streq	r0, [r0, -r7]
    2454:	000000d8 	ldrdeq	r0, [r0], -r8
    2458:	000007af 	andeq	r0, r0, pc, lsr #15
    245c:	00010808 	andeq	r0, r1, r8, lsl #16
    2460:	0a003f00 	beq	12068 <__exidx_end+0xf6b0>
    2464:	00000db0 			; <UNDEFINED> instruction: 0x00000db0
    2468:	079f0608 	ldreq	r0, [pc, r8, lsl #12]
    246c:	cc180000 	ldcgt	0, cr0, [r8], {-0}
    2470:	28000003 	stmdacs	r0, {r0, r1}
    2474:	083c1e09 	ldmdaeq	ip!, {r0, r3, r9, sl, fp, ip}
    2478:	6b190000 	blvs	642480 <__exidx_end+0x63fac8>
    247c:	1f090070 	svcne	0x00090070
    2480:	00000025 	andeq	r0, r0, r5, lsr #32
    2484:	646b1900 	strbtvs	r1, [fp], #-2304	; 0xfffff700
    2488:	25200900 	strcs	r0, [r0, #-2304]!	; 0xfffff700
    248c:	04000000 	streq	r0, [r0], #-0
    2490:	00696b19 	rsbeq	r6, r9, r9, lsl fp
    2494:	00252109 	eoreq	r2, r5, r9, lsl #2
    2498:	16080000 	strne	r0, [r8], -r0
    249c:	00000400 	andeq	r0, r0, r0, lsl #8
    24a0:	00252209 	eoreq	r2, r5, r9, lsl #4
    24a4:	160c0000 	strne	r0, [ip], -r0
    24a8:	000003da 	ldrdeq	r0, [r0], -sl
    24ac:	00252309 	eoreq	r2, r5, r9, lsl #6
    24b0:	16100000 	ldrne	r0, [r0], -r0
    24b4:	00000390 	muleq	r0, r0, r3
    24b8:	00252409 	eoreq	r2, r5, r9, lsl #8
    24bc:	16140000 	ldrne	r0, [r4], -r0
    24c0:	000003b3 			; <UNDEFINED> instruction: 0x000003b3
    24c4:	00252509 	eoreq	r2, r5, r9, lsl #10
    24c8:	16180000 	ldrne	r0, [r8], -r0
    24cc:	00000405 	andeq	r0, r0, r5, lsl #8
    24d0:	00252609 	eoreq	r2, r5, r9, lsl #12
    24d4:	161c0000 	ldrne	r0, [ip], -r0
    24d8:	000003e4 	andeq	r0, r0, r4, ror #7
    24dc:	00252709 	eoreq	r2, r5, r9, lsl #14
    24e0:	16200000 	strtne	r0, [r0], -r0
    24e4:	000003f7 	strdeq	r0, [r0], -r7
    24e8:	08412809 	stmdaeq	r1, {r0, r3, fp, sp}^
    24ec:	00240000 	eoreq	r0, r4, r0
    24f0:	0007ba05 	andeq	fp, r7, r5, lsl #20
    24f4:	00250700 	eoreq	r0, r5, r0, lsl #14
    24f8:	08510000 	ldmdaeq	r1, {}^	; <UNPREDICTABLE>
    24fc:	08080000 	stmdaeq	r8, {}	; <UNPREDICTABLE>
    2500:	00000001 	andeq	r0, r0, r1
    2504:	03041a00 	movweq	r1, #18944	; 0x4a00
    2508:	00000f1a 	andeq	r0, r0, sl, lsl pc
    250c:	009b070a 	addseq	r0, fp, sl, lsl #14
    2510:	15030000 	strne	r0, [r3, #-0]
    2514:	0b000012 	bleq	2564 <_printf_i+0xb0>
    2518:	0000742c 	andeq	r7, r0, ip, lsr #8
    251c:	106b0300 	rsbne	r0, fp, r0, lsl #6
    2520:	720b0000 	andvc	r0, fp, #0
    2524:	00000074 	andeq	r0, r0, r4, ror r0
    2528:	0011080e 	andseq	r0, r1, lr, lsl #16
    252c:	01650c00 	cmneq	r5, r0, lsl #24
    2530:	000000a7 	andeq	r0, r0, r7, lsr #1
    2534:	a60b041b 			; <UNDEFINED> instruction: 0xa60b041b
    2538:	0000089f 	muleq	r0, pc, r8	; <UNPREDICTABLE>
    253c:	000dba1c 	andeq	fp, sp, ip, lsl sl
    2540:	74a80b00 	strtvc	r0, [r8], #2816	; 0xb00
    2544:	1c000008 	stcne	0, cr0, [r0], {8}
    2548:	00001073 	andeq	r1, r0, r3, ror r0
    254c:	089fa90b 	ldmeq	pc, {r0, r1, r3, r8, fp, sp, pc}	; <UNPREDICTABLE>
    2550:	07000000 	streq	r0, [r0, -r0]
    2554:	0000003e 	andeq	r0, r0, lr, lsr r0
    2558:	000008af 	andeq	r0, r0, pc, lsr #17
    255c:	00010808 	andeq	r0, r1, r8, lsl #16
    2560:	15000300 	strne	r0, [r0, #-768]	; 0xfffffd00
    2564:	d0a30b08 	adcle	r0, r3, r8, lsl #22
    2568:	16000008 	strne	r0, [r0], -r8
    256c:	00001043 	andeq	r1, r0, r3, asr #32
    2570:	009ba50b 	addseq	sl, fp, fp, lsl #10
    2574:	16000000 	strne	r0, [r0], -r0
    2578:	00000e4c 	andeq	r0, r0, ip, asr #28
    257c:	0880aa0b 	stmeq	r0, {r0, r1, r3, r9, fp, sp, pc}
    2580:	00040000 	andeq	r0, r4, r0
    2584:	0010f803 	andseq	pc, r0, r3, lsl #16
    2588:	afab0b00 	svcge	0x00ab0b00
    258c:	03000008 	movweq	r0, #8
    2590:	000010de 	ldrdeq	r1, [r0], -lr
    2594:	0853af0b 	ldmdaeq	r3, {r0, r1, r3, r8, r9, sl, fp, sp, pc}^
    2598:	f0030000 			; <UNDEFINED> instruction: 0xf0030000
    259c:	0d000011 	stceq	0, cr0, [r0, #-68]	; 0xffffffbc
    25a0:	00008616 	andeq	r8, r0, r6, lsl r6
    25a4:	0f451800 	svceq	0x00451800
    25a8:	0d180000 	ldceq	0, cr0, [r8, #-0]
    25ac:	0009442d 	andeq	r4, r9, sp, lsr #8
    25b0:	101d1600 	andsne	r1, sp, r0, lsl #12
    25b4:	2f0d0000 	svccs	0x000d0000
    25b8:	00000944 	andeq	r0, r0, r4, asr #18
    25bc:	6b5f1900 	blvs	17c89c4 <__exidx_end+0x17c600c>
    25c0:	9b300d00 	blls	c059c8 <__exidx_end+0xc03010>
    25c4:	04000000 	streq	r0, [r0], #-0
    25c8:	000f4d16 	andeq	r4, pc, r6, lsl sp	; <UNPREDICTABLE>
    25cc:	9b300d00 	blls	c059d4 <__exidx_end+0xc0301c>
    25d0:	08000000 	stmdaeq	r0, {}	; <UNPREDICTABLE>
    25d4:	000fb816 	andeq	fp, pc, r6, lsl r8	; <UNPREDICTABLE>
    25d8:	9b300d00 	blls	c059e0 <__exidx_end+0xc03028>
    25dc:	0c000000 	stceq	0, cr0, [r0], {-0}
    25e0:	000ed116 	andeq	sp, lr, r6, lsl r1
    25e4:	9b300d00 	blls	c059ec <__exidx_end+0xc03034>
    25e8:	10000000 	andne	r0, r0, r0
    25ec:	00785f19 	rsbseq	r5, r8, r9, lsl pc
    25f0:	094a310d 	stmdbeq	sl, {r0, r2, r3, r8, ip, sp}^
    25f4:	00140000 	andseq	r0, r4, r0
    25f8:	08f10417 	ldmeq	r1!, {r0, r1, r2, r4, sl}^
    25fc:	e6070000 	str	r0, [r7], -r0
    2600:	5a000008 	bpl	2628 <_printf_i+0x174>
    2604:	08000009 	stmdaeq	r0, {r0, r3}
    2608:	00000108 	andeq	r0, r0, r8, lsl #2
    260c:	75180000 	ldrvc	r0, [r8, #-0]
    2610:	2400000d 	strcs	r0, [r0], #-13
    2614:	09d3350d 	ldmibeq	r3, {r0, r2, r3, r8, sl, ip, sp}^
    2618:	91160000 	tstls	r6, r0
    261c:	0d00000d 	stceq	0, cr0, [r0, #-52]	; 0xffffffcc
    2620:	00009b37 	andeq	r9, r0, r7, lsr fp
    2624:	63160000 	tstvs	r6, #0
    2628:	0d000012 	stceq	0, cr0, [r0, #-72]	; 0xffffffb8
    262c:	00009b38 	andeq	r9, r0, r8, lsr fp
    2630:	21160400 	tstcs	r6, r0, lsl #8
    2634:	0d000012 	stceq	0, cr0, [r0, #-72]	; 0xffffffb8
    2638:	00009b39 	andeq	r9, r0, r9, lsr fp
    263c:	df160800 	svcle	0x00160800
    2640:	0d00000f 	stceq	0, cr0, [r0, #-60]	; 0xffffffc4
    2644:	00009b3a 	andeq	r9, r0, sl, lsr fp
    2648:	31160c00 	tstcc	r6, r0, lsl #24
    264c:	0d00000e 	stceq	0, cr0, [r0, #-56]	; 0xffffffc8
    2650:	00009b3b 	andeq	r9, r0, fp, lsr fp
    2654:	99161000 	ldmdbls	r6, {ip}
    2658:	0d000011 	stceq	0, cr0, [r0, #-68]	; 0xffffffbc
    265c:	00009b3c 	andeq	r9, r0, ip, lsr fp
    2660:	4b161400 	blmi	587668 <__exidx_end+0x584cb0>
    2664:	0d000010 	stceq	0, cr0, [r0, #-64]	; 0xffffffc0
    2668:	00009b3d 	andeq	r9, r0, sp, lsr fp
    266c:	55161800 	ldrpl	r1, [r6, #-2048]	; 0xfffff800
    2670:	0d000010 	stceq	0, cr0, [r0, #-64]	; 0xffffffc0
    2674:	00009b3e 	andeq	r9, r0, lr, lsr fp
    2678:	58161c00 	ldmdapl	r6, {sl, fp, ip}
    267c:	0d000012 	stceq	0, cr0, [r0, #-72]	; 0xffffffb8
    2680:	00009b3f 	andeq	r9, r0, pc, lsr fp
    2684:	1d002000 	stcne	0, cr2, [r0, #-0]
    2688:	00000dc6 	andeq	r0, r0, r6, asr #27
    268c:	480d0108 	stmdami	sp, {r3, r8}
    2690:	00000a13 	andeq	r0, r0, r3, lsl sl
    2694:	00124416 	andseq	r4, r2, r6, lsl r4
    2698:	13490d00 	movtne	r0, #40192	; 0x9d00
    269c:	0000000a 	andeq	r0, r0, sl
    26a0:	00109f16 	andseq	r9, r0, r6, lsl pc
    26a4:	134a0d00 	movtne	r0, #44288	; 0xad00
    26a8:	8000000a 	andhi	r0, r0, sl
    26ac:	0011871e 	andseq	r8, r1, lr, lsl r7
    26b0:	e64c0d00 	strb	r0, [ip], -r0, lsl #26
    26b4:	00000008 	andeq	r0, r0, r8
    26b8:	11db1e01 	bicsne	r1, fp, r1, lsl #28
    26bc:	4f0d0000 	svcmi	0x000d0000
    26c0:	000008e6 	andeq	r0, r0, r6, ror #17
    26c4:	07000104 	streq	r0, [r0, -r4, lsl #2]
    26c8:	00000851 	andeq	r0, r0, r1, asr r8
    26cc:	00000a23 	andeq	r0, r0, r3, lsr #20
    26d0:	00010808 	andeq	r0, r1, r8, lsl #16
    26d4:	1d001f00 	stcne	15, cr1, [r0, #-0]
    26d8:	0000103b 	andeq	r1, r0, fp, lsr r0
    26dc:	5b0d0190 	blpl	342d24 <__exidx_end+0x34036c>
    26e0:	00000a61 	andeq	r0, r0, r1, ror #20
    26e4:	00101d16 	andseq	r1, r0, r6, lsl sp
    26e8:	615c0d00 	cmpvs	ip, r0, lsl #26
    26ec:	0000000a 	andeq	r0, r0, sl
    26f0:	000e8316 	andeq	r8, lr, r6, lsl r3
    26f4:	9b5d0d00 	blls	1745afc <__exidx_end+0x1743144>
    26f8:	04000000 	streq	r0, [r0], #-0
    26fc:	000ea716 	andeq	sl, lr, r6, lsl r7
    2700:	675f0d00 	ldrbvs	r0, [pc, -r0, lsl #26]
    2704:	0800000a 	stmdaeq	r0, {r1, r3}
    2708:	000dc616 	andeq	ip, sp, r6, lsl r6
    270c:	d3600d00 	cmnle	r0, #0, 26
    2710:	88000009 	stmdahi	r0, {r0, r3}
    2714:	23041700 	movwcs	r1, #18176	; 0x4700
    2718:	0700000a 	streq	r0, [r0, -sl]
    271c:	00000a77 	andeq	r0, r0, r7, ror sl
    2720:	00000a77 	andeq	r0, r0, r7, ror sl
    2724:	00010808 	andeq	r0, r1, r8, lsl #16
    2728:	17001f00 	strne	r1, [r0, -r0, lsl #30]
    272c:	000a7d04 	andeq	r7, sl, r4, lsl #26
    2730:	d4181f00 	ldrle	r1, [r8], #-3840	; 0xfffff100
    2734:	08000011 	stmdaeq	r0, {r0, r4}
    2738:	0aa3730d 	beq	fe8df374 <__stack+0xde8af374>
    273c:	bc160000 	ldclt	0, cr0, [r6], {-0}
    2740:	0d000010 	stceq	0, cr0, [r0, #-64]	; 0xffffffc0
    2744:	000aa374 	andeq	sl, sl, r4, ror r3
    2748:	07160000 	ldreq	r0, [r6, -r0]
    274c:	0d00000e 	stceq	0, cr0, [r0, #-56]	; 0xffffffc8
    2750:	00009b75 	andeq	r9, r0, r5, ror fp
    2754:	17000400 	strne	r0, [r0, -r0, lsl #8]
    2758:	00003e04 	andeq	r3, r0, r4, lsl #28
    275c:	0eff1800 	cdpeq	8, 15, cr1, cr15, cr0, {0}
    2760:	0d680000 	stcleq	0, cr0, [r8, #-0]
    2764:	000bd3b3 			; <UNDEFINED> instruction: 0x000bd3b3
    2768:	705f1900 	subsvc	r1, pc, r0, lsl #18
    276c:	a3b40d00 			; <UNDEFINED> instruction: 0xa3b40d00
    2770:	0000000a 	andeq	r0, r0, sl
    2774:	00725f19 	rsbseq	r5, r2, r9, lsl pc
    2778:	009bb50d 	addseq	fp, fp, sp, lsl #10
    277c:	19040000 	stmdbne	r4, {}	; <UNPREDICTABLE>
    2780:	0d00775f 	stceq	7, cr7, [r0, #-380]	; 0xfffffe84
    2784:	00009bb6 			; <UNDEFINED> instruction: 0x00009bb6
    2788:	2a160800 	bcs	584790 <__exidx_end+0x581dd8>
    278c:	0d000010 	stceq	0, cr0, [r0, #-64]	; 0xffffffc0
    2790:	000050b7 	strheq	r5, [r0], -r7
    2794:	c0160c00 	andsgt	r0, r6, r0, lsl #24
    2798:	0d00000d 	stceq	0, cr0, [r0, #-52]	; 0xffffffcc
    279c:	000050b8 	strheq	r5, [r0], -r8
    27a0:	5f190e00 	svcpl	0x00190e00
    27a4:	0d006662 	stceq	6, cr6, [r0, #-392]	; 0xfffffe78
    27a8:	000a7eb9 			; <UNDEFINED> instruction: 0x000a7eb9
    27ac:	ad161000 	ldcge	0, cr1, [r6, #-0]
    27b0:	0d000011 	stceq	0, cr0, [r0, #-68]	; 0xffffffbc
    27b4:	00009bba 			; <UNDEFINED> instruction: 0x00009bba
    27b8:	c9161800 	ldmdbgt	r6, {fp, ip}
    27bc:	0d00000e 	stceq	0, cr0, [r0, #-56]	; 0xffffffc8
    27c0:	000851c1 	andeq	r5, r8, r1, asr #3
    27c4:	13161c00 	tstne	r6, #0, 24
    27c8:	0d00000d 	stceq	0, cr0, [r0, #-52]	; 0xffffffcc
    27cc:	000d40c3 	andeq	r4, sp, r3, asr #1
    27d0:	2e162000 	cdpcs	0, 1, cr2, cr6, cr0, {0}
    27d4:	0d00000d 	stceq	0, cr0, [r0, #-52]	; 0xffffffcc
    27d8:	000d6ac5 	andeq	r6, sp, r5, asr #21
    27dc:	65162400 	ldrvs	r2, [r6, #-1024]	; 0xfffffc00
    27e0:	0d000010 	stceq	0, cr0, [r0, #-64]	; 0xffffffc0
    27e4:	000d8ec8 	andeq	r8, sp, r8, asr #29
    27e8:	ac162800 	ldcge	8, cr2, [r6], {-0}
    27ec:	0d00000e 	stceq	0, cr0, [r0, #-56]	; 0xffffffc8
    27f0:	000da8c9 	andeq	sl, sp, r9, asr #17
    27f4:	5f192c00 	svcpl	0x00192c00
    27f8:	0d006275 	sfmeq	f6, 4, [r0, #-468]	; 0xfffffe2c
    27fc:	000a7ecc 	andeq	r7, sl, ip, asr #29
    2800:	5f193000 	svcpl	0x00193000
    2804:	0d007075 	stceq	0, cr7, [r0, #-468]	; 0xfffffe2c
    2808:	000aa3cd 	andeq	sl, sl, sp, asr #7
    280c:	5f193800 	svcpl	0x00193800
    2810:	0d007275 	sfmeq	f7, 4, [r0, #-468]	; 0xfffffe2c
    2814:	00009bce 	andeq	r9, r0, lr, asr #23
    2818:	fb163c00 	blx	591822 <__exidx_end+0x58ee6a>
    281c:	0d00000f 	stceq	0, cr0, [r0, #-60]	; 0xffffffc4
    2820:	000daed1 	ldrdeq	sl, [sp], -r1
    2824:	8b164000 	blhi	59282c <__exidx_end+0x58fe74>
    2828:	0d00000d 	stceq	0, cr0, [r0, #-52]	; 0xffffffcc
    282c:	000dbed2 	ldrdeq	fp, [sp], -r2
    2830:	5f194300 	svcpl	0x00194300
    2834:	0d00626c 	sfmeq	f6, 4, [r0, #-432]	; 0xfffffe50
    2838:	000a7ed5 	ldrdeq	r7, [sl], -r5
    283c:	b3164400 	tstlt	r6, #0, 8
    2840:	0d000010 	stceq	0, cr0, [r0, #-64]	; 0xffffffc0
    2844:	00009bd8 	ldrdeq	r9, [r0], -r8
    2848:	e0164c00 	ands	r4, r6, r0, lsl #24
    284c:	0d00000e 	stceq	0, cr0, [r0, #-56]	; 0xffffffc8
    2850:	00085ed9 	ldrdeq	r5, [r8], -r9
    2854:	0f165000 	svceq	0x00165000
    2858:	0d000011 	stceq	0, cr0, [r0, #-68]	; 0xffffffbc
    285c:	000bf1dc 	ldrdeq	pc, [fp], -ip
    2860:	a4165400 	ldrge	r5, [r6], #-1024	; 0xfffffc00
    2864:	0d00000d 	stceq	0, cr0, [r0, #-52]	; 0xffffffcc
    2868:	0008dbe0 	andeq	sp, r8, r0, ror #23
    286c:	0f165800 	svceq	0x00165800
    2870:	0d000010 	stceq	0, cr0, [r0, #-64]	; 0xffffffc0
    2874:	0008d0e2 	andeq	sp, r8, r2, ror #1
    2878:	12165c00 	andsne	r5, r6, #0, 24
    287c:	0d00000f 	stceq	0, cr0, [r0, #-60]	; 0xffffffc4
    2880:	00009be3 	andeq	r9, r0, r3, ror #23
    2884:	20006400 	andcs	r6, r0, r0, lsl #8
    2888:	0000009b 	muleq	r0, fp, r0
    288c:	00000bf1 	strdeq	r0, [r0], -r1
    2890:	000bf121 	andeq	pc, fp, r1, lsr #2
    2894:	08512100 	ldmdaeq	r1, {r8, sp}^
    2898:	2e210000 	cdpcs	0, 2, cr0, cr1, cr0, {0}
    289c:	2100000d 	tstcs	r0, sp
    28a0:	0000009b 	muleq	r0, fp, r0
    28a4:	fc041700 	stc2	7, cr1, [r4], {-0}
    28a8:	0600000b 	streq	r0, [r0], -fp
    28ac:	00000bf1 	strdeq	r0, [r0], -r1
    28b0:	000e6422 	andeq	r6, lr, r2, lsr #8
    28b4:	0d042800 	stceq	8, cr2, [r4, #-0]
    28b8:	0d2e0238 	sfmeq	f0, 4, [lr, #-224]!	; 0xffffff20
    28bc:	c90d0000 	stmdbgt	sp, {}	; <UNPREDICTABLE>
    28c0:	0d00000f 	stceq	0, cr0, [r0, #-60]	; 0xffffffc4
    28c4:	009b023a 	addseq	r0, fp, sl, lsr r2
    28c8:	0d000000 	stceq	0, cr0, [r0, #-0]
    28cc:	00000eb3 			; <UNDEFINED> instruction: 0x00000eb3
    28d0:	15023f0d 	strne	r3, [r2, #-3853]	; 0xfffff0f3
    28d4:	0400000e 	streq	r0, [r0], #-14
    28d8:	0010ab0d 	andseq	sl, r0, sp, lsl #22
    28dc:	023f0d00 	eorseq	r0, pc, #0, 26
    28e0:	00000e15 	andeq	r0, r0, r5, lsl lr
    28e4:	123c0d08 	eorsne	r0, ip, #8, 26	; 0x200
    28e8:	3f0d0000 	svccc	0x000d0000
    28ec:	000e1502 	andeq	r1, lr, r2, lsl #10
    28f0:	7e0d0c00 	cdpvc	12, 0, cr0, cr13, cr0, {0}
    28f4:	0d00000e 	stceq	0, cr0, [r0, #-56]	; 0xffffffc8
    28f8:	009b0241 	addseq	r0, fp, r1, asr #4
    28fc:	0d100000 	ldceq	0, cr0, [r0, #-0]
    2900:	00000f68 	andeq	r0, r0, r8, ror #30
    2904:	f702420d 			; <UNDEFINED> instruction: 0xf702420d
    2908:	1400000f 	strne	r0, [r0], #-15
    290c:	000e3a0d 	andeq	r3, lr, sp, lsl #20
    2910:	02440d00 	subeq	r0, r4, #0, 26
    2914:	0000009b 	muleq	r0, fp, r0
    2918:	0f920d30 	svceq	0x00920d30
    291c:	450d0000 	strmi	r0, [sp, #-0]
    2920:	000d6402 	andeq	r6, sp, r2, lsl #8
    2924:	070d3400 	streq	r3, [sp, -r0, lsl #8]
    2928:	0d00000f 	stceq	0, cr0, [r0, #-60]	; 0xffffffc4
    292c:	009b0247 	addseq	r0, fp, r7, asr #4
    2930:	0d380000 	ldceq	0, cr0, [r8, #-0]
    2934:	00000f55 	andeq	r0, r0, r5, asr pc
    2938:	1202490d 	andne	r4, r2, #212992	; 0x34000
    293c:	3c000010 	stccc	0, cr0, [r0], {16}
    2940:	0011f80d 	andseq	pc, r1, sp, lsl #16
    2944:	024c0d00 	subeq	r0, ip, #0, 26
    2948:	00000944 	andeq	r0, r0, r4, asr #18
    294c:	0df30d40 	ldcleq	13, cr0, [r3, #256]!	; 0x100
    2950:	4d0d0000 	stcmi	0, cr0, [sp, #-0]
    2954:	00009b02 	andeq	r9, r0, r2, lsl #22
    2958:	f00d4400 			; <UNDEFINED> instruction: 0xf00d4400
    295c:	0d00000e 	stceq	0, cr0, [r0, #-56]	; 0xffffffc8
    2960:	0944024e 	stmdbeq	r4, {r1, r2, r3, r6, r9}^
    2964:	0d480000 	stcleq	0, cr0, [r8, #-0]
    2968:	00000fa2 	andeq	r0, r0, r2, lsr #31
    296c:	18024f0d 	stmdane	r2, {r0, r2, r3, r8, r9, sl, fp, lr}
    2970:	4c000010 	stcmi	0, cr0, [r0], {16}
    2974:	000d560d 	andeq	r5, sp, sp, lsl #12
    2978:	02520d00 	subseq	r0, r2, #0, 26
    297c:	0000009b 	muleq	r0, fp, r0
    2980:	0ee80d50 	mcreq	13, 7, r0, cr8, cr0, {2}
    2984:	530d0000 	movwpl	r0, #53248	; 0xd000
    2988:	000d2e02 	andeq	r2, sp, r2, lsl #28
    298c:	f60d5400 			; <UNDEFINED> instruction: 0xf60d5400
    2990:	0d00000f 	stceq	0, cr0, [r0, #-60]	; 0xffffffc4
    2994:	0fd50276 	svceq	0x00d50276
    2998:	10580000 	subsne	r0, r8, r0
    299c:	0000103b 	andeq	r1, r0, fp, lsr r0
    29a0:	61027a0d 	tstvs	r2, sp, lsl #20
    29a4:	4800000a 	stmdami	r0, {r1, r3}
    29a8:	0f5f1001 	svceq	0x005f1001
    29ac:	7b0d0000 	blvc	3429b4 <__exidx_end+0x33fffc>
    29b0:	000a2302 	andeq	r2, sl, r2, lsl #6
    29b4:	10014c00 	andne	r4, r1, r0, lsl #24
    29b8:	00000ed6 	ldrdeq	r0, [r0], -r6
    29bc:	29027f0d 	stmdbcs	r2, {r0, r2, r3, r8, r9, sl, fp, ip, sp, lr}
    29c0:	dc000010 	stcle	0, cr0, [r0], {16}
    29c4:	0f7a1002 	svceq	0x007a1002
    29c8:	840d0000 	strhi	r0, [sp], #-0
    29cc:	000dda02 	andeq	sp, sp, r2, lsl #20
    29d0:	1002e000 	andne	lr, r2, r0
    29d4:	00000d0e 	andeq	r0, r0, lr, lsl #26
    29d8:	3502850d 	strcc	r8, [r2, #-1293]	; 0xfffffaf3
    29dc:	ec000010 	stc	0, cr0, [r0], {16}
    29e0:	04170002 	ldreq	r0, [r7], #-2
    29e4:	00000d34 	andeq	r0, r0, r4, lsr sp
    29e8:	06080102 	streq	r0, [r8], -r2, lsl #2
    29ec:	06000002 	streq	r0, [r0], -r2
    29f0:	00000d34 	andeq	r0, r0, r4, lsr sp
    29f4:	0bd30417 	bleq	ff4c3a58 <__stack+0xdf493a58>
    29f8:	9b200000 	blls	802a00 <__exidx_end+0x800048>
    29fc:	64000000 	strvs	r0, [r0], #-0
    2a00:	2100000d 	tstcs	r0, sp
    2a04:	00000bf1 	strdeq	r0, [r0], -r1
    2a08:	00085121 	andeq	r5, r8, r1, lsr #2
    2a0c:	0d642100 	stfeqe	f2, [r4, #-0]
    2a10:	9b210000 	blls	842a18 <__exidx_end+0x840060>
    2a14:	00000000 	andeq	r0, r0, r0
    2a18:	0d3b0417 	cfldrseq	mvf0, [fp, #-92]!	; 0xffffffa4
    2a1c:	04170000 	ldreq	r0, [r7], #-0
    2a20:	00000d46 	andeq	r0, r0, r6, asr #26
    2a24:	00086920 	andeq	r6, r8, r0, lsr #18
    2a28:	000d8e00 	andeq	r8, sp, r0, lsl #28
    2a2c:	0bf12100 	bleq	ffc4ae34 <__stack+0xdfc1ae34>
    2a30:	51210000 			; <UNDEFINED> instruction: 0x51210000
    2a34:	21000008 	tstcs	r0, r8
    2a38:	00000869 	andeq	r0, r0, r9, ror #16
    2a3c:	00009b21 	andeq	r9, r0, r1, lsr #22
    2a40:	04170000 	ldreq	r0, [r7], #-0
    2a44:	00000d70 	andeq	r0, r0, r0, ror sp
    2a48:	00009b20 	andeq	r9, r0, r0, lsr #22
    2a4c:	000da800 	andeq	sl, sp, r0, lsl #16
    2a50:	0bf12100 	bleq	ffc4ae58 <__stack+0xdfc1ae58>
    2a54:	51210000 			; <UNDEFINED> instruction: 0x51210000
    2a58:	00000008 	andeq	r0, r0, r8
    2a5c:	0d940417 	cfldrseq	mvf0, [r4, #92]	; 0x5c
    2a60:	3e070000 	cdpcc	0, 0, cr0, cr7, cr0, {0}
    2a64:	be000000 	cdplt	0, 0, cr0, cr0, cr0, {0}
    2a68:	0800000d 	stmdaeq	r0, {r0, r2, r3}
    2a6c:	00000108 	andeq	r0, r0, r8, lsl #2
    2a70:	3e070002 	cdpcc	0, 0, cr0, cr7, cr2, {0}
    2a74:	ce000000 	cdpgt	0, 0, cr0, cr0, cr0, {0}
    2a78:	0800000d 	stmdaeq	r0, {r0, r2, r3}
    2a7c:	00000108 	andeq	r0, r0, r8, lsl #2
    2a80:	e70e0000 	str	r0, [lr, -r0]
    2a84:	0d000010 	stceq	0, cr0, [r0, #-64]	; 0xffffffc0
    2a88:	0aa9011d 	beq	fea42f04 <__stack+0xdea12f04>
    2a8c:	b2230000 	eorlt	r0, r3, #0
    2a90:	0c00000f 	stceq	0, cr0, [r0], {15}
    2a94:	0f01210d 	svceq	0x0001210d
    2a98:	0d00000e 	stceq	0, cr0, [r0, #-56]	; 0xffffffc8
    2a9c:	0000101d 	andeq	r1, r0, sp, lsl r0
    2aa0:	0f01230d 	svceq	0x0001230d
    2aa4:	0000000e 	andeq	r0, r0, lr
    2aa8:	000f730d 	andeq	r7, pc, sp, lsl #6
    2aac:	01240d00 			; <UNDEFINED> instruction: 0x01240d00
    2ab0:	0000009b 	muleq	r0, fp, r0
    2ab4:	0fac0d04 	svceq	0x00ac0d04
    2ab8:	250d0000 	strcs	r0, [sp, #-0]
    2abc:	000e1501 	andeq	r1, lr, r1, lsl #10
    2ac0:	17000800 	strne	r0, [r0, -r0, lsl #16]
    2ac4:	000dda04 	andeq	sp, sp, r4, lsl #20
    2ac8:	ce041700 	cdpgt	7, 0, cr1, cr4, cr0, {0}
    2acc:	2300000d 	movwcs	r0, #13
    2ad0:	00000dd4 	ldrdeq	r0, [r0], -r4
    2ad4:	013d0d0e 	teqeq	sp, lr, lsl #26
    2ad8:	00000e50 	andeq	r0, r0, r0, asr lr
    2adc:	00105f0d 	andseq	r5, r0, sp, lsl #30
    2ae0:	013e0d00 	teqeq	lr, r0, lsl #26
    2ae4:	00000e50 	andeq	r0, r0, r0, asr lr
    2ae8:	0daa0d00 	stceq	13, cr0, [sl]
    2aec:	3f0d0000 	svccc	0x000d0000
    2af0:	000e5001 	andeq	r5, lr, r1
    2af4:	1c0d0600 	stcne	6, cr0, [sp], {-0}
    2af8:	0d000012 	stceq	0, cr0, [r0, #-72]	; 0xffffffb8
    2afc:	00620140 	rsbeq	r0, r2, r0, asr #2
    2b00:	000c0000 	andeq	r0, ip, r0
    2b04:	00006207 	andeq	r6, r0, r7, lsl #4
    2b08:	000e6000 	andeq	r6, lr, r0
    2b0c:	01080800 	tsteq	r8, r0, lsl #16
    2b10:	00020000 	andeq	r0, r2, r0
    2b14:	570dd00b 	strpl	sp, [sp, -fp]
    2b18:	000f6102 	andeq	r6, pc, r2, lsl #2
    2b1c:	10920d00 	addsne	r0, r2, r0, lsl #26
    2b20:	590d0000 	stmdbpl	sp, {}	; <UNPREDICTABLE>
    2b24:	0000a702 	andeq	sl, r0, r2, lsl #14
    2b28:	c20d0000 	andgt	r0, sp, #0
    2b2c:	0d000010 	stceq	0, cr0, [r0, #-64]	; 0xffffffc0
    2b30:	0d2e025a 	sfmeq	f0, 4, [lr, #-360]!	; 0xfffffe98
    2b34:	0d040000 	stceq	0, cr0, [r4, #-0]
    2b38:	00000d49 	andeq	r0, r0, r9, asr #26
    2b3c:	61025b0d 	tstvs	r2, sp, lsl #22
    2b40:	0800000f 	stmdaeq	r0, {r0, r1, r2, r3}
    2b44:	000e0d0d 	andeq	r0, lr, sp, lsl #26
    2b48:	025c0d00 	subseq	r0, ip, #0, 26
    2b4c:	0000095a 	andeq	r0, r0, sl, asr r9
    2b50:	0d5e0d24 	ldcleq	13, cr0, [lr, #-144]	; 0xffffff70
    2b54:	5d0d0000 	stcpl	0, cr0, [sp, #-0]
    2b58:	00009b02 	andeq	r9, r0, r2, lsl #22
    2b5c:	180d4800 	stmdane	sp, {fp, lr}
    2b60:	0d000010 	stceq	0, cr0, [r0, #-64]	; 0xffffffc0
    2b64:	0094025e 	addseq	r0, r4, lr, asr r2
    2b68:	0d500000 	ldcleq	0, cr0, [r0, #-0]
    2b6c:	00001103 	andeq	r1, r0, r3, lsl #2
    2b70:	1b025f0d 	blne	9a7ac <__exidx_end+0x97df4>
    2b74:	5800000e 	stmdapl	r0, {r1, r2, r3}
    2b78:	000fe90d 	andeq	lr, pc, sp, lsl #18
    2b7c:	02600d00 	rsbeq	r0, r0, #0, 26
    2b80:	000008d0 	ldrdeq	r0, [r0], -r0	; <UNPREDICTABLE>
    2b84:	10840d68 	addne	r0, r4, r8, ror #26
    2b88:	610d0000 	mrsvs	r0, (UNDEF: 13)
    2b8c:	0008d002 	andeq	sp, r8, r2
    2b90:	010d7000 	mrseq	r7, (UNDEF: 13)
    2b94:	0d000010 	stceq	0, cr0, [r0, #-64]	; 0xffffffc0
    2b98:	08d00262 	ldmeq	r0, {r1, r5, r6, r9}^
    2b9c:	0d780000 	ldcleq	0, cr0, [r8, #-0]
    2ba0:	00000d9a 	muleq	r0, sl, sp
    2ba4:	7102630d 	tstvc	r2, sp, lsl #6
    2ba8:	8000000f 	andhi	r0, r0, pc
    2bac:	000f310d 	andeq	r3, pc, sp, lsl #2
    2bb0:	02640d00 	rsbeq	r0, r4, #0, 26
    2bb4:	00000f81 	andeq	r0, r0, r1, lsl #31
    2bb8:	126c0d88 	rsbne	r0, ip, #136, 26	; 0x2200
    2bbc:	650d0000 	strvs	r0, [sp, #-0]
    2bc0:	00009b02 	andeq	r9, r0, r2, lsl #22
    2bc4:	dc0da000 	stcle	0, cr10, [sp], {-0}
    2bc8:	0d00000d 	stceq	0, cr0, [r0, #-52]	; 0xffffffcc
    2bcc:	08d00266 	ldmeq	r0, {r1, r2, r5, r6, r9}^
    2bd0:	0da40000 	stceq	0, cr0, [r4]
    2bd4:	000010cf 	andeq	r1, r0, pc, asr #1
    2bd8:	d002670d 	andle	r6, r2, sp, lsl #14
    2bdc:	ac000008 	stcge	0, cr0, [r0], {8}
    2be0:	00122b0d 	andseq	r2, r2, sp, lsl #22
    2be4:	02680d00 	rsbeq	r0, r8, #0, 26
    2be8:	000008d0 	ldrdeq	r0, [r0], -r0	; <UNPREDICTABLE>
    2bec:	0fd00db4 	svceq	0x00d00db4
    2bf0:	690d0000 	stmdbvs	sp, {}	; <UNPREDICTABLE>
    2bf4:	0008d002 	andeq	sp, r8, r2
    2bf8:	7a0dbc00 	bvc	371c00 <__exidx_end+0x36f248>
    2bfc:	0d00000d 	stceq	0, cr0, [r0, #-52]	; 0xffffffcc
    2c00:	08d0026a 	ldmeq	r0, {r1, r3, r5, r6, r9}^
    2c04:	0dc40000 	stcleq	0, cr0, [r4]
    2c08:	00000fc7 	andeq	r0, r0, r7, asr #31
    2c0c:	9b026b0d 	blls	9d848 <__exidx_end+0x9ae90>
    2c10:	cc000000 	stcgt	0, cr0, [r0], {-0}
    2c14:	0d340700 	ldceq	7, cr0, [r4, #-0]
    2c18:	0f710000 	svceq	0x00710000
    2c1c:	08080000 	stmdaeq	r8, {}	; <UNPREDICTABLE>
    2c20:	19000001 	stmdbne	r0, {r0}
    2c24:	0d340700 	ldceq	7, cr0, [r4, #-0]
    2c28:	0f810000 	svceq	0x00810000
    2c2c:	08080000 	stmdaeq	r8, {}	; <UNPREDICTABLE>
    2c30:	07000001 	streq	r0, [r0, -r1]
    2c34:	0d340700 	ldceq	7, cr0, [r4, #-0]
    2c38:	0f910000 	svceq	0x00910000
    2c3c:	08080000 	stmdaeq	r8, {}	; <UNPREDICTABLE>
    2c40:	17000001 	strne	r0, [r0, -r1]
    2c44:	0df00b00 			; <UNDEFINED> instruction: 0x0df00b00
    2c48:	0fb50270 	svceq	0x00b50270
    2c4c:	230d0000 	movwcs	r0, #53248	; 0xd000
    2c50:	0d000010 	stceq	0, cr0, [r0, #-64]	; 0xffffffc0
    2c54:	0fb50273 	svceq	0x00b50273
    2c58:	0d000000 	stceq	0, cr0, [r0, #-0]
    2c5c:	00000f82 	andeq	r0, r0, r2, lsl #31
    2c60:	c502740d 	strgt	r7, [r2, #-1037]	; 0xfffffbf3
    2c64:	7800000f 	stmdavc	r0, {r0, r1, r2, r3}
    2c68:	0aa30700 	beq	fe8c4870 <__stack+0xde894870>
    2c6c:	0fc50000 	svceq	0x00c50000
    2c70:	08080000 	stmdaeq	r8, {}	; <UNPREDICTABLE>
    2c74:	1d000001 	stcne	0, cr0, [r0, #-4]
    2c78:	00a70700 	adceq	r0, r7, r0, lsl #14
    2c7c:	0fd50000 	svceq	0x00d50000
    2c80:	08080000 	stmdaeq	r8, {}	; <UNPREDICTABLE>
    2c84:	1d000001 	stcne	0, cr0, [r0, #-4]
    2c88:	0df01200 	lfmeq	f1, 2, [r0]
    2c8c:	0ff70255 	svceq	0x00f70255
    2c90:	64130000 	ldrvs	r0, [r3], #-0
    2c94:	0d00000e 	stceq	0, cr0, [r0, #-56]	; 0xffffffc8
    2c98:	0e60026c 	cdpeq	2, 6, cr0, cr0, cr12, {3}
    2c9c:	6d130000 	ldcvs	0, cr0, [r3, #-0]
    2ca0:	0d00000d 	stceq	0, cr0, [r0, #-52]	; 0xffffffcc
    2ca4:	0f910275 	svceq	0x00910275
    2ca8:	07000000 	streq	r0, [r0, -r0]
    2cac:	00000d34 	andeq	r0, r0, r4, lsr sp
    2cb0:	00001007 	andeq	r1, r0, r7
    2cb4:	00010808 	andeq	r0, r1, r8, lsl #16
    2cb8:	24001800 	strcs	r1, [r0], #-2048	; 0xfffff800
    2cbc:	00001012 	andeq	r1, r0, r2, lsl r0
    2cc0:	000bf121 	andeq	pc, fp, r1, lsr #2
    2cc4:	04170000 	ldreq	r0, [r7], #-0
    2cc8:	00001007 	andeq	r1, r0, r7
    2ccc:	09440417 	stmdbeq	r4, {r0, r1, r2, r4, sl}^
    2cd0:	29240000 	stmdbcs	r4!, {}	; <UNPREDICTABLE>
    2cd4:	21000010 	tstcs	r0, r0, lsl r0
    2cd8:	0000009b 	muleq	r0, fp, r0
    2cdc:	2f041700 	svccs	0x00041700
    2ce0:	17000010 	smladne	r0, r0, r0, r0
    2ce4:	00101e04 	andseq	r1, r0, r4, lsl #28
    2ce8:	0dce0700 	stcleq	7, cr0, [lr]
    2cec:	10450000 	subne	r0, r5, r0
    2cf0:	08080000 	stmdaeq	r8, {}	; <UNPREDICTABLE>
    2cf4:	02000001 	andeq	r0, r0, #1
    2cf8:	0e720900 	vaddeq.f16	s1, s4, s0	; <UNPREDICTABLE>
    2cfc:	fd0d0000 	stc2	0, cr0, [sp, #-0]
    2d00:	000bf102 	andeq	pc, fp, r2, lsl #2
    2d04:	0e6b0900 	vmuleq.f16	s1, s22, s0	; <UNPREDICTABLE>
    2d08:	fe0d0000 	cdp2	0, 0, cr0, cr13, cr0, {0}
    2d0c:	000bf702 	andeq	pc, fp, r2, lsl #14
    2d10:	00c30700 	sbceq	r0, r3, r0, lsl #14
    2d14:	106d0000 	rsbne	r0, sp, r0
    2d18:	08080000 	stmdaeq	r8, {}	; <UNPREDICTABLE>
    2d1c:	03000001 	movweq	r0, #1
    2d20:	105d0600 	subsne	r0, sp, r0, lsl #12
    2d24:	210a0000 	mrscs	r0, (UNDEF: 10)
    2d28:	0e00000e 	cdpeq	0, 0, cr0, cr0, cr14, {0}
    2d2c:	00106d19 	andseq	r6, r0, r9, lsl sp
    2d30:	0e540a00 	vnmlseq.f32	s1, s8, s0
    2d34:	1a0e0000 	bne	382d3c <__exidx_end+0x380384>
    2d38:	000000a2 	andeq	r0, r0, r2, lsr #1
    2d3c:	0000d307 	andeq	sp, r0, r7, lsl #6
    2d40:	00109800 	andseq	r9, r0, r0, lsl #16
    2d44:	01080800 	tsteq	r8, r0, lsl #16
    2d48:	00030000 	andeq	r0, r3, r0
    2d4c:	00108805 	andseq	r8, r0, r5, lsl #16
    2d50:	124c0a00 	subne	r0, ip, #0, 20
    2d54:	1b0e0000 	blne	382d5c <__exidx_end+0x3803a4>
    2d58:	00001098 	muleq	r0, r8, r0
    2d5c:	000dfd25 	andeq	pc, sp, r5, lsr #26
    2d60:	3c110100 	ldfccs	f0, [r1], {-0}
    2d64:	05000008 	streq	r0, [r0, #-8]
    2d68:	ff030c03 			; <UNDEFINED> instruction: 0xff030c03
    2d6c:	0eba251f 	mrceq	5, 5, r2, cr10, cr15, {0}
    2d70:	12010000 	andne	r0, r1, #0
    2d74:	0000083c 	andeq	r0, r0, ip, lsr r8
    2d78:	02dc0305 	sbcseq	r0, ip, #335544320	; 0x14000000
    2d7c:	96251fff 	qsub8ls	r1, r5, pc	; <UNPREDICTABLE>
    2d80:	0100000e 	tsteq	r0, lr
    2d84:	00083c13 	andeq	r3, r8, r3, lsl ip
    2d88:	3c030500 	cfstr32cc	mvfx0, [r3], {-0}
    2d8c:	251fff03 	ldrcs	pc, [pc, #-3843]	; 1e91 <_malloc_r+0x19>
    2d90:	00000d35 	andeq	r0, r0, r5, lsr sp
    2d94:	00251401 	eoreq	r1, r5, r1, lsl #8
    2d98:	03050000 	movweq	r0, #20480	; 0x5000
    2d9c:	1fff0338 	svcne	0x00ff0338
    2da0:	00114925 	andseq	r4, r1, r5, lsr #18
    2da4:	25150100 	ldrcs	r0, [r5, #-256]	; 0xffffff00
    2da8:	05000000 	streq	r0, [r0, #-0]
    2dac:	ff030803 			; <UNDEFINED> instruction: 0xff030803
    2db0:	1200251f 	andne	r2, r0, #130023424	; 0x7c00000
    2db4:	16010000 	strne	r0, [r1], -r0
    2db8:	0000009b 	muleq	r0, fp, r0
    2dbc:	03340305 	teqeq	r4, #335544320	; 0x14000000
    2dc0:	88251fff 	stmdahi	r5!, {r0, r1, r2, r3, r4, r5, r6, r7, r8, r9, sl, fp, ip}
    2dc4:	0100000e 	tsteq	r0, lr
    2dc8:	00002517 	andeq	r2, r0, r7, lsl r5
    2dcc:	d8030500 	stmdale	r3, {r8, sl}
    2dd0:	251fff02 	ldrcs	pc, [pc, #-3842]	; 1ed6 <_malloc_r+0x5e>
    2dd4:	00000d19 	andeq	r0, r0, r9, lsl sp
    2dd8:	009b1801 	addseq	r1, fp, r1, lsl #16
    2ddc:	03050000 	movweq	r0, #20480	; 0x5000
    2de0:	1fff0364 	svcne	0x00ff0364
    2de4:	0011e325 	andseq	lr, r1, r5, lsr #6
    2de8:	9b190100 	blls	6431f0 <__exidx_end+0x640838>
    2dec:	05000000 	streq	r0, [r0, #-0]
    2df0:	ff030403 			; <UNDEFINED> instruction: 0xff030403
    2df4:	112e261f 			; <UNDEFINED> instruction: 0x112e261f
    2df8:	dd010000 	stcle	0, cr0, [r1, #-0]
    2dfc:	00000000 	andeq	r0, r0, r0
    2e00:	00000002 	andeq	r0, r0, r2
    2e04:	7c279c01 	stcvc	12, cr9, [r7], #-4
    2e08:	01000011 	tsteq	r0, r1, lsl r0
    2e0c:	000928ad 	andeq	r2, r9, sp, lsr #17
    2e10:	00014400 	andeq	r4, r1, r0, lsl #8
    2e14:	b39c0100 	orrslt	r0, ip, #0, 2
    2e18:	28000011 	stmdacs	r0, {r0, r4}
    2e1c:	0000116b 	andeq	r1, r0, fp, ror #2
    2e20:	00c8ae01 	sbceq	sl, r8, r1, lsl #28
    2e24:	05e60000 	strbeq	r0, [r6, #0]!
    2e28:	f5290000 			; <UNDEFINED> instruction: 0xf5290000
    2e2c:	0100000e 	tsteq	r0, lr
    2e30:	0000c8af 	andeq	ip, r0, pc, lsr #17
    2e34:	0c5a2a00 	mrrceq	10, 0, r2, sl, cr0
    2e38:	c6010000 	strgt	r0, [r1], -r0
    2e3c:	0000009b 	muleq	r0, fp, r0
    2e40:	00001192 	muleq	r0, r2, r1
    2e44:	742c002b 	strtvc	r0, [ip], #-43	; 0xffffffd5
    2e48:	64000009 	strvs	r0, [r0], #-9
    2e4c:	a9000013 	stmdbge	r0, {r0, r1, r4}
    2e50:	2d000011 	stccs	0, cr0, [r0, #-68]	; 0xffffffbc
    2e54:	03055001 	movweq	r5, #20481	; 0x5001
    2e58:	1fff033c 	svcne	0x00ff033c
    2e5c:	0a022e00 	beq	8e664 <__exidx_end+0x8bcac>
    2e60:	136f0000 	cmnne	pc, #0
    2e64:	2f000000 	svccs	0x00000000
    2e68:	00000e1c 	andeq	r0, r0, ip, lsl lr
    2e6c:	009b1b01 	addseq	r1, fp, r1, lsl #22
    2e70:	0a6c0000 	beq	1b02e78 <__exidx_end+0x1b004c0>
    2e74:	02300000 	eorseq	r0, r0, #0
    2e78:	9c010000 	stcls	0, cr0, [r1], {-0}
    2e7c:	00001353 	andeq	r1, r0, r3, asr r3
    2e80:	000dea28 	andeq	lr, sp, r8, lsr #20
    2e84:	9b1c0100 	blls	70328c <__exidx_end+0x7008d4>
    2e88:	04000000 	streq	r0, [r0], #-0
    2e8c:	30000006 	andcc	r0, r0, r6
    2e90:	00667562 	rsbeq	r7, r6, r2, ror #10
    2e94:	13531d01 	cmpne	r3, #1, 26	; 0x40
    2e98:	91030000 	mrsls	r0, (UNDEF: 3)
    2e9c:	be2877f0 	mcrlt	7, 1, r7, cr8, cr0, {7}
    2ea0:	0100000f 	tsteq	r0, pc
    2ea4:	00009b1e 	andeq	r9, r0, lr, lsl fp
    2ea8:	00063900 	andeq	r3, r6, r0, lsl #18
    2eac:	0c392a00 			; <UNDEFINED> instruction: 0x0c392a00
    2eb0:	1f010000 	svcne	0x00010000
    2eb4:	0000009b 	muleq	r0, fp, r0
    2eb8:	0000120a 	andeq	r1, r0, sl, lsl #4
    2ebc:	0e2a002b 	cdpeq	0, 2, cr0, cr10, cr11, {1}
    2ec0:	01000009 	tsteq	r0, r9
    2ec4:	00009b9b 	muleq	r0, fp, fp
    2ec8:	00121b00 	andseq	r1, r2, r0, lsl #22
    2ecc:	2c002b00 			; <UNDEFINED> instruction: 0x2c002b00
    2ed0:	00000a8c 	andeq	r0, r0, ip, lsl #21
    2ed4:	0000137a 	andeq	r1, r0, sl, ror r3
    2ed8:	00001230 	andeq	r1, r0, r0, lsr r2
    2edc:	0350012d 	cmpeq	r0, #1073741835	; 0x4000000b
    2ee0:	0003e80a 	andeq	lr, r3, sl, lsl #16
    2ee4:	000ade2e 	andeq	sp, sl, lr, lsr #28
    2ee8:	00138500 	andseq	r8, r3, r0, lsl #10
    2eec:	0b122c00 	bleq	48def4 <__exidx_end+0x48b53c>
    2ef0:	13900000 	orrsne	r0, r0, #0
    2ef4:	12660000 	rsbne	r0, r6, #0
    2ef8:	012d0000 			; <UNDEFINED> instruction: 0x012d0000
    2efc:	0c030550 	cfstr32eq	mvfx0, [r3], {80}	; 0x50
    2f00:	2d1fff03 	ldccs	15, cr15, [pc, #-12]	; 2efc <__exidx_end+0x544>
    2f04:	f5035201 			; <UNDEFINED> instruction: 0xf5035201
    2f08:	012d2506 			; <UNDEFINED> instruction: 0x012d2506
    2f0c:	0bf50353 	bleq	ffd43c60 <__stack+0xdfd13c60>
    2f10:	7d022d25 	stcvc	13, cr2, [r2, #-148]	; 0xffffff6c
    2f14:	06f5030c 	ldrbteq	r0, [r5], ip, lsl #6
    2f18:	362c0025 	strtcc	r0, [ip], -r5, lsr #32
    2f1c:	9000000b 	andls	r0, r0, fp
    2f20:	9b000013 	blls	2f74 <__exidx_end+0x5bc>
    2f24:	2d000012 	stccs	0, cr0, [r0, #-72]	; 0xffffffb8
    2f28:	03055001 	movweq	r5, #20481	; 0x5001
    2f2c:	1fff033c 	svcne	0x00ff033c
    2f30:	0352012d 	cmpeq	r2, #1073741835	; 0x4000000b
    2f34:	2d2506f5 	stccs	6, cr0, [r5, #-980]!	; 0xfffffc2c
    2f38:	f5035301 			; <UNDEFINED> instruction: 0xf5035301
    2f3c:	022d2506 	eoreq	r2, sp, #25165824	; 0x1800000
    2f40:	f503087d 			; <UNDEFINED> instruction: 0xf503087d
    2f44:	022d2506 	eoreq	r2, sp, #25165824	; 0x1800000
    2f48:	f503107d 			; <UNDEFINED> instruction: 0xf503107d
    2f4c:	2c00250b 	cfstr32cs	mvfx2, [r0], {11}
    2f50:	00000b5c 	andeq	r0, r0, ip, asr fp
    2f54:	00001390 	muleq	r0, r0, r3
    2f58:	000012d0 	ldrdeq	r1, [r0], -r0
    2f5c:	0550012d 	ldrbeq	r0, [r0, #-301]	; 0xfffffed3
    2f60:	ff02dc03 			; <UNDEFINED> instruction: 0xff02dc03
    2f64:	52012d1f 	andpl	r2, r1, #1984	; 0x7c0
    2f68:	2506f503 	strcs	pc, [r6, #-1283]	; 0xfffffafd
    2f6c:	0353012d 	cmpeq	r3, #1073741835	; 0x4000000b
    2f70:	2d2506f5 	stccs	6, cr0, [r5, #-980]!	; 0xfffffc2c
    2f74:	03007d02 	movweq	r7, #3330	; 0xd02
    2f78:	2d2506f5 	stccs	6, cr0, [r5, #-980]!	; 0xfffffc2c
    2f7c:	030c7d02 	movweq	r7, #52482	; 0xcd02
    2f80:	002506f5 	strdeq	r0, [r5], -r5	; <UNPREDICTABLE>
    2f84:	000b7c2c 	andeq	r7, fp, ip, lsr #24
    2f88:	00139b00 	andseq	r9, r3, r0, lsl #22
    2f8c:	0012f100 	andseq	pc, r2, r0, lsl #2
    2f90:	50012d00 	andpl	r2, r1, r0, lsl #26
    2f94:	09290305 	stmdbeq	r9!, {r0, r2, r8, r9}
    2f98:	012d0000 			; <UNDEFINED> instruction: 0x012d0000
    2f9c:	007a0651 	rsbseq	r0, sl, r1, asr r6
    2fa0:	1b03e80a 	blne	fcfd0 <__exidx_end+0xfa618>
    2fa4:	0bc42c00 	bleq	ff10dfac <__stack+0xdf0ddfac>
    2fa8:	13a60000 			; <UNDEFINED> instruction: 0x13a60000
    2fac:	130f0000 	movwne	r0, #61440	; 0xf000
    2fb0:	012d0000 			; <UNDEFINED> instruction: 0x012d0000
    2fb4:	000c0550 	andeq	r0, ip, r0, asr r5
    2fb8:	2d4006a0 	stclcs	6, cr0, [r0, #-640]	; 0xfffffd80
    2fbc:	0a035101 	beq	d73c8 <__exidx_end+0xd4a10>
    2fc0:	2c002580 	cfstr32cs	mvfx2, [r0], {128}	; 0x80
    2fc4:	00000c12 	andeq	r0, r0, r2, lsl ip
    2fc8:	000013b1 			; <UNDEFINED> instruction: 0x000013b1
    2fcc:	0000132a 	andeq	r1, r0, sl, lsr #6
    2fd0:	0350012d 	cmpeq	r0, #1073741835	; 0x4000000b
    2fd4:	2d77f091 	ldclcs	0, cr15, [r7, #-580]!	; 0xfffffdbc
    2fd8:	75025101 	strvc	r5, [r2, #-257]	; 0xfffffeff
    2fdc:	1a2c0000 	bne	b02fe4 <__exidx_end+0xb0062c>
    2fe0:	bc00000c 	stclt	0, cr0, [r0], {12}
    2fe4:	41000013 	tstmi	r0, r3, lsl r0
    2fe8:	2d000013 	stccs	0, cr0, [r0, #-76]	; 0xffffffb4
    2fec:	03055101 	movweq	r5, #20737	; 0x5101
    2ff0:	000028dd 	ldrdeq	r2, [r0], -sp
    2ff4:	0c223100 	stfeqs	f3, [r2], #-0
    2ff8:	13bc0000 			; <UNDEFINED> instruction: 0x13bc0000
    2ffc:	012d0000 			; <UNDEFINED> instruction: 0x012d0000
    3000:	f0910351 			; <UNDEFINED> instruction: 0xf0910351
    3004:	07000077 	smlsdxeq	r0, r7, r0, r0
    3008:	00000d34 	andeq	r0, r0, r4, lsr sp
    300c:	00001364 	andeq	r1, r0, r4, ror #6
    3010:	00010811 	andeq	r0, r1, r1, lsl r8
    3014:	0003e700 	andeq	lr, r3, r0, lsl #14
    3018:	00038032 	andeq	r8, r3, r2, lsr r0
    301c:	00038000 	andeq	r8, r3, r0
    3020:	323f0900 	eorscc	r0, pc, #0, 18
    3024:	00000c5a 	andeq	r0, r0, sl, asr ip
    3028:	00000c5a 	andeq	r0, r0, sl, asr ip
    302c:	3932c601 	ldmdbcc	r2!, {r0, r9, sl, lr, pc}
    3030:	3900000c 	stmdbcc	r0, {r2, r3}
    3034:	0100000c 	tsteq	r0, ip
    3038:	11a3321f 			; <UNDEFINED> instruction: 0x11a3321f
    303c:	11a30000 			; <UNDEFINED> instruction: 0x11a30000
    3040:	140e0000 	strne	r0, [lr], #-0
    3044:	0003be32 	andeq	fp, r3, r2, lsr lr
    3048:	0003be00 	andeq	fp, r3, r0, lsl #28
    304c:	32340900 	eorscc	r0, r4, #0, 18
    3050:	0000090e 	andeq	r0, r0, lr, lsl #18
    3054:	0000090e 	andeq	r0, r0, lr, lsl #18
    3058:	79329b01 	ldmdbvc	r2!, {r0, r8, r9, fp, ip, pc}
    305c:	7900000b 	stmdbvc	r0, {r0, r1, r3}
    3060:	0700000b 	streq	r0, [r0, -fp]
    3064:	0f3d3211 	svceq	0x003d3211
    3068:	0f3d0000 	svceq	0x003d0000
    306c:	e70f0000 	str	r0, [pc, -r0]
    3070:	000a1e32 	andeq	r1, sl, r2, lsr lr
    3074:	000a1e00 	andeq	r1, sl, r0, lsl #28
    3078:	00190700 	andseq	r0, r9, r0, lsl #14
    307c:	00000aac 	andeq	r0, r0, ip, lsr #21
    3080:	0a080004 	beq	203098 <__exidx_end+0x2006e0>
    3084:	01040000 	mrseq	r0, (UNDEF: 4)
    3088:	000000bc 	strheq	r0, [r0], -ip
    308c:	0012790c 	andseq	r7, r2, ip, lsl #18
    3090:	00026d00 	andeq	r6, r2, r0, lsl #26
    3094:	0000d800 	andeq	sp, r0, r0, lsl #16
    3098:	00000000 	andeq	r0, r0, r0
    309c:	00083400 	andeq	r3, r8, r0, lsl #8
    30a0:	06010200 	streq	r0, [r1], -r0, lsl #4
    30a4:	000001ff 	strdeq	r0, [r0], -pc	; <UNPREDICTABLE>
    30a8:	00037003 	andeq	r7, r3, r3
    30ac:	371d0400 	ldrcc	r0, [sp, -r0, lsl #8]
    30b0:	02000000 	andeq	r0, r0, #0
    30b4:	01fd0801 	mvnseq	r0, r1, lsl #16
    30b8:	ee030000 	cdp	0, 0, cr0, cr3, cr0, {0}
    30bc:	04000010 	streq	r0, [r0], #-16
    30c0:	00004929 	andeq	r4, r0, r9, lsr #18
    30c4:	05020200 	streq	r0, [r2, #-512]	; 0xfffffe00
    30c8:	000000a6 	andeq	r0, r0, r6, lsr #1
    30cc:	52070202 	andpl	r0, r7, #536870912	; 0x20000000
    30d0:	03000002 	movweq	r0, #2
    30d4:	00000325 	andeq	r0, r0, r5, lsr #6
    30d8:	00623f04 	rsbeq	r3, r2, r4, lsl #30
    30dc:	04020000 	streq	r0, [r2], #-0
    30e0:	00019705 	andeq	r9, r1, r5, lsl #14
    30e4:	007a0300 	rsbseq	r0, sl, r0, lsl #6
    30e8:	41040000 	mrsmi	r0, (UNDEF: 4)
    30ec:	00000074 	andeq	r0, r0, r4, ror r0
    30f0:	15070402 	strne	r0, [r7, #-1026]	; 0xfffffbfe
    30f4:	02000002 	andeq	r0, r0, #2
    30f8:	01920508 	orrseq	r0, r2, r8, lsl #10
    30fc:	08020000 	stmdaeq	r2, {}	; <UNPREDICTABLE>
    3100:	00021007 	andeq	r1, r2, r7
    3104:	05040400 	streq	r0, [r4, #-1024]	; 0xfffffc00
    3108:	00746e69 	rsbseq	r6, r4, r9, ror #28
    310c:	1a070402 	bne	1c411c <__exidx_end+0x1c1764>
    3110:	03000002 	movweq	r0, #2
    3114:	00000372 	andeq	r0, r0, r2, ror r3
    3118:	002c1405 	eoreq	r1, ip, r5, lsl #8
    311c:	f0030000 			; <UNDEFINED> instruction: 0xf0030000
    3120:	05000010 	streq	r0, [r0, #-16]
    3124:	00003e19 	andeq	r3, r0, r9, lsl lr
    3128:	03270300 			; <UNDEFINED> instruction: 0x03270300
    312c:	1f050000 	svcne	0x00050000
    3130:	00000057 	andeq	r0, r0, r7, asr r0
    3134:	00007c03 	andeq	r7, r0, r3, lsl #24
    3138:	69200500 	stmdbvs	r0!, {r8, sl}
    313c:	05000000 	streq	r0, [r0, #-0]
    3140:	000006b2 			; <UNDEFINED> instruction: 0x000006b2
    3144:	00002501 	andeq	r2, r0, r1, lsl #10
    3148:	0e790600 	cdpeq	6, 7, cr0, cr9, cr0, {0}
    314c:	06000003 	streq	r0, [r0], -r3
    3150:	0000092b 	andeq	r0, r0, fp, lsr #18
    3154:	05760672 	ldrbeq	r0, [r6, #-1650]!	; 0xfffff98e
    3158:	06730000 	ldrbteq	r0, [r3], -r0
    315c:	0000063e 	andeq	r0, r0, lr, lsr r6
    3160:	058f0674 	streq	r0, [pc, #1652]	; 37dc <__exidx_end+0xe24>
    3164:	06750000 	ldrbteq	r0, [r5], -r0
    3168:	000008ca 	andeq	r0, r0, sl, asr #17
    316c:	06930676 			; <UNDEFINED> instruction: 0x06930676
    3170:	067b0000 	ldrbteq	r0, [fp], -r0
    3174:	000009e6 	andeq	r0, r0, r6, ror #19
    3178:	08be067c 	ldmeq	lr!, {r2, r3, r4, r5, r6, r9, sl}
    317c:	067e0000 	ldrbteq	r0, [lr], -r0
    3180:	00000719 	andeq	r0, r0, r9, lsl r7
    3184:	079a077f 			; <UNDEFINED> instruction: 0x079a077f
    3188:	07000000 	streq	r0, [r0, -r0]
    318c:	000005af 	andeq	r0, r0, pc, lsr #11
    3190:	09180701 	ldmdbeq	r8, {r0, r8, r9, sl}
    3194:	07020000 	streq	r0, [r2, -r0]
    3198:	00000524 	andeq	r0, r0, r4, lsr #10
    319c:	06160703 	ldreq	r0, [r6], -r3, lsl #14
    31a0:	07040000 	streq	r0, [r4, -r0]
    31a4:	0000070f 	andeq	r0, r0, pc, lsl #14
    31a8:	09b60705 	ldmibeq	r6!, {r0, r2, r8, r9, sl}
    31ac:	07060000 	streq	r0, [r6, -r0]
    31b0:	00000430 	andeq	r0, r0, r0, lsr r4
    31b4:	04d80707 	ldrbeq	r0, [r8], #1799	; 0x707
    31b8:	07080000 	streq	r0, [r8, -r0]
    31bc:	000007ae 	andeq	r0, r0, lr, lsr #15
    31c0:	06ac0709 	strteq	r0, [ip], r9, lsl #14
    31c4:	070a0000 	streq	r0, [sl, -r0]
    31c8:	0000077a 	andeq	r0, r0, sl, ror r7
    31cc:	09f8070b 	ldmibeq	r8!, {r0, r1, r3, r8, r9, sl}^
    31d0:	070c0000 	streq	r0, [ip, -r0]
    31d4:	00000471 	andeq	r0, r0, r1, ror r4
    31d8:	0504070d 	streq	r0, [r4, #-1805]	; 0xfffff8f3
    31dc:	070e0000 	streq	r0, [lr, -r0]
    31e0:	00000820 	andeq	r0, r0, r0, lsr #16
    31e4:	094c070f 	stmdbeq	ip, {r0, r1, r2, r3, r8, r9, sl}^
    31e8:	07100000 	ldreq	r0, [r0, -r0]
    31ec:	00000922 	andeq	r0, r0, r2, lsr #18
    31f0:	095b0711 	ldmdbeq	fp, {r0, r4, r8, r9, sl}^
    31f4:	07120000 	ldreq	r0, [r2, -r0]
    31f8:	000006d6 	ldrdeq	r0, [r0], -r6
    31fc:	07320713 			; <UNDEFINED> instruction: 0x07320713
    3200:	07140000 	ldreq	r0, [r4, -r0]
    3204:	000009d3 	ldrdeq	r0, [r0], -r3
    3208:	04b00715 	ldrteq	r0, [r0], #1813	; 0x715
    320c:	07160000 	ldreq	r0, [r6, -r0]
    3210:	00000553 	andeq	r0, r0, r3, asr r5
    3214:	07dc0717 	bfieq	r0, r7, #14, #15
    3218:	07180000 	ldreq	r0, [r8, -r0]
    321c:	00000884 	andeq	r0, r0, r4, lsl #17
    3220:	05d40719 	ldrbeq	r0, [r4, #1817]	; 0x719
    3224:	071a0000 	ldreq	r0, [sl, -r0]
    3228:	000006c1 	andeq	r0, r0, r1, asr #13
    322c:	0980071b 	stmibeq	r0, {r0, r1, r3, r4, r8, r9, sl}
    3230:	071c0000 	ldreq	r0, [ip, -r0]
    3234:	0000093f 	andeq	r0, r0, pc, lsr r9
    3238:	09a7071d 	stmibeq	r7!, {r0, r2, r3, r4, r8, r9, sl}
    323c:	071e0000 	ldreq	r0, [lr, -r0]
    3240:	00000a03 	andeq	r0, r0, r3, lsl #20
    3244:	05f8071f 	ldrbeq	r0, [r8, #1823]!	; 0x71f
    3248:	07200000 	streq	r0, [r0, -r0]!
    324c:	00000663 	andeq	r0, r0, r3, ror #12
    3250:	06070721 	streq	r0, [r7], -r1, lsr #14
    3254:	07220000 	streq	r0, [r2, -r0]!
    3258:	00000893 	muleq	r0, r3, r8
    325c:	06200723 	strteq	r0, [r0], -r3, lsr #14
    3260:	07240000 	streq	r0, [r4, -r0]!
    3264:	0000047c 	andeq	r0, r0, ip, ror r4
    3268:	062f0725 	strteq	r0, [pc], -r5, lsr #14
    326c:	07260000 	streq	r0, [r6, -r0]!
    3270:	000007a4 	andeq	r0, r0, r4, lsr #15
    3274:	07050727 	streq	r0, [r5, -r7, lsr #14]
    3278:	07280000 	streq	r0, [r8, -r0]!
    327c:	000007e6 	andeq	r0, r0, r6, ror #15
    3280:	050f0729 	streq	r0, [pc, #-1833]	; 2b5f <__exidx_end+0x1a7>
    3284:	072a0000 	streq	r0, [sl, -r0]!
    3288:	000009c0 	andeq	r0, r0, r0, asr #19
    328c:	08e6072b 	stmiaeq	r6!, {r0, r1, r3, r5, r8, r9, sl}^
    3290:	072c0000 	streq	r0, [ip, -r0]!
    3294:	000004fb 	strdeq	r0, [r0], -fp
    3298:	0840072d 	stmdaeq	r0, {r0, r2, r3, r5, r8, r9, sl}^
    329c:	072e0000 	streq	r0, [lr, -r0]!
    32a0:	00000682 	andeq	r0, r0, r2, lsl #13
    32a4:	05ee072f 	strbeq	r0, [lr, #1839]!	; 0x72f
    32a8:	07300000 	ldreq	r0, [r0, -r0]!
    32ac:	0000043f 	andeq	r0, r0, pc, lsr r4
    32b0:	09970731 	ldmibeq	r7, {r0, r4, r5, r8, r9, sl}
    32b4:	07320000 	ldreq	r0, [r2, -r0]!
    32b8:	00000a14 	andeq	r0, r0, r4, lsl sl
    32bc:	05850733 	streq	r0, [r5, #1843]	; 0x733
    32c0:	07340000 	ldreq	r0, [r4, -r0]!
    32c4:	0000049b 	muleq	r0, fp, r4
    32c8:	07260735 			; <UNDEFINED> instruction: 0x07260735
    32cc:	07360000 	ldreq	r0, [r6, -r0]!
    32d0:	00000461 	andeq	r0, r0, r1, ror #8
    32d4:	06b70737 			; <UNDEFINED> instruction: 0x06b70737
    32d8:	07380000 	ldreq	r0, [r8, -r0]!
    32dc:	0000082b 	andeq	r0, r0, fp, lsr #16
    32e0:	069f0739 			; <UNDEFINED> instruction: 0x069f0739
    32e4:	073a0000 	ldreq	r0, [sl, -r0]!
    32e8:	000006cb 	andeq	r0, r0, fp, asr #13
    32ec:	078f073b 			; <UNDEFINED> instruction: 0x078f073b
    32f0:	073c0000 	ldreq	r0, [ip, -r0]!
    32f4:	0000083e 	andeq	r0, r0, lr, lsr r8
    32f8:	04a5073d 	strteq	r0, [r5], #1853	; 0x73d
    32fc:	073e0000 	ldreq	r0, [lr, -r0]!
    3300:	00000519 	andeq	r0, r0, r9, lsl r5
    3304:	0453073f 	ldrbeq	r0, [r3], #-1855	; 0xfffff8c1
    3308:	07400000 	strbeq	r0, [r0, -r0]
    330c:	00000785 	andeq	r0, r0, r5, lsl #15
    3310:	06f40741 	ldrbteq	r0, [r4], r1, asr #14
    3314:	07420000 	strbeq	r0, [r2, -r0]
    3318:	00000654 	andeq	r0, r0, r4, asr r6
    331c:	07510743 	ldrbeq	r0, [r1, -r3, asr #14]
    3320:	07440000 	strbeq	r0, [r4, -r0]
    3324:	000004ec 	andeq	r0, r0, ip, ror #9
    3328:	08340745 	ldmdaeq	r4!, {r0, r2, r6, r8, r9, sl}
    332c:	07460000 	strbeq	r0, [r6, -r0]
    3330:	000006ea 	andeq	r0, r0, sl, ror #13
    3334:	04490747 	strbeq	r0, [r9], #-1863	; 0xfffff8b9
    3338:	07480000 	strbeq	r0, [r8, -r0]
    333c:	000007bd 			; <UNDEFINED> instruction: 0x000007bd
    3340:	04e20749 	strbteq	r0, [r2], #1865	; 0x749
    3344:	074a0000 	strbeq	r0, [sl, -r0]
    3348:	000008f0 	strdeq	r0, [r0], -r0	; <UNPREDICTABLE>
    334c:	073f074b 	ldreq	r0, [pc, -fp, asr #14]!
    3350:	074c0000 	strbeq	r0, [ip, -r0]
    3354:	0000053e 	andeq	r0, r0, lr, lsr r5
    3358:	04be074d 	ldrteq	r0, [lr], #1869	; 0x74d
    335c:	074e0000 	strbeq	r0, [lr, -r0]
    3360:	0000096b 	andeq	r0, r0, fp, ror #18
    3364:	05b9074f 	ldreq	r0, [r9, #1871]!	; 0x74f
    3368:	07500000 	ldrbeq	r0, [r0, -r0]
    336c:	000009dc 	ldrdeq	r0, [r0], -ip
    3370:	05610751 	strbeq	r0, [r1, #-1873]!	; 0xfffff8af
    3374:	07520000 	ldrbeq	r0, [r2, -r0]
    3378:	00000762 	andeq	r0, r0, r2, ror #14
    337c:	059d0753 	ldreq	r0, [sp, #1875]	; 0x753
    3380:	07540000 	ldrbeq	r0, [r4, -r0]
    3384:	0000052e 	andeq	r0, r0, lr, lsr #10
    3388:	ae030055 	mcrge	0, 0, r0, cr3, cr5, {2}
    338c:	06000008 	streq	r0, [r0], -r8
    3390:	0000c3dc 	ldrdeq	ip, [r0], -ip	; <UNPREDICTABLE>
    3394:	0e040800 	cdpeq	8, 0, cr0, cr4, cr0, {0}
    3398:	d5015002 	strle	r5, [r1, #-2]
    339c:	09000003 	stmdbeq	r0, {r0, r1}
    33a0:	0000054e 	andeq	r0, r0, lr, asr #10
    33a4:	ec015202 	sfm	f5, 4, [r1], {2}
    33a8:	00000003 	andeq	r0, r0, r3
    33ac:	0007f009 	andeq	pc, r7, r9
    33b0:	01530200 	cmpeq	r3, r0, lsl #4
    33b4:	000003f1 	strdeq	r0, [r0], -r1
    33b8:	07b80920 	ldreq	r0, [r8, r0, lsr #18]!
    33bc:	54020000 	strpl	r0, [r2], #-0
    33c0:	00040101 	andeq	r0, r4, r1, lsl #2
    33c4:	ca098000 	bgt	2633cc <__exidx_end+0x260a14>
    33c8:	02000009 	andeq	r0, r0, #9
    33cc:	03f10155 	mvnseq	r0, #1073741845	; 0x40000015
    33d0:	0aa00000 	beq	fe8033d8 <__stack+0xde7d33d8>
    33d4:	000004d3 	ldrdeq	r0, [r0], -r3
    33d8:	06015602 	streq	r5, [r1], -r2, lsl #12
    33dc:	00000004 	andeq	r0, r0, r4
    33e0:	07fa0a01 	ldrbeq	r0, [sl, r1, lsl #20]!
    33e4:	57020000 	strpl	r0, [r2, -r0]
    33e8:	0003f101 	andeq	pc, r3, r1, lsl #2
    33ec:	0a012000 	beq	4b3f4 <__exidx_end+0x48a3c>
    33f0:	0000043a 	andeq	r0, r0, sl, lsr r4
    33f4:	0b015802 	bleq	59404 <__exidx_end+0x56a4c>
    33f8:	80000004 	andhi	r0, r0, r4
    33fc:	08a40a01 	stmiaeq	r4!, {r0, r9, fp}
    3400:	59020000 	stmdbpl	r2, {}	; <UNPREDICTABLE>
    3404:	0003f101 	andeq	pc, r3, r1, lsl #2
    3408:	0a01a000 	beq	6b410 <__exidx_end+0x68a58>
    340c:	00000775 	andeq	r0, r0, r5, ror r7
    3410:	10015a02 	andne	r5, r1, r2, lsl #20
    3414:	00000004 	andeq	r0, r0, r4
    3418:	08040a02 	stmdaeq	r4, {r1, r9, fp}
    341c:	5b020000 	blpl	83424 <__exidx_end+0x80a6c>
    3420:	00041501 	andeq	r1, r4, r1, lsl #10
    3424:	0b022000 	bleq	8b42c <__exidx_end+0x88a74>
    3428:	02005049 	andeq	r5, r0, #73	; 0x49
    342c:	0435015c 	ldrteq	r0, [r5], #-348	; 0xfffffea4
    3430:	03000000 	movweq	r0, #0
    3434:	00080e0a 	andeq	r0, r8, sl, lsl #28
    3438:	015d0200 	cmpeq	sp, r0, lsl #4
    343c:	0000043a 	andeq	r0, r0, sl, lsr r4
    3440:	5c0a03f0 	stcpl	3, cr0, [sl], {240}	; 0xf0
    3444:	02000004 	andeq	r0, r0, #4
    3448:	044b015e 	strbeq	r0, [fp], #-350	; 0xfffffea2
    344c:	0e000000 	cdpeq	0, 0, cr0, cr0, cr0, {0}
    3450:	00b80c00 	adcseq	r0, r8, r0, lsl #24
    3454:	03e50000 	mvneq	r0, #0
    3458:	e50d0000 	str	r0, [sp, #-0]
    345c:	07000003 	streq	r0, [r0, -r3]
    3460:	07040200 	streq	r0, [r4, -r0, lsl #4]
    3464:	00000055 	andeq	r0, r0, r5, asr r0
    3468:	0003d50e 	andeq	sp, r3, lr, lsl #10
    346c:	00b80c00 	adcseq	r0, r8, r0, lsl #24
    3470:	04010000 	streq	r0, [r1], #-0
    3474:	e50d0000 	str	r0, [sp, #-0]
    3478:	17000003 	strne	r0, [r0, -r3]
    347c:	03d50e00 	bicseq	r0, r5, #0, 28
    3480:	d50e0000 	strle	r0, [lr, #-0]
    3484:	0e000003 	cdpeq	0, 0, cr0, cr0, cr3, {0}
    3488:	000003d5 	ldrdeq	r0, [r0], -r5
    348c:	0003d50e 	andeq	sp, r3, lr, lsl #10
    3490:	00b80c00 	adcseq	r0, r8, r0, lsl #24
    3494:	04250000 	strteq	r0, [r5], #-0
    3498:	e50d0000 	str	r0, [sp, #-0]
    349c:	37000003 	strcc	r0, [r0, -r3]
    34a0:	00970c00 	addseq	r0, r7, r0, lsl #24
    34a4:	04350000 	ldrteq	r0, [r5], #-0
    34a8:	e50d0000 	str	r0, [sp, #-0]
    34ac:	ef000003 	svc	0x00000003
    34b0:	04250e00 	strteq	r0, [r5], #-3584	; 0xfffff200
    34b4:	b80c0000 	stmdalt	ip, {}	; <UNPREDICTABLE>
    34b8:	4b000000 	blmi	34c0 <__exidx_end+0xb08>
    34bc:	0f000004 	svceq	0x00000004
    34c0:	000003e5 	andeq	r0, r0, r5, ror #7
    34c4:	0e000283 	cdpeq	2, 0, cr0, cr0, cr3, {4}
    34c8:	000000b8 	strheq	r0, [r0], -r8
    34cc:	00085910 	andeq	r5, r8, r0, lsl r9
    34d0:	015f0200 	cmpeq	pc, r0, lsl #4
    34d4:	00000319 	andeq	r0, r0, r9, lsl r3
    34d8:	00044b11 	andeq	r4, r4, r1, lsl fp
    34dc:	00b80c00 	adcseq	r0, r8, r0, lsl #24
    34e0:	04710000 	ldrbteq	r0, [r1], #-0
    34e4:	e50d0000 	str	r0, [sp, #-0]
    34e8:	01000003 	tsteq	r0, r3
    34ec:	00970e00 	addseq	r0, r7, r0, lsl #28
    34f0:	70120000 	andsvc	r0, r2, r0
    34f4:	ce011f06 	cdpgt	15, 0, cr1, cr1, cr6, {0}
    34f8:	13000005 	movwne	r0, #5
    34fc:	00314353 	eorseq	r4, r1, r3, asr r3
    3500:	ce012006 	cdpgt	0, 0, cr2, cr1, cr6, {0}
    3504:	00000005 	andeq	r0, r0, r5
    3508:	00000709 	andeq	r0, r0, r9, lsl #14
    350c:	01210600 			; <UNDEFINED> instruction: 0x01210600
    3510:	0000044b 	andeq	r0, r0, fp, asr #8
    3514:	000d0908 	andeq	r0, sp, r8, lsl #18
    3518:	22060000 	andcs	r0, r6, #0
    351c:	00044b01 	andeq	r4, r4, r1, lsl #22
    3520:	52130c00 	andspl	r0, r3, #0, 24
    3524:	01230600 			; <UNDEFINED> instruction: 0x01230600
    3528:	000005d8 	ldrdeq	r0, [r0], -r8
    352c:	56431310 			; <UNDEFINED> instruction: 0x56431310
    3530:	24060031 	strcs	r0, [r6], #-49	; 0xffffffcf
    3534:	00044b01 	andeq	r4, r4, r1, lsl #22
    3538:	43131800 	tstmi	r3, #0, 16
    353c:	06003256 			; <UNDEFINED> instruction: 0x06003256
    3540:	044b0125 	strbeq	r0, [fp], #-293	; 0xfffffedb
    3544:	131c0000 	tstne	ip, #0
    3548:	00324353 	eorseq	r4, r2, r3, asr r3
    354c:	4b012606 	blmi	4cd6c <__exidx_end+0x4a3b4>
    3550:	20000004 	andcs	r0, r0, r4
    3554:	33435313 	movtcc	r5, #13075	; 0x3313
    3558:	01270600 			; <UNDEFINED> instruction: 0x01270600
    355c:	0000044b 	andeq	r0, r0, fp, asr #8
    3560:	464f1324 	strbmi	r1, [pc], -r4, lsr #6
    3564:	28060053 	stmdacs	r6, {r0, r1, r4, r6}
    3568:	00044b01 	andeq	r4, r4, r1, lsl #22
    356c:	50132800 	andspl	r2, r3, r0, lsl #16
    3570:	29060047 	stmdbcs	r6, {r0, r1, r2, r6}
    3574:	00044b01 	andeq	r4, r4, r1, lsl #22
    3578:	4d132c00 	ldcmi	12, cr2, [r3, #-0]
    357c:	2a060047 	bcs	1836a0 <__exidx_end+0x180ce8>
    3580:	00044b01 	andeq	r4, r4, r1, lsl #22
    3584:	cf093000 	svcgt	0x00093000
    3588:	06000011 			; <UNDEFINED> instruction: 0x06000011
    358c:	044b012b 	strbeq	r0, [fp], #-299	; 0xfffffed5
    3590:	09340000 	ldmdbeq	r4!, {}	; <UNPREDICTABLE>
    3594:	000011eb 	andeq	r1, r0, fp, ror #3
    3598:	4b012c06 	blmi	4e5b8 <__exidx_end+0x4bc00>
    359c:	38000004 	stmdacc	r0, {r2}
    35a0:	0011ca09 	andseq	ip, r1, r9, lsl #20
    35a4:	012d0600 			; <UNDEFINED> instruction: 0x012d0600
    35a8:	0000044b 	andeq	r0, r0, fp, asr #8
    35ac:	11c5093c 	bicne	r0, r5, ip, lsr r9
    35b0:	2e060000 	cdpcs	0, 0, cr0, cr6, cr0, {0}
    35b4:	00044b01 	andeq	r4, r4, r1, lsl #22
    35b8:	c0094000 	andgt	r4, r9, r0
    35bc:	06000011 			; <UNDEFINED> instruction: 0x06000011
    35c0:	044b012f 	strbeq	r0, [fp], #-303	; 0xfffffed1
    35c4:	09440000 	stmdbeq	r4, {}^	; <UNPREDICTABLE>
    35c8:	000011bb 			; <UNDEFINED> instruction: 0x000011bb
    35cc:	4b013006 	blmi	4f5ec <__exidx_end+0x4cc34>
    35d0:	48000004 	stmdami	r0, {r2}
    35d4:	0011b609 	andseq	fp, r1, r9, lsl #12
    35d8:	01310600 	teqeq	r1, r0, lsl #12
    35dc:	0000044b 	andeq	r0, r0, fp, asr #8
    35e0:	02f9094c 	rscseq	r0, r9, #76, 18	; 0x130000
    35e4:	32060000 	andcc	r0, r6, #0
    35e8:	0005dd01 	andeq	sp, r5, r1, lsl #26
    35ec:	5c095000 	stcpl	0, cr5, [r9], {-0}
    35f0:	06000011 			; <UNDEFINED> instruction: 0x06000011
    35f4:	044b0133 	strbeq	r0, [fp], #-307	; 0xfffffecd
    35f8:	09540000 	ldmdbeq	r4, {}^	; <UNPREDICTABLE>
    35fc:	00001161 	andeq	r1, r0, r1, ror #2
    3600:	4b013406 	blmi	50620 <__exidx_end+0x4dc68>
    3604:	58000004 	stmdapl	r0, {r2}
    3608:	00112909 	andseq	r2, r1, r9, lsl #18
    360c:	01350600 	teqeq	r5, r0, lsl #12
    3610:	0000044b 	andeq	r0, r0, fp, asr #8
    3614:	1124095c 			; <UNDEFINED> instruction: 0x1124095c
    3618:	36060000 	strcc	r0, [r6], -r0
    361c:	00044b01 	andeq	r4, r4, r1, lsl #22
    3620:	1f096000 	svcne	0x00096000
    3624:	06000011 			; <UNDEFINED> instruction: 0x06000011
    3628:	044b0137 	strbeq	r0, [fp], #-311	; 0xfffffec9
    362c:	09640000 	stmdbeq	r4!, {}^	; <UNPREDICTABLE>
    3630:	0000111a 	andeq	r1, r0, sl, lsl r1
    3634:	4b013806 	blmi	51654 <__exidx_end+0x4ec9c>
    3638:	68000004 	stmdavs	r0, {r2}
    363c:	00111509 	andseq	r1, r1, r9, lsl #10
    3640:	01390600 	teqeq	r9, r0, lsl #12
    3644:	0000044b 	andeq	r0, r0, fp, asr #8
    3648:	610e006c 	tstvs	lr, ip, rrx
    364c:	0e000004 	cdpeq	0, 0, cr0, cr0, cr4, {0}
    3650:	00000461 	andeq	r0, r0, r1, ror #8
    3654:	0005d311 	andeq	sp, r5, r1, lsl r3
    3658:	00970c00 	addseq	r0, r7, r0, lsl #24
    365c:	05ed0000 	strbeq	r0, [sp, #0]!
    3660:	e50d0000 	str	r0, [sp, #-0]
    3664:	03000003 	movweq	r0, #3
    3668:	11901000 	orrsne	r1, r0, r0
    366c:	3a060000 	bcc	183674 <__exidx_end+0x180cbc>
    3670:	00047601 	andeq	r7, r4, r1, lsl #12
    3674:	00970c00 	addseq	r0, r7, r0, lsl #24
    3678:	06090000 	streq	r0, [r9], -r0
    367c:	e50d0000 	str	r0, [sp, #-0]
    3680:	07000003 	streq	r0, [r0, -r3]
    3684:	00970c00 	addseq	r0, r7, r0, lsl #24
    3688:	06190000 	ldreq	r0, [r9], -r0
    368c:	e50d0000 	str	r0, [sp, #-0]
    3690:	2f000003 	svccs	0x00000003
    3694:	06021200 	streq	r1, [r2], -r0, lsl #4
    3698:	063d0c43 	ldrteq	r0, [sp], -r3, asr #24
    369c:	93090000 	movwls	r0, #36864	; 0x9000
    36a0:	06000012 			; <UNDEFINED> instruction: 0x06000012
    36a4:	04710c44 	ldrbteq	r0, [r1], #-3140	; 0xfffff3bc
    36a8:	09000000 	stmdbeq	r0, {}	; <UNPREDICTABLE>
    36ac:	0000128e 	andeq	r1, r0, lr, lsl #5
    36b0:	710c4506 	tstvc	ip, r6, lsl #10
    36b4:	01000004 	tsteq	r0, r4
    36b8:	06241200 	strteq	r1, [r4], -r0, lsl #4
    36bc:	06840c42 	streq	r0, [r4], r2, asr #24
    36c0:	44130000 	ldrmi	r0, [r3], #-0
    36c4:	06005441 	streq	r5, [r0], -r1, asr #8
    36c8:	06840c46 	streq	r0, [r4], r6, asr #24
    36cc:	13000000 	movwne	r0, #0
    36d0:	06005253 			; <UNDEFINED> instruction: 0x06005253
    36d4:	04710c47 	ldrbteq	r0, [r1], #-3143	; 0xfffff3b9
    36d8:	13200000 	nopne	{0}	; <UNPREDICTABLE>
    36dc:	06003043 	streq	r3, [r0], -r3, asr #32
    36e0:	04710c48 	ldrbteq	r0, [r1], #-3144	; 0xfffff3b8
    36e4:	13210000 			; <UNDEFINED> instruction: 0x13210000
    36e8:	06003143 	streq	r3, [r0], -r3, asr #2
    36ec:	04710c49 	ldrbteq	r0, [r1], #-3145	; 0xfffff3b7
    36f0:	13220000 			; <UNDEFINED> instruction: 0x13220000
    36f4:	06003243 	streq	r3, [r0], -r3, asr #4
    36f8:	04710c4a 	ldrbteq	r0, [r1], #-3146	; 0xfffff3b6
    36fc:	00230000 	eoreq	r0, r3, r0
    3700:	0006190c 	andeq	r1, r6, ip, lsl #18
    3704:	00069400 	andeq	r9, r6, r0, lsl #8
    3708:	03e50d00 	mvneq	r0, #0, 26
    370c:	000f0000 	andeq	r0, pc, r0
    3710:	0012c010 	andseq	ip, r2, r0, lsl r0
    3714:	0c4b0600 	mcrreq	6, 0, r0, fp, cr0
    3718:	0000063d 	andeq	r0, r0, sp, lsr r6
    371c:	0000970c 	andeq	r9, r0, ip, lsl #14
    3720:	0006b000 	andeq	fp, r6, r0
    3724:	03e50d00 	mvneq	r0, #0, 26
    3728:	00170000 	andseq	r0, r7, r0
    372c:	ea062812 	b	18d77c <__exidx_end+0x18adc4>
    3730:	0006eb22 	andeq	lr, r6, r2, lsr #22
    3734:	31431300 	mrscc	r1, (UNDEF: 115)
    3738:	22eb0600 	rsccs	r0, fp, #0, 12
    373c:	0000044b 	andeq	r0, r0, fp, asr #8
    3740:	00531300 	subseq	r1, r3, r0, lsl #6
    3744:	4b22ec06 	blmi	8be764 <__exidx_end+0x8bbdac>
    3748:	04000004 	streq	r0, [r0], #-4
    374c:	594c4413 	stmdbpl	ip, {r0, r1, r4, sl, lr}^
    3750:	22ed0600 	rsccs	r0, sp, #0, 12
    3754:	000006eb 	andeq	r0, r0, fp, ror #13
    3758:	02f90908 	rscseq	r0, r9, #8, 18	; 0x20000
    375c:	ee060000 	cdp	0, 0, cr0, cr6, cr0, {0}
    3760:	0006a022 	andeq	sl, r6, r2, lsr #32
    3764:	0e001000 	cdpeq	0, 0, cr1, cr0, cr0, {0}
    3768:	00000461 	andeq	r0, r0, r1, ror #8
    376c:	f1060812 			; <UNDEFINED> instruction: 0xf1060812
    3770:	00071422 	andeq	r1, r7, r2, lsr #8
    3774:	12cf0900 	sbcne	r0, pc, #0, 18
    3778:	f2060000 	vhadd.s8	d0, d6, d0
    377c:	00044b22 	andeq	r4, r4, r2, lsr #22
    3780:	49130000 	ldmdbmi	r3, {}	; <UNPREDICTABLE>
    3784:	0600544e 	streq	r5, [r0], -lr, asr #8
    3788:	044b22f3 	strbeq	r2, [fp], #-755	; 0xfffffd0d
    378c:	00040000 	andeq	r0, r4, r0
    3790:	0601a008 	streq	sl, [r1], -r8
    3794:	07a322e5 	streq	r2, [r3, r5, ror #5]!
    3798:	53130000 	tstpl	r3, #0
    379c:	e6060043 	str	r0, [r6], -r3, asr #32
    37a0:	00044b22 	andeq	r4, r4, r2, lsr #22
    37a4:	4d130000 	ldcmi	0, cr0, [r3, #-0]
    37a8:	0600444f 	streq	r4, [r0], -pc, asr #8
    37ac:	044b22e7 	strbeq	r2, [fp], #-743	; 0xfffffd19
    37b0:	13040000 	movwne	r0, #16384	; 0x4000
    37b4:	00544e43 	subseq	r4, r4, r3, asr #28
    37b8:	5c22e806 	stcpl	8, cr14, [r2], #-24	; 0xffffffe8
    37bc:	08000004 	stmdaeq	r0, {r2}
    37c0:	0012d409 	andseq	sp, r2, r9, lsl #8
    37c4:	22e90600 	rsccs	r0, r9, #0, 12
    37c8:	0000044b 	andeq	r0, r0, fp, asr #8
    37cc:	4843130c 	stmdami	r3, {r2, r3, r8, r9, ip}^
    37d0:	22ef0600 	rsccs	r0, pc, #0, 12
    37d4:	000007a3 	andeq	r0, r0, r3, lsr #15
    37d8:	02f90910 	rscseq	r0, r9, #16, 18	; 0x40000
    37dc:	f0060000 			; <UNDEFINED> instruction: 0xf0060000
    37e0:	00042522 	andeq	r2, r4, r2, lsr #10
    37e4:	440b6000 	strmi	r6, [fp], #-0
    37e8:	06004341 	streq	r4, [r0], -r1, asr #6
    37ec:	07b322f4 			; <UNDEFINED> instruction: 0x07b322f4
    37f0:	01500000 	cmpeq	r0, r0
    37f4:	0003040a 	andeq	r0, r3, sl, lsl #8
    37f8:	22f50600 	rscscs	r0, r5, #0, 12
    37fc:	00000609 	andeq	r0, r0, r9, lsl #12
    3800:	890a0160 	stmdbhi	sl, {r5, r6, r8}
    3804:	06000012 			; <UNDEFINED> instruction: 0x06000012
    3808:	044b22f6 	strbeq	r2, [fp], #-758	; 0xfffffd0a
    380c:	01900000 	orrseq	r0, r0, r0
    3810:	0012c90a 	andseq	ip, r2, sl, lsl #18
    3814:	22f70600 	rscscs	r0, r7, #0, 12
    3818:	000007d3 	ldrdeq	r0, [r0], -r3
    381c:	0c000194 	stfeqs	f0, [r0], {148}	; 0x94
    3820:	000006b0 			; <UNDEFINED> instruction: 0x000006b0
    3824:	000007b3 			; <UNDEFINED> instruction: 0x000007b3
    3828:	0003e50d 	andeq	lr, r3, sp, lsl #10
    382c:	0c000100 	stfeqs	f0, [r0], {-0}
    3830:	000006f0 	strdeq	r0, [r0], -r0	; <UNPREDICTABLE>
    3834:	000007c3 	andeq	r0, r0, r3, asr #15
    3838:	0003e50d 	andeq	lr, r3, sp, lsl #10
    383c:	0c000100 	stfeqs	f0, [r0], {-0}
    3840:	000000b8 	strheq	r0, [r0], -r8
    3844:	000007d3 	ldrdeq	r0, [r0], -r3
    3848:	0003e50d 	andeq	lr, r3, sp, lsl #10
    384c:	0e000200 	cdpeq	2, 0, cr0, cr0, cr0, {0}
    3850:	000007c3 	andeq	r0, r0, r3, asr #15
    3854:	0012b710 	andseq	fp, r2, r0, lsl r7
    3858:	22f80600 	rscscs	r0, r8, #0, 12
    385c:	00000714 	andeq	r0, r0, r4, lsl r7
    3860:	06106408 	ldreq	r6, [r0], -r8, lsl #8
    3864:	09582ace 	ldmdbeq	r8, {r1, r2, r3, r6, r7, r9, fp, sp}^
    3868:	b9090000 	stmdblt	r9, {}	; <UNPREDICTABLE>
    386c:	06000002 	streq	r0, [r0], -r2
    3870:	044b2acf 	strbeq	r2, [fp], #-2767	; 0xfffff531
    3874:	09000000 	stmdbeq	r0, {}	; <UNPREDICTABLE>
    3878:	00000046 	andeq	r0, r0, r6, asr #32
    387c:	4b2ad006 	blmi	ab789c <__exidx_end+0xab4ee4>
    3880:	04000004 	streq	r0, [r0], #-4
    3884:	0002f909 	andeq	pc, r2, r9, lsl #18
    3888:	2ad10600 	bcs	ff445090 <__stack+0xdf415090>
    388c:	00000958 	andeq	r0, r0, r8, asr r9
    3890:	02cf0a08 	sbceq	r0, pc, #8, 20	; 0x8000
    3894:	d2060000 	andle	r0, r6, #0
    3898:	00044b2a 	andeq	r4, r4, sl, lsr #22
    389c:	0a100400 	beq	4048a4 <__exidx_end+0x401eec>
    38a0:	00000304 	andeq	r0, r0, r4, lsl #6
    38a4:	dd2ad306 	stcle	3, cr13, [sl, #-24]!	; 0xffffffe8
    38a8:	08000005 	stmdaeq	r0, {r0, r2}
    38ac:	037a0a10 	cmneq	sl, #16, 20	; 0x10000
    38b0:	d4060000 	strle	r0, [r6], #-0
    38b4:	00044b2a 	andeq	r4, r4, sl, lsr #22
    38b8:	0a100c00 	beq	4068c0 <__exidx_end+0x403f08>
    38bc:	00000000 	andeq	r0, r0, r0
    38c0:	4b2ad506 	blmi	ab8ce0 <__exidx_end+0xab6328>
    38c4:	10000004 	andne	r0, r0, r4
    38c8:	030f0a10 	movweq	r0, #64016	; 0xfa10
    38cc:	d6060000 	strle	r0, [r6], -r0
    38d0:	0005dd2a 	andeq	sp, r5, sl, lsr #26
    38d4:	0a101400 	beq	4088dc <__exidx_end+0x405f24>
    38d8:	000001e7 	andeq	r0, r0, r7, ror #3
    38dc:	4b2ad706 	blmi	ab94fc <__exidx_end+0xab6b44>
    38e0:	18000004 	stmdane	r0, {r2}
    38e4:	031a0a10 	tsteq	sl, #16, 20	; 0x10000
    38e8:	d8060000 	stmdale	r6, {}	; <UNPREDICTABLE>
    38ec:	0005f92a 	andeq	pc, r5, sl, lsr #18
    38f0:	0a101c00 	beq	40a8f8 <__exidx_end+0x407f40>
    38f4:	00000041 	andeq	r0, r0, r1, asr #32
    38f8:	5c2ad906 			; <UNDEFINED> instruction: 0x5c2ad906
    38fc:	24000004 	strcs	r0, [r0], #-4
    3900:	01a70a10 			; <UNDEFINED> instruction: 0x01a70a10
    3904:	da060000 	ble	18390c <__exidx_end+0x180f54>
    3908:	00044b2a 	andeq	r4, r4, sl, lsr #22
    390c:	0a102800 	beq	40d914 <__exidx_end+0x40af5c>
    3910:	000001ad 	andeq	r0, r0, sp, lsr #3
    3914:	4b2adb06 	blmi	aba534 <__exidx_end+0xab7b7c>
    3918:	2c000004 	stccs	0, cr0, [r0], {4}
    391c:	01b30a10 			; <UNDEFINED> instruction: 0x01b30a10
    3920:	dc060000 	stcle	0, cr0, [r6], {-0}
    3924:	00044b2a 	andeq	r4, r4, sl, lsr #22
    3928:	0a103000 	beq	40f930 <__exidx_end+0x40cf78>
    392c:	000001b9 			; <UNDEFINED> instruction: 0x000001b9
    3930:	4b2add06 	blmi	abad50 <__exidx_end+0xab8398>
    3934:	34000004 	strcc	r0, [r0], #-4
    3938:	01bf0a10 			; <UNDEFINED> instruction: 0x01bf0a10
    393c:	de060000 	cdple	0, 0, cr0, cr6, cr0, {0}
    3940:	00044b2a 	andeq	r4, r4, sl, lsr #22
    3944:	0a103800 	beq	41194c <__exidx_end+0x40ef94>
    3948:	000001c5 	andeq	r0, r0, r5, asr #3
    394c:	4b2adf06 	blmi	abb56c <__exidx_end+0xab8bb4>
    3950:	3c000004 	stccc	0, cr0, [r0], {4}
    3954:	01cb0a10 	biceq	r0, fp, r0, lsl sl
    3958:	e0060000 	and	r0, r6, r0
    395c:	00044b2a 	andeq	r4, r4, sl, lsr #22
    3960:	0a104000 	beq	413968 <__exidx_end+0x410fb0>
    3964:	000001ed 	andeq	r0, r0, sp, ror #3
    3968:	4b2ae106 	blmi	abbd88 <__exidx_end+0xab93d0>
    396c:	44000004 	strmi	r0, [r0], #-4
    3970:	01f50a10 	mvnseq	r0, r0, lsl sl
    3974:	e2060000 	and	r0, r6, #0
    3978:	00044b2a 	andeq	r4, r4, sl, lsr #22
    397c:	0a104800 	beq	415984 <__exidx_end+0x412fcc>
    3980:	00000006 	andeq	r0, r0, r6
    3984:	4b2ae306 	blmi	abc5a4 <__exidx_end+0xab9bec>
    3988:	4c000004 	stcmi	0, cr0, [r0], {4}
    398c:	000c0a10 	andeq	r0, ip, r0, lsl sl
    3990:	e4060000 	str	r0, [r6], #-0
    3994:	00045c2a 	andeq	r5, r4, sl, lsr #24
    3998:	0a105000 	beq	4179a0 <__exidx_end+0x414fe8>
    399c:	000000a1 	andeq	r0, r0, r1, lsr #1
    39a0:	5c2ae506 	cfstr32pl	mvfx14, [sl], #-24	; 0xffffffe8
    39a4:	54000004 	strpl	r0, [r0], #-4
    39a8:	01d10a10 	bicseq	r0, r1, r0, lsl sl
    39ac:	e6060000 	str	r0, [r6], -r0
    39b0:	00045c2a 	andeq	r5, r4, sl, lsr #24
    39b4:	0a105800 	beq	4199bc <__exidx_end+0x417004>
    39b8:	000002f3 	strdeq	r0, [r0], -r3
    39bc:	5c2ae706 	stcpl	7, cr14, [sl], #-24	; 0xffffffe8
    39c0:	5c000004 	stcpl	0, cr0, [r0], {4}
    39c4:	00b00a10 	adcseq	r0, r0, r0, lsl sl
    39c8:	e8060000 	stmda	r6, {}	; <UNPREDICTABLE>
    39cc:	00045c2a 	andeq	r5, r4, sl, lsr #24
    39d0:	00106000 	andseq	r6, r0, r0
    39d4:	0000970c 	andeq	r9, r0, ip, lsl #14
    39d8:	00096900 	andeq	r6, r9, r0, lsl #18
    39dc:	03e50f00 	mvneq	r0, #0, 30
    39e0:	0ffb0000 	svceq	0x00fb0000
    39e4:	008d1000 	addeq	r1, sp, r0
    39e8:	e9060000 	stmdb	r6, {}	; <UNPREDICTABLE>
    39ec:	0007e42a 	andeq	lr, r7, sl, lsr #8
    39f0:	08010200 	stmdaeq	r1, {r9}
    39f4:	00000206 	andeq	r0, r0, r6, lsl #4
    39f8:	0007c714 	andeq	ip, r7, r4, lsl r7
    39fc:	01490300 	mrseq	r0, (UNDEF: 121)
    3a00:	08751503 	ldmdaeq	r5!, {r0, r1, r8, sl, ip}^
    3a04:	bb020000 	bllt	83a0c <__exidx_end+0x81054>
    3a08:	099f0305 	ldmibeq	pc, {r0, r2, r8, r9}	; <UNPREDICTABLE>
    3a0c:	b2160000 	andslt	r0, r6, #0
    3a10:	02000006 	andeq	r0, r0, #6
    3a14:	030e05bb 	movweq	r0, #58811	; 0xe5bb
    3a18:	14000000 	strne	r0, [r0], #-0
    3a1c:	0000048d 	andeq	r0, r0, sp, lsl #9
    3a20:	03015403 	movweq	r5, #5123	; 0x1403
    3a24:	00127f17 	andseq	r7, r2, r7, lsl pc
    3a28:	001a0100 	andseq	r0, sl, r0, lsl #2
    3a2c:	28000000 	stmdacs	r0, {}	; <UNPREDICTABLE>
    3a30:	01000000 	mrseq	r0, (UNDEF: 0)
    3a34:	12ae179c 	adcne	r1, lr, #156, 14	; 0x2700000
    3a38:	21010000 	mrscs	r0, (UNDEF: 1)
    3a3c:	00000000 	andeq	r0, r0, r0
    3a40:	0000002c 	andeq	r0, r0, ip, lsr #32
    3a44:	a3189c01 	tstge	r8, #256	; 0x100
    3a48:	01000011 	tsteq	r0, r1, lsl r0
    3a4c:	000c9c2b 	andeq	r9, ip, fp, lsr #24
    3a50:	00009400 	andeq	r9, r0, r0, lsl #8
    3a54:	189c0100 	ldmne	ip, {r8}
    3a58:	1900000a 	stmdbne	r0, {r1, r3}
    3a5c:	000012a8 	andeq	r1, r0, r8, lsr #5
    3a60:	00902c01 	addseq	r2, r0, r1, lsl #24
    3a64:	064c0000 	strbeq	r0, [ip], -r0
    3a68:	851a0000 	ldrhi	r0, [sl, #-0]
    3a6c:	0e000009 	cdpeq	0, 0, cr0, cr0, cr9, {0}
    3a70:	0800000d 	stmdaeq	r0, {r0, r2, r3}
    3a74:	01000000 	mrseq	r0, (UNDEF: 0)
    3a78:	000a085e 	andeq	r0, sl, lr, asr r8
    3a7c:	09921b00 	ldmibeq	r2, {r8, r9, fp, ip}
    3a80:	00490000 	subeq	r0, r9, r0
    3a84:	00097c1c 	andeq	r7, r9, ip, lsl ip
    3a88:	000d1600 	andeq	r1, sp, r0, lsl #12
    3a8c:	00001a00 	andeq	r1, r0, r0, lsl #20
    3a90:	005f0100 	subseq	r0, pc, r0, lsl #2
    3a94:	00129818 	andseq	r9, r2, r8, lsl r8
    3a98:	30630100 	rsbcc	r0, r3, r0, lsl #2
    3a9c:	5800000d 	stmdapl	r0, {r0, r2, r3}
    3aa0:	01000000 	mrseq	r0, (UNDEF: 0)
    3aa4:	000a4c9c 	muleq	sl, ip, ip
    3aa8:	099f1c00 	ldmibeq	pc, {sl, fp, ip}	; <UNPREDICTABLE>
    3aac:	0d320000 	ldceq	0, cr0, [r2, #-0]
    3ab0:	00020000 	andeq	r0, r2, r0
    3ab4:	65010000 	strvs	r0, [r1, #-0]
    3ab8:	00097c1c 	andeq	r7, r9, ip, lsl ip
    3abc:	000d6a00 	andeq	r6, sp, r0, lsl #20
    3ac0:	00000200 	andeq	r0, r0, r0, lsl #4
    3ac4:	006d0100 	rsbeq	r0, sp, r0, lsl #2
    3ac8:	0003541d 	andeq	r5, r3, sp, lsl r4
    3acc:	06a70200 	strteq	r0, [r7], r0, lsl #4
    3ad0:	00000a58 	andeq	r0, r0, r8, asr sl
    3ad4:	0000ad0e 	andeq	sl, r0, lr, lsl #26
    3ad8:	0e211e00 	cdpeq	14, 2, cr1, cr1, cr0, {0}
    3adc:	17010000 	strne	r0, [r1, -r0]
    3ae0:	00000a6e 	andeq	r0, r0, lr, ror #20
    3ae4:	296a0305 	stmdbcs	sl!, {r0, r2, r8, r9}^
    3ae8:	dd110000 	ldcle	0, cr0, [r1, #-0]
    3aec:	1e000005 	cdpne	0, 0, cr0, cr0, cr5, {0}
    3af0:	00000e54 	andeq	r0, r0, r4, asr lr
    3af4:	0a841901 	beq	fe109f00 <__stack+0xde0d9f00>
    3af8:	03050000 	movweq	r0, #20480	; 0x5000
    3afc:	1fff0368 	svcne	0x00ff0368
    3b00:	0000890e 	andeq	r8, r0, lr, lsl #18
    3b04:	00a20c00 	adceq	r0, r2, r0, lsl #24
    3b08:	0a990000 	beq	fe643b10 <__stack+0xde613b10>
    3b0c:	e50d0000 	str	r0, [sp, #-0]
    3b10:	03000003 	movweq	r0, #3
    3b14:	124c1e00 	subne	r1, ip, #0, 28
    3b18:	18010000 	stmdane	r1, {}	; <UNPREDICTABLE>
    3b1c:	00000aaa 	andeq	r0, r0, sl, lsr #21
    3b20:	036c0305 	cmneq	ip, #335544320	; 0x14000000
    3b24:	890e1fff 	stmdbhi	lr, {r0, r1, r2, r3, r4, r5, r6, r7, r8, r9, sl, fp, ip}
    3b28:	0000000a 	andeq	r0, r0, sl
    3b2c:	00000089 	andeq	r0, r0, r9, lsl #1
    3b30:	0ba70002 	bleq	fe9c3b40 <__stack+0xde993b40>
    3b34:	01040000 	mrseq	r0, (UNDEF: 4)
    3b38:	00000994 	muleq	r0, r4, r9
    3b3c:	00000d88 	andeq	r0, r0, r8, lsl #27
    3b40:	00000de0 	andeq	r0, r0, r0, ror #27
    3b44:	6d632f2e 	stclvs	15, cr2, [r3, #-184]!	; 0xffffff48
    3b48:	2f736973 	svccs	0x00736973
    3b4c:	34364b4d 	ldrtcc	r4, [r6], #-2893	; 0xfffff4b3
    3b50:	2f323146 	svccs	0x00323146
    3b54:	72617473 	rsbvc	r7, r1, #1929379840	; 0x73000000
    3b58:	5f707574 	svcpl	0x00707574
    3b5c:	34364b4d 	ldrtcc	r4, [r6], #-2893	; 0xfffff4b3
    3b60:	2e323146 	rsfcssm	f3, f2, f6
    3b64:	722f0073 	eorvc	r0, pc, #115	; 0x73
    3b68:	6d2f6e75 	stcvs	14, cr6, [pc, #-468]!	; 399c <__exidx_end+0xfe4>
    3b6c:	61696465 	cmnvs	r9, r5, ror #8
    3b70:	7268632f 	rsbvc	r6, r8, #-1140850688	; 0xbc000000
    3b74:	432f7369 			; <UNDEFINED> instruction: 0x432f7369
    3b78:	37343145 	ldrcc	r3, [r4, -r5, asr #2]!
    3b7c:	31314244 	teqcc	r1, r4, asr #4
    3b80:	39443734 	stmdbcc	r4, {r2, r4, r5, r8, r9, sl, ip, sp}^
    3b84:	2f313644 	svccs	0x00313644
    3b88:	72657355 	rsbvc	r7, r5, #1409286145	; 0x54000001
    3b8c:	68632f73 	stmdavs	r3!, {r0, r1, r4, r5, r6, r8, r9, sl, fp, sp}^
    3b90:	2f736972 	svccs	0x00736972
    3b94:	6b726f77 	blvs	1c9f978 <__exidx_end+0x1c9cfc0>
    3b98:	63617073 	cmnvs	r1, #115	; 0x73
    3b9c:	69772f65 	ldmdbvs	r7!, {r0, r2, r5, r6, r8, r9, sl, fp, sp}^
    3ba0:	61626564 	cmnvs	r2, r4, ror #10
    3ba4:	326f646e 	rsbcc	r6, pc, #1845493760	; 0x6e000000
    3ba8:	554e4700 	strbpl	r4, [lr, #-1792]	; 0xfffff900
    3bac:	20534120 	subscs	r4, r3, r0, lsr #2
    3bb0:	35322e32 	ldrcc	r2, [r2, #-3634]!	; 0xfffff1ce
    3bb4:	0100312e 	tsteq	r0, lr, lsr #2
    3bb8:	Address 0x0000000000003bb8 is out of bounds.


Disassembly of section .debug_abbrev:

00000000 <.debug_abbrev>:
   0:	25011101 	strcs	r1, [r1, #-257]	; 0xfffffeff
   4:	030b130e 	movweq	r1, #45838	; 0xb30e
   8:	550e1b0e 	strpl	r1, [lr, #-2830]	; 0xfffff4f2
   c:	10011117 	andne	r1, r1, r7, lsl r1
  10:	02000017 	andeq	r0, r0, #23
  14:	0b0b0024 	bleq	2c00ac <__exidx_end+0x2bd6f4>
  18:	0e030b3e 	vmoveq.16	d3[0], r0
  1c:	16030000 	strne	r0, [r3], -r0
  20:	3a0e0300 	bcc	380c28 <__exidx_end+0x37e270>
  24:	490b3b0b 	stmdbmi	fp, {r0, r1, r3, r8, r9, fp, ip, sp}
  28:	04000013 	streq	r0, [r0], #-19	; 0xffffffed
  2c:	0b0b0024 	bleq	2c00c4 <__exidx_end+0x2bd70c>
  30:	08030b3e 	stmdaeq	r3, {r1, r2, r3, r4, r5, r8, r9, fp}
  34:	35050000 	strcc	r0, [r5, #-0]
  38:	00134900 	andseq	r4, r3, r0, lsl #18
  3c:	00260600 	eoreq	r0, r6, r0, lsl #12
  40:	00001349 	andeq	r1, r0, r9, asr #6
  44:	49010107 	stmdbmi	r1, {r0, r1, r2, r8}
  48:	00130113 	andseq	r0, r3, r3, lsl r1
  4c:	00210800 	eoreq	r0, r1, r0, lsl #16
  50:	0b2f1349 	bleq	bc4d7c <__exidx_end+0xbc23c4>
  54:	13090000 	movwne	r0, #36864	; 0x9000
  58:	3a0b0b01 	bcc	2c2c64 <__exidx_end+0x2c02ac>
  5c:	01053b0b 	tsteq	r5, fp, lsl #22
  60:	0a000013 	beq	b4 <__isr_vector+0xb4>
  64:	0803000d 	stmdaeq	r3, {r0, r2, r3}
  68:	053b0b3a 	ldreq	r0, [fp, #-2874]!	; 0xfffff4c6
  6c:	0b381349 	bleq	e04d98 <__exidx_end+0xe023e0>
  70:	0d0b0000 	stceq	0, cr0, [fp, #-0]
  74:	3a0e0300 	bcc	380c7c <__exidx_end+0x37e2c4>
  78:	49053b0b 	stmdbmi	r5, {r0, r1, r3, r8, r9, fp, ip, sp}
  7c:	000b3813 	andeq	r3, fp, r3, lsl r8
  80:	00160c00 	andseq	r0, r6, r0, lsl #24
  84:	0b3a0e03 	bleq	e83898 <__exidx_end+0xe80ee0>
  88:	1349053b 	movtne	r0, #38203	; 0x953b
  8c:	130d0000 	movwne	r0, #53248	; 0xd000
  90:	3a050b01 	bcc	142c9c <__exidx_end+0x1402e4>
  94:	01053b0b 	tsteq	r5, fp, lsl #22
  98:	0e000013 	mcreq	0, 0, r0, cr0, cr3, {0}
  9c:	0e03000d 	cdpeq	0, 0, cr0, cr3, cr13, {0}
  a0:	053b0b3a 	ldreq	r0, [fp, #-2874]!	; 0xfffff4c6
  a4:	05381349 	ldreq	r1, [r8, #-841]!	; 0xfffffcb7
  a8:	210f0000 	mrscs	r0, CPSR
  ac:	2f134900 	svccs	0x00134900
  b0:	10000005 	andne	r0, r0, r5
  b4:	193f002e 	ldmdbne	pc!, {r1, r2, r3, r5}	; <UNPREDICTABLE>
  b8:	0b3a0e03 	bleq	e838cc <__exidx_end+0xe80f14>
  bc:	19270b3b 	stmdbne	r7!, {r0, r1, r3, r4, r5, r8, r9, fp}
  c0:	06120111 			; <UNDEFINED> instruction: 0x06120111
  c4:	42971840 	addsmi	r1, r7, #64, 16	; 0x400000
  c8:	11000019 	tstne	r0, r9, lsl r0
  cc:	193f012e 	ldmdbne	pc!, {r1, r2, r3, r5, r8}	; <UNPREDICTABLE>
  d0:	0b3a0e03 	bleq	e838e4 <__exidx_end+0xe80f2c>
  d4:	1927053b 	stmdbne	r7!, {r0, r1, r3, r4, r5, r8, sl}
  d8:	06120111 			; <UNDEFINED> instruction: 0x06120111
  dc:	42971840 	addsmi	r1, r7, #64, 16	; 0x400000
  e0:	00130119 	andseq	r0, r3, r9, lsl r1
  e4:	00341200 	eorseq	r1, r4, r0, lsl #4
  e8:	0b3a0e03 	bleq	e838fc <__exidx_end+0xe80f44>
  ec:	1349053b 	movtne	r0, #38203	; 0x953b
  f0:	00001702 	andeq	r1, r0, r2, lsl #14
  f4:	03003413 	movweq	r3, #1043	; 0x413
  f8:	3b0b3a0e 	blcc	2ce938 <__exidx_end+0x2cbf80>
  fc:	3f134905 	svccc	0x00134905
 100:	00193c19 	andseq	r3, r9, r9, lsl ip
 104:	00341400 	eorseq	r1, r4, r0, lsl #8
 108:	0b3a0e03 	bleq	e8391c <__exidx_end+0xe80f64>
 10c:	13490b3b 	movtne	r0, #39739	; 0x9b3b
 110:	1802193f 	stmdane	r2, {r0, r1, r2, r3, r4, r5, r8, fp, ip}
 114:	01000000 	mrseq	r0, (UNDEF: 0)
 118:	0e250111 	mcreq	1, 1, r0, cr5, cr1, {0}
 11c:	0e030b13 	vmoveq.32	d3[0], r0
 120:	17550e1b 	smmlane	r5, fp, lr, r0
 124:	17100111 			; <UNDEFINED> instruction: 0x17100111
 128:	24020000 	strcs	r0, [r2], #-0
 12c:	3e0b0b00 	vmlacc.f64	d0, d11, d0
 130:	000e030b 	andeq	r0, lr, fp, lsl #6
 134:	01130300 	tsteq	r3, r0, lsl #6
 138:	0b0b0e03 	bleq	2c394c <__exidx_end+0x2c0f94>
 13c:	0b3b0b3a 	bleq	ec2e2c <__exidx_end+0xec0474>
 140:	00001301 	andeq	r1, r0, r1, lsl #6
 144:	03000d04 	movweq	r0, #3332	; 0xd04
 148:	3b0b3a08 	blcc	2ce970 <__exidx_end+0x2cbfb8>
 14c:	3813490b 	ldmdacc	r3, {r0, r1, r3, r8, fp, lr}
 150:	0500000b 	streq	r0, [r0, #-11]
 154:	0e03000d 	cdpeq	0, 0, cr0, cr3, cr13, {0}
 158:	0b3b0b3a 	bleq	ec2e48 <__exidx_end+0xec0490>
 15c:	0b381349 	bleq	e04e88 <__exidx_end+0xe024d0>
 160:	01060000 	mrseq	r0, (UNDEF: 6)
 164:	01134901 	tsteq	r3, r1, lsl #18
 168:	07000013 	smladeq	r0, r3, r0, r0
 16c:	13490021 	movtne	r0, #36897	; 0x9021
 170:	00000b2f 	andeq	r0, r0, pc, lsr #22
 174:	3f012e08 	svccc	0x00012e08
 178:	3a0e0319 	bcc	380de4 <__exidx_end+0x37e42c>
 17c:	270b3b0b 	strcs	r3, [fp, -fp, lsl #22]
 180:	11134919 	tstne	r3, r9, lsl r9
 184:	40061201 	andmi	r1, r6, r1, lsl #4
 188:	19429618 	stmdbne	r2, {r3, r4, r9, sl, ip, pc}^
 18c:	00001301 	andeq	r1, r0, r1, lsl #6
 190:	03000509 	movweq	r0, #1289	; 0x509
 194:	3b0b3a0e 	blcc	2ce9d4 <__exidx_end+0x2cc01c>
 198:	0213490b 	andseq	r4, r3, #180224	; 0x2c000
 19c:	0a000017 	beq	200 <Heap_Size+0x100>
 1a0:	08030005 	stmdaeq	r3, {r0, r2}
 1a4:	0b3b0b3a 	bleq	ec2e94 <__exidx_end+0xec04dc>
 1a8:	17021349 	strne	r1, [r2, -r9, asr #6]
 1ac:	050b0000 	streq	r0, [fp, #-0]
 1b0:	3a0e0300 	bcc	380db8 <__exidx_end+0x37e400>
 1b4:	490b3b0b 	stmdbmi	fp, {r0, r1, r3, r8, r9, fp, ip, sp}
 1b8:	00180213 	andseq	r0, r8, r3, lsl r2
 1bc:	00340c00 	eorseq	r0, r4, r0, lsl #24
 1c0:	0b3a0803 	bleq	e821d4 <__exidx_end+0xe7f81c>
 1c4:	13490b3b 	movtne	r0, #39739	; 0x9b3b
 1c8:	00001702 	andeq	r1, r0, r2, lsl #14
 1cc:	0b00240d 	bleq	9208 <__exidx_end+0x6850>
 1d0:	030b3e0b 	movweq	r3, #48651	; 0xbe0b
 1d4:	0e000008 	cdpeq	0, 0, cr0, cr0, cr8, {0}
 1d8:	0b0b000f 	bleq	2c021c <__exidx_end+0x2bd864>
 1dc:	00001349 	andeq	r1, r0, r9, asr #6
 1e0:	4900350f 	stmdbmi	r0, {r0, r1, r2, r3, r8, sl, ip, sp}
 1e4:	10000013 	andne	r0, r0, r3, lsl r0
 1e8:	0e030034 	mcreq	0, 0, r0, cr3, cr4, {1}
 1ec:	0b3b0b3a 	bleq	ec2edc <__exidx_end+0xec0524>
 1f0:	17021349 	strne	r1, [r2, -r9, asr #6]
 1f4:	34110000 	ldrcc	r0, [r1], #-0
 1f8:	3a080300 	bcc	200e00 <__exidx_end+0x1fe448>
 1fc:	490b3b0b 	stmdbmi	fp, {r0, r1, r3, r8, r9, fp, ip, sp}
 200:	000b1c13 	andeq	r1, fp, r3, lsl ip
 204:	012e1200 			; <UNDEFINED> instruction: 0x012e1200
 208:	0e03193f 			; <UNDEFINED> instruction: 0x0e03193f
 20c:	0b3b0b3a 	bleq	ec2efc <__exidx_end+0xec0544>
 210:	13491927 	movtne	r1, #39207	; 0x9927
 214:	06120111 			; <UNDEFINED> instruction: 0x06120111
 218:	42961840 	addsmi	r1, r6, #64, 16	; 0x400000
 21c:	00000019 	andeq	r0, r0, r9, lsl r0
 220:	25011101 	strcs	r1, [r1, #-257]	; 0xfffffeff
 224:	030b130e 	movweq	r1, #45838	; 0xb30e
 228:	550e1b0e 	strpl	r1, [lr, #-2830]	; 0xfffff4f2
 22c:	10011117 	andne	r1, r1, r7, lsl r1
 230:	02000017 	andeq	r0, r0, #23
 234:	0b0b0024 	bleq	2c02cc <__exidx_end+0x2bd914>
 238:	0e030b3e 	vmoveq.16	d3[0], r0
 23c:	16030000 	strne	r0, [r3], -r0
 240:	3a0e0300 	bcc	380e48 <__exidx_end+0x37e490>
 244:	490b3b0b 	stmdbmi	fp, {r0, r1, r3, r8, r9, fp, ip, sp}
 248:	04000013 	streq	r0, [r0], #-19	; 0xffffffed
 24c:	0b0b0024 	bleq	2c02e4 <__exidx_end+0x2bd92c>
 250:	08030b3e 	stmdaeq	r3, {r1, r2, r3, r4, r5, r8, r9, fp}
 254:	04050000 	streq	r0, [r5], #-0
 258:	0b0e0301 	bleq	380e64 <__exidx_end+0x37e4ac>
 25c:	3a13490b 	bcc	4d2690 <__exidx_end+0x4cfcd8>
 260:	010b3b0b 	tsteq	fp, fp, lsl #22
 264:	06000013 			; <UNDEFINED> instruction: 0x06000013
 268:	0e030028 	cdpeq	0, 0, cr0, cr3, cr8, {1}
 26c:	00000d1c 	andeq	r0, r0, ip, lsl sp
 270:	03002807 	movweq	r2, #2055	; 0x807
 274:	000b1c0e 	andeq	r1, fp, lr, lsl #24
 278:	01130800 	tsteq	r3, r0, lsl #16
 27c:	0b3a050b 	bleq	e816b0 <__exidx_end+0xe7ecf8>
 280:	1301053b 	movwne	r0, #5435	; 0x153b
 284:	0d090000 	stceq	0, cr0, [r9, #-0]
 288:	3a0e0300 	bcc	380e90 <__exidx_end+0x37e4d8>
 28c:	49053b0b 	stmdbmi	r5, {r0, r1, r3, r8, r9, fp, ip, sp}
 290:	000b3813 	andeq	r3, fp, r3, lsl r8
 294:	000d0a00 	andeq	r0, sp, r0, lsl #20
 298:	0b3a0e03 	bleq	e83aac <__exidx_end+0xe810f4>
 29c:	1349053b 	movtne	r0, #38203	; 0x953b
 2a0:	00000538 	andeq	r0, r0, r8, lsr r5
 2a4:	03000d0b 	movweq	r0, #3339	; 0xd0b
 2a8:	3b0b3a08 	blcc	2cead0 <__exidx_end+0x2cc118>
 2ac:	38134905 	ldmdacc	r3, {r0, r2, r8, fp, lr}
 2b0:	0c000005 	stceq	0, cr0, [r0], {5}
 2b4:	13490101 	movtne	r0, #37121	; 0x9101
 2b8:	00001301 	andeq	r1, r0, r1, lsl #6
 2bc:	4900210d 	stmdbmi	r0, {r0, r2, r3, r8, sp}
 2c0:	000b2f13 	andeq	r2, fp, r3, lsl pc
 2c4:	00350e00 	eorseq	r0, r5, r0, lsl #28
 2c8:	00001349 	andeq	r1, r0, r9, asr #6
 2cc:	4900210f 	stmdbmi	r0, {r0, r1, r2, r3, r8, sp}
 2d0:	00052f13 	andeq	r2, r5, r3, lsl pc
 2d4:	00161000 	andseq	r1, r6, r0
 2d8:	0b3a0e03 	bleq	e83aec <__exidx_end+0xe81134>
 2dc:	1349053b 	movtne	r0, #38203	; 0x953b
 2e0:	26110000 	ldrcs	r0, [r1], -r0
 2e4:	00134900 	andseq	r4, r3, r0, lsl #18
 2e8:	01131200 	tsteq	r3, r0, lsl #4
 2ec:	0b3a0b0b 	bleq	e82f20 <__exidx_end+0xe80568>
 2f0:	1301053b 	movwne	r0, #5435	; 0x153b
 2f4:	0d130000 	ldceq	0, cr0, [r3, #-0]
 2f8:	3a080300 	bcc	200f00 <__exidx_end+0x1fe548>
 2fc:	49053b0b 	stmdbmi	r5, {r0, r1, r3, r8, r9, fp, ip, sp}
 300:	000b3813 	andeq	r3, fp, r3, lsl r8
 304:	01131400 	tsteq	r3, r0, lsl #8
 308:	0b3a0b0b 	bleq	e82f3c <__exidx_end+0xe80584>
 30c:	13010b3b 	movwne	r0, #6971	; 0x1b3b
 310:	0d150000 	ldceq	0, cr0, [r5, #-0]
 314:	3a0e0300 	bcc	380f1c <__exidx_end+0x37e564>
 318:	490b3b0b 	stmdbmi	fp, {r0, r1, r3, r8, r9, fp, ip, sp}
 31c:	000b3813 	andeq	r3, fp, r3, lsl r8
 320:	00151600 	andseq	r1, r5, r0, lsl #12
 324:	00001927 	andeq	r1, r0, r7, lsr #18
 328:	0b000f17 	bleq	3f8c <__exidx_end+0x15d4>
 32c:	0013490b 	andseq	r4, r3, fp, lsl #18
 330:	002e1800 	eoreq	r1, lr, r0, lsl #16
 334:	0b3a0e03 	bleq	e83b48 <__exidx_end+0xe81190>
 338:	1927053b 	stmdbne	r7!, {r0, r1, r3, r4, r5, r8, sl}
 33c:	00000b20 	andeq	r0, r0, r0, lsr #22
 340:	03012e19 	movweq	r2, #7705	; 0x1e19
 344:	3b0b3a0e 	blcc	2ceb84 <__exidx_end+0x2cc1cc>
 348:	20192705 	andscs	r2, r9, r5, lsl #14
 34c:	0013010b 	andseq	r0, r3, fp, lsl #2
 350:	00051a00 	andeq	r1, r5, r0, lsl #20
 354:	0b3a0e03 	bleq	e83b68 <__exidx_end+0xe811b0>
 358:	1349053b 	movtne	r0, #38203	; 0x953b
 35c:	2e1b0000 	cdpcs	0, 1, cr0, cr11, cr0, {0}
 360:	03193f01 	tsteq	r9, #1, 30
 364:	3b0b3a0e 	blcc	2ceba4 <__exidx_end+0x2cc1ec>
 368:	1119270b 	tstne	r9, fp, lsl #14
 36c:	40061201 	andmi	r1, r6, r1, lsl #4
 370:	19429718 	stmdbne	r2, {r3, r4, r8, r9, sl, ip, pc}^
 374:	00001301 	andeq	r1, r0, r1, lsl #6
 378:	0300051c 	movweq	r0, #1308	; 0x51c
 37c:	3b0b3a0e 	blcc	2cebbc <__exidx_end+0x2cc204>
 380:	0213490b 	andseq	r4, r3, #180224	; 0x2c000
 384:	1d000017 	stcne	0, cr0, [r0, #-92]	; 0xffffffa4
 388:	0e030005 	cdpeq	0, 0, cr0, cr3, cr5, {0}
 38c:	0b3b0b3a 	bleq	ec307c <__exidx_end+0xec06c4>
 390:	18021349 	stmdane	r2, {r0, r3, r6, r8, r9, ip}
 394:	1d1e0000 	ldcne	0, cr0, [lr, #-0]
 398:	11133101 	tstne	r3, r1, lsl #2
 39c:	58061201 	stmdapl	r6, {r0, r9, ip}
 3a0:	010b590b 	tsteq	fp, fp, lsl #18
 3a4:	1f000013 	svcne	0x00000013
 3a8:	13310005 	teqne	r1, #5
 3ac:	00000b1c 	andeq	r0, r0, ip, lsl fp
 3b0:	31001d20 	tstcc	r0, r0, lsr #26
 3b4:	12011113 	andne	r1, r1, #-1073741820	; 0xc0000004
 3b8:	590b5806 	stmdbpl	fp, {r1, r2, fp, ip, lr}
 3bc:	2100000b 	tstcs	r0, fp
 3c0:	193f002e 	ldmdbne	pc!, {r1, r2, r3, r5}	; <UNPREDICTABLE>
 3c4:	0b3a0e03 	bleq	e83bd8 <__exidx_end+0xe81220>
 3c8:	19270b3b 	stmdbne	r7!, {r0, r1, r3, r4, r5, r8, r9, fp}
 3cc:	06120111 			; <UNDEFINED> instruction: 0x06120111
 3d0:	42971840 	addsmi	r1, r7, #64, 16	; 0x400000
 3d4:	22000019 	andcs	r0, r0, #25
 3d8:	193f012e 	ldmdbne	pc!, {r1, r2, r3, r5, r8}	; <UNPREDICTABLE>
 3dc:	0b3a0e03 	bleq	e83bf0 <__exidx_end+0xe81238>
 3e0:	19270b3b 	stmdbne	r7!, {r0, r1, r3, r4, r5, r8, r9, fp}
 3e4:	06120111 			; <UNDEFINED> instruction: 0x06120111
 3e8:	42961840 	addsmi	r1, r6, #64, 16	; 0x400000
 3ec:	00130119 	andseq	r0, r3, r9, lsl r1
 3f0:	00342300 	eorseq	r2, r4, r0, lsl #6
 3f4:	0b3a0e03 	bleq	e83c08 <__exidx_end+0xe81250>
 3f8:	1349053b 	movtne	r0, #38203	; 0x953b
 3fc:	193c193f 	ldmdbne	ip!, {r0, r1, r2, r3, r4, r5, r8, fp, ip}
 400:	34240000 	strtcc	r0, [r4], #-0
 404:	3a0e0300 	bcc	38100c <__exidx_end+0x37e654>
 408:	490b3b0b 	stmdbmi	fp, {r0, r1, r3, r8, r9, fp, ip, sp}
 40c:	02193f13 	andseq	r3, r9, #19, 30	; 0x4c
 410:	00000018 	andeq	r0, r0, r8, lsl r0
 414:	25011101 	strcs	r1, [r1, #-257]	; 0xfffffeff
 418:	030b130e 	movweq	r1, #45838	; 0xb30e
 41c:	550e1b0e 	strpl	r1, [lr, #-2830]	; 0xfffff4f2
 420:	10011117 	andne	r1, r1, r7, lsl r1
 424:	02000017 	andeq	r0, r0, #23
 428:	0b0b0024 	bleq	2c04c0 <__exidx_end+0x2bdb08>
 42c:	0e030b3e 	vmoveq.16	d3[0], r0
 430:	16030000 	strne	r0, [r3], -r0
 434:	3a0e0300 	bcc	38103c <__exidx_end+0x37e684>
 438:	490b3b0b 	stmdbmi	fp, {r0, r1, r3, r8, r9, fp, ip, sp}
 43c:	04000013 	streq	r0, [r0], #-19	; 0xffffffed
 440:	0b0b0024 	bleq	2c04d8 <__exidx_end+0x2bdb20>
 444:	08030b3e 	stmdaeq	r3, {r1, r2, r3, r4, r5, r8, r9, fp}
 448:	35050000 	strcc	r0, [r5, #-0]
 44c:	00134900 	andseq	r4, r3, r0, lsl #18
 450:	00260600 	eoreq	r0, r6, r0, lsl #12
 454:	00001349 	andeq	r1, r0, r9, asr #6
 458:	03003407 	movweq	r3, #1031	; 0x407
 45c:	3b0b3a0e 	blcc	2cec9c <__exidx_end+0x2cc2e4>
 460:	3f134905 	svccc	0x00134905
 464:	00193c19 	andseq	r3, r9, r9, lsl ip
 468:	00340800 	eorseq	r0, r4, r0, lsl #16
 46c:	0b3a0e03 	bleq	e83c80 <__exidx_end+0xe812c8>
 470:	13490b3b 	movtne	r0, #39739	; 0x9b3b
 474:	193c193f 	ldmdbne	ip!, {r0, r1, r2, r3, r4, r5, r8, fp, ip}
 478:	01090000 	mrseq	r0, (UNDEF: 9)
 47c:	01134901 	tsteq	r3, r1, lsl #18
 480:	0a000013 	beq	4d4 <SystemInit+0x4>
 484:	13490021 	movtne	r0, #36897	; 0x9021
 488:	00000b2f 	andeq	r0, r0, pc, lsr #22
 48c:	0b01130b 	bleq	450c0 <__exidx_end+0x42708>
 490:	3b0b3a0b 	blcc	2cecc4 <__exidx_end+0x2cc30c>
 494:	00130105 	andseq	r0, r3, r5, lsl #2
 498:	000d0c00 	andeq	r0, sp, r0, lsl #24
 49c:	0b3a0803 	bleq	e824b0 <__exidx_end+0xe7faf8>
 4a0:	1349053b 	movtne	r0, #38203	; 0x953b
 4a4:	00000b38 	andeq	r0, r0, r8, lsr fp
 4a8:	03000d0d 	movweq	r0, #3341	; 0xd0d
 4ac:	3b0b3a0e 	blcc	2cecec <__exidx_end+0x2cc334>
 4b0:	38134905 	ldmdacc	r3, {r0, r2, r8, fp, lr}
 4b4:	0e00000b 	cdpeq	0, 0, cr0, cr0, cr11, {0}
 4b8:	0e030016 	mcreq	0, 0, r0, cr3, cr6, {0}
 4bc:	053b0b3a 	ldreq	r0, [fp, #-2874]!	; 0xfffff4c6
 4c0:	00001349 	andeq	r1, r0, r9, asr #6
 4c4:	0b01130f 	bleq	45108 <__exidx_end+0x42750>
 4c8:	3b0b3a05 	blcc	2cece4 <__exidx_end+0x2cc32c>
 4cc:	00130105 	andseq	r0, r3, r5, lsl #2
 4d0:	000d1000 	andeq	r1, sp, r0
 4d4:	0b3a0e03 	bleq	e83ce8 <__exidx_end+0xe81330>
 4d8:	1349053b 	movtne	r0, #38203	; 0x953b
 4dc:	00000538 	andeq	r0, r0, r8, lsr r5
 4e0:	49002111 	stmdbmi	r0, {r0, r4, r8, sp}
 4e4:	00052f13 	andeq	r2, r5, r3, lsl pc
 4e8:	01171200 	tsteq	r7, r0, lsl #4
 4ec:	0b3a0b0b 	bleq	e83120 <__exidx_end+0xe80768>
 4f0:	1301053b 	movwne	r0, #5435	; 0x153b
 4f4:	0d130000 	ldceq	0, cr0, [r3, #-0]
 4f8:	3a0e0300 	bcc	381100 <__exidx_end+0x37e748>
 4fc:	49053b0b 	stmdbmi	r5, {r0, r1, r3, r8, r9, fp, ip, sp}
 500:	14000013 	strne	r0, [r0], #-19	; 0xffffffed
 504:	1349000d 	movtne	r0, #36877	; 0x900d
 508:	00000b38 	andeq	r0, r0, r8, lsr fp
 50c:	0b011315 	bleq	45168 <__exidx_end+0x427b0>
 510:	3b0b3a0b 	blcc	2ced44 <__exidx_end+0x2cc38c>
 514:	0013010b 	andseq	r0, r3, fp, lsl #2
 518:	000d1600 	andeq	r1, sp, r0, lsl #12
 51c:	0b3a0e03 	bleq	e83d30 <__exidx_end+0xe81378>
 520:	13490b3b 	movtne	r0, #39739	; 0x9b3b
 524:	00000b38 	andeq	r0, r0, r8, lsr fp
 528:	0b000f17 	bleq	418c <__exidx_end+0x17d4>
 52c:	0013490b 	andseq	r4, r3, fp, lsl #18
 530:	00341800 	eorseq	r1, r4, r0, lsl #16
 534:	0b3a1347 	bleq	e85258 <__exidx_end+0xe828a0>
 538:	18020b3b 	stmdane	r2, {r0, r1, r3, r4, r5, r8, r9, fp}
 53c:	2e190000 	cdpcs	0, 1, cr0, cr9, cr0, {0}
 540:	03193f01 	tsteq	r9, #1, 30
 544:	3b0b3a0e 	blcc	2ced84 <__exidx_end+0x2cc3cc>
 548:	4919270b 	ldmdbmi	r9, {r0, r1, r3, r8, r9, sl, sp}
 54c:	12011113 	andne	r1, r1, #-1073741820	; 0xc0000004
 550:	97184006 	ldrls	r4, [r8, -r6]
 554:	13011942 	movwne	r1, #6466	; 0x1942
 558:	051a0000 	ldreq	r0, [sl, #-0]
 55c:	3a0e0300 	bcc	381164 <__exidx_end+0x37e7ac>
 560:	490b3b0b 	stmdbmi	fp, {r0, r1, r3, r8, r9, fp, ip, sp}
 564:	00170213 	andseq	r0, r7, r3, lsl r2
 568:	00341b00 	eorseq	r1, r4, r0, lsl #22
 56c:	0b3a0803 	bleq	e82580 <__exidx_end+0xe7fbc8>
 570:	13490b3b 	movtne	r0, #39739	; 0x9b3b
 574:	00001802 	andeq	r1, r0, r2, lsl #16
 578:	0300341c 	movweq	r3, #1052	; 0x41c
 57c:	3b0b3a0e 	blcc	2cedbc <__exidx_end+0x2cc404>
 580:	0213490b 	andseq	r4, r3, #180224	; 0x2c000
 584:	1d000017 	stcne	0, cr0, [r0, #-92]	; 0xffffffa4
 588:	193f012e 	ldmdbne	pc!, {r1, r2, r3, r5, r8}	; <UNPREDICTABLE>
 58c:	0b3a0e03 	bleq	e83da0 <__exidx_end+0xe813e8>
 590:	19270b3b 	stmdbne	r7!, {r0, r1, r3, r4, r5, r8, r9, fp}
 594:	06120111 			; <UNDEFINED> instruction: 0x06120111
 598:	42971840 	addsmi	r1, r7, #64, 16	; 0x400000
 59c:	00130119 	andseq	r0, r3, r9, lsl r1
 5a0:	00051e00 	andeq	r1, r5, r0, lsl #28
 5a4:	0b3a0803 	bleq	e825b8 <__exidx_end+0xe7fc00>
 5a8:	13490b3b 	movtne	r0, #39739	; 0x9b3b
 5ac:	00001802 	andeq	r1, r0, r2, lsl #16
 5b0:	0300051f 	movweq	r0, #1311	; 0x51f
 5b4:	3b0b3a08 	blcc	2ceddc <__exidx_end+0x2cc424>
 5b8:	0213490b 	andseq	r4, r3, #180224	; 0x2c000
 5bc:	20000017 	andcs	r0, r0, r7, lsl r0
 5c0:	08030034 	stmdaeq	r3, {r2, r4, r5}
 5c4:	0b3b0b3a 	bleq	ec32b4 <__exidx_end+0xec08fc>
 5c8:	00001349 	andeq	r1, r0, r9, asr #6
 5cc:	03003421 	movweq	r3, #1057	; 0x421
 5d0:	3b0b3a0e 	blcc	2cee10 <__exidx_end+0x2cc458>
 5d4:	0213490b 	andseq	r4, r3, #180224	; 0x2c000
 5d8:	22000018 	andcs	r0, r0, #24
 5dc:	01018289 	smlabbeq	r1, r9, r2, r8
 5e0:	13310111 	teqne	r1, #1073741828	; 0x40000004
 5e4:	8a230000 	bhi	8c05ec <__exidx_end+0x8bdc34>
 5e8:	02000182 	andeq	r0, r0, #-2147483616	; 0x80000020
 5ec:	18429118 	stmdane	r2, {r3, r4, r8, ip, pc}^
 5f0:	05240000 	streq	r0, [r4, #-0]!
 5f4:	3a0e0300 	bcc	3811fc <__exidx_end+0x37e844>
 5f8:	490b3b0b 	stmdbmi	fp, {r0, r1, r3, r8, r9, fp, ip, sp}
 5fc:	00180213 	andseq	r0, r8, r3, lsl r2
 600:	00342500 	eorseq	r2, r4, r0, lsl #10
 604:	0b3a0803 	bleq	e82618 <__exidx_end+0xe7fc60>
 608:	13490b3b 	movtne	r0, #39739	; 0x9b3b
 60c:	00001702 	andeq	r1, r0, r2, lsl #14
 610:	01110100 	tsteq	r1, r0, lsl #2
 614:	0b130e25 	bleq	4c3eb0 <__exidx_end+0x4c14f8>
 618:	0e1b0e03 	cdpeq	14, 1, cr0, cr11, cr3, {0}
 61c:	01111755 	tsteq	r1, r5, asr r7
 620:	00001710 	andeq	r1, r0, r0, lsl r7
 624:	0b002402 	bleq	9634 <__exidx_end+0x6c7c>
 628:	030b3e0b 	movweq	r3, #48651	; 0xbe0b
 62c:	0300000e 	movweq	r0, #14
 630:	0e030016 	mcreq	0, 0, r0, cr3, cr6, {0}
 634:	0b3b0b3a 	bleq	ec3324 <__exidx_end+0xec096c>
 638:	00001349 	andeq	r1, r0, r9, asr #6
 63c:	0b002404 	bleq	9654 <__exidx_end+0x6c9c>
 640:	030b3e0b 	movweq	r3, #48651	; 0xbe0b
 644:	05000008 	streq	r0, [r0, #-8]
 648:	13490035 	movtne	r0, #36917	; 0x9035
 64c:	26060000 	strcs	r0, [r6], -r0
 650:	00134900 	andseq	r4, r3, r0, lsl #18
 654:	00340700 	eorseq	r0, r4, r0, lsl #14
 658:	0b3a0e03 	bleq	e83e6c <__exidx_end+0xe814b4>
 65c:	1349053b 	movtne	r0, #38203	; 0x953b
 660:	193c193f 	ldmdbne	ip!, {r0, r1, r2, r3, r4, r5, r8, fp, ip}
 664:	34080000 	strcc	r0, [r8], #-0
 668:	3a0e0300 	bcc	381270 <__exidx_end+0x37e8b8>
 66c:	490b3b0b 	stmdbmi	fp, {r0, r1, r3, r8, r9, fp, ip, sp}
 670:	3c193f13 	ldccc	15, cr3, [r9], {19}
 674:	09000019 	stmdbeq	r0, {r0, r3, r4}
 678:	13490101 	movtne	r0, #37121	; 0x9101
 67c:	00001301 	andeq	r1, r0, r1, lsl #6
 680:	4900210a 	stmdbmi	r0, {r1, r3, r8, sp}
 684:	000b2f13 	andeq	r2, fp, r3, lsl pc
 688:	01130b00 	tsteq	r3, r0, lsl #22
 68c:	0b3a0b0b 	bleq	e832c0 <__exidx_end+0xe80908>
 690:	1301053b 	movwne	r0, #5435	; 0x153b
 694:	0d0c0000 	stceq	0, cr0, [ip, #-0]
 698:	3a0e0300 	bcc	3812a0 <__exidx_end+0x37e8e8>
 69c:	49053b0b 	stmdbmi	r5, {r0, r1, r3, r8, r9, fp, ip, sp}
 6a0:	000b3813 	andeq	r3, fp, r3, lsl r8
 6a4:	000d0d00 	andeq	r0, sp, r0, lsl #26
 6a8:	0b3a0803 	bleq	e826bc <__exidx_end+0xe7fd04>
 6ac:	1349053b 	movtne	r0, #38203	; 0x953b
 6b0:	00000b38 	andeq	r0, r0, r8, lsr fp
 6b4:	0300160e 	movweq	r1, #1550	; 0x60e
 6b8:	3b0b3a0e 	blcc	2ceef8 <__exidx_end+0x2cc540>
 6bc:	00134905 	andseq	r4, r3, r5, lsl #18
 6c0:	01130f00 	tsteq	r3, r0, lsl #30
 6c4:	0b3a050b 	bleq	e81af8 <__exidx_end+0xe7f140>
 6c8:	1301053b 	movwne	r0, #5435	; 0x153b
 6cc:	0d100000 	ldceq	0, cr0, [r0, #-0]
 6d0:	3a0e0300 	bcc	3812d8 <__exidx_end+0x37e920>
 6d4:	49053b0b 	stmdbmi	r5, {r0, r1, r3, r8, r9, fp, ip, sp}
 6d8:	00053813 	andeq	r3, r5, r3, lsl r8
 6dc:	00211100 	eoreq	r1, r1, r0, lsl #2
 6e0:	052f1349 	streq	r1, [pc, #-841]!	; 39f <Heap_Size+0x29f>
 6e4:	34120000 	ldrcc	r0, [r2], #-0
 6e8:	3a0e0300 	bcc	3812f0 <__exidx_end+0x37e938>
 6ec:	490b3b0b 	stmdbmi	fp, {r0, r1, r3, r8, r9, fp, ip, sp}
 6f0:	00180213 	andseq	r0, r8, r3, lsl r2
 6f4:	002e1300 	eoreq	r1, lr, r0, lsl #6
 6f8:	0e03193f 			; <UNDEFINED> instruction: 0x0e03193f
 6fc:	0b3b0b3a 	bleq	ec33ec <__exidx_end+0xec0a34>
 700:	01111927 	tsteq	r1, r7, lsr #18
 704:	18400612 	stmdane	r0, {r1, r4, r9, sl}^
 708:	00194297 	mulseq	r9, r7, r2
 70c:	012e1400 			; <UNDEFINED> instruction: 0x012e1400
 710:	0e03193f 			; <UNDEFINED> instruction: 0x0e03193f
 714:	0b3b0b3a 	bleq	ec3404 <__exidx_end+0xec0a4c>
 718:	13491927 	movtne	r1, #39207	; 0x9927
 71c:	06120111 			; <UNDEFINED> instruction: 0x06120111
 720:	42971840 	addsmi	r1, r7, #64, 16	; 0x400000
 724:	00130119 	andseq	r0, r3, r9, lsl r1
 728:	00051500 	andeq	r1, r5, r0, lsl #10
 72c:	0b3a0e03 	bleq	e83f40 <__exidx_end+0xe81588>
 730:	13490b3b 	movtne	r0, #39739	; 0x9b3b
 734:	00001702 	andeq	r1, r0, r2, lsl #14
 738:	03003416 	movweq	r3, #1046	; 0x416
 73c:	3b0b3a08 	blcc	2cef64 <__exidx_end+0x2cc5ac>
 740:	0213490b 	andseq	r4, r3, #180224	; 0x2c000
 744:	17000017 	smladne	r0, r7, r0, r0
 748:	0e030034 	mcreq	0, 0, r0, cr3, cr4, {1}
 74c:	0b3b0b3a 	bleq	ec343c <__exidx_end+0xec0a84>
 750:	17021349 	strne	r1, [r2, -r9, asr #6]
 754:	2e180000 	cdpcs	0, 1, cr0, cr8, cr0, {0}
 758:	03193f01 	tsteq	r9, #1, 30
 75c:	3b0b3a0e 	blcc	2cef9c <__exidx_end+0x2cc5e4>
 760:	1119270b 	tstne	r9, fp, lsl #14
 764:	40061201 	andmi	r1, r6, r1, lsl #4
 768:	19429718 	stmdbne	r2, {r3, r4, r8, r9, sl, ip, pc}^
 76c:	01000000 	mrseq	r0, (UNDEF: 0)
 770:	0e250111 	mcreq	1, 1, r0, cr5, cr1, {0}
 774:	0e030b13 	vmoveq.32	d3[0], r0
 778:	17550e1b 	smmlane	r5, fp, lr, r0
 77c:	17100111 			; <UNDEFINED> instruction: 0x17100111
 780:	24020000 	strcs	r0, [r2], #-0
 784:	3e0b0b00 	vmlacc.f64	d0, d11, d0
 788:	000e030b 	andeq	r0, lr, fp, lsl #6
 78c:	00160300 	andseq	r0, r6, r0, lsl #6
 790:	0b3a0e03 	bleq	e83fa4 <__exidx_end+0xe815ec>
 794:	13490b3b 	movtne	r0, #39739	; 0x9b3b
 798:	24040000 	strcs	r0, [r4], #-0
 79c:	3e0b0b00 	vmlacc.f64	d0, d11, d0
 7a0:	0008030b 	andeq	r0, r8, fp, lsl #6
 7a4:	00350500 	eorseq	r0, r5, r0, lsl #10
 7a8:	00001349 	andeq	r1, r0, r9, asr #6
 7ac:	49002606 	stmdbmi	r0, {r1, r2, r9, sl, sp}
 7b0:	07000013 	smladeq	r0, r3, r0, r0
 7b4:	13490101 	movtne	r0, #37121	; 0x9101
 7b8:	00001301 	andeq	r1, r0, r1, lsl #6
 7bc:	49002108 	stmdbmi	r0, {r3, r8, sp}
 7c0:	000b2f13 	andeq	r2, fp, r3, lsl pc
 7c4:	00340900 	eorseq	r0, r4, r0, lsl #18
 7c8:	0b3a0e03 	bleq	e83fdc <__exidx_end+0xe81624>
 7cc:	1349053b 	movtne	r0, #38203	; 0x953b
 7d0:	193c193f 	ldmdbne	ip!, {r0, r1, r2, r3, r4, r5, r8, fp, ip}
 7d4:	340a0000 	strcc	r0, [sl], #-0
 7d8:	3a0e0300 	bcc	3813e0 <__exidx_end+0x37ea28>
 7dc:	490b3b0b 	stmdbmi	fp, {r0, r1, r3, r8, r9, fp, ip, sp}
 7e0:	3c193f13 	ldccc	15, cr3, [r9], {19}
 7e4:	0b000019 	bleq	850 <SetDutyCycle2+0x20>
 7e8:	0b0b0113 	bleq	2c0c3c <__exidx_end+0x2be284>
 7ec:	053b0b3a 	ldreq	r0, [fp, #-2874]!	; 0xfffff4c6
 7f0:	00001301 	andeq	r1, r0, r1, lsl #6
 7f4:	03000d0c 	movweq	r0, #3340	; 0xd0c
 7f8:	3b0b3a08 	blcc	2cf020 <__exidx_end+0x2cc668>
 7fc:	38134905 	ldmdacc	r3, {r0, r2, r8, fp, lr}
 800:	0d00000b 	stceq	0, cr0, [r0, #-44]	; 0xffffffd4
 804:	0e03000d 	cdpeq	0, 0, cr0, cr3, cr13, {0}
 808:	053b0b3a 	ldreq	r0, [fp, #-2874]!	; 0xfffff4c6
 80c:	0b381349 	bleq	e05538 <__exidx_end+0xe02b80>
 810:	160e0000 	strne	r0, [lr], -r0
 814:	3a0e0300 	bcc	38141c <__exidx_end+0x37ea64>
 818:	49053b0b 	stmdbmi	r5, {r0, r1, r3, r8, r9, fp, ip, sp}
 81c:	0f000013 	svceq	0x00000013
 820:	050b0113 	streq	r0, [fp, #-275]	; 0xfffffeed
 824:	053b0b3a 	ldreq	r0, [fp, #-2874]!	; 0xfffff4c6
 828:	00001301 	andeq	r1, r0, r1, lsl #6
 82c:	03000d10 	movweq	r0, #3344	; 0xd10
 830:	3b0b3a0e 	blcc	2cf070 <__exidx_end+0x2cc6b8>
 834:	38134905 	ldmdacc	r3, {r0, r2, r8, fp, lr}
 838:	11000005 	tstne	r0, r5
 83c:	13490021 	movtne	r0, #36897	; 0x9021
 840:	0000052f 	andeq	r0, r0, pc, lsr #10
 844:	0b011712 	bleq	46494 <__exidx_end+0x43adc>
 848:	3b0b3a0b 	blcc	2cf07c <__exidx_end+0x2cc6c4>
 84c:	00130105 	andseq	r0, r3, r5, lsl #2
 850:	000d1300 	andeq	r1, sp, r0, lsl #6
 854:	0b3a0e03 	bleq	e84068 <__exidx_end+0xe816b0>
 858:	1349053b 	movtne	r0, #38203	; 0x953b
 85c:	0d140000 	ldceq	0, cr0, [r4, #-0]
 860:	38134900 	ldmdacc	r3, {r8, fp, lr}
 864:	1500000b 	strne	r0, [r0, #-11]
 868:	0b0b0113 	bleq	2c0cbc <__exidx_end+0x2be304>
 86c:	0b3b0b3a 	bleq	ec355c <__exidx_end+0xec0ba4>
 870:	00001301 	andeq	r1, r0, r1, lsl #6
 874:	03000d16 	movweq	r0, #3350	; 0xd16
 878:	3b0b3a0e 	blcc	2cf0b8 <__exidx_end+0x2cc700>
 87c:	3813490b 	ldmdacc	r3, {r0, r1, r3, r8, fp, lr}
 880:	1700000b 	strne	r0, [r0, -fp]
 884:	0b0b000f 	bleq	2c08c8 <__exidx_end+0x2bdf10>
 888:	00001349 	andeq	r1, r0, r9, asr #6
 88c:	03011318 	movweq	r1, #4888	; 0x1318
 890:	3a0b0b0e 	bcc	2c34d0 <__exidx_end+0x2c0b18>
 894:	010b3b0b 	tsteq	fp, fp, lsl #22
 898:	19000013 	stmdbne	r0, {r0, r1, r4}
 89c:	0803000d 	stmdaeq	r3, {r0, r2, r3}
 8a0:	0b3b0b3a 	bleq	ec3590 <__exidx_end+0xec0bd8>
 8a4:	0b381349 	bleq	e055d0 <__exidx_end+0xe02c18>
 8a8:	0f1a0000 	svceq	0x001a0000
 8ac:	000b0b00 	andeq	r0, fp, r0, lsl #22
 8b0:	01171b00 	tsteq	r7, r0, lsl #22
 8b4:	0b3a0b0b 	bleq	e834e8 <__exidx_end+0xe80b30>
 8b8:	13010b3b 	movwne	r0, #6971	; 0x1b3b
 8bc:	0d1c0000 	ldceq	0, cr0, [ip, #-0]
 8c0:	3a0e0300 	bcc	3814c8 <__exidx_end+0x37eb10>
 8c4:	490b3b0b 	stmdbmi	fp, {r0, r1, r3, r8, r9, fp, ip, sp}
 8c8:	1d000013 	stcne	0, cr0, [r0, #-76]	; 0xffffffb4
 8cc:	0e030113 	mcreq	1, 0, r0, cr3, cr3, {0}
 8d0:	0b3a050b 	bleq	e81d04 <__exidx_end+0xe7f34c>
 8d4:	13010b3b 	movwne	r0, #6971	; 0x1b3b
 8d8:	0d1e0000 	ldceq	0, cr0, [lr, #-0]
 8dc:	3a0e0300 	bcc	3814e4 <__exidx_end+0x37eb2c>
 8e0:	490b3b0b 	stmdbmi	fp, {r0, r1, r3, r8, r9, fp, ip, sp}
 8e4:	00053813 	andeq	r3, r5, r3, lsl r8
 8e8:	00151f00 	andseq	r1, r5, r0, lsl #30
 8ec:	00001927 	andeq	r1, r0, r7, lsr #18
 8f0:	27011520 	strcs	r1, [r1, -r0, lsr #10]
 8f4:	01134919 	tsteq	r3, r9, lsl r9
 8f8:	21000013 	tstcs	r0, r3, lsl r0
 8fc:	13490005 	movtne	r0, #36869	; 0x9005
 900:	13220000 			; <UNDEFINED> instruction: 0x13220000
 904:	0b0e0301 	bleq	381510 <__exidx_end+0x37eb58>
 908:	3b0b3a05 	blcc	2cf124 <__exidx_end+0x2cc76c>
 90c:	00130105 	andseq	r0, r3, r5, lsl #2
 910:	01132300 	tsteq	r3, r0, lsl #6
 914:	0b0b0e03 	bleq	2c4128 <__exidx_end+0x2c1770>
 918:	053b0b3a 	ldreq	r0, [fp, #-2874]!	; 0xfffff4c6
 91c:	00001301 	andeq	r1, r0, r1, lsl #6
 920:	27011524 	strcs	r1, [r1, -r4, lsr #10]
 924:	00130119 	andseq	r0, r3, r9, lsl r1
 928:	00342500 	eorseq	r2, r4, r0, lsl #10
 92c:	0b3a0e03 	bleq	e84140 <__exidx_end+0xe81788>
 930:	13490b3b 	movtne	r0, #39739	; 0x9b3b
 934:	1802193f 	stmdane	r2, {r0, r1, r2, r3, r4, r5, r8, fp, ip}
 938:	2e260000 	cdpcs	0, 2, cr0, cr6, cr0, {0}
 93c:	03193f00 	tsteq	r9, #0, 30
 940:	3b0b3a0e 	blcc	2cf180 <__exidx_end+0x2cc7c8>
 944:	1201110b 	andne	r1, r1, #-1073741822	; 0xc0000002
 948:	97184006 	ldrls	r4, [r8, -r6]
 94c:	00001942 	andeq	r1, r0, r2, asr #18
 950:	3f012e27 	svccc	0x00012e27
 954:	3a0e0319 	bcc	3815c0 <__exidx_end+0x37ec08>
 958:	110b3b0b 	tstne	fp, fp, lsl #22
 95c:	40061201 	andmi	r1, r6, r1, lsl #4
 960:	19429618 	stmdbne	r2, {r3, r4, r9, sl, ip, pc}^
 964:	00001301 	andeq	r1, r0, r1, lsl #6
 968:	03003428 	movweq	r3, #1064	; 0x428
 96c:	3b0b3a0e 	blcc	2cf1ac <__exidx_end+0x2cc7f4>
 970:	0213490b 	andseq	r4, r3, #180224	; 0x2c000
 974:	29000017 	stmdbcs	r0, {r0, r1, r2, r4}
 978:	0e030034 	mcreq	0, 0, r0, cr3, cr4, {1}
 97c:	0b3b0b3a 	bleq	ec366c <__exidx_end+0xec0cb4>
 980:	00001349 	andeq	r1, r0, r9, asr #6
 984:	3f012e2a 	svccc	0x00012e2a
 988:	3a0e0319 	bcc	3815f4 <__exidx_end+0x37ec3c>
 98c:	490b3b0b 	stmdbmi	fp, {r0, r1, r3, r8, r9, fp, ip, sp}
 990:	01193c13 	tsteq	r9, r3, lsl ip
 994:	2b000013 	blcs	9e8 <updatePIDs+0xc0>
 998:	00000018 	andeq	r0, r0, r8, lsl r0
 99c:	0182892c 	orreq	r8, r2, ip, lsr #18
 9a0:	31011101 	tstcc	r1, r1, lsl #2
 9a4:	00130113 	andseq	r0, r3, r3, lsl r1
 9a8:	828a2d00 	addhi	r2, sl, #0, 26
 9ac:	18020001 	stmdane	r2, {r0}
 9b0:	00184291 	mulseq	r8, r1, r2
 9b4:	82892e00 	addhi	r2, r9, #0, 28
 9b8:	01110001 	tsteq	r1, r1
 9bc:	00001331 	andeq	r1, r0, r1, lsr r3
 9c0:	3f012e2f 	svccc	0x00012e2f
 9c4:	3a0e0319 	bcc	381630 <__exidx_end+0x37ec78>
 9c8:	270b3b0b 	strcs	r3, [fp, -fp, lsl #22]
 9cc:	11134919 	tstne	r3, r9, lsl r9
 9d0:	40061201 	andmi	r1, r6, r1, lsl #4
 9d4:	19429618 	stmdbne	r2, {r3, r4, r9, sl, ip, pc}^
 9d8:	00001301 	andeq	r1, r0, r1, lsl #6
 9dc:	03003430 	movweq	r3, #1072	; 0x430
 9e0:	3b0b3a08 	blcc	2cf208 <__exidx_end+0x2cc850>
 9e4:	0213490b 	andseq	r4, r3, #180224	; 0x2c000
 9e8:	31000018 	tstcc	r0, r8, lsl r0
 9ec:	01018289 	smlabbeq	r1, r9, r2, r8
 9f0:	13310111 	teqne	r1, #1073741828	; 0x40000004
 9f4:	2e320000 	cdpcs	0, 3, cr0, cr2, cr0, {0}
 9f8:	3c193f00 	ldccc	15, cr3, [r9], {-0}
 9fc:	030e6e19 	movweq	r6, #60953	; 0xee19
 a00:	3b0b3a0e 	blcc	2cf240 <__exidx_end+0x2cc888>
 a04:	0000000b 	andeq	r0, r0, fp
 a08:	25011101 	strcs	r1, [r1, #-257]	; 0xfffffeff
 a0c:	030b130e 	movweq	r1, #45838	; 0xb30e
 a10:	550e1b0e 	strpl	r1, [lr, #-2830]	; 0xfffff4f2
 a14:	10011117 	andne	r1, r1, r7, lsl r1
 a18:	02000017 	andeq	r0, r0, #23
 a1c:	0b0b0024 	bleq	2c0ab4 <__exidx_end+0x2be0fc>
 a20:	0e030b3e 	vmoveq.16	d3[0], r0
 a24:	16030000 	strne	r0, [r3], -r0
 a28:	3a0e0300 	bcc	381630 <__exidx_end+0x37ec78>
 a2c:	490b3b0b 	stmdbmi	fp, {r0, r1, r3, r8, r9, fp, ip, sp}
 a30:	04000013 	streq	r0, [r0], #-19	; 0xffffffed
 a34:	0b0b0024 	bleq	2c0acc <__exidx_end+0x2be114>
 a38:	08030b3e 	stmdaeq	r3, {r1, r2, r3, r4, r5, r8, r9, fp}
 a3c:	04050000 	streq	r0, [r5], #-0
 a40:	0b0e0301 	bleq	38164c <__exidx_end+0x37ec94>
 a44:	3a13490b 	bcc	4d2e78 <__exidx_end+0x4d04c0>
 a48:	010b3b0b 	tsteq	fp, fp, lsl #22
 a4c:	06000013 			; <UNDEFINED> instruction: 0x06000013
 a50:	0e030028 	cdpeq	0, 0, cr0, cr3, cr8, {1}
 a54:	00000d1c 	andeq	r0, r0, ip, lsl sp
 a58:	03002807 	movweq	r2, #2055	; 0x807
 a5c:	000b1c0e 	andeq	r1, fp, lr, lsl #24
 a60:	01130800 	tsteq	r3, r0, lsl #16
 a64:	0b3a050b 	bleq	e81e98 <__exidx_end+0xe7f4e0>
 a68:	1301053b 	movwne	r0, #5435	; 0x153b
 a6c:	0d090000 	stceq	0, cr0, [r9, #-0]
 a70:	3a0e0300 	bcc	381678 <__exidx_end+0x37ecc0>
 a74:	49053b0b 	stmdbmi	r5, {r0, r1, r3, r8, r9, fp, ip, sp}
 a78:	000b3813 	andeq	r3, fp, r3, lsl r8
 a7c:	000d0a00 	andeq	r0, sp, r0, lsl #20
 a80:	0b3a0e03 	bleq	e84294 <__exidx_end+0xe818dc>
 a84:	1349053b 	movtne	r0, #38203	; 0x953b
 a88:	00000538 	andeq	r0, r0, r8, lsr r5
 a8c:	03000d0b 	movweq	r0, #3339	; 0xd0b
 a90:	3b0b3a08 	blcc	2cf2b8 <__exidx_end+0x2cc900>
 a94:	38134905 	ldmdacc	r3, {r0, r2, r8, fp, lr}
 a98:	0c000005 	stceq	0, cr0, [r0], {5}
 a9c:	13490101 	movtne	r0, #37121	; 0x9101
 aa0:	00001301 	andeq	r1, r0, r1, lsl #6
 aa4:	4900210d 	stmdbmi	r0, {r0, r2, r3, r8, sp}
 aa8:	000b2f13 	andeq	r2, fp, r3, lsl pc
 aac:	00350e00 	eorseq	r0, r5, r0, lsl #28
 ab0:	00001349 	andeq	r1, r0, r9, asr #6
 ab4:	4900210f 	stmdbmi	r0, {r0, r1, r2, r3, r8, sp}
 ab8:	00052f13 	andeq	r2, r5, r3, lsl pc
 abc:	00161000 	andseq	r1, r6, r0
 ac0:	0b3a0e03 	bleq	e842d4 <__exidx_end+0xe8191c>
 ac4:	1349053b 	movtne	r0, #38203	; 0x953b
 ac8:	26110000 	ldrcs	r0, [r1], -r0
 acc:	00134900 	andseq	r4, r3, r0, lsl #18
 ad0:	01131200 	tsteq	r3, r0, lsl #4
 ad4:	0b3a0b0b 	bleq	e83708 <__exidx_end+0xe80d50>
 ad8:	1301053b 	movwne	r0, #5435	; 0x153b
 adc:	0d130000 	ldceq	0, cr0, [r3, #-0]
 ae0:	3a080300 	bcc	2016e8 <__exidx_end+0x1fed30>
 ae4:	49053b0b 	stmdbmi	r5, {r0, r1, r3, r8, r9, fp, ip, sp}
 ae8:	000b3813 	andeq	r3, fp, r3, lsl r8
 aec:	002e1400 	eoreq	r1, lr, r0, lsl #8
 af0:	0b3a0e03 	bleq	e84304 <__exidx_end+0xe8194c>
 af4:	1927053b 	stmdbne	r7!, {r0, r1, r3, r4, r5, r8, sl}
 af8:	00000b20 	andeq	r0, r0, r0, lsr #22
 afc:	03012e15 	movweq	r2, #7701	; 0x1e15
 b00:	3b0b3a0e 	blcc	2cf340 <__exidx_end+0x2cc988>
 b04:	20192705 	andscs	r2, r9, r5, lsl #14
 b08:	0013010b 	andseq	r0, r3, fp, lsl #2
 b0c:	00051600 	andeq	r1, r5, r0, lsl #12
 b10:	0b3a0e03 	bleq	e84324 <__exidx_end+0xe8196c>
 b14:	1349053b 	movtne	r0, #38203	; 0x953b
 b18:	2e170000 	cdpcs	0, 1, cr0, cr7, cr0, {0}
 b1c:	03193f00 	tsteq	r9, #0, 30
 b20:	3b0b3a0e 	blcc	2cf360 <__exidx_end+0x2cc9a8>
 b24:	1119270b 	tstne	r9, fp, lsl #14
 b28:	40061201 	andmi	r1, r6, r1, lsl #4
 b2c:	19429718 	stmdbne	r2, {r3, r4, r8, r9, sl, ip, pc}^
 b30:	2e180000 	cdpcs	0, 1, cr0, cr8, cr0, {0}
 b34:	03193f01 	tsteq	r9, #1, 30
 b38:	3b0b3a0e 	blcc	2cf378 <__exidx_end+0x2cc9c0>
 b3c:	1119270b 	tstne	r9, fp, lsl #14
 b40:	40061201 	andmi	r1, r6, r1, lsl #4
 b44:	19429718 	stmdbne	r2, {r3, r4, r8, r9, sl, ip, pc}^
 b48:	00001301 	andeq	r1, r0, r1, lsl #6
 b4c:	03003419 	movweq	r3, #1049	; 0x419
 b50:	3b0b3a0e 	blcc	2cf390 <__exidx_end+0x2cc9d8>
 b54:	0213490b 	andseq	r4, r3, #180224	; 0x2c000
 b58:	1a000017 	bne	bbc <main+0x150>
 b5c:	1331011d 	teqne	r1, #1073741831	; 0x40000007
 b60:	06120111 			; <UNDEFINED> instruction: 0x06120111
 b64:	0b590b58 	bleq	16438cc <__exidx_end+0x1640f14>
 b68:	00001301 	andeq	r1, r0, r1, lsl #6
 b6c:	3100051b 	tstcc	r0, fp, lsl r5
 b70:	000b1c13 	andeq	r1, fp, r3, lsl ip
 b74:	001d1c00 	andseq	r1, sp, r0, lsl #24
 b78:	01111331 	tsteq	r1, r1, lsr r3
 b7c:	0b580612 	bleq	16023cc <__exidx_end+0x15ffa14>
 b80:	00000b59 	andeq	r0, r0, r9, asr fp
 b84:	0300341d 	movweq	r3, #1053	; 0x41d
 b88:	3b0b3a0e 	blcc	2cf3c8 <__exidx_end+0x2cca10>
 b8c:	3f134905 	svccc	0x00134905
 b90:	00193c19 	andseq	r3, r9, r9, lsl ip
 b94:	00341e00 	eorseq	r1, r4, r0, lsl #28
 b98:	0b3a0e03 	bleq	e843ac <__exidx_end+0xe819f4>
 b9c:	13490b3b 	movtne	r0, #39739	; 0x9b3b
 ba0:	1802193f 	stmdane	r2, {r0, r1, r2, r3, r4, r5, r8, fp, ip}
 ba4:	01000000 	mrseq	r0, (UNDEF: 0)
 ba8:	06100011 			; <UNDEFINED> instruction: 0x06100011
 bac:	01120111 	tsteq	r2, r1, lsl r1
 bb0:	081b0803 	ldmdaeq	fp, {r0, r1, fp}
 bb4:	05130825 	ldreq	r0, [r3, #-2085]	; 0xfffff7db
 bb8:	Address 0x0000000000000bb8 is out of bounds.


Disassembly of section .debug_loc:

00000000 <.debug_loc>:
	...
   8:	00510001 	subseq	r0, r1, r1
   c:	00000000 	andeq	r0, r0, r0
  10:	01000000 	mrseq	r0, (UNDEF: 0)
  14:	00005300 	andeq	r5, r0, r0, lsl #6
  18:	00000000 	andeq	r0, r0, r0
  1c:	00010000 	andeq	r0, r1, r0
  20:	00000053 	andeq	r0, r0, r3, asr r0
  24:	00000000 	andeq	r0, r0, r0
  28:	52000100 	andpl	r0, r0, #0, 2
	...
  34:	00530001 	subseq	r0, r3, r1
  38:	00000000 	andeq	r0, r0, r0
  3c:	01000000 	mrseq	r0, (UNDEF: 0)
  40:	00005300 	andeq	r5, r0, r0, lsl #6
  44:	00000000 	andeq	r0, r0, r0
  48:	00010000 	andeq	r0, r1, r0
  4c:	00000053 	andeq	r0, r0, r3, asr r0
	...
  5c:	73000700 	movwvc	r0, #1792	; 0x700
  60:	231a4f00 	tstcs	sl, #0, 30
  64:	00009f01 	andeq	r9, r0, r1, lsl #30
  68:	00000000 	andeq	r0, r0, r0
  6c:	00070000 	andeq	r0, r7, r0
  70:	1a4f0073 	bne	13c0244 <__exidx_end+0x13bd88c>
  74:	009f1823 	addseq	r1, pc, r3, lsr #16
  78:	00000000 	andeq	r0, r0, r0
  7c:	b8000000 	stmdalt	r0, {}	; <UNPREDICTABLE>
  80:	ca000005 	bgt	9c <__isr_vector+0x9c>
  84:	01000005 	tsteq	r0, r5
  88:	05ca5000 	strbeq	r5, [sl]
  8c:	062c0000 	strteq	r0, [ip], -r0
  90:	00010000 	andeq	r0, r1, r0
  94:	00000054 	andeq	r0, r0, r4, asr r0
  98:	00000000 	andeq	r0, r0, r0
  9c:	0005b800 	andeq	fp, r5, r0, lsl #16
  a0:	0005c600 	andeq	ip, r5, r0, lsl #12
  a4:	51000100 	mrspl	r0, (UNDEF: 16)
  a8:	000005c6 	andeq	r0, r0, r6, asr #11
  ac:	0000062c 	andeq	r0, r0, ip, lsr #12
  b0:	03f30006 	mvnseq	r0, #6
  b4:	9f2501f5 	svcls	0x002501f5
	...
  c0:	000005b8 			; <UNDEFINED> instruction: 0x000005b8
  c4:	000005cf 	andeq	r0, r0, pc, asr #11
  c8:	cf520001 	svcgt	0x00520001
  cc:	2c000005 	stccs	0, cr0, [r0], {5}
  d0:	06000006 	streq	r0, [r0], -r6
  d4:	f503f300 			; <UNDEFINED> instruction: 0xf503f300
  d8:	009f2502 	addseq	r2, pc, r2, lsl #10
  dc:	00000000 	andeq	r0, r0, r0
  e0:	b8000000 	stmdalt	r0, {}	; <UNPREDICTABLE>
  e4:	cf000005 	svcgt	0x00000005
  e8:	01000005 	tsteq	r0, r5
  ec:	05cf5300 	strbeq	r5, [pc, #768]	; 3f4 <Heap_Size+0x2f4>
  f0:	062c0000 	strteq	r0, [ip], -r0
  f4:	00060000 	andeq	r0, r6, r0
  f8:	03f503f3 	mvnseq	r0, #-872415229	; 0xcc000003
  fc:	00009f25 	andeq	r9, r0, r5, lsr #30
 100:	00000000 	andeq	r0, r0, r0
 104:	05b80000 	ldreq	r0, [r8, #0]!
 108:	05d40000 	ldrbeq	r0, [r4]
 10c:	00020000 	andeq	r0, r2, r0
 110:	05d40091 	ldrbeq	r0, [r4, #145]	; 0x91
 114:	05d60000 	ldrbeq	r0, [r6]
 118:	00010000 	andeq	r0, r1, r0
 11c:	0005d650 	andeq	sp, r5, r0, asr r6
 120:	0005fa00 	andeq	pc, r5, r0, lsl #20
 124:	55000100 	strpl	r0, [r0, #-256]	; 0xffffff00
 128:	000005fa 	strdeq	r0, [r0], -sl
 12c:	000005fd 	strdeq	r0, [r0], -sp
 130:	fd500001 	ldc2l	0, cr0, [r0, #-4]
 134:	0c000005 	stceq	0, cr0, [r0], {5}
 138:	01000006 	tsteq	r0, r6
 13c:	060e5500 	streq	r5, [lr], -r0, lsl #10
 140:	062c0000 	strteq	r0, [ip], -r0
 144:	00010000 	andeq	r0, r1, r0
 148:	00000055 	andeq	r0, r0, r5, asr r0
 14c:	00000000 	andeq	r0, r0, r0
 150:	00062200 	andeq	r2, r6, r0, lsl #4
 154:	00062600 	andeq	r2, r6, r0, lsl #12
 158:	30000200 	andcc	r0, r0, r0, lsl #4
 15c:	0006269f 	muleq	r6, pc, r6	; <UNPREDICTABLE>
 160:	00062c00 	andeq	r2, r6, r0, lsl #24
 164:	31000200 	mrscc	r0, R8_usr
 168:	0000009f 	muleq	r0, pc, r0	; <UNPREDICTABLE>
 16c:	00000000 	andeq	r0, r0, r0
 170:	00062c00 	andeq	r2, r6, r0, lsl #24
 174:	00063400 	andeq	r3, r6, r0, lsl #8
 178:	50000100 	andpl	r0, r0, r0, lsl #2
 17c:	00000634 	andeq	r0, r0, r4, lsr r6
 180:	000006fa 	strdeq	r0, [r0], -sl
 184:	00540001 	subseq	r0, r4, r1
 188:	00000000 	andeq	r0, r0, r0
 18c:	2c000000 	stccs	0, cr0, [r0], {-0}
 190:	39000006 	stmdbcc	r0, {r1, r2}
 194:	01000006 	tsteq	r0, r6
 198:	06395100 	ldrteq	r5, [r9], -r0, lsl #2
 19c:	06560000 	ldrbeq	r0, [r6], -r0
 1a0:	00010000 	andeq	r0, r1, r0
 1a4:	00065655 	andeq	r5, r6, r5, asr r6
 1a8:	00065800 	andeq	r5, r6, r0, lsl #16
 1ac:	50000100 	andpl	r0, r0, r0, lsl #2
 1b0:	00000658 	andeq	r0, r0, r8, asr r6
 1b4:	0000066c 	andeq	r0, r0, ip, ror #12
 1b8:	6c550001 	mrrcvs	0, 0, r0, r5, cr1
 1bc:	6e000006 	cdpvs	0, 0, cr0, cr0, cr6, {0}
 1c0:	01000006 	tsteq	r0, r6
 1c4:	066e5000 	strbteq	r5, [lr], -r0
 1c8:	06710000 	ldrbteq	r0, [r1], -r0
 1cc:	00010000 	andeq	r0, r1, r0
 1d0:	00000051 	andeq	r0, r0, r1, asr r0
 1d4:	00000000 	andeq	r0, r0, r0
 1d8:	00067e00 	andeq	r7, r6, r0, lsl #28
 1dc:	00068100 	andeq	r8, r6, r0, lsl #2
 1e0:	50000100 	andpl	r0, r0, r0, lsl #2
 1e4:	00000681 	andeq	r0, r0, r1, lsl #13
 1e8:	000006a0 	andeq	r0, r0, r0, lsr #13
 1ec:	00550001 	subseq	r0, r5, r1
 1f0:	00000000 	andeq	r0, r0, r0
 1f4:	88000000 	stmdahi	r0, {}	; <UNPREDICTABLE>
 1f8:	8c000006 	stchi	0, cr0, [r0], {6}
 1fc:	01000006 	tsteq	r0, r6
 200:	068c5000 	streq	r5, [ip], r0
 204:	069e0000 	ldreq	r0, [lr], r0
 208:	00010000 	andeq	r0, r1, r0
 20c:	0006a056 	andeq	sl, r6, r6, asr r0
 210:	0006a400 	andeq	sl, r6, r0, lsl #8
 214:	50000100 	andpl	r0, r0, r0, lsl #2
 218:	000006a4 	andeq	r0, r0, r4, lsr #13
 21c:	000006b4 			; <UNDEFINED> instruction: 0x000006b4
 220:	b4550001 	ldrblt	r0, [r5], #-1
 224:	bb000006 	bllt	244 <Heap_Size+0x144>
 228:	01000006 	tsteq	r0, r6
 22c:	06bc5000 	ldrteq	r5, [ip], r0
 230:	06c30000 	strbeq	r0, [r3], r0
 234:	00010000 	andeq	r0, r1, r0
 238:	0006c650 	andeq	ip, r6, r0, asr r6
 23c:	0006c800 	andeq	ip, r6, r0, lsl #16
 240:	50000100 	andpl	r0, r0, r0, lsl #2
 244:	000006c8 	andeq	r0, r0, r8, asr #13
 248:	000006d4 	ldrdeq	r0, [r0], -r4
 24c:	d4550001 	ldrble	r0, [r5], #-1
 250:	d9000006 	stmdble	r0, {r1, r2}
 254:	01000006 	tsteq	r0, r6
 258:	06de5000 	ldrbeq	r5, [lr], r0
 25c:	06e10000 	strbteq	r0, [r1], r0
 260:	00010000 	andeq	r0, r1, r0
 264:	0006e150 	andeq	lr, r6, r0, asr r1
 268:	0006fa00 	andeq	pc, r6, r0, lsl #20
 26c:	55000100 	strpl	r0, [r0, #-256]	; 0xffffff00
	...
 278:	0000067e 	andeq	r0, r0, lr, ror r6
 27c:	00000681 	andeq	r0, r0, r1, lsl #13
 280:	00f50008 	rscseq	r0, r5, r8
 284:	2509f525 	strcs	pc, [r9, #-1317]	; 0xfffffadb
 288:	06819f1c 	pkhbteq	r9, r1, ip, lsl #30
 28c:	06a00000 	strteq	r0, [r0], r0
 290:	00080000 	andeq	r0, r8, r0
 294:	f52505f5 			; <UNDEFINED> instruction: 0xf52505f5
 298:	9f1c2509 	svcls	0x001c2509
	...
 2a4:	0000062c 	andeq	r0, r0, ip, lsr #12
 2a8:	0000067e 	andeq	r0, r0, lr, ror r6
 2ac:	049e0006 	ldreq	r0, [lr], #6
 2b0:	00000000 	andeq	r0, r0, r0
 2b4:	0000067e 	andeq	r0, r0, lr, ror r6
 2b8:	000006fa 	strdeq	r0, [r0], -sl
 2bc:	07f5000c 	ldrbeq	r0, [r5, ip]!
 2c0:	0425f425 	strteq	pc, [r5], #-1061	; 0xfffffbdb
 2c4:	00000000 	andeq	r0, r0, r0
 2c8:	00009f1e 	andeq	r9, r0, lr, lsl pc
	...
 2d8:	00010000 	andeq	r0, r1, r0
 2dc:	00000050 	andeq	r0, r0, r0, asr r0
 2e0:	00000000 	andeq	r0, r0, r0
 2e4:	54000100 	strpl	r0, [r0], #-256	; 0xffffff00
	...
 2f8:	00510001 	subseq	r0, r1, r1
 2fc:	00000000 	andeq	r0, r0, r0
 300:	01000000 	mrseq	r0, (UNDEF: 0)
 304:	00005500 	andeq	r5, r0, r0, lsl #10
 308:	00000000 	andeq	r0, r0, r0
 30c:	00010000 	andeq	r0, r1, r0
 310:	00000050 	andeq	r0, r0, r0, asr r0
 314:	00000000 	andeq	r0, r0, r0
 318:	55000100 	strpl	r0, [r0, #-256]	; 0xffffff00
	...
 324:	00500001 	subseq	r0, r0, r1
 328:	00000000 	andeq	r0, r0, r0
 32c:	02000000 	andeq	r0, r0, #0
 330:	000c7400 	andeq	r7, ip, r0, lsl #8
 334:	00000000 	andeq	r0, r0, r0
 338:	fc000000 	stc2	0, cr0, [r0], {-0}
 33c:	06000006 	streq	r0, [r0], -r6
 340:	01000007 	tsteq	r0, r7
 344:	07065000 	streq	r5, [r6, -r0]
 348:	070e0000 	streq	r0, [lr, -r0]
 34c:	00050000 	andeq	r0, r5, r0
 350:	ff02cc03 			; <UNDEFINED> instruction: 0xff02cc03
 354:	00070e1f 	andeq	r0, r7, pc, lsl lr
 358:	00074c00 	andeq	r4, r7, r0, lsl #24
 35c:	f3000400 	vshl.u8	d0, d0, d0
 360:	009f5001 	addseq	r5, pc, r1
	...
 370:	01000000 	mrseq	r0, (UNDEF: 0)
 374:	00005000 	andeq	r5, r0, r0
 378:	00000000 	andeq	r0, r0, r0
 37c:	00050000 	andeq	r0, r5, r0
 380:	ff02d003 			; <UNDEFINED> instruction: 0xff02d003
 384:	0000001f 	andeq	r0, r0, pc, lsl r0
 388:	00000000 	andeq	r0, r0, r0
 38c:	f3000400 	vshl.u8	d0, d0, d0
 390:	009f5001 	addseq	r5, pc, r1
	...
 3a0:	01000000 	mrseq	r0, (UNDEF: 0)
 3a4:	00005000 	andeq	r5, r0, r0
 3a8:	00000000 	andeq	r0, r0, r0
 3ac:	00030000 	andeq	r0, r3, r0
 3b0:	00049350 	andeq	r9, r4, r0, asr r3
	...
 3c0:	01000000 	mrseq	r0, (UNDEF: 0)
 3c4:	00005300 	andeq	r5, r0, r0, lsl #6
 3c8:	00000000 	andeq	r0, r0, r0
 3cc:	08040000 	stmdaeq	r4, {}	; <UNPREDICTABLE>
 3d0:	08040000 	stmdaeq	r4, {}	; <UNPREDICTABLE>
 3d4:	00010000 	andeq	r0, r1, r0
 3d8:	00080450 	andeq	r0, r8, r0, asr r4
 3dc:	00081600 	andeq	r1, r8, r0, lsl #12
 3e0:	50000300 	andpl	r0, r0, r0, lsl #6
 3e4:	00000493 	muleq	r0, r3, r4
 3e8:	00000000 	andeq	r0, r0, r0
 3ec:	08160000 	ldmdaeq	r6, {}	; <UNPREDICTABLE>
 3f0:	081e0000 	ldmdaeq	lr, {}	; <UNPREDICTABLE>
 3f4:	00010000 	andeq	r0, r1, r0
 3f8:	00081e50 	andeq	r1, r8, r0, asr lr
 3fc:	00082e00 	andeq	r2, r8, r0, lsl #28
 400:	54000100 	strpl	r0, [r0], #-256	; 0xffffff00
	...
 40c:	00000816 	andeq	r0, r0, r6, lsl r8
 410:	0000081c 	andeq	r0, r0, ip, lsl r8
 414:	1c510001 	mrrcne	0, 0, r0, r1, cr1
 418:	1e000008 	cdpne	0, 0, cr0, cr0, cr8, {0}
 41c:	01000008 	tsteq	r0, r8
 420:	081e5200 	ldmdaeq	lr, {r9, ip, lr}
 424:	082e0000 	stmdaeq	lr!, {}	; <UNPREDICTABLE>
 428:	00040000 	andeq	r0, r4, r0
 42c:	9f5101f3 	svcls	0x005101f3
	...
 438:	0000078c 	andeq	r0, r0, ip, lsl #15
 43c:	0000079c 	muleq	r0, ip, r7
 440:	9c510001 	mrrcls	0, 0, r0, r1, cr1
 444:	04000007 	streq	r0, [r0], #-7
 448:	04000008 	streq	r0, [r0], #-8
 44c:	5101f300 	mrspl	pc, SP_irq	; <UNPREDICTABLE>
 450:	0000009f 	muleq	r0, pc, r0	; <UNPREDICTABLE>
 454:	00000000 	andeq	r0, r0, r0
 458:	0007ce00 	andeq	ip, r7, r0, lsl #28
 45c:	0007f600 	andeq	pc, r7, r0, lsl #12
 460:	51000100 	mrspl	r0, (UNDEF: 16)
	...
 46c:	000007e2 	andeq	r0, r0, r2, ror #15
 470:	000007f2 	strdeq	r0, [r0], -r2
 474:	00750016 	rsbseq	r0, r5, r6, lsl r0
 478:	f7243506 			; <UNDEFINED> instruction: 0xf7243506
 47c:	3a960825 	bcc	fe582518 <__stack+0xde552518>
 480:	1b25f724 	blne	97e118 <__exidx_end+0x97b760>
 484:	007100f7 	ldrshteq	r0, [r1], #-7
 488:	9f1c2435 	svcls	0x001c2435
	...
 494:	00000858 	andeq	r0, r0, r8, asr r8
 498:	000008b4 			; <UNDEFINED> instruction: 0x000008b4
 49c:	b4500001 	ldrblt	r0, [r0], #-1
 4a0:	b6000008 	strlt	r0, [r0], -r8
 4a4:	04000008 	streq	r0, [r0], #-8
 4a8:	5001f300 	andpl	pc, r1, r0, lsl #6
 4ac:	0008b69f 	muleq	r8, pc, r6	; <UNPREDICTABLE>
 4b0:	0008ce00 	andeq	ip, r8, r0, lsl #28
 4b4:	50000100 	andpl	r0, r0, r0, lsl #2
 4b8:	000008ce 	andeq	r0, r0, lr, asr #17
 4bc:	000008d8 	ldrdeq	r0, [r0], -r8
 4c0:	28030005 	stmdacs	r3, {r0, r2}
 4c4:	d81fff02 	ldmdale	pc, {r1, r8, r9, sl, fp, ip, sp, lr, pc}	; <UNPREDICTABLE>
 4c8:	04000008 	streq	r0, [r0], #-8
 4cc:	04000009 	streq	r0, [r0], #-9
 4d0:	5001f300 	andpl	pc, r1, r0, lsl #6
 4d4:	0000009f 	muleq	r0, pc, r0	; <UNPREDICTABLE>
 4d8:	00000000 	andeq	r0, r0, r0
 4dc:	0008a000 	andeq	sl, r8, r0
 4e0:	0008ba00 	andeq	fp, r8, r0, lsl #20
 4e4:	53000100 	movwpl	r0, #256	; 0x100
	...
 4f0:	000008a4 	andeq	r0, r0, r4, lsr #17
 4f4:	000008ae 	andeq	r0, r0, lr, lsr #17
 4f8:	73310005 	teqvc	r1, #5
 4fc:	ae9f2400 	cdpge	4, 9, cr2, cr15, cr0, {0}
 500:	b2000008 	andlt	r0, r0, #8
 504:	05000008 	streq	r0, [r0, #-8]
 508:	7f733100 	svcvc	0x00733100
 50c:	08b69f24 	ldmeq	r6!, {r2, r5, r8, r9, sl, fp, ip, pc}
 510:	08ba0000 	ldmeq	sl!, {}	; <UNPREDICTABLE>
 514:	00050000 	andeq	r0, r5, r0
 518:	24007331 	strcs	r7, [r0], #-817	; 0xfffffccf
 51c:	0000009f 	muleq	r0, pc, r0	; <UNPREDICTABLE>
 520:	00000000 	andeq	r0, r0, r0
 524:	00088e00 	andeq	r8, r8, r0, lsl #28
 528:	0008b200 	andeq	fp, r8, r0, lsl #4
 52c:	30000200 	andcc	r0, r0, r0, lsl #4
 530:	0008b69f 	muleq	r8, pc, r6	; <UNPREDICTABLE>
 534:	0008c400 	andeq	ip, r8, r0, lsl #8
 538:	53000100 	movwpl	r0, #256	; 0x100
	...
 544:	00000830 	andeq	r0, r0, r0, lsr r8
 548:	0000083c 	andeq	r0, r0, ip, lsr r8
 54c:	3c500001 	mrrccc	0, 0, r0, r0, cr1	; <UNPREDICTABLE>
 550:	58000008 	stmdapl	r0, {r3}
 554:	04000008 	streq	r0, [r0], #-8
 558:	5001f300 	andpl	pc, r1, r0, lsl #6
 55c:	0000009f 	muleq	r0, pc, r0	; <UNPREDICTABLE>
 560:	00000000 	andeq	r0, r0, r0
 564:	00083000 	andeq	r3, r8, r0
 568:	00083c00 	andeq	r3, r8, r0, lsl #24
 56c:	0c001f00 	stceq	15, cr1, [r0], {-0}
 570:	03938700 	orrseq	r8, r3, #0, 14
 574:	280325f7 	stmdacs	r3, {r0, r1, r2, r4, r5, r6, r7, r8, sl, sp}
 578:	061fff02 	ldreq	pc, [pc], -r2, lsl #30
 57c:	f71b25f7 			; <UNDEFINED> instruction: 0xf71b25f7
 580:	1e007000 	cdpne	0, 0, cr7, cr0, cr0, {0}
 584:	640825f7 	strvs	r2, [r8], #-1527	; 0xfffffa09
 588:	f71b25f7 			; <UNDEFINED> instruction: 0xf71b25f7
 58c:	083c9f00 	ldmdaeq	ip!, {r8, r9, sl, fp, ip, pc}
 590:	08480000 	stmdaeq	r8, {}^	; <UNPREDICTABLE>
 594:	00200000 	eoreq	r0, r0, r0
 598:	9387000c 	orrls	r0, r7, #12
 59c:	0325f703 	msreq	CPSR_sc, #786432	; 0xc0000
 5a0:	1fff0228 	svcne	0x00ff0228
 5a4:	1b25f706 	blne	97e1c4 <__exidx_end+0x97b80c>
 5a8:	01f300f7 	ldrsheq	r0, [r3, #7]!
 5ac:	25f71e50 	ldrbcs	r1, [r7, #3664]!	; 0xe50
 5b0:	25f76408 	ldrbcs	r6, [r7, #1032]!	; 0x408
 5b4:	9f00f71b 	svcls	0x0000f71b
 5b8:	00000848 	andeq	r0, r0, r8, asr #16
 5bc:	00000858 	andeq	r0, r0, r8, asr r8
 5c0:	000c001c 	andeq	r0, ip, ip, lsl r0
 5c4:	f7039387 			; <UNDEFINED> instruction: 0xf7039387
 5c8:	f7007225 			; <UNDEFINED> instruction: 0xf7007225
 5cc:	00f71b25 	rscseq	r1, r7, r5, lsr #22
 5d0:	1e5001f3 	mrcne	1, 2, r0, cr0, cr3, {7}
 5d4:	640825f7 	strvs	r2, [r8], #-1527	; 0xfffffa09
 5d8:	f71b25f7 			; <UNDEFINED> instruction: 0xf71b25f7
 5dc:	00009f00 	andeq	r9, r0, r0, lsl #30
 5e0:	00000000 	andeq	r0, r0, r0
 5e4:	09640000 	stmdbeq	r4!, {}^	; <UNPREDICTABLE>
 5e8:	09ba0000 	ldmibeq	sl!, {}	; <UNPREDICTABLE>
 5ec:	00010000 	andeq	r0, r1, r0
 5f0:	000a1454 	andeq	r1, sl, r4, asr r4
 5f4:	000a2800 	andeq	r2, sl, r0, lsl #16
 5f8:	54000100 	strpl	r0, [r0], #-256	; 0xffffff00
	...
 604:	00000b6e 	andeq	r0, r0, lr, ror #22
 608:	00000b76 	andeq	r0, r0, r6, ror fp
 60c:	007a0007 	rsbseq	r0, sl, r7
 610:	1b03e80a 	blne	fa640 <__exidx_end+0xf7c88>
 614:	000b769f 	muleq	fp, pc, r6	; <UNPREDICTABLE>
 618:	000b7b00 	andeq	r7, fp, r0, lsl #22
 61c:	51000100 	mrspl	r0, (UNDEF: 16)
 620:	00000b7b 	andeq	r0, r0, fp, ror fp
 624:	00000b86 	andeq	r0, r0, r6, lsl #23
 628:	007a0007 	rsbseq	r0, sl, r7
 62c:	1b03e80a 	blne	fa65c <__exidx_end+0xf7ca4>
 630:	0000009f 	muleq	r0, pc, r0	; <UNPREDICTABLE>
 634:	00000000 	andeq	r0, r0, r0
 638:	000af000 	andeq	pc, sl, r0
 63c:	000b8600 	andeq	r8, fp, r0, lsl #12
 640:	5a000100 	bpl	a48 <updatePIDs+0x120>
	...
 64c:	00000cca 	andeq	r0, r0, sl, asr #25
 650:	00000cce 	andeq	r0, r0, lr, asr #25
 654:	ce510001 	cdpgt	0, 5, cr0, cr1, cr1, {0}
 658:	e800000c 	stmda	r0, {r2, r3}
 65c:	0100000c 	tsteq	r0, ip
 660:	0ce85200 	sfmeq	f5, 2, [r8]
 664:	0cec0000 	stcleq	0, cr0, [ip]
 668:	00010000 	andeq	r0, r1, r0
 66c:	000cec51 	andeq	lr, ip, r1, asr ip
 670:	000d0800 	andeq	r0, sp, r0, lsl #16
 674:	52000100 	andpl	r0, r0, #0, 2
	...

Disassembly of section .debug_aranges:

00000000 <.debug_aranges>:
   0:	00000024 	andeq	r0, r0, r4, lsr #32
   4:	00000002 	andeq	r0, r0, r2
   8:	00040000 	andeq	r0, r4, r0
   c:	00000000 	andeq	r0, r0, r0
  10:	000004d0 	ldrdeq	r0, [r0], -r0	; <UNPREDICTABLE>
  14:	000000e8 	andeq	r0, r0, r8, ror #1
  18:	00000000 	andeq	r0, r0, r0
  1c:	00000128 	andeq	r0, r0, r8, lsr #2
	...
  28:	0000002c 	andeq	r0, r0, ip, lsr #32
  2c:	05ad0002 	streq	r0, [sp, #2]!
  30:	00040000 	andeq	r0, r4, r0
  34:	00000000 	andeq	r0, r0, r0
  38:	000005b8 			; <UNDEFINED> instruction: 0x000005b8
  3c:	00000074 	andeq	r0, r0, r4, ror r0
  40:	0000062c 	andeq	r0, r0, ip, lsr #12
  44:	000000ce 	andeq	r0, r0, lr, asr #1
  48:	00000000 	andeq	r0, r0, r0
  4c:	0000003e 	andeq	r0, r0, lr, lsr r0
	...
  58:	00000044 	andeq	r0, r0, r4, asr #32
  5c:	07ec0002 	strbeq	r0, [ip, r2]!
  60:	00040000 	andeq	r0, r4, r0
  64:	00000000 	andeq	r0, r0, r0
  68:	000006fc 	strdeq	r0, [r0], -ip
  6c:	00000050 	andeq	r0, r0, r0, asr r0
  70:	00000000 	andeq	r0, r0, r0
  74:	00000050 	andeq	r0, r0, r0, asr r0
  78:	00000000 	andeq	r0, r0, r0
  7c:	00000010 	andeq	r0, r0, r0, lsl r0
  80:	00000000 	andeq	r0, r0, r0
  84:	00000010 	andeq	r0, r0, r0, lsl r0
  88:	0000074c 	andeq	r0, r0, ip, asr #14
  8c:	00000020 	andeq	r0, r0, r0, lsr #32
  90:	0000076c 	andeq	r0, r0, ip, ror #14
  94:	00000020 	andeq	r0, r0, r0, lsr #32
	...
  a0:	00000034 	andeq	r0, r0, r4, lsr r0
  a4:	10470002 	subne	r0, r7, r2
  a8:	00040000 	andeq	r0, r4, r0
  ac:	00000000 	andeq	r0, r0, r0
  b0:	0000078c 	andeq	r0, r0, ip, lsl #15
  b4:	00000078 	andeq	r0, r0, r8, ror r0
  b8:	00000804 	andeq	r0, r0, r4, lsl #16
  bc:	00000012 	andeq	r0, r0, r2, lsl r0
  c0:	00000816 	andeq	r0, r0, r6, lsl r8
  c4:	00000018 	andeq	r0, r0, r8, lsl r0
  c8:	00000000 	andeq	r0, r0, r0
  cc:	00000014 	andeq	r0, r0, r4, lsl r0
	...
  d8:	0000002c 	andeq	r0, r0, ip, lsr #32
  dc:	17040002 	strne	r0, [r4, -r2]
  e0:	00040000 	andeq	r0, r4, r0
  e4:	00000000 	andeq	r0, r0, r0
  e8:	00000830 	andeq	r0, r0, r0, lsr r8
  ec:	00000028 	andeq	r0, r0, r8, lsr #32
  f0:	00000858 	andeq	r0, r0, r8, asr r8
  f4:	000000ac 	andeq	r0, r0, ip, lsr #1
  f8:	00000904 	andeq	r0, r0, r4, lsl #18
  fc:	00000024 	andeq	r0, r0, r4, lsr #32
	...
 108:	0000002c 	andeq	r0, r0, ip, lsr #32
 10c:	1cb40002 	ldcne	0, cr0, [r4], #8
 110:	00040000 	andeq	r0, r4, r0
 114:	00000000 	andeq	r0, r0, r0
 118:	00000928 	andeq	r0, r0, r8, lsr #18
 11c:	00000144 	andeq	r0, r0, r4, asr #2
 120:	00000a6c 	andeq	r0, r0, ip, ror #20
 124:	00000230 	andeq	r0, r0, r0, lsr r2
 128:	00000000 	andeq	r0, r0, r0
 12c:	00000002 	andeq	r0, r0, r2
	...
 138:	00000034 	andeq	r0, r0, r4, lsr r0
 13c:	307c0002 	rsbscc	r0, ip, r2
 140:	00040000 	andeq	r0, r4, r0
	...
 14c:	00000028 	andeq	r0, r0, r8, lsr #32
 150:	00000000 	andeq	r0, r0, r0
 154:	0000002c 	andeq	r0, r0, ip, lsr #32
 158:	00000c9c 	muleq	r0, ip, ip
 15c:	00000094 	muleq	r0, r4, r0
 160:	00000d30 	andeq	r0, r0, r0, lsr sp
 164:	00000058 	andeq	r0, r0, r8, asr r0
	...
 170:	0000001c 	andeq	r0, r0, ip, lsl r0
 174:	3b2c0002 	blcc	b00184 <__exidx_end+0xafd7cc>
 178:	00040000 	andeq	r0, r4, r0
 17c:	00000000 	andeq	r0, r0, r0
 180:	00000d88 	andeq	r0, r0, r8, lsl #27
 184:	00000058 	andeq	r0, r0, r8, asr r0
	...

Disassembly of section .debug_ranges:

00000000 <.debug_ranges>:
   0:	000004d0 	ldrdeq	r0, [r0], -r0	; <UNPREDICTABLE>
   4:	000005b8 			; <UNDEFINED> instruction: 0x000005b8
   8:	00000001 	andeq	r0, r0, r1
   c:	00000001 	andeq	r0, r0, r1
	...
  18:	000005b8 			; <UNDEFINED> instruction: 0x000005b8
  1c:	0000062c 	andeq	r0, r0, ip, lsr #12
  20:	0000062c 	andeq	r0, r0, ip, lsr #12
  24:	000006fa 	strdeq	r0, [r0], -sl
  28:	00000001 	andeq	r0, r0, r1
  2c:	00000001 	andeq	r0, r0, r1
	...
  38:	000006fc 	strdeq	r0, [r0], -ip
  3c:	0000074c 	andeq	r0, r0, ip, asr #14
  40:	00000001 	andeq	r0, r0, r1
  44:	00000001 	andeq	r0, r0, r1
  48:	00000001 	andeq	r0, r0, r1
  4c:	00000001 	andeq	r0, r0, r1
  50:	00000001 	andeq	r0, r0, r1
  54:	00000001 	andeq	r0, r0, r1
  58:	0000074c 	andeq	r0, r0, ip, asr #14
  5c:	0000076c 	andeq	r0, r0, ip, ror #14
  60:	0000076c 	andeq	r0, r0, ip, ror #14
  64:	0000078c 	andeq	r0, r0, ip, lsl #15
	...
  70:	0000078c 	andeq	r0, r0, ip, lsl #15
  74:	00000804 	andeq	r0, r0, r4, lsl #16
  78:	00000804 	andeq	r0, r0, r4, lsl #16
  7c:	00000816 	andeq	r0, r0, r6, lsl r8
  80:	00000816 	andeq	r0, r0, r6, lsl r8
  84:	0000082e 	andeq	r0, r0, lr, lsr #16
  88:	00000001 	andeq	r0, r0, r1
  8c:	00000001 	andeq	r0, r0, r1
	...
  98:	00000830 	andeq	r0, r0, r0, lsr r8
  9c:	00000858 	andeq	r0, r0, r8, asr r8
  a0:	00000858 	andeq	r0, r0, r8, asr r8
  a4:	00000904 	andeq	r0, r0, r4, lsl #18
  a8:	00000904 	andeq	r0, r0, r4, lsl #18
  ac:	00000928 	andeq	r0, r0, r8, lsr #18
	...
  b8:	00000928 	andeq	r0, r0, r8, lsr #18
  bc:	00000a6c 	andeq	r0, r0, ip, ror #20
  c0:	00000a6c 	andeq	r0, r0, ip, ror #20
  c4:	00000c9c 	muleq	r0, ip, ip
  c8:	00000001 	andeq	r0, r0, r1
  cc:	00000001 	andeq	r0, r0, r1
	...
  d8:	00000001 	andeq	r0, r0, r1
  dc:	00000001 	andeq	r0, r0, r1
  e0:	00000001 	andeq	r0, r0, r1
  e4:	00000001 	andeq	r0, r0, r1
  e8:	00000c9c 	muleq	r0, ip, ip
  ec:	00000d30 	andeq	r0, r0, r0, lsr sp
  f0:	00000d30 	andeq	r0, r0, r0, lsr sp
  f4:	00000d88 	andeq	r0, r0, r8, lsl #27
	...

Disassembly of section .debug_line:

00000000 <.debug_line>:
   0:	00000147 	andeq	r0, r0, r7, asr #2
   4:	00bb0002 	adcseq	r0, fp, r2
   8:	01020000 	mrseq	r0, (UNDEF: 2)
   c:	000d0efb 	strdeq	r0, [sp], -fp
  10:	01010101 	tsteq	r1, r1, lsl #2
  14:	01000000 	mrseq	r0, (UNDEF: 0)
  18:	2e010000 	cdpcs	0, 0, cr0, cr1, cr0, {0}
  1c:	736d632f 	cmnvc	sp, #-1140850688	; 0xbc000000
  20:	4d2f7369 	stcmi	3, cr7, [pc, #-420]!	; fffffe84 <__stack+0xdffcfe84>
  24:	4634364b 	ldrtmi	r3, [r4], -fp, asr #12
  28:	2f003231 	svccs	0x00003231
  2c:	2f727375 	svccs	0x00727375
  30:	2d6d7261 	sfmcs	f7, 2, [sp, #-388]!	; 0xfffffe7c
  34:	656e6f6e 	strbvs	r6, [lr, #-3950]!	; 0xfffff092
  38:	6261652d 	rsbvs	r6, r1, #188743680	; 0xb400000
  3c:	6e692f69 	cdpvs	15, 6, cr2, cr9, cr9, {3}
  40:	64756c63 	ldrbtvs	r6, [r5], #-3171	; 0xfffff39d
  44:	616d2f65 	cmnvs	sp, r5, ror #30
  48:	6e696863 	cdpvs	8, 6, cr6, cr9, cr3, {3}
  4c:	752f0065 	strvc	r0, [pc, #-101]!	; ffffffef <__stack+0xdffcffef>
  50:	612f7273 			; <UNDEFINED> instruction: 0x612f7273
  54:	6e2d6d72 	mcrvs	13, 1, r6, cr13, cr2, {3}
  58:	2d656e6f 	stclcs	14, cr6, [r5, #-444]!	; 0xfffffe44
  5c:	69626165 	stmdbvs	r2!, {r0, r2, r5, r6, r8, sp, lr}^
  60:	636e692f 	cmnvs	lr, #770048	; 0xbc000
  64:	6564756c 	strbvs	r7, [r4, #-1388]!	; 0xfffffa94
  68:	7379732f 	cmnvc	r9, #-1140850688	; 0xbc000000
  6c:	736d6300 	cmnvc	sp, #0, 6
  70:	00007369 	andeq	r7, r0, r9, ror #6
  74:	74737973 	ldrbtvc	r7, [r3], #-2419	; 0xfffff68d
  78:	4d5f6d65 	ldclmi	13, cr6, [pc, #-404]	; fffffeec <__stack+0xdffcfeec>
  7c:	4634364b 	ldrtmi	r3, [r4], -fp, asr #12
  80:	632e3231 			; <UNDEFINED> instruction: 0x632e3231
  84:	00000100 	andeq	r0, r0, r0, lsl #2
  88:	6665645f 			; <UNDEFINED> instruction: 0x6665645f
  8c:	746c7561 	strbtvc	r7, [ip], #-1377	; 0xfffffa9f
  90:	7079745f 	rsbsvc	r7, r9, pc, asr r4
  94:	682e7365 	stmdavs	lr!, {r0, r2, r5, r6, r8, r9, ip, sp, lr}
  98:	00000200 	andeq	r0, r0, r0, lsl #4
  9c:	6474735f 	ldrbtvs	r7, [r4], #-863	; 0xfffffca1
  a0:	2e746e69 	cdpcs	14, 7, cr6, cr4, cr9, {3}
  a4:	00030068 	andeq	r0, r3, r8, rrx
  a8:	364b4d00 	strbcc	r4, [fp], -r0, lsl #26
  ac:	32314634 	eorscc	r4, r1, #52, 12	; 0x3400000
  b0:	0100682e 	tsteq	r0, lr, lsr #16
  b4:	6f630000 	svcvs	0x00630000
  b8:	635f6572 	cmpvs	pc, #478150656	; 0x1c800000
  bc:	682e346d 	stmdavs	lr!, {r0, r2, r3, r5, r6, sl, ip, sp}
  c0:	00000400 	andeq	r0, r0, r0, lsl #8
  c4:	02050000 	andeq	r0, r5, #0
  c8:	000004d0 	ldrdeq	r0, [r0], -r0	; <UNPREDICTABLE>
  cc:	01018003 	tsteq	r1, r3
  d0:	033e4c19 	teqeq	lr, #6400	; 0x1900
  d4:	27033c0d 	strcs	r3, [r3, -sp, lsl #24]
  d8:	2e59032e 	cdpcs	3, 5, cr0, cr9, cr14, {1}
  dc:	58250330 	stmdapl	r5!, {r4, r5, r8, r9}
  e0:	4c685d5a 	stclmi	13, cr5, [r8], #-360	; 0xfffffe98
  e4:	4c3e3e77 	ldcmi	14, cr3, [lr], #-476	; 0xfffffe24
  e8:	00304c30 	eorseq	r4, r0, r0, lsr ip
  ec:	2f010402 	svccs	0x00010402
  f0:	01040200 	mrseq	r0, R12_usr
  f4:	02006a3e 	andeq	r6, r0, #253952	; 0x3e000
  f8:	002f0104 	eoreq	r0, pc, r4, lsl #2
  fc:	68010402 	stmdavs	r1, {r1, sl}
 100:	0402004e 	streq	r0, [r2], #-78	; 0xffffffb2
 104:	025d2f01 	subseq	r2, sp, #1, 30
 108:	01010014 	tsteq	r1, r4, lsl r0
 10c:	00020500 	andeq	r0, r2, r0, lsl #10
 110:	03000000 	movweq	r0, #0
 114:	160102d7 			; <UNDEFINED> instruction: 0x160102d7
 118:	233e3e5a 	teqcs	lr, #1440	; 0x5a0
 11c:	1c67215a 	stfnee	f2, [r7], #-360	; 0xfffffe98
 120:	212f2d40 			; <UNDEFINED> instruction: 0x212f2d40
 124:	3aca3131 	bcc	ff28c5f0 <__stack+0xdf25c5f0>
 128:	03580e03 	cmpeq	r8, #3, 28	; 0x30
 12c:	17033c72 	smlsdxne	r3, r2, ip, r3
 130:	3c6e034a 	stclcc	3, cr0, [lr], #-296	; 0xfffffed8
 134:	3f423f3f 	svccc	0x00423f3f
 138:	213c0a03 	teqcs	ip, r3, lsl #20
 13c:	5a5a2167 	bpl	16886e0 <__exidx_end+0x1685d28>
 140:	215a763f 	cmpcs	sl, pc, lsr r6
 144:	16023476 			; <UNDEFINED> instruction: 0x16023476
 148:	ae010100 	adfges	f0, f1, f0
 14c:	02000000 	andeq	r0, r0, #0
 150:	00002500 	andeq	r2, r0, r0, lsl #10
 154:	fb010200 	blx	4095e <__exidx_end+0x3dfa6>
 158:	01000d0e 	tsteq	r0, lr, lsl #26
 15c:	00010101 	andeq	r0, r1, r1, lsl #2
 160:	00010000 	andeq	r0, r1, r0
 164:	50000100 	andpl	r0, r0, r0, lsl #2
 168:	632e4449 			; <UNDEFINED> instruction: 0x632e4449
 16c:	00000000 	andeq	r0, r0, r0
 170:	2e444950 			; <UNDEFINED> instruction: 0x2e444950
 174:	00000068 	andeq	r0, r0, r8, rrx
 178:	05000000 	streq	r0, [r0, #-0]
 17c:	0005b802 	andeq	fp, r5, r2, lsl #16
 180:	01170300 	tsteq	r7, r0, lsl #6
 184:	231e222e 	tstcs	lr, #-536870910	; 0xe0000002
 188:	03221e23 			; <UNDEFINED> instruction: 0x03221e23
 18c:	3026207a 	eorcc	r2, r6, sl, ror r0
 190:	1f83221e 	svcne	0x0083221e
 194:	1d3f4c21 	ldcne	12, cr4, [pc, #-132]!	; 118 <Heap_Size+0x18>
 198:	2c593e23 	mrrccs	14, 2, r3, r9, cr3
 19c:	1b200903 	blne	8025b0 <__exidx_end+0x7ffbf8>
 1a0:	21212123 			; <UNDEFINED> instruction: 0x21212123
 1a4:	0231302f 	eorseq	r3, r1, #47	; 0x2f
 1a8:	01010003 	tsteq	r1, r3
 1ac:	2c020500 	cfstr32cs	mvfx0, [r2], {-0}
 1b0:	03000006 	movweq	r0, #6
 1b4:	2e0100eb 	cdpcs	0, 0, cr0, cr1, cr11, {7}
 1b8:	20790327 	rsbscs	r0, r9, r7, lsr #6
 1bc:	592f3d27 	stmdbpl	pc!, {r0, r1, r2, r5, r8, sl, fp, ip, sp}	; <UNPREDICTABLE>
 1c0:	92315a24 	eorsls	r5, r1, #36, 20	; 0x24000
 1c4:	2121333d 			; <UNDEFINED> instruction: 0x2121333d
 1c8:	28207803 	stmdacs	r0!, {r0, r1, fp, ip, sp, lr}
 1cc:	9f212d2f 	svcls	0x00212d2f
 1d0:	4ba1211f 	blmi	fe848654 <__stack+0xde818654>
 1d4:	1f3d755b 	svcne	0x003d755b
 1d8:	592f3d21 	stmdbpl	pc!, {r0, r5, r8, sl, fp, ip, sp}	; <UNPREDICTABLE>
 1dc:	00030223 	andeq	r0, r3, r3, lsr #4
 1e0:	05000101 	streq	r0, [r0, #-257]	; 0xfffffeff
 1e4:	00000002 	andeq	r0, r0, r2
 1e8:	019e0300 	orrseq	r0, lr, r0, lsl #6
 1ec:	1e222001 	cdpne	0, 2, cr2, cr2, cr1, {0}
 1f0:	592f3d22 	stmdbpl	pc!, {r1, r5, r8, sl, fp, ip, sp}	; <UNPREDICTABLE>
 1f4:	22835924 	addcs	r5, r3, #36, 18	; 0x90000
 1f8:	01000202 	tsteq	r0, r2, lsl #4
 1fc:	00017c01 	andeq	r7, r1, r1, lsl #24
 200:	ca000200 	bgt	a08 <updatePIDs+0xe0>
 204:	02000000 	andeq	r0, r0, #0
 208:	0d0efb01 	vstreq	d15, [lr, #-4]
 20c:	01010100 	mrseq	r0, (UNDEF: 17)
 210:	00000001 	andeq	r0, r0, r1
 214:	01000001 	tsteq	r0, r1
 218:	69736d63 	ldmdbvs	r3!, {r0, r1, r5, r6, r8, sl, fp, sp, lr}^
 21c:	752f0073 	strvc	r0, [pc, #-115]!	; 1b1 <Heap_Size+0xb1>
 220:	612f7273 			; <UNDEFINED> instruction: 0x612f7273
 224:	6e2d6d72 	mcrvs	13, 1, r6, cr13, cr2, {3}
 228:	2d656e6f 	stclcs	14, cr6, [r5, #-444]!	; 0xfffffe44
 22c:	69626165 	stmdbvs	r2!, {r0, r2, r5, r6, r8, sp, lr}^
 230:	636e692f 	cmnvs	lr, #770048	; 0xbc000
 234:	6564756c 	strbvs	r7, [r4, #-1388]!	; 0xfffffa94
 238:	63616d2f 	cmnvs	r1, #3008	; 0xbc0
 23c:	656e6968 	strbvs	r6, [lr, #-2408]!	; 0xfffff698
 240:	73752f00 	cmnvc	r5, #0, 30
 244:	72612f72 	rsbvc	r2, r1, #456	; 0x1c8
 248:	6f6e2d6d 	svcvs	0x006e2d6d
 24c:	652d656e 	strvs	r6, [sp, #-1390]!	; 0xfffffa92
 250:	2f696261 	svccs	0x00696261
 254:	6c636e69 	stclvs	14, cr6, [r3], #-420	; 0xfffffe5c
 258:	2f656475 	svccs	0x00656475
 25c:	00737973 	rsbseq	r7, r3, r3, ror r9
 260:	6d632f2e 	stclvs	15, cr2, [r3, #-184]!	; 0xffffff48
 264:	2f736973 	svccs	0x00736973
 268:	34364b4d 	ldrtcc	r4, [r6], #-2893	; 0xfffff4b3
 26c:	00323146 	eorseq	r3, r2, r6, asr #2
 270:	54495000 	strbpl	r5, [r9], #-0
 274:	0000632e 	andeq	r6, r0, lr, lsr #6
 278:	6f630000 	svcvs	0x00630000
 27c:	635f6572 	cmpvs	pc, #478150656	; 0x1c800000
 280:	682e346d 	stmdavs	lr!, {r0, r2, r3, r5, r6, sl, ip, sp}
 284:	00000100 	andeq	r0, r0, r0, lsl #2
 288:	65726f63 	ldrbvs	r6, [r2, #-3939]!	; 0xfffff09d
 28c:	466d635f 			; <UNDEFINED> instruction: 0x466d635f
 290:	2e636e75 	mcrcs	14, 3, r6, cr3, cr5, {3}
 294:	00010068 	andeq	r0, r1, r8, rrx
 298:	65645f00 	strbvs	r5, [r4, #-3840]!	; 0xfffff100
 29c:	6c756166 	ldfvse	f6, [r5], #-408	; 0xfffffe68
 2a0:	79745f74 	ldmdbvc	r4!, {r2, r4, r5, r6, r8, r9, sl, fp, ip, lr}^
 2a4:	2e736570 	mrccs	5, 3, r6, cr3, cr0, {3}
 2a8:	00020068 	andeq	r0, r2, r8, rrx
 2ac:	74735f00 	ldrbtvc	r5, [r3], #-3840	; 0xfffff100
 2b0:	746e6964 	strbtvc	r6, [lr], #-2404	; 0xfffff69c
 2b4:	0300682e 	movweq	r6, #2094	; 0x82e
 2b8:	4b4d0000 	blmi	13402c0 <__exidx_end+0x133d908>
 2bc:	31463436 	cmpcc	r6, r6, lsr r4
 2c0:	00682e32 	rsbeq	r2, r8, r2, lsr lr
 2c4:	50000004 	andpl	r0, r0, r4
 2c8:	682e5449 	stmdavs	lr!, {r0, r3, r6, sl, ip, lr}
 2cc:	00000000 	andeq	r0, r0, r0
 2d0:	02050000 	andeq	r0, r5, #0
 2d4:	000006fc 	strdeq	r0, [r0], -ip
 2d8:	2d211318 	stccs	3, cr1, [r1, #-96]!	; 0xffffffa0
 2dc:	1f3e5921 	svcne	0x003e5921
 2e0:	043d2f2f 	ldrteq	r2, [sp], #-3887	; 0xfffff0d1
 2e4:	0bb00302 	bleq	fec00ef4 <__stack+0xdebd0ef4>
 2e8:	03030466 	movweq	r0, #13414	; 0x3466
 2ec:	024a778d 	subeq	r7, sl, #36962304	; 0x2340000
 2f0:	0101000a 	tsteq	r1, sl
 2f4:	00020500 	andeq	r0, r2, r0, lsl #10
 2f8:	03000000 	movweq	r0, #0
 2fc:	21130114 	tstcs	r3, r4, lsl r1
 300:	3e59212d 	rdfccep	f2, f1, #5.0
 304:	3d2f2f1f 	stccc	15, cr2, [pc, #-124]!	; 290 <Heap_Size+0x190>
 308:	a2030204 	andge	r0, r3, #4, 4	; 0x40000000
 30c:	0304660b 	movweq	r6, #17931	; 0x460b
 310:	4a778d03 	bmi	1de3724 <__exidx_end+0x1de0d6c>
 314:	01000a02 	tsteq	r0, r2, lsl #20
 318:	02050001 	andeq	r0, r5, #1
 31c:	00000000 	andeq	r0, r0, r0
 320:	13012403 	movwne	r2, #5123	; 0x1403
 324:	01000802 	tsteq	r0, r2, lsl #16
 328:	02050001 	andeq	r0, r5, #1
 32c:	00000000 	andeq	r0, r0, r0
 330:	13012803 	movwne	r2, #6147	; 0x1803
 334:	01000802 	tsteq	r0, r2, lsl #16
 338:	02050001 	andeq	r0, r5, #1
 33c:	0000074c 	andeq	r0, r0, ip, asr #14
 340:	04012c03 	streq	r2, [r1], #-3075	; 0xfffff3fd
 344:	02a90303 	adceq	r0, r9, #201326592	; 0xc000000
 348:	03010420 	movweq	r0, #5152	; 0x1420
 34c:	4b207dda 	blmi	81fabc <__exidx_end+0x81d104>
 350:	9a030304 	bls	c0f68 <__exidx_end+0xbe5b0>
 354:	07023c02 	streq	r3, [r2, -r2, lsl #24]
 358:	00010100 	andeq	r0, r1, r0, lsl #2
 35c:	076c0205 	strbeq	r0, [ip, -r5, lsl #4]!
 360:	33030000 	movwcc	r0, #12288	; 0x3000
 364:	03030401 	movweq	r0, #13313	; 0x3401
 368:	042002a2 	strteq	r0, [r0], #-674	; 0xfffffd5e
 36c:	7de10301 	stclvc	3, cr0, [r1, #4]!
 370:	03044b20 	movweq	r4, #19232	; 0x4b20
 374:	3c029303 	stccc	3, cr9, [r2], {3}
 378:	01000702 	tsteq	r0, r2, lsl #14
 37c:	00015c01 	andeq	r5, r1, r1, lsl #24
 380:	cf000200 	svcgt	0x00000200
 384:	02000000 	andeq	r0, r0, #0
 388:	0d0efb01 	vstreq	d15, [lr, #-4]
 38c:	01010100 	mrseq	r0, (UNDEF: 17)
 390:	00000001 	andeq	r0, r0, r1
 394:	01000001 	tsteq	r0, r1
 398:	7273752f 	rsbsvc	r7, r3, #197132288	; 0xbc00000
 39c:	6d72612f 	ldfvse	f6, [r2, #-188]!	; 0xffffff44
 3a0:	6e6f6e2d 	cdpvs	14, 6, cr6, cr15, cr13, {1}
 3a4:	61652d65 	cmnvs	r5, r5, ror #26
 3a8:	692f6962 	stmdbvs	pc!, {r1, r5, r6, r8, fp, sp, lr}	; <UNPREDICTABLE>
 3ac:	756c636e 	strbvc	r6, [ip, #-878]!	; 0xfffffc92
 3b0:	6d2f6564 	cfstr32vs	mvfx6, [pc, #-400]!	; 228 <Heap_Size+0x128>
 3b4:	69686361 	stmdbvs	r8!, {r0, r5, r6, r8, r9, sp, lr}^
 3b8:	2f00656e 	svccs	0x0000656e
 3bc:	2f727375 	svccs	0x00727375
 3c0:	2d6d7261 	sfmcs	f7, 2, [sp, #-388]!	; 0xfffffe7c
 3c4:	656e6f6e 	strbvs	r6, [lr, #-3950]!	; 0xfffff092
 3c8:	6261652d 	rsbvs	r6, r1, #188743680	; 0xb400000
 3cc:	6e692f69 	cdpvs	15, 6, cr2, cr9, cr9, {3}
 3d0:	64756c63 	ldrbtvs	r6, [r5], #-3171	; 0xfffff39d
 3d4:	79732f65 	ldmdbvc	r3!, {r0, r2, r5, r6, r8, r9, sl, fp, sp}^
 3d8:	6d630073 	stclvs	0, cr0, [r3, #-460]!	; 0xfffffe34
 3dc:	00736973 	rsbseq	r6, r3, r3, ror r9
 3e0:	6d632f2e 	stclvs	15, cr2, [r3, #-184]!	; 0xffffff48
 3e4:	2f736973 	svccs	0x00736973
 3e8:	34364b4d 	ldrtcc	r4, [r6], #-2893	; 0xfffff4b3
 3ec:	00323146 	eorseq	r3, r2, r6, asr #2
 3f0:	72617500 	rsbvc	r7, r1, #0, 10
 3f4:	00632e74 	rsbeq	r2, r3, r4, ror lr
 3f8:	5f000000 	svcpl	0x00000000
 3fc:	61666564 	cmnvs	r6, r4, ror #10
 400:	5f746c75 	svcpl	0x00746c75
 404:	65707974 	ldrbvs	r7, [r0, #-2420]!	; 0xfffff68c
 408:	00682e73 	rsbeq	r2, r8, r3, ror lr
 40c:	5f000001 	svcpl	0x00000001
 410:	69647473 	stmdbvs	r4!, {r0, r1, r4, r5, r6, sl, ip, sp, lr}^
 414:	682e746e 	stmdavs	lr!, {r1, r2, r3, r5, r6, sl, ip, sp, lr}
 418:	00000200 	andeq	r0, r0, r0, lsl #4
 41c:	65726f63 	ldrbvs	r6, [r2, #-3939]!	; 0xfffff09d
 420:	346d635f 	strbtcc	r6, [sp], #-863	; 0xfffffca1
 424:	0300682e 	movweq	r6, #2094	; 0x82e
 428:	79730000 	ldmdbvc	r3!, {}^	; <UNPREDICTABLE>
 42c:	6d657473 	cfstrdvs	mvd7, [r5, #-460]!	; 0xfffffe34
 430:	364b4d5f 			; <UNDEFINED> instruction: 0x364b4d5f
 434:	32314634 	eorscc	r4, r1, #52, 12	; 0x3400000
 438:	0400682e 	streq	r6, [r0], #-2094	; 0xfffff7d2
 43c:	4b4d0000 	blmi	1340444 <__exidx_end+0x133da8c>
 440:	31463436 	cmpcc	r6, r6, lsr r4
 444:	00682e32 	rsbeq	r2, r8, r2, lsr lr
 448:	75000004 	strvc	r0, [r0, #-4]
 44c:	2e747261 	cdpcs	2, 7, cr7, cr4, cr1, {3}
 450:	00000068 	andeq	r0, r0, r8, rrx
 454:	05000000 	streq	r0, [r0, #-0]
 458:	00078c02 	andeq	r8, r7, r2, lsl #24
 45c:	010d0300 	mrseq	r0, SP_mon
 460:	2e790319 	mrccs	3, 3, r0, cr9, cr9, {0}
 464:	14032227 	strne	r2, [r3], #-551	; 0xfffffdd9
 468:	206c034a 	rsbcs	r0, ip, sl, asr #6
 46c:	2e11034d 	cdpcs	3, 1, cr0, cr1, cr13, {2}
 470:	4c2e6f03 	stcmi	15, cr6, [lr], #-12
 474:	1103225a 	tstne	r3, sl, asr r2
 478:	206f0320 	rsbcs	r0, pc, r0, lsr #6
 47c:	40200b03 	eormi	r0, r0, r3, lsl #22
 480:	21212130 			; <UNDEFINED> instruction: 0x21212130
 484:	21212121 			; <UNDEFINED> instruction: 0x21212121
 488:	02306828 	eorseq	r6, r0, #40, 16	; 0x280000
 48c:	01010009 	tsteq	r1, r9
 490:	04020500 	streq	r0, [r2], #-1280	; 0xfffffb00
 494:	03000008 	movweq	r0, #8
 498:	160100e5 	strne	r0, [r1], -r5, ror #1
 49c:	01040200 	mrseq	r0, R12_usr
 4a0:	02023e4c 	andeq	r3, r2, #76, 28	; 0x4c0
 4a4:	00010100 	andeq	r0, r1, r0, lsl #2
 4a8:	08160205 	ldmdaeq	r6, {r0, r2, r9}
 4ac:	cd030000 	stcgt	0, cr0, [r3, #-0]
 4b0:	03200100 	nopeq	{0}	; <UNPREDICTABLE>
 4b4:	77032009 	strvc	r2, [r3, -r9]
 4b8:	200b0320 	andcs	r0, fp, r0, lsr #6
 4bc:	03200903 			; <UNDEFINED> instruction: 0x03200903
 4c0:	023e2079 	eorseq	r2, lr, #121	; 0x79
 4c4:	01010003 	tsteq	r1, r3
 4c8:	00020500 	andeq	r0, r2, r0, lsl #10
 4cc:	03000000 	movweq	r0, #0
 4d0:	190100f3 	stmdbne	r1, {r0, r1, r4, r5, r6, r7}
 4d4:	27342c50 			; <UNDEFINED> instruction: 0x27342c50
 4d8:	01000102 	tsteq	r0, r2, lsl #2
 4dc:	00012101 	andeq	r2, r1, r1, lsl #2
 4e0:	c4000200 	strgt	r0, [r0], #-512	; 0xfffffe00
 4e4:	02000000 	andeq	r0, r0, #0
 4e8:	0d0efb01 	vstreq	d15, [lr, #-4]
 4ec:	01010100 	mrseq	r0, (UNDEF: 17)
 4f0:	00000001 	andeq	r0, r0, r1
 4f4:	01000001 	tsteq	r0, r1
 4f8:	7273752f 	rsbsvc	r7, r3, #197132288	; 0xbc00000
 4fc:	6d72612f 	ldfvse	f6, [r2, #-188]!	; 0xffffff44
 500:	6e6f6e2d 	cdpvs	14, 6, cr6, cr15, cr13, {1}
 504:	61652d65 	cmnvs	r5, r5, ror #26
 508:	692f6962 	stmdbvs	pc!, {r1, r5, r6, r8, fp, sp, lr}	; <UNPREDICTABLE>
 50c:	756c636e 	strbvc	r6, [ip, #-878]!	; 0xfffffc92
 510:	6d2f6564 	cfstr32vs	mvfx6, [pc, #-400]!	; 388 <Heap_Size+0x288>
 514:	69686361 	stmdbvs	r8!, {r0, r5, r6, r8, r9, sp, lr}^
 518:	2f00656e 	svccs	0x0000656e
 51c:	2f727375 	svccs	0x00727375
 520:	2d6d7261 	sfmcs	f7, 2, [sp, #-388]!	; 0xfffffe7c
 524:	656e6f6e 	strbvs	r6, [lr, #-3950]!	; 0xfffff092
 528:	6261652d 	rsbvs	r6, r1, #188743680	; 0xb400000
 52c:	6e692f69 	cdpvs	15, 6, cr2, cr9, cr9, {3}
 530:	64756c63 	ldrbtvs	r6, [r5], #-3171	; 0xfffff39d
 534:	79732f65 	ldmdbvc	r3!, {r0, r2, r5, r6, r8, r9, sl, fp, sp}^
 538:	6d630073 	stclvs	0, cr0, [r3, #-460]!	; 0xfffffe34
 53c:	00736973 	rsbseq	r6, r3, r3, ror r9
 540:	6d632f2e 	stclvs	15, cr2, [r3, #-184]!	; 0xffffff48
 544:	2f736973 	svccs	0x00736973
 548:	34364b4d 	ldrtcc	r4, [r6], #-2893	; 0xfffff4b3
 54c:	00323146 	eorseq	r3, r2, r6, asr #2
 550:	6d777000 	ldclvs	0, cr7, [r7, #-0]
 554:	0000632e 	andeq	r6, r0, lr, lsr #6
 558:	645f0000 	ldrbvs	r0, [pc], #-0	; 560 <SystemInit+0x90>
 55c:	75616665 	strbvc	r6, [r1, #-1637]!	; 0xfffff99b
 560:	745f746c 	ldrbvc	r7, [pc], #-1132	; 568 <SystemInit+0x98>
 564:	73657079 	cmnvc	r5, #121	; 0x79
 568:	0100682e 	tsteq	r0, lr, lsr #16
 56c:	735f0000 	cmpvc	pc, #0
 570:	6e696474 	mcrvs	4, 3, r6, cr9, cr4, {3}
 574:	00682e74 	rsbeq	r2, r8, r4, ror lr
 578:	63000002 	movwvs	r0, #2
 57c:	5f65726f 	svcpl	0x0065726f
 580:	2e346d63 	cdpcs	13, 3, cr6, cr4, cr3, {3}
 584:	00030068 	andeq	r0, r3, r8, rrx
 588:	73797300 	cmnvc	r9, #0, 6
 58c:	5f6d6574 	svcpl	0x006d6574
 590:	34364b4d 	ldrtcc	r4, [r6], #-2893	; 0xfffff4b3
 594:	2e323146 	rsfcssm	f3, f2, f6
 598:	00040068 	andeq	r0, r4, r8, rrx
 59c:	364b4d00 	strbcc	r4, [fp], -r0, lsl #26
 5a0:	32314634 	eorscc	r4, r1, #52, 12	; 0x3400000
 5a4:	0400682e 	streq	r6, [r0], #-2094	; 0xfffff7d2
 5a8:	00000000 	andeq	r0, r0, r0
 5ac:	08300205 	ldmdaeq	r0!, {r0, r2, r9}
 5b0:	24030000 	strcs	r0, [r3], #-0
 5b4:	02911501 	addseq	r1, r1, #4194304	; 0x400000
 5b8:	0101000b 	tsteq	r1, fp
 5bc:	58020500 	stmdapl	r2, {r8, sl}
 5c0:	03000008 	movweq	r0, #8
 5c4:	76250134 			; <UNDEFINED> instruction: 0x76250134
 5c8:	401c326d 	andsmi	r3, ip, sp, ror #4
 5cc:	6923324f 	stmdbvs	r3!, {r0, r1, r2, r3, r6, r9, ip, sp}
 5d0:	002f2d21 	eoreq	r2, pc, r1, lsr #26
 5d4:	48020402 	stmdami	r2, {r1, sl}
 5d8:	21342d44 	teqcs	r4, r4, asr #26
 5dc:	7a03271f 	bvc	ca260 <__exidx_end+0xc78a8>
 5e0:	7a035e2e 	bvc	d7ea0 <__exidx_end+0xd54e8>
 5e4:	343f2620 	ldrtcc	r2, [pc], #-1568	; 5ec <PIDInitialize+0x34>
 5e8:	0c024e4c 	stceq	14, cr4, [r2], {76}	; 0x4c
 5ec:	00010100 	andeq	r0, r1, r0, lsl #2
 5f0:	09040205 	stmdbeq	r4, {r0, r2, r9}
 5f4:	fc030000 	stc2	0, cr0, [r3], {-0}
 5f8:	5c140100 	ldfpls	f0, [r4], {-0}
 5fc:	000a023e 	andeq	r0, sl, lr, lsr r2
 600:	022e0101 	eoreq	r0, lr, #1073741824	; 0x40000000
 604:	00020000 	andeq	r0, r2, r0
 608:	00000166 	andeq	r0, r0, r6, ror #2
 60c:	0efb0102 	cdpeq	1, 15, cr0, cr11, cr2, {0}
 610:	0101000d 	tsteq	r1, sp
 614:	00000101 	andeq	r0, r0, r1, lsl #2
 618:	00000100 	andeq	r0, r0, r0, lsl #2
 61c:	73752f01 	cmnvc	r5, #1, 30
 620:	72612f72 	rsbvc	r2, r1, #456	; 0x1c8
 624:	6f6e2d6d 	svcvs	0x006e2d6d
 628:	652d656e 	strvs	r6, [sp, #-1390]!	; 0xfffffa92
 62c:	2f696261 	svccs	0x00696261
 630:	6c636e69 	stclvs	14, cr6, [r3], #-420	; 0xfffffe5c
 634:	2f656475 	svccs	0x00656475
 638:	6863616d 	stmdavs	r3!, {r0, r2, r3, r5, r6, r8, sp, lr}^
 63c:	00656e69 	rsbeq	r6, r5, r9, ror #28
 640:	7273752f 	rsbsvc	r7, r3, #197132288	; 0xbc00000
 644:	6d72612f 	ldfvse	f6, [r2, #-188]!	; 0xffffff44
 648:	6e6f6e2d 	cdpvs	14, 6, cr6, cr15, cr13, {1}
 64c:	61652d65 	cmnvs	r5, r5, ror #26
 650:	692f6962 	stmdbvs	pc!, {r1, r5, r6, r8, fp, sp, lr}	; <UNPREDICTABLE>
 654:	756c636e 	strbvc	r6, [ip, #-878]!	; 0xfffffc92
 658:	732f6564 			; <UNDEFINED> instruction: 0x732f6564
 65c:	63007379 	movwvs	r7, #889	; 0x379
 660:	7369736d 	cmnvc	r9, #-1275068415	; 0xb4000001
 664:	632f2e00 			; <UNDEFINED> instruction: 0x632f2e00
 668:	7369736d 	cmnvc	r9, #-1275068415	; 0xb4000001
 66c:	364b4d2f 	strbcc	r4, [fp], -pc, lsr #26
 670:	32314634 	eorscc	r4, r1, #52, 12	; 0x3400000
 674:	73752f00 	cmnvc	r5, #0, 30
 678:	696c2f72 	stmdbvs	ip!, {r1, r4, r5, r6, r8, r9, sl, fp, sp}^
 67c:	63672f62 	cmnvs	r7, #392	; 0x188
 680:	72612f63 	rsbvc	r2, r1, #396	; 0x18c
 684:	6f6e2d6d 	svcvs	0x006e2d6d
 688:	652d656e 	strvs	r6, [sp, #-1390]!	; 0xfffffa92
 68c:	2f696261 	svccs	0x00696261
 690:	2e312e36 	mrccs	14, 1, r2, cr1, cr6, {1}
 694:	6e692f31 	mcrvs	15, 3, r2, cr9, cr1, {1}
 698:	64756c63 	ldrbtvs	r6, [r5], #-3171	; 0xfffff39d
 69c:	752f0065 	strvc	r0, [pc, #-101]!	; 63f <PIDUpdate+0x13>
 6a0:	612f7273 			; <UNDEFINED> instruction: 0x612f7273
 6a4:	6e2d6d72 	mcrvs	13, 1, r6, cr13, cr2, {3}
 6a8:	2d656e6f 	stclcs	14, cr6, [r5, #-444]!	; 0xfffffe44
 6ac:	69626165 	stmdbvs	r2!, {r0, r2, r5, r6, r8, sp, lr}^
 6b0:	636e692f 	cmnvs	lr, #770048	; 0xbc000
 6b4:	6564756c 	strbvs	r7, [r4, #-1388]!	; 0xfffffa94
 6b8:	616d0000 	cmnvs	sp, r0
 6bc:	632e6e69 			; <UNDEFINED> instruction: 0x632e6e69
 6c0:	00000000 	andeq	r0, r0, r0
 6c4:	6665645f 			; <UNDEFINED> instruction: 0x6665645f
 6c8:	746c7561 	strbtvc	r7, [ip], #-1377	; 0xfffffa9f
 6cc:	7079745f 	rsbsvc	r7, r9, pc, asr r4
 6d0:	682e7365 	stmdavs	lr!, {r0, r2, r5, r6, r8, r9, ip, sp, lr}
 6d4:	00000100 	andeq	r0, r0, r0, lsl #2
 6d8:	6474735f 	ldrbtvs	r7, [r4], #-863	; 0xfffffca1
 6dc:	2e746e69 	cdpcs	14, 7, cr6, cr4, cr9, {3}
 6e0:	00020068 	andeq	r0, r2, r8, rrx
 6e4:	726f6300 	rsbvc	r6, pc, #0, 6
 6e8:	6d635f65 	stclvs	15, cr5, [r3, #-404]!	; 0xfffffe6c
 6ec:	00682e34 	rsbeq	r2, r8, r4, lsr lr
 6f0:	73000003 	movwvc	r0, #3
 6f4:	65747379 	ldrbvs	r7, [r4, #-889]!	; 0xfffffc87
 6f8:	4b4d5f6d 	blmi	13584b4 <__exidx_end+0x1355afc>
 6fc:	31463436 	cmpcc	r6, r6, lsr r4
 700:	00682e32 	rsbeq	r2, r8, r2, lsr lr
 704:	4d000004 	stcmi	0, cr0, [r0, #-16]
 708:	4634364b 	ldrtmi	r3, [r4], -fp, asr #12
 70c:	682e3231 	stmdavs	lr!, {r0, r4, r5, r9, ip, sp}
 710:	00000400 	andeq	r0, r0, r0, lsl #8
 714:	74726175 	ldrbtvc	r6, [r2], #-373	; 0xfffffe8b
 718:	0000682e 	andeq	r6, r0, lr, lsr #16
 71c:	69730000 	ldmdbvs	r3!, {}^	; <UNPREDICTABLE>
 720:	00682e6e 	rsbeq	r2, r8, lr, ror #28
 724:	50000000 	andpl	r0, r0, r0
 728:	682e4449 	stmdavs	lr!, {r0, r3, r6, sl, lr}
 72c:	00000000 	andeq	r0, r0, r0
 730:	6b636f6c 	blvs	18dc4e8 <__exidx_end+0x18d9b30>
 734:	0200682e 	andeq	r6, r0, #3014656	; 0x2e0000
 738:	745f0000 	ldrbvc	r0, [pc], #-0	; 740 <startPIT0+0x44>
 73c:	73657079 	cmnvc	r5, #121	; 0x79
 740:	0200682e 	andeq	r6, r0, #3014656	; 0x2e0000
 744:	74730000 	ldrbtvc	r0, [r3], #-0
 748:	66656464 	strbtvs	r6, [r5], -r4, ror #8
 74c:	0500682e 	streq	r6, [r0, #-2094]	; 0xfffff7d2
 750:	65720000 	ldrbvs	r0, [r2, #-0]!
 754:	2e746e65 	cdpcs	14, 7, cr6, cr4, cr5, {3}
 758:	00020068 	andeq	r0, r2, r8, rrx
 75c:	63646100 	cmnvs	r4, #0, 2
 760:	0000682e 	andeq	r6, r0, lr, lsr #16
 764:	74730000 	ldrbtvc	r0, [r3], #-0
 768:	2e6f6964 	vnmulcs.f16	s13, s30, s9	; <UNPREDICTABLE>
 76c:	00060068 	andeq	r0, r6, r8, rrx
 770:	05000000 	streq	r0, [r0, #-0]
 774:	00092802 	andeq	r2, r9, r2, lsl #16
 778:	01ac0300 			; <UNDEFINED> instruction: 0x01ac0300
 77c:	212f2101 			; <UNDEFINED> instruction: 0x212f2101
 780:	31712108 	cmncc	r1, r8, lsl #2
 784:	1f59222d 	svcne	0x0059222d
 788:	2f1f3d2f 	svccs	0x001f3d2f
 78c:	08233f3d 	stmdaeq	r3!, {r0, r2, r3, r4, r5, r8, r9, sl, fp, ip, sp}
 790:	9f269d21 	svcls	0x00269d21
 794:	21213b2f 			; <UNDEFINED> instruction: 0x21213b2f
 798:	003d3d5a 	eorseq	r3, sp, sl, asr sp
 79c:	03010402 	movweq	r0, #5122	; 0x1402
 7a0:	3d426669 	stclcc	6, cr6, [r2, #-420]	; 0xfffffe5c
 7a4:	01040200 	mrseq	r0, R12_usr
 7a8:	0022024e 	eoreq	r0, r2, lr, asr #4
 7ac:	05000101 	streq	r0, [r0, #-257]	; 0xfffffeff
 7b0:	000a6c02 	andeq	r6, sl, r2, lsl #24
 7b4:	011a0300 	tsteq	sl, r0, lsl #6
 7b8:	4a0a0333 	bmi	28148c <__exidx_end+0x27ead4>
 7bc:	292e7603 	stmdbcs	lr!, {r0, r1, r9, sl, ip, sp, lr}
 7c0:	0a034b32 	beq	d3490 <__exidx_end+0xd0ad8>
 7c4:	76034a08 	strvc	r4, [r3], -r8, lsl #20
 7c8:	4b832120 	blmi	fe0c8c50 <__stack+0xde098c50>
 7cc:	1b5d2f4b 	blne	174c500 <__exidx_end+0x1749b48>
 7d0:	08180841 	ldmdaeq	r8, {r0, r6, fp}
 7d4:	312ae825 			; <UNDEFINED> instruction: 0x312ae825
 7d8:	21302d21 	teqcs	r0, r1, lsr #26
 7dc:	2000e003 	andcs	lr, r0, r3
 7e0:	207fa003 	rsbscs	sl, pc, r3
 7e4:	2000e003 	andcs	lr, r0, r3
 7e8:	4a7f9f03 	bmi	1fe83fc <__exidx_end+0x1fe5a44>
 7ec:	2000e103 	andcs	lr, r0, r3, lsl #2
 7f0:	0325302f 			; <UNDEFINED> instruction: 0x0325302f
 7f4:	14082e79 	strne	r2, [r8], #-3705	; 0xfffff187
 7f8:	0326212c 			; <UNDEFINED> instruction: 0x0326212c
 7fc:	2f75207a 	svccs	0x0075207a
 800:	004c4b4b 	subeq	r4, ip, fp, asr #22
 804:	06010402 	streq	r0, [r1], -r2, lsl #8
 808:	04020020 	streq	r0, [r2], #-32	; 0xffffffe0
 80c:	00320601 	eorseq	r0, r2, r1, lsl #12
 810:	1c010402 	cfstrsne	mvf0, [r1], {2}
 814:	01040200 	mrseq	r0, R12_usr
 818:	02006a08 	andeq	r6, r0, #8, 20	; 0x8000
 81c:	024b0104 	subeq	r0, fp, #4, 2
 820:	01010041 	tsteq	r1, r1, asr #32
 824:	00020500 	andeq	r0, r2, r0, lsl #10
 828:	03000000 	movweq	r0, #0
 82c:	020101dc 	andeq	r0, r1, #220, 2	; 0x37
 830:	01010001 	tsteq	r1, r1
 834:	0000015c 	andeq	r0, r0, ip, asr r1
 838:	00c10002 	sbceq	r0, r1, r2
 83c:	01020000 	mrseq	r0, (UNDEF: 2)
 840:	000d0efb 	strdeq	r0, [sp], -fp
 844:	01010101 	tsteq	r1, r1, lsl #2
 848:	01000000 	mrseq	r0, (UNDEF: 0)
 84c:	63010000 	movwvs	r0, #4096	; 0x1000
 850:	7369736d 	cmnvc	r9, #-1275068415	; 0xb4000001
 854:	73752f00 	cmnvc	r5, #0, 30
 858:	72612f72 	rsbvc	r2, r1, #456	; 0x1c8
 85c:	6f6e2d6d 	svcvs	0x006e2d6d
 860:	652d656e 	strvs	r6, [sp, #-1390]!	; 0xfffffa92
 864:	2f696261 	svccs	0x00696261
 868:	6c636e69 	stclvs	14, cr6, [r3], #-420	; 0xfffffe5c
 86c:	2f656475 	svccs	0x00656475
 870:	6863616d 	stmdavs	r3!, {r0, r2, r3, r5, r6, r8, sp, lr}^
 874:	00656e69 	rsbeq	r6, r5, r9, ror #28
 878:	7273752f 	rsbsvc	r7, r3, #197132288	; 0xbc00000
 87c:	6d72612f 	ldfvse	f6, [r2, #-188]!	; 0xffffff44
 880:	6e6f6e2d 	cdpvs	14, 6, cr6, cr15, cr13, {1}
 884:	61652d65 	cmnvs	r5, r5, ror #26
 888:	692f6962 	stmdbvs	pc!, {r1, r5, r6, r8, fp, sp, lr}	; <UNPREDICTABLE>
 88c:	756c636e 	strbvc	r6, [ip, #-878]!	; 0xfffffc92
 890:	732f6564 			; <UNDEFINED> instruction: 0x732f6564
 894:	2e007379 	mcrcs	3, 0, r7, cr0, cr9, {3}
 898:	736d632f 	cmnvc	sp, #-1140850688	; 0xbc000000
 89c:	4d2f7369 	stcmi	3, cr7, [pc, #-420]!	; 700 <startPIT0+0x4>
 8a0:	4634364b 	ldrtmi	r3, [r4], -fp, asr #12
 8a4:	00003231 	andeq	r3, r0, r1, lsr r2
 8a8:	2e636461 	cdpcs	4, 6, cr6, cr3, cr1, {3}
 8ac:	00000063 	andeq	r0, r0, r3, rrx
 8b0:	726f6300 	rsbvc	r6, pc, #0, 6
 8b4:	6d635f65 	stclvs	15, cr5, [r3, #-404]!	; 0xfffffe6c
 8b8:	00682e34 	rsbeq	r2, r8, r4, lsr lr
 8bc:	63000001 	movwvs	r0, #1
 8c0:	5f65726f 	svcpl	0x0065726f
 8c4:	75466d63 	strbvc	r6, [r6, #-3427]	; 0xfffff29d
 8c8:	682e636e 	stmdavs	lr!, {r1, r2, r3, r5, r6, r8, r9, sp, lr}
 8cc:	00000100 	andeq	r0, r0, r0, lsl #2
 8d0:	6665645f 			; <UNDEFINED> instruction: 0x6665645f
 8d4:	746c7561 	strbtvc	r7, [ip], #-1377	; 0xfffffa9f
 8d8:	7079745f 	rsbsvc	r7, r9, pc, asr r4
 8dc:	682e7365 	stmdavs	lr!, {r0, r2, r5, r6, r8, r9, ip, sp, lr}
 8e0:	00000200 	andeq	r0, r0, r0, lsl #4
 8e4:	6474735f 	ldrbtvs	r7, [r4], #-863	; 0xfffffca1
 8e8:	2e746e69 	cdpcs	14, 7, cr6, cr4, cr9, {3}
 8ec:	00030068 	andeq	r0, r3, r8, rrx
 8f0:	364b4d00 	strbcc	r4, [fp], -r0, lsl #26
 8f4:	32314634 	eorscc	r4, r1, #52, 12	; 0x3400000
 8f8:	0400682e 	streq	r6, [r0], #-2094	; 0xfffff7d2
 8fc:	00000000 	andeq	r0, r0, r0
 900:	00000205 	andeq	r0, r0, r5, lsl #4
 904:	19030000 	stmdbne	r3, {}	; <UNPREDICTABLE>
 908:	4b751401 	blmi	1d45914 <__exidx_end+0x1d42f5c>
 90c:	01000902 	tsteq	r0, r2, lsl #18
 910:	02050001 	andeq	r0, r5, #1
 914:	00000000 	andeq	r0, r0, r0
 918:	14012003 	strne	r2, [r1], #-3
 91c:	023d4c76 	eorseq	r4, sp, #30208	; 0x7600
 920:	01010008 	tsteq	r1, r8
 924:	9c020500 	cfstr32ls	mvfx0, [r2], {-0}
 928:	0300000c 	movweq	r0, #12
 92c:	3e24012a 	sufccsp	f0, f4, #2.0
 930:	40344c1e 	eorsmi	r4, r4, lr, lsl ip
 934:	01040200 	mrseq	r0, R12_usr
 938:	2f21593d 	svccs	0x0021593d
 93c:	2f2f2f2f 	svccs	0x002f2f2f
 940:	21212f21 			; <UNDEFINED> instruction: 0x21212f21
 944:	2f2f2f2f 	svccs	0x002f2f2f
 948:	032f212f 			; <UNDEFINED> instruction: 0x032f212f
 94c:	0422200c 	strteq	r2, [r2], #-12
 950:	0ae20302 	beq	ff881560 <__stack+0xdf851560>
 954:	0303044a 	movweq	r0, #13386	; 0x344a
 958:	024a778d 	subeq	r7, sl, #36962304	; 0x2340000
 95c:	0101000d 	tsteq	r1, sp
 960:	30020500 	andcc	r0, r2, r0, lsl #10
 964:	0300000d 	movweq	r0, #13
 968:	040100e2 	streq	r0, [r1], #-226	; 0xffffff1e
 96c:	01f30303 	mvnseq	r0, r3, lsl #6
 970:	03010420 	movweq	r0, #5152	; 0x1420
 974:	00207e90 	mlaeq	r0, r0, lr, r7
 978:	06010402 	streq	r0, [r1], -r2, lsl #8
 97c:	2f3d0666 	svccs	0x003d0666
 980:	0304914d 	movweq	r9, #16717	; 0x414d
 984:	3c01df03 	stccc	15, cr13, [r1], {3}
 988:	a3030104 	movwge	r0, #12548	; 0x3104
 98c:	023d207e 	eorseq	r2, sp, #126	; 0x7e
 990:	0101000b 	tsteq	r1, fp
 994:	00000071 	andeq	r0, r0, r1, ror r0
 998:	00380002 	eorseq	r0, r8, r2
 99c:	01020000 	mrseq	r0, (UNDEF: 2)
 9a0:	000d0efb 	strdeq	r0, [sp], -fp
 9a4:	01010101 	tsteq	r1, r1, lsl #2
 9a8:	01000000 	mrseq	r0, (UNDEF: 0)
 9ac:	2e010000 	cdpcs	0, 0, cr0, cr1, cr0, {0}
 9b0:	736d632f 	cmnvc	sp, #-1140850688	; 0xbc000000
 9b4:	4d2f7369 	stcmi	3, cr7, [pc, #-420]!	; 818 <uartPutString+0x2>
 9b8:	4634364b 	ldrtmi	r3, [r4], -fp, asr #12
 9bc:	00003231 	andeq	r3, r0, r1, lsr r2
 9c0:	72617473 	rsbvc	r7, r1, #1929379840	; 0x73000000
 9c4:	5f707574 	svcpl	0x00707574
 9c8:	34364b4d 	ldrtcc	r4, [r6], #-2893	; 0xfffff4b3
 9cc:	2e323146 	rsfcssm	f3, f2, f6
 9d0:	00010073 	andeq	r0, r1, r3, ror r0
 9d4:	05000000 	streq	r0, [r0, #-0]
 9d8:	000d8802 	andeq	r8, sp, r2, lsl #16
 9dc:	01c90300 	biceq	r0, r9, r0, lsl #6
 9e0:	03212101 			; <UNDEFINED> instruction: 0x03212101
 9e4:	2221200d 	eorcs	r2, r1, #13
 9e8:	24212121 	strtcs	r2, [r1], #-289	; 0xfffffedf
 9ec:	03212121 			; <UNDEFINED> instruction: 0x03212121
 9f0:	2f2f2e64 	svccs	0x002f2e64
 9f4:	302e1703 	eorcc	r1, lr, r3, lsl #14
 9f8:	2f2e1603 	svccs	0x002e1603
 9fc:	2f2f2f2f 	svccs	0x002f2f2f
 a00:	2f2f2f2f 	svccs	0x002f2f2f
 a04:	01000202 	tsteq	r0, r2, lsl #4
 a08:	Address 0x0000000000000a08 is out of bounds.


Disassembly of section .debug_str:

00000000 <.debug_str>:
       0:	54504f53 	ldrbpl	r4, [r0], #-3923	; 0xfffff0ad
       4:	43460035 	movtmi	r0, #24629	; 0x6035
       8:	00314746 	eorseq	r4, r1, r6, asr #14
       c:	47464346 	strbmi	r4, [r6, -r6, asr #6]
      10:	4d540032 	ldclmi	0, cr0, [r4, #-200]	; 0xffffff38
      14:	54554f52 	ldrbpl	r4, [r5], #-3922	; 0xfffff0ae
      18:	2f2e004c 	svccs	0x002e004c
      1c:	69736d63 	ldmdbvs	r3!, {r0, r1, r5, r6, r8, sl, fp, sp, lr}^
      20:	4b4d2f73 	blmi	134bdf4 <__exidx_end+0x134943c>
      24:	31463436 	cmpcc	r6, r6, lsr r4
      28:	79732f32 	ldmdbvc	r3!, {r1, r4, r5, r8, r9, sl, fp, sp}^
      2c:	6d657473 	cfstrdvs	mvd7, [r5, #-460]!	; 0xfffffe34
      30:	364b4d5f 			; <UNDEFINED> instruction: 0x364b4d5f
      34:	32314634 	eorscc	r4, r1, #52, 12	; 0x3400000
      38:	5000632e 	andpl	r6, r0, lr, lsr #6
      3c:	43534552 	cmpmi	r3, #343932928	; 0x14800000
      40:	49445300 	stmdbmi	r4, {r8, r9, ip, lr}^
      44:	4f530044 	svcmi	0x00530044
      48:	43315450 	teqmi	r1, #80, 8	; 0x50000000
      4c:	41004746 	tstmi	r0, r6, asr #14
      50:	48564354 	ldmdami	r6, {r2, r4, r6, r8, r9, lr}^
      54:	7a697300 	bvc	1a5cc5c <__exidx_end+0x1a5a2a4>
      58:	70797465 	rsbsvc	r7, r9, r5, ror #8
      5c:	79530065 	ldmdbvc	r3, {r0, r2, r5, r6}^
      60:	6d657473 	cfstrdvs	mvd7, [r5, #-460]!	; 0xfffffe34
      64:	65726f43 	ldrbvs	r6, [r2, #-3907]!	; 0xfffff0bd
      68:	636f6c43 	cmnvs	pc, #17152	; 0x4300
      6c:	6470556b 	ldrbtvs	r5, [r0], #-1387	; 0xfffffa95
      70:	00657461 	rsbeq	r7, r5, r1, ror #8
      74:	53474552 	movtpl	r4, #30034	; 0x7552
      78:	5f5f0043 	svcpl	0x005f0043
      7c:	746e6975 	strbtvc	r6, [lr], #-2421	; 0xfffff68b
      80:	745f3233 	ldrbvc	r3, [pc], #-563	; 88 <__isr_vector+0x88>
      84:	524d5400 	subpl	r5, sp, #0, 8
      88:	4854554f 	ldmdami	r4, {r0, r1, r2, r3, r6, r8, sl, ip, lr}^
      8c:	4d495300 	stclmi	3, cr5, [r9, #-0]
      90:	7079545f 	rsbsvc	r5, r9, pc, asr r4
      94:	5f5f0065 	svcpl	0x005f0065
      98:	746e6975 	strbtvc	r6, [lr], #-2421	; 0xfffff68b
      9c:	745f3631 	ldrbvc	r3, [pc], #-1585	; a4 <__isr_vector+0xa4>
      a0:	44495500 	strbmi	r5, [r9], #-1280	; 0xfffffb00
      a4:	68730048 	ldmdavs	r3!, {r3, r6}^
      a8:	2074726f 	rsbscs	r7, r4, pc, ror #4
      ac:	00746e69 	rsbseq	r6, r4, r9, ror #28
      b0:	4c444955 	mcrrmi	9, 5, r4, r4, cr5	; <UNPREDICTABLE>
      b4:	564f5400 	strbpl	r5, [pc], -r0, lsl #8
      b8:	00484c41 	subeq	r4, r8, r1, asr #24
      bc:	20554e47 	subscs	r4, r5, r7, asr #28
      c0:	20393943 	eorscs	r3, r9, r3, asr #18
      c4:	2e322e35 	mrccs	14, 1, r2, cr2, cr5, {1}
      c8:	6d2d2030 	stcvs	0, cr2, [sp, #-192]!	; 0xffffff40
      cc:	6d756874 	ldclvs	8, cr6, [r5, #-464]!	; 0xfffffe30
      d0:	6d2d2062 	stcvs	0, cr2, [sp, #-392]!	; 0xfffffe78
      d4:	3d757063 	ldclcc	0, cr7, [r5, #-396]!	; 0xfffffe74
      d8:	74726f63 	ldrbtvc	r6, [r2], #-3939	; 0xfffff09d
      dc:	6d2d7865 	stcvs	8, cr7, [sp, #-404]!	; 0xfffffe6c
      e0:	672d2034 			; <UNDEFINED> instruction: 0x672d2034
      e4:	67672d20 	strbvs	r2, [r7, -r0, lsr #26]!
      e8:	2d206264 	sfmcs	f6, 4, [r0, #-400]!	; 0xfffffe70
      ec:	2d20734f 	stccs	3, cr7, [r0, #-316]!	; 0xfffffec4
      f0:	3d647473 	cfstrdcc	mvd7, [r4, #-460]!	; 0xfffffe34
      f4:	39756e67 	ldmdbcc	r5!, {r0, r1, r2, r5, r6, r9, sl, fp, sp, lr}^
      f8:	662d2039 			; <UNDEFINED> instruction: 0x662d2039
      fc:	732d6f6e 			; <UNDEFINED> instruction: 0x732d6f6e
     100:	63697274 	cmnvs	r9, #116, 4	; 0x40000007
     104:	6c612d74 	stclvs	13, cr2, [r1], #-464	; 0xfffffe30
     108:	69736169 	ldmdbvs	r3!, {r0, r3, r5, r6, r8, sp, lr}^
     10c:	2d20676e 	stccs	7, cr6, [r0, #-440]!	; 0xfffffe48
     110:	6e756666 	cdpvs	6, 7, cr6, cr5, cr6, {3}
     114:	6f697463 	svcvs	0x00697463
     118:	65732d6e 	ldrbvs	r2, [r3, #-3438]!	; 0xfffff292
     11c:	6f697463 	svcvs	0x00697463
     120:	2d20736e 	stccs	3, cr7, [r0, #-440]!	; 0xfffffe48
     124:	74616466 	strbtvc	r6, [r1], #-1126	; 0xfffffb9a
     128:	65732d61 	ldrbvs	r2, [r3, #-3425]!	; 0xfffff29f
     12c:	6f697463 	svcvs	0x00697463
     130:	2d20736e 	stccs	3, cr7, [r0, #-440]!	; 0xfffffe48
     134:	2d6f6e66 	stclcs	14, cr6, [pc, #-408]!	; ffffffa4 <__stack+0xdffcffa4>
     138:	65637865 	strbvs	r7, [r3, #-2149]!	; 0xfffff79b
     13c:	6f697470 	svcvs	0x00697470
     140:	2d20736e 	stccs	3, cr7, [r0, #-440]!	; 0xfffffe48
     144:	2d6f6e66 	stclcs	14, cr6, [pc, #-408]!	; ffffffb4 <__stack+0xdffcffb4>
     148:	656c6564 	strbvs	r6, [ip, #-1380]!	; 0xfffffa9c
     14c:	6e2d6574 	mcrvs	5, 1, r6, cr13, cr4, {3}
     150:	2d6c6c75 	stclcs	12, cr6, [ip, #-468]!	; 0xfffffe2c
     154:	6e696f70 	mcrvs	15, 3, r6, cr9, cr0, {3}
     158:	2d726574 	cfldr64cs	mvdx6, [r2, #-464]!	; 0xfffffe30
     15c:	63656863 	cmnvs	r5, #6488064	; 0x630000
     160:	2d20736b 	stccs	3, cr7, [r0, #-428]!	; 0xfffffe54
     164:	73656d66 	cmnvc	r5, #6528	; 0x1980
     168:	65676173 	strbvs	r6, [r7, #-371]!	; 0xfffffe8d
     16c:	6e656c2d 	cdpvs	12, 6, cr6, cr5, cr13, {1}
     170:	3d687467 	cfstrdcc	mvd7, [r8, #-412]!	; 0xfffffe64
     174:	662d2030 			; <UNDEFINED> instruction: 0x662d2030
     178:	622d6f6e 	eorvs	r6, sp, #440	; 0x1b8
     17c:	746c6975 	strbtvc	r6, [ip], #-2421	; 0xfffff68b
     180:	54006e69 	strpl	r6, [r0], #-3689	; 0xfffff197
     184:	4c41564f 	mcrrmi	6, 4, r5, r1, cr15
     188:	5453004c 	ldrbpl	r0, [r3], #-76	; 0xffffffb4
     18c:	4c525443 	cfldrdmi	mvd5, [r2], {67}	; 0x43
     190:	6f6c0048 	svcvs	0x006c0048
     194:	6c20676e 	stcvs	7, cr6, [r0], #-440	; 0xfffffe48
     198:	20676e6f 	rsbcs	r6, r7, pc, ror #28
     19c:	00746e69 	rsbseq	r6, r4, r9, ror #28
     1a0:	4f4c4e55 	svcmi	0x004c4e55
     1a4:	53004b43 	movwpl	r4, #2883	; 0xb43
     1a8:	31434743 	cmpcc	r3, r3, asr #14
     1ac:	47435300 	strbmi	r5, [r3, -r0, lsl #6]
     1b0:	53003243 	movwpl	r3, #579	; 0x243
     1b4:	33434743 	movtcc	r4, #14147	; 0x3743
     1b8:	47435300 	strbmi	r5, [r3, -r0, lsl #6]
     1bc:	53003443 	movwpl	r3, #1091	; 0x443
     1c0:	35434743 	strbcc	r4, [r3, #-1859]	; 0xfffff8bd
     1c4:	47435300 	strbmi	r5, [r3, -r0, lsl #6]
     1c8:	53003643 	movwpl	r3, #1603	; 0x643
     1cc:	37434743 	strbcc	r4, [r3, -r3, asr #14]
     1d0:	44495500 	strbmi	r5, [r9], #-1280	; 0xfffffb00
     1d4:	5700484d 	strpl	r4, [r0, -sp, asr #16]
     1d8:	5f474f44 	svcpl	0x00474f44
     1dc:	65707954 	ldrbvs	r7, [r0, #-2388]!	; 0xfffff6ac
     1e0:	43504700 	cmpmi	r0, #0, 14
     1e4:	53005248 	movwpl	r5, #584	; 0x248
     1e8:	3754504f 	ldrbcc	r5, [r4, -pc, asr #32]
     1ec:	4b4c4300 	blmi	1310df4 <__exidx_end+0x130e43c>
     1f0:	31564944 	cmpcc	r6, r4, asr #18
     1f4:	4b4c4300 	blmi	1310dfc <__exidx_end+0x130e444>
     1f8:	32564944 	subscc	r4, r6, #68, 18	; 0x110000
     1fc:	736e7500 	cmnvc	lr, #0, 10
     200:	656e6769 	strbvs	r6, [lr, #-1897]!	; 0xfffff897
     204:	68632064 	stmdavs	r3!, {r2, r5, r6, sp}^
     208:	49007261 	stmdbmi	r0, {r0, r5, r6, r9, ip, sp, lr}
     20c:	00524653 	subseq	r4, r2, r3, asr r6
     210:	676e6f6c 	strbvs	r6, [lr, -ip, ror #30]!
     214:	6e6f6c20 	cdpvs	12, 6, cr6, cr15, cr0, {1}
     218:	6e752067 	cdpvs	0, 7, cr2, cr5, cr7, {3}
     21c:	6e676973 			; <UNDEFINED> instruction: 0x6e676973
     220:	69206465 	stmdbvs	r0!, {r0, r2, r5, r6, sl, sp, lr}
     224:	4700746e 	strmi	r7, [r0, -lr, ror #8]
     228:	524c4350 	subpl	r4, ip, #80, 6	; 0x40000001
     22c:	54535200 	ldrbpl	r5, [r3], #-512	; 0xfffffe00
     230:	00544e43 	subseq	r4, r4, r3, asr #28
     234:	5344564c 	movtpl	r5, #17996	; 0x464c
     238:	4c003143 	stfmis	f3, [r0], {67}	; 0x43
     23c:	43534456 	cmpmi	r3, #1442840576	; 0x56000000
     240:	46440032 			; <UNDEFINED> instruction: 0x46440032
     244:	53005243 	movwpl	r5, #579	; 0x243
     248:	65747379 	ldrbvs	r7, [r4, #-889]!	; 0xfffffc87
     24c:	696e496d 	stmdbvs	lr!, {r0, r2, r3, r5, r6, r8, fp, lr}^
     250:	68730074 	ldmdavs	r3!, {r2, r4, r5, r6}^
     254:	2074726f 	rsbscs	r7, r4, pc, ror #4
     258:	69736e75 	ldmdbvs	r3!, {r0, r2, r4, r5, r6, r9, sl, fp, sp, lr}^
     25c:	64656e67 	strbtvs	r6, [r5], #-3687	; 0xfffff199
     260:	746e6920 	strbtvc	r6, [lr], #-2336	; 0xfffff6e0
     264:	76694400 	strbtvc	r4, [r9], -r0, lsl #8
     268:	72656469 	rsbvc	r6, r5, #1761607680	; 0x69000000
     26c:	75722f00 	ldrbvc	r2, [r2, #-3840]!	; 0xfffff100
     270:	656d2f6e 	strbvs	r2, [sp, #-3950]!	; 0xfffff092
     274:	2f616964 	svccs	0x00616964
     278:	69726863 	ldmdbvs	r2!, {r0, r1, r5, r6, fp, sp, lr}^
     27c:	45432f73 	strbmi	r2, [r3, #-3955]	; 0xfffff08d
     280:	44373431 	ldrtmi	r3, [r7], #-1073	; 0xfffffbcf
     284:	34313142 	ldrtcc	r3, [r1], #-322	; 0xfffffebe
     288:	44394437 	ldrtmi	r4, [r9], #-1079	; 0xfffffbc9
     28c:	552f3136 	strpl	r3, [pc, #-310]!	; 15e <Heap_Size+0x5e>
     290:	73726573 	cmnvc	r2, #482344960	; 0x1cc00000
     294:	7268632f 	rsbvc	r6, r8, #-1140850688	; 0xbc000000
     298:	772f7369 	strvc	r7, [pc, -r9, ror #6]!
     29c:	736b726f 	cmnvc	fp, #-268435450	; 0xf0000006
     2a0:	65636170 	strbvs	r6, [r3, #-368]!	; 0xfffffe90
     2a4:	6469772f 	strbtvs	r7, [r9], #-1839	; 0xfffff8d1
     2a8:	6e616265 	cdpvs	2, 6, cr6, cr1, cr5, {3}
     2ac:	00326f64 	eorseq	r6, r2, r4, ror #30
     2b0:	5f47434d 	svcpl	0x0047434d
     2b4:	65707954 	ldrbvs	r7, [r0, #-2388]!	; 0xfffff6ac
     2b8:	504f5300 	subpl	r5, pc, r0, lsl #6
     2bc:	53003154 	movwpl	r3, #340	; 0x154
     2c0:	65747379 	ldrbvs	r7, [r4, #-889]!	; 0xfffffc87
     2c4:	726f436d 	rsbvc	r4, pc, #-1275068415	; 0xb4000001
     2c8:	6f6c4365 	svcvs	0x006c4365
     2cc:	53006b63 	movwpl	r6, #2915	; 0xb63
     2d0:	3254504f 	subscc	r5, r4, #79	; 0x4f
     2d4:	43534f00 	cmpmi	r3, #0, 30
     2d8:	7079545f 	rsbsvc	r5, r9, pc, asr r4
     2dc:	45520065 	ldrbmi	r0, [r2, #-101]	; 0xffffff9b
     2e0:	53455246 	movtpl	r5, #21062	; 0x5246
     2e4:	54530048 	ldrbpl	r0, [r3], #-72	; 0xffffffb8
     2e8:	4c525443 	cfldrdmi	mvd5, [r2], {67}	; 0x43
     2ec:	4644004c 	strbmi	r0, [r4], -ip, asr #32
     2f0:	55005257 	strpl	r5, [r0, #-599]	; 0xfffffda9
     2f4:	4c4d4449 	cfstrdmi	mvd4, [sp], {73}	; 0x49
     2f8:	53455200 	movtpl	r5, #20992	; 0x5200
     2fc:	45565245 	ldrbmi	r5, [r6, #-581]	; 0xfffffdbb
     300:	00305f44 	eorseq	r5, r0, r4, asr #30
     304:	45534552 	ldrbmi	r4, [r3, #-1362]	; 0xfffffaae
     308:	44455652 	strbmi	r5, [r5], #-1618	; 0xfffff9ae
     30c:	5200315f 	andpl	r3, r0, #-1073741801	; 0xc0000017
     310:	52455345 	subpl	r5, r5, #335544321	; 0x14000001
     314:	5f444556 	svcpl	0x00444556
     318:	45520032 	ldrbmi	r0, [r2, #-50]	; 0xffffffce
     31c:	56524553 			; <UNDEFINED> instruction: 0x56524553
     320:	335f4445 	cmpcc	pc, #1157627904	; 0x45000000
     324:	695f5f00 	ldmdbvs	pc, {r8, r9, sl, fp, ip, lr}^	; <UNPREDICTABLE>
     328:	3233746e 	eorscc	r7, r3, #1845493760	; 0x6e000000
     32c:	4100745f 	tstmi	r0, pc, asr r4
     330:	4c564354 	mrrcmi	3, 5, r4, r6, cr4
     334:	47434d00 	strbmi	r4, [r3, -r0, lsl #26]
     338:	4354554f 	cmpmi	r4, #331350016	; 0x13c00000
     33c:	6b636f6c 	blvs	18dc0f4 <__exidx_end+0x18d973c>
     340:	4e495700 	cdpmi	7, 4, cr5, cr9, cr0, {0}
     344:	4d500048 	ldclmi	0, cr0, [r0, #-288]	; 0xfffffee0
     348:	79545f43 	ldmdbvc	r4, {r0, r1, r6, r8, r9, sl, fp, ip, lr}^
     34c:	57006570 	smlsdxpl	r0, r0, r5, r6
     350:	004c4e49 	subeq	r4, ip, r9, asr #28
     354:	5f4d5449 	svcpl	0x004d5449
     358:	75427852 	strbvc	r7, [r2, #-2130]	; 0xfffff7ae
     35c:	72656666 	rsbvc	r6, r5, #106954752	; 0x6600000
     360:	45464400 	strbmi	r4, [r6, #-1024]	; 0xfffffc00
     364:	4f500052 	svcmi	0x00500052
     368:	545f5452 	ldrbpl	r5, [pc], #-1106	; 370 <Heap_Size+0x270>
     36c:	00657079 	rsbeq	r7, r5, r9, ror r0
     370:	69755f5f 	ldmdbvs	r5!, {r0, r1, r2, r3, r4, r6, r8, r9, sl, fp, ip, lr}^
     374:	5f38746e 	svcpl	0x0038746e
     378:	4f530074 	svcmi	0x00530074
     37c:	00345450 	eorseq	r5, r4, r0, asr r4
     380:	55444950 	strbpl	r4, [r4, #-2384]	; 0xfffff6b0
     384:	74616470 	strbtvc	r6, [r1], #-1136	; 0xfffffb90
     388:	6e690065 	cdpvs	0, 6, cr0, cr9, cr5, {3}
     38c:	00747570 	rsbseq	r7, r4, r0, ror r5
     390:	75706e69 	ldrbvc	r6, [r0, #-3689]!	; 0xfffff197
     394:	776f4c74 			; <UNDEFINED> instruction: 0x776f4c74
     398:	44495000 	strbmi	r5, [r9], #-0
     39c:	61746144 	cmnvs	r4, r4, asr #2
     3a0:	44495000 	strbmi	r5, [r9], #-0
     3a4:	47746553 			; <UNDEFINED> instruction: 0x47746553
     3a8:	006c616f 	rsbeq	r6, ip, pc, ror #2
     3ac:	7074756f 	rsbsvc	r7, r4, pc, ror #10
     3b0:	6f007475 	svcvs	0x00007475
     3b4:	75707475 	ldrbvc	r7, [r0, #-1141]!	; 0xfffffb8b
     3b8:	67694874 			; <UNDEFINED> instruction: 0x67694874
     3bc:	49500068 	ldmdbmi	r0, {r3, r5, r6}^
     3c0:	696e4944 	stmdbvs	lr!, {r2, r6, r8, fp, lr}^
     3c4:	6c616974 			; <UNDEFINED> instruction: 0x6c616974
     3c8:	00657a69 	rsbeq	r7, r5, r9, ror #20
     3cc:	44444950 	strbmi	r4, [r4], #-2384	; 0xfffff6b0
     3d0:	53617461 	cmnpl	r1, #1627389952	; 0x61000000
     3d4:	63757274 	cmnvs	r5, #116, 4	; 0x40000007
     3d8:	6e690074 	mcrvs	0, 3, r0, cr9, cr4, {3}
     3dc:	48747570 	ldmdami	r4!, {r4, r5, r6, r8, sl, ip, sp, lr}^
     3e0:	00686769 	rsbeq	r6, r8, r9, ror #14
     3e4:	656d6974 	strbvs	r6, [sp, #-2420]!	; 0xfffff68c
     3e8:	77746542 	ldrbvc	r6, [r4, -r2, asr #10]!
     3ec:	556e6565 	strbpl	r6, [lr, #-1381]!	; 0xfffffa9b
     3f0:	74616470 	strbtvc	r6, [r1], #-1136	; 0xfffffb90
     3f4:	6c007365 	stcvs	3, cr7, [r0], {101}	; 0x65
     3f8:	45747361 	ldrbmi	r7, [r4, #-865]!	; 0xfffffc9f
     3fc:	00737272 	rsbseq	r7, r3, r2, ror r2
     400:	6c616f67 	stclvs	15, cr6, [r1], #-412	; 0xfffffe64
     404:	74756f00 	ldrbtvc	r6, [r5], #-3840	; 0xfffff100
     408:	4c747570 	cfldr64mi	mvdx7, [r4], #-448	; 0xfffffe40
     40c:	6400776f 	strvs	r7, [r0], #-1903	; 0xfffff891
     410:	76697265 	strbtvc	r7, [r9], -r5, ror #4
     414:	44495000 	strbmi	r5, [r9], #-0
     418:	6600632e 	strvs	r6, [r0], -lr, lsr #6
     41c:	74616f6c 	strbtvc	r6, [r1], #-3948	; 0xfffff094
     420:	746e6900 	strbtvc	r6, [lr], #-2304	; 0xfffff700
     424:	61726765 	cmnvs	r2, r5, ror #14
     428:	7265006c 	rsbvc	r0, r5, #108	; 0x6c
     42c:	00726f72 	rsbseq	r6, r2, r2, ror pc
     430:	37414d44 	strbcc	r4, [r1, -r4, asr #26]
     434:	5152495f 	cmppl	r2, pc, asr r9
     438:	4349006e 	movtmi	r0, #36974	; 0x906e
     43c:	50005250 	andpl	r5, r0, r0, asr r2
     440:	5f315449 	svcpl	0x00315449
     444:	6e515249 	cdpvs	2, 5, cr5, cr1, cr9, {2}
     448:	43414400 	movtmi	r4, #5120	; 0x1400
     44c:	52495f31 	subpl	r5, r9, #49, 30	; 0xc4
     450:	53006e51 	movwpl	r6, #3665	; 0xe51
     454:	495f4957 	ldmdbmi	pc, {r0, r1, r2, r4, r6, r8, fp, lr}^	; <UNPREDICTABLE>
     458:	006e5152 	rsbeq	r5, lr, r2, asr r1
     45c:	52495453 	subpl	r5, r9, #1392508928	; 0x53000000
     460:	73655200 	cmnvc	r5, #0, 4
     464:	65767265 	ldrbvs	r7, [r6, #-613]!	; 0xfffffd9b
     468:	5f313764 	svcpl	0x00313764
     46c:	6e515249 	cdpvs	2, 5, cr5, cr1, cr9, {2}
     470:	414d4400 	cmpmi	sp, r0, lsl #8
     474:	495f3331 	ldmdbmi	pc, {r0, r4, r5, r8, r9, ip, sp}^	; <UNPREDICTABLE>
     478:	006e5152 	rsbeq	r5, lr, r2, asr r1
     47c:	54524155 	ldrbpl	r4, [r2], #-341	; 0xfffffeab
     480:	58525f33 	ldmdapl	r2, {r0, r1, r4, r5, r8, r9, sl, fp, ip, lr}^
     484:	5f58545f 	svcpl	0x0058545f
     488:	6e515249 	cdpvs	2, 5, cr5, cr1, cr9, {2}
     48c:	645f5f00 	ldrbvs	r5, [pc], #-3840	; 494 <_mainCRTStartup+0x2c>
     490:	62617369 	rsbvs	r7, r1, #-1543503871	; 0xa4000001
     494:	695f656c 	ldmdbvs	pc, {r2, r3, r5, r6, r8, sl, sp, lr}^	; <UNPREDICTABLE>
     498:	55007172 	strpl	r7, [r0, #-370]	; 0xfffffe8e
     49c:	5f304253 	svcpl	0x00304253
     4a0:	6e515249 	cdpvs	2, 5, cr5, cr1, cr9, {2}
     4a4:	524f5000 	subpl	r5, pc, #0
     4a8:	495f4454 	ldmdbmi	pc, {r2, r4, r6, sl, lr}^	; <UNPREDICTABLE>
     4ac:	006e5152 	rsbeq	r5, lr, r2, asr r1
     4b0:	63746157 	cmnvs	r4, #-1073741803	; 0xc0000015
     4b4:	676f6468 	strbvs	r6, [pc, -r8, ror #8]!
     4b8:	5152495f 	cmppl	r2, pc, asr r9
     4bc:	4143006e 	cmpmi	r3, lr, rrx
     4c0:	545f304e 	ldrbpl	r3, [pc], #-78	; 4c8 <_mainCRTStartup+0x60>
     4c4:	61575f78 	cmpvs	r7, r8, ror pc
     4c8:	6e696e72 	mcrvs	14, 3, r6, cr9, cr2, {3}
     4cc:	52495f67 	subpl	r5, r9, #412	; 0x19c
     4d0:	49006e51 	stmdbmi	r0, {r0, r4, r6, r9, sl, fp, sp, lr}
     4d4:	00525053 	subseq	r5, r2, r3, asr r0
     4d8:	38414d44 	stmdacc	r1, {r2, r6, r8, sl, fp, lr}^
     4dc:	5152495f 	cmppl	r2, pc, asr r9
     4e0:	3249006e 	subcc	r0, r9, #110	; 0x6e
     4e4:	495f3243 	ldmdbmi	pc, {r0, r1, r6, r9, ip, sp}^	; <UNPREDICTABLE>
     4e8:	006e5152 	rsbeq	r5, lr, r2, asr r1
     4ec:	54524155 	ldrbpl	r4, [r2], #-341	; 0xfffffeab
     4f0:	52455f35 	subpl	r5, r5, #53, 30	; 0xd4
     4f4:	52495f52 	subpl	r5, r9, #328	; 0x148
     4f8:	43006e51 	movwmi	r6, #3665	; 0xe51
     4fc:	495f544d 	ldmdbmi	pc, {r0, r2, r3, r6, sl, ip, lr}^	; <UNPREDICTABLE>
     500:	006e5152 	rsbeq	r5, lr, r2, asr r1
     504:	31414d44 	cmpcc	r1, r4, asr #26
     508:	52495f34 	subpl	r5, r9, #52, 30	; 0xd0
     50c:	46006e51 			; <UNDEFINED> instruction: 0x46006e51
     510:	5f304d54 	svcpl	0x00304d54
     514:	6e515249 	cdpvs	2, 5, cr5, cr1, cr9, {2}
     518:	524f5000 	subpl	r5, pc, #0
     51c:	495f4554 	ldmdbmi	pc, {r2, r4, r6, r8, sl, lr}^	; <UNPREDICTABLE>
     520:	006e5152 	rsbeq	r5, lr, r2, asr r1
     524:	33414d44 	movtcc	r4, #7492	; 0x1d44
     528:	5152495f 	cmppl	r2, pc, asr r9
     52c:	4e45006e 	cdpmi	0, 4, cr0, cr5, cr14, {3}
     530:	455f5445 	ldrbmi	r5, [pc, #-1093]	; f3 <__isr_vector+0xf3>
     534:	726f7272 	rsbvc	r7, pc, #536870919	; 0x20000007
     538:	5152495f 	cmppl	r2, pc, asr r9
     53c:	4143006e 	cmpmi	r3, lr, rrx
     540:	455f304e 	ldrbmi	r3, [pc, #-78]	; 4fa <SystemInit+0x2a>
     544:	726f7272 	rsbvc	r7, pc, #536870919	; 0x20000007
     548:	5152495f 	cmppl	r2, pc, asr r9
     54c:	5349006e 	movtpl	r0, #36974	; 0x906e
     550:	52005245 	andpl	r5, r0, #1342177284	; 0x50000004
     554:	495f474e 	ldmdbmi	pc, {r1, r2, r3, r6, r8, r9, sl, lr}^	; <UNPREDICTABLE>
     558:	006e5152 	rsbeq	r5, lr, r2, asr r1
     55c:	4c415643 	mcrrmi	6, 4, r5, r1, cr3
     560:	454e4500 	strbmi	r4, [lr, #-1280]	; 0xfffffb00
     564:	35315f54 	ldrcc	r5, [r1, #-3924]!	; 0xfffff0ac
     568:	545f3838 	ldrbpl	r3, [pc], #-2104	; 570 <SystemInit+0xa0>
     56c:	72656d69 	rsbvc	r6, r5, #6720	; 0x1a40
     570:	5152495f 	cmppl	r2, pc, asr r9
     574:	6148006e 	cmpvs	r8, lr, rrx
     578:	61466472 	hvcvs	26178	; 0x6642
     57c:	5f746c75 	svcpl	0x00746c75
     580:	6e515249 	cdpvs	2, 5, cr5, cr1, cr9, {2}
     584:	42445000 	submi	r5, r4, #0
     588:	52495f30 	subpl	r5, r9, #48, 30	; 0xc0
     58c:	42006e51 	andmi	r6, r0, #1296	; 0x510
     590:	61467375 	hvcvs	26421	; 0x6735
     594:	5f746c75 	svcpl	0x00746c75
     598:	6e515249 	cdpvs	2, 5, cr5, cr1, cr9, {2}
     59c:	454e4500 	strbmi	r4, [lr, #-1280]	; 0xfffffb00
     5a0:	65525f54 	ldrbvs	r5, [r2, #-3924]	; 0xfffff0ac
     5a4:	76696563 	strbtvc	r6, [r9], -r3, ror #10
     5a8:	52495f65 	subpl	r5, r9, #404	; 0x194
     5ac:	44006e51 	strmi	r6, [r0], #-3665	; 0xfffff1af
     5b0:	5f31414d 	svcpl	0x0031414d
     5b4:	6e515249 	cdpvs	2, 5, cr5, cr1, cr9, {2}
     5b8:	4e414300 	cdpmi	3, 4, cr4, cr1, cr0, {0}
     5bc:	61575f30 	cmpvs	r7, r0, lsr pc
     5c0:	555f656b 	ldrbpl	r6, [pc, #-1387]	; 5d <__isr_vector+0x5d>
     5c4:	52495f70 	subpl	r5, r9, #112, 30	; 0x1c0
     5c8:	50006e51 	andpl	r6, r0, r1, asr lr
     5cc:	545f5449 	ldrbpl	r5, [pc], #-1097	; 5d4 <PIDInitialize+0x1c>
     5d0:	00657079 	rsbeq	r7, r5, r9, ror r0
     5d4:	30495053 	subcc	r5, r9, r3, asr r0
     5d8:	5152495f 	cmppl	r2, pc, asr r9
     5dc:	4950006e 	ldmdbmi	r0, {r1, r2, r3, r5, r6}^
     5e0:	495f3054 	ldmdbmi	pc, {r2, r4, r6, ip, sp}^	; <UNPREDICTABLE>
     5e4:	61485152 	cmpvs	r8, r2, asr r1
     5e8:	656c646e 	strbvs	r6, [ip, #-1134]!	; 0xfffffb92
     5ec:	49500072 	ldmdbmi	r0, {r1, r4, r5, r6}^
     5f0:	495f3054 	ldmdbmi	pc, {r2, r4, r6, ip, sp}^	; <UNPREDICTABLE>
     5f4:	006e5152 	rsbeq	r5, lr, r2, asr r1
     5f8:	54524155 	ldrbpl	r4, [r2], #-341	; 0xfffffeab
     5fc:	52455f30 	subpl	r5, r5, #48, 30	; 0xc0
     600:	52495f52 	subpl	r5, r9, #328	; 0x148
     604:	55006e51 	strpl	r6, [r0, #-3665]	; 0xfffff1af
     608:	31545241 	cmpcc	r4, r1, asr #4
     60c:	5252455f 	subspl	r4, r2, #398458880	; 0x17c00000
     610:	5152495f 	cmppl	r2, pc, asr r9
     614:	4d44006e 	stclmi	0, cr0, [r4, #-440]	; 0xfffffe48
     618:	495f3441 	ldmdbmi	pc, {r0, r6, sl, ip, sp}^	; <UNPREDICTABLE>
     61c:	006e5152 	rsbeq	r5, lr, r2, asr r1
     620:	54524155 	ldrbpl	r4, [r2], #-341	; 0xfffffeab
     624:	52455f32 	subpl	r5, r5, #50, 30	; 0xc8
     628:	52495f52 	subpl	r5, r9, #328	; 0x148
     62c:	55006e51 	strpl	r6, [r0, #-3665]	; 0xfffff1af
     630:	33545241 	cmpcc	r4, #268435460	; 0x10000004
     634:	5252455f 	subspl	r4, r2, #398458880	; 0x17c00000
     638:	5152495f 	cmppl	r2, pc, asr r9
     63c:	654d006e 	strbvs	r0, [sp, #-110]	; 0xffffff92
     640:	79726f6d 	ldmdbvc	r2!, {r0, r2, r3, r5, r6, r8, r9, sl, fp, sp, lr}^
     644:	616e614d 	cmnvs	lr, sp, asr #2
     648:	656d6567 	strbvs	r6, [sp, #-1383]!	; 0xfffffa99
     64c:	495f746e 	ldmdbmi	pc, {r1, r2, r3, r5, r6, sl, ip, sp, lr}^	; <UNPREDICTABLE>
     650:	006e5152 	rsbeq	r5, lr, r2, asr r1
     654:	54524155 	ldrbpl	r4, [r2], #-341	; 0xfffffeab
     658:	52455f34 	subpl	r5, r5, #52, 30	; 0xd0
     65c:	52495f52 	subpl	r5, r9, #328	; 0x148
     660:	55006e51 	strpl	r6, [r0, #-3665]	; 0xfffff1af
     664:	31545241 	cmpcc	r4, r1, asr #4
     668:	5f58525f 	svcpl	0x0058525f
     66c:	495f5854 	ldmdbmi	pc, {r2, r4, r6, fp, ip, lr}^	; <UNPREDICTABLE>
     670:	006e5152 	rsbeq	r5, lr, r2, asr r1
     674:	44544950 	ldrbmi	r4, [r4], #-2384	; 0xfffff6b0
     678:	53617461 	cmnpl	r1, #1627389952	; 0x61000000
     67c:	63757274 	cmnvs	r5, #116, 4	; 0x40000007
     680:	54520074 	ldrbpl	r0, [r2], #-116	; 0xffffff8c
     684:	65535f43 	ldrbvs	r5, [r3, #-3907]	; 0xfffff0bd
     688:	646e6f63 	strbtvs	r6, [lr], #-3939	; 0xfffff09d
     68c:	52495f73 	subpl	r5, r9, #460	; 0x1cc
     690:	53006e51 	movwpl	r6, #3665	; 0xe51
     694:	6c614356 	stclvs	3, cr4, [r1], #-344	; 0xfffffea8
     698:	52495f6c 	subpl	r5, r9, #108, 30	; 0x1b0
     69c:	4c006e51 	stcmi	14, cr6, [r0], {81}	; 0x51
     6a0:	6d695450 	cfstrdvs	mvd5, [r9, #-320]!	; 0xfffffec0
     6a4:	495f7265 	ldmdbmi	pc, {r0, r2, r5, r6, r9, ip, sp, lr}^	; <UNPREDICTABLE>
     6a8:	006e5152 	rsbeq	r5, lr, r2, asr r1
     6ac:	31414d44 	cmpcc	r1, r4, asr #26
     6b0:	52495f30 	subpl	r5, r9, #48, 30	; 0xc0
     6b4:	44006e51 	strmi	r6, [r0], #-3665	; 0xfffff1af
     6b8:	5f304341 	svcpl	0x00304341
     6bc:	6e515249 	cdpvs	2, 5, cr5, cr1, cr9, {2}
     6c0:	49505300 	ldmdbmi	r0, {r8, r9, ip, lr}^
     6c4:	52495f31 	subpl	r5, r9, #49, 30	; 0xc4
     6c8:	50006e51 	andpl	r6, r0, r1, asr lr
     6cc:	4154524f 	cmpmi	r4, pc, asr #4
     6d0:	5152495f 	cmppl	r2, pc, asr r9
     6d4:	6552006e 	ldrbvs	r0, [r2, #-110]	; 0xffffff92
     6d8:	435f6461 	cmpmi	pc, #1627389952	; 0x61000000
     6dc:	696c6c6f 	stmdbvs	ip!, {r0, r1, r2, r3, r5, r6, sl, fp, sp, lr}^
     6e0:	6e6f6973 			; <UNDEFINED> instruction: 0x6e6f6973
     6e4:	5152495f 	cmppl	r2, pc, asr r9
     6e8:	5446006e 	strbpl	r0, [r6], #-110	; 0xffffff92
     6ec:	495f334d 	ldmdbmi	pc, {r0, r2, r3, r6, r8, r9, ip, sp}^	; <UNPREDICTABLE>
     6f0:	006e5152 	rsbeq	r5, lr, r2, asr r1
     6f4:	54524155 	ldrbpl	r4, [r2], #-341	; 0xfffffeab
     6f8:	58525f34 	ldmdapl	r2, {r2, r4, r5, r8, r9, sl, fp, ip, lr}^
     6fc:	5f58545f 	svcpl	0x0058545f
     700:	6e515249 	cdpvs	2, 5, cr5, cr1, cr9, {2}
     704:	504d4300 	subpl	r4, sp, r0, lsl #6
     708:	52495f30 	subpl	r5, r9, #48, 30	; 0xc0
     70c:	44006e51 	strmi	r6, [r0], #-3665	; 0xfffff1af
     710:	5f35414d 	svcpl	0x0035414d
     714:	6e515249 	cdpvs	2, 5, cr5, cr1, cr9, {2}
     718:	73795300 	cmnvc	r9, #0, 6
     71c:	6b636954 	blvs	18dac74 <__exidx_end+0x18d82bc>
     720:	5152495f 	cmppl	r2, pc, asr r9
     724:	5355006e 	cmppl	r5, #110	; 0x6e
     728:	44434442 	strbmi	r4, [r3], #-1090	; 0xfffffbbe
     72c:	5152495f 	cmppl	r2, pc, asr r9
     730:	564c006e 	strbpl	r0, [ip], -lr, rrx
     734:	564c5f44 	strbpl	r5, [ip], -r4, asr #30
     738:	52495f57 	subpl	r5, r9, #348	; 0x15c
     73c:	43006e51 	movwmi	r6, #3665	; 0xe51
     740:	5f304e41 	svcpl	0x00304e41
     744:	5f737542 	svcpl	0x00737542
     748:	5f66664f 	svcpl	0x0066664f
     74c:	6e515249 	cdpvs	2, 5, cr5, cr1, cr9, {2}
     750:	52415500 	subpl	r5, r1, #0, 10
     754:	525f3554 	subspl	r3, pc, #84, 10	; 0x15000000
     758:	58545f58 	ldmdapl	r4, {r3, r4, r6, r8, r9, sl, fp, ip, lr}^
     75c:	5152495f 	cmppl	r2, pc, asr r9
     760:	4e45006e 	cdpmi	0, 4, cr0, cr5, cr14, {3}
     764:	545f5445 	ldrbpl	r5, [pc], #-1093	; 76c <PIT1_IRQHandler>
     768:	736e6172 	cmnvc	lr, #-2147483620	; 0x8000001c
     76c:	5f74696d 	svcpl	0x0074696d
     770:	6e515249 	cdpvs	2, 5, cr5, cr1, cr9, {2}
     774:	42414900 	submi	r4, r1, #0, 18
     778:	4d440052 	stclmi	0, cr0, [r4, #-328]	; 0xfffffeb8
     77c:	5f313141 	svcpl	0x00313141
     780:	6e515249 	cdpvs	2, 5, cr5, cr1, cr9, {2}
     784:	49505300 	ldmdbmi	r0, {r8, r9, ip, lr}^
     788:	52495f32 	subpl	r5, r9, #50, 30	; 0xc8
     78c:	50006e51 	andpl	r6, r0, r1, asr lr
     790:	4254524f 	subsmi	r5, r4, #-268435452	; 0xf0000004
     794:	5152495f 	cmppl	r2, pc, asr r9
     798:	4d44006e 	stclmi	0, cr0, [r4, #-440]	; 0xfffffe48
     79c:	495f3041 	ldmdbmi	pc, {r0, r6, ip, sp}^	; <UNPREDICTABLE>
     7a0:	006e5152 	rsbeq	r5, lr, r2, asr r1
     7a4:	30434441 	subcc	r4, r3, r1, asr #8
     7a8:	5152495f 	cmppl	r2, pc, asr r9
     7ac:	4d44006e 	stclmi	0, cr0, [r4, #-440]	; 0xfffffe48
     7b0:	495f3941 	ldmdbmi	pc, {r0, r6, r8, fp, ip, sp}^	; <UNPREDICTABLE>
     7b4:	006e5152 	rsbeq	r5, lr, r2, asr r1
     7b8:	52454349 	subpl	r4, r5, #603979777	; 0x24000001
     7bc:	43444100 	movtmi	r4, #16640	; 0x4100
     7c0:	52495f31 	subpl	r5, r9, #49, 30	; 0xc4
     7c4:	5f006e51 	svcpl	0x00006e51
     7c8:	616e655f 	cmnvs	lr, pc, asr r5
     7cc:	5f656c62 	svcpl	0x00656c62
     7d0:	00717269 	rsbseq	r7, r1, r9, ror #4
     7d4:	44544950 	ldrbmi	r4, [r4], #-2384	; 0xfffff6b0
     7d8:	00617461 	rsbeq	r7, r1, r1, ror #8
     7dc:	30433249 	subcc	r3, r3, r9, asr #4
     7e0:	5152495f 	cmppl	r2, pc, asr r9
     7e4:	4d43006e 	stclmi	0, cr0, [r3, #-440]	; 0xfffffe48
     7e8:	495f3150 	ldmdbmi	pc, {r4, r6, r8, ip, sp}^	; <UNPREDICTABLE>
     7ec:	006e5152 	rsbeq	r5, lr, r2, asr r1
     7f0:	45534552 	ldrbmi	r4, [r3, #-1362]	; 0xfffffaae
     7f4:	44455652 	strbmi	r5, [r5], #-1618	; 0xfffff9ae
     7f8:	45520030 	ldrbmi	r0, [r2, #-48]	; 0xffffffd0
     7fc:	56524553 			; <UNDEFINED> instruction: 0x56524553
     800:	00324445 	eorseq	r4, r2, r5, asr #8
     804:	45534552 	ldrbmi	r4, [r3, #-1362]	; 0xfffffaae
     808:	44455652 	strbmi	r5, [r5], #-1618	; 0xfffff9ae
     80c:	45520034 	ldrbmi	r0, [r2, #-52]	; 0xffffffcc
     810:	56524553 			; <UNDEFINED> instruction: 0x56524553
     814:	00354445 	eorseq	r4, r5, r5, asr #8
     818:	4e414843 	cdpmi	8, 4, cr4, cr1, cr3, {2}
     81c:	004c454e 	subeq	r4, ip, lr, asr #10
     820:	31414d44 	cmpcc	r1, r4, asr #26
     824:	52495f35 	subpl	r5, r9, #53, 30	; 0xd4
     828:	4d006e51 	stcmi	14, cr6, [r0, #-324]	; 0xfffffebc
     82c:	495f4743 	ldmdbmi	pc, {r0, r1, r6, r8, r9, sl, lr}^	; <UNPREDICTABLE>
     830:	006e5152 	rsbeq	r5, lr, r2, asr r1
     834:	32504d43 	subscc	r4, r0, #4288	; 0x10c0
     838:	5152495f 	cmppl	r2, pc, asr r9
     83c:	4f50006e 	svcmi	0x0050006e
     840:	5f435452 	svcpl	0x00435452
     844:	6e515249 	cdpvs	2, 5, cr5, cr1, cr9, {2}
     848:	54495000 	strbpl	r5, [r9], #-0
     84c:	52495f31 	subpl	r5, r9, #49, 30	; 0xc4
     850:	6e614851 	mcrvs	8, 3, r4, cr1, cr1, {2}
     854:	72656c64 	rsbvc	r6, r5, #100, 24	; 0x6400
     858:	49564e00 	ldmdbmi	r6, {r9, sl, fp, lr}^
     85c:	79545f43 	ldmdbvc	r4, {r0, r1, r6, r8, r9, sl, fp, ip, lr}^
     860:	73006570 	movwvc	r6, #1392	; 0x570
     864:	50706f74 	rsbspl	r6, r0, r4, ror pc
     868:	00305449 	eorseq	r5, r0, r9, asr #8
     86c:	706f7473 	rsbvc	r7, pc, r3, ror r4	; <UNPREDICTABLE>
     870:	31544950 	cmpcc	r4, r0, asr r9
     874:	49564e00 	ldmdbmi	r6, {r9, sl, fp, lr}^
     878:	6e455f43 	cdpvs	15, 4, cr5, cr5, cr3, {2}
     87c:	656c6261 	strbvs	r6, [ip, #-609]!	; 0xfffffd9f
     880:	00515249 	subseq	r5, r1, r9, asr #4
     884:	31433249 	cmpcc	r3, r9, asr #4
     888:	5152495f 	cmppl	r2, pc, asr r9
     88c:	4654006e 	ldrbmi	r0, [r4], -lr, rrx
     890:	5500474c 	strpl	r4, [r0, #-1868]	; 0xfffff8b4
     894:	32545241 	subscc	r5, r4, #268435460	; 0x10000004
     898:	5f58525f 	svcpl	0x0058525f
     89c:	495f5854 	ldmdbmi	pc, {r2, r4, r6, fp, ip, lr}^	; <UNPREDICTABLE>
     8a0:	006e5152 	rsbeq	r5, lr, r2, asr r1
     8a4:	45534552 	ldrbmi	r4, [r3, #-1362]	; 0xfffffaae
     8a8:	44455652 	strbmi	r5, [r5], #-1618	; 0xfffff9ae
     8ac:	52490033 	subpl	r0, r9, #51	; 0x33
     8b0:	545f6e51 	ldrbpl	r6, [pc], #-3665	; 8b8 <InitPWM2+0x60>
     8b4:	00657079 	rsbeq	r7, r5, r9, ror r0
     8b8:	53493154 	movtpl	r3, #37204	; 0x9154
     8bc:	65500052 	ldrbvs	r0, [r0, #-82]	; 0xffffffae
     8c0:	5653646e 	ldrbpl	r6, [r3], -lr, ror #8
     8c4:	5152495f 	cmppl	r2, pc, asr r9
     8c8:	7355006e 	cmpvc	r5, #110	; 0x6e
     8cc:	46656761 	strbtmi	r6, [r5], -r1, ror #14
     8d0:	746c7561 	strbtvc	r7, [ip], #-1377	; 0xfffffa9f
     8d4:	5152495f 	cmppl	r2, pc, asr r9
     8d8:	4950006e 	ldmdbmi	r0, {r1, r2, r3, r5, r6}^
     8dc:	00632e54 	rsbeq	r2, r3, r4, asr lr
     8e0:	6156646c 	cmpvs	r6, ip, ror #8
     8e4:	5446006c 	strbpl	r0, [r6], #-108	; 0xffffff94
     8e8:	495f324d 	ldmdbmi	pc, {r0, r2, r3, r6, r9, ip, sp}^	; <UNPREDICTABLE>
     8ec:	006e5152 	rsbeq	r5, lr, r2, asr r1
     8f0:	304e4143 	subcc	r4, lr, r3, asr #2
     8f4:	65524f5f 	ldrbvs	r4, [r2, #-3935]	; 0xfffff0a1
     8f8:	654d5f64 	strbvs	r5, [sp, #-3940]	; 0xfffff09c
     8fc:	67617373 			; <UNDEFINED> instruction: 0x67617373
     900:	75625f65 	strbvc	r5, [r2, #-3941]!	; 0xfffff09b
     904:	72656666 	rsbvc	r6, r5, #106954752	; 0x6600000
     908:	5152495f 	cmppl	r2, pc, asr r9
     90c:	7473006e 	ldrbtvc	r0, [r3], #-110	; 0xffffff92
     910:	50747261 	rsbspl	r7, r4, r1, ror #4
     914:	00305449 	eorseq	r5, r0, r9, asr #8
     918:	32414d44 	subcc	r4, r1, #68, 26	; 0x1100
     91c:	5152495f 	cmppl	r2, pc, asr r9
     920:	434d006e 	movtmi	r0, #53358	; 0xd06e
     924:	52495f4d 	subpl	r5, r9, #308	; 0x134
     928:	4e006e51 	mcrmi	14, 0, r6, cr0, cr1, {2}
     92c:	614d6e6f 	cmpvs	sp, pc, ror #28
     930:	62616b73 	rsbvs	r6, r1, #117760	; 0x1cc00
     934:	6e49656c 	cdpvs	5, 4, cr6, cr9, cr12, {3}
     938:	52495f74 	subpl	r5, r9, #116, 30	; 0x1d0
     93c:	49006e51 	stmdbmi	r0, {r0, r4, r6, r9, sl, fp, sp, lr}
     940:	5f305332 	svcpl	0x00305332
     944:	495f7852 	ldmdbmi	pc, {r1, r4, r6, fp, ip, sp, lr}^	; <UNPREDICTABLE>
     948:	006e5152 	rsbeq	r5, lr, r2, asr r1
     94c:	5f414d44 	svcpl	0x00414d44
     950:	6f727245 	svcvs	0x00727245
     954:	52495f72 	subpl	r5, r9, #456	; 0x1c8
     958:	46006e51 			; <UNDEFINED> instruction: 0x46006e51
     95c:	5f454654 	svcpl	0x00454654
     960:	6e515249 	cdpvs	2, 5, cr5, cr1, cr9, {2}
     964:	49305400 	ldmdbmi	r0!, {sl, ip, lr}
     968:	43005253 	movwmi	r5, #595	; 0x253
     96c:	5f304e41 	svcpl	0x00304e41
     970:	575f7852 			; <UNDEFINED> instruction: 0x575f7852
     974:	696e7261 	stmdbvs	lr!, {r0, r5, r6, r9, ip, sp, lr}^
     978:	495f676e 	ldmdbmi	pc, {r1, r2, r3, r5, r6, r8, r9, sl, sp, lr}^	; <UNPREDICTABLE>
     97c:	006e5152 	rsbeq	r5, lr, r2, asr r1
     980:	30533249 	subscc	r3, r3, r9, asr #4
     984:	5f78545f 	svcpl	0x0078545f
     988:	6e515249 	cdpvs	2, 5, cr5, cr1, cr9, {2}
     98c:	61747300 	cmnvs	r4, r0, lsl #6
     990:	49507472 	ldmdbmi	r0, {r1, r4, r5, r6, sl, ip, sp, lr}^
     994:	50003154 	andpl	r3, r0, r4, asr r1
     998:	5f325449 	svcpl	0x00325449
     99c:	6e515249 	cdpvs	2, 5, cr5, cr1, cr9, {2}
     9a0:	56444c00 	strbpl	r4, [r4], -r0, lsl #24
     9a4:	55004c41 	strpl	r4, [r0, #-3137]	; 0xfffff3bf
     9a8:	30545241 	subscc	r5, r4, r1, asr #4
     9ac:	4e4f4c5f 	mcrmi	12, 2, r4, cr15, cr15, {2}
     9b0:	5152495f 	cmppl	r2, pc, asr r9
     9b4:	4d44006e 	stclmi	0, cr0, [r4, #-440]	; 0xfffffe48
     9b8:	495f3641 	ldmdbmi	pc, {r0, r6, r9, sl, ip, sp}^	; <UNPREDICTABLE>
     9bc:	006e5152 	rsbeq	r5, lr, r2, asr r1
     9c0:	314d5446 	cmpcc	sp, r6, asr #8
     9c4:	5152495f 	cmppl	r2, pc, asr r9
     9c8:	5352006e 	cmppl	r2, #110	; 0x6e
     9cc:	45565245 	ldrbmi	r5, [r6, #-581]	; 0xfffffdbb
     9d0:	4c003144 	stfmis	f3, [r0], {68}	; 0x44
     9d4:	495f574c 	ldmdbmi	pc, {r2, r3, r6, r8, r9, sl, ip, lr}^	; <UNPREDICTABLE>
     9d8:	006e5152 	rsbeq	r5, lr, r2, asr r1
     9dc:	43484453 	movtmi	r4, #33875	; 0x8453
     9e0:	5152495f 	cmppl	r2, pc, asr r9
     9e4:	6544006e 	strbvs	r0, [r4, #-110]	; 0xffffff92
     9e8:	4d677562 	cfstr64mi	mvdx7, [r7, #-392]!	; 0xfffffe78
     9ec:	74696e6f 	strbtvc	r6, [r9], #-3695	; 0xfffff191
     9f0:	495f726f 	ldmdbmi	pc, {r0, r1, r2, r3, r5, r6, r9, ip, sp, lr}^	; <UNPREDICTABLE>
     9f4:	006e5152 	rsbeq	r5, lr, r2, asr r1
     9f8:	31414d44 	cmpcc	r1, r4, asr #26
     9fc:	52495f32 	subpl	r5, r9, #50, 30	; 0xc8
     a00:	55006e51 	strpl	r6, [r0, #-3665]	; 0xfffff1af
     a04:	30545241 	subscc	r5, r4, r1, asr #4
     a08:	5f58525f 	svcpl	0x0058525f
     a0c:	495f5854 	ldmdbmi	pc, {r2, r4, r6, fp, ip, lr}^	; <UNPREDICTABLE>
     a10:	006e5152 	rsbeq	r5, lr, r2, asr r1
     a14:	33544950 	cmpcc	r4, #80, 18	; 0x140000
     a18:	5152495f 	cmppl	r2, pc, asr r9
     a1c:	6175006e 	cmnvs	r5, lr, rrx
     a20:	75507472 	ldrbvc	r7, [r0, #-1138]	; 0xfffffb8e
     a24:	72745374 	rsbsvc	r5, r4, #116, 6	; 0xd0000001
     a28:	00676e69 	rsbeq	r6, r7, r9, ror #28
     a2c:	38374657 	ldmdacc	r7!, {r0, r1, r2, r4, r6, r9, sl, lr}
     a30:	45003631 	strmi	r3, [r0, #-1585]	; 0xfffff9cf
     a34:	31383754 	teqcc	r8, r4, asr r7
     a38:	4e470036 	mcrmi	0, 2, r0, cr7, cr6, {1}
     a3c:	39432055 	stmdbcc	r3, {r0, r2, r4, r6, sp}^
     a40:	2e362039 	mrccs	0, 1, r2, cr6, cr9, {1}
     a44:	20312e31 	eorscs	r2, r1, r1, lsr lr
     a48:	36313032 			; <UNDEFINED> instruction: 0x36313032
     a4c:	38313830 	ldmdacc	r1!, {r4, r5, fp, ip, sp}
     a50:	746d2d20 	strbtvc	r2, [sp], #-3360	; 0xfffff2e0
     a54:	626d7568 	rsbvs	r7, sp, #104, 10	; 0x1a000000
     a58:	636d2d20 	cmnvs	sp, #32, 26	; 0x800
     a5c:	633d7570 	teqvs	sp, #112, 10	; 0x1c000000
     a60:	6574726f 	ldrbvs	r7, [r4, #-623]!	; 0xfffffd91
     a64:	346d2d78 	strbtcc	r2, [sp], #-3448	; 0xfffff288
     a68:	20672d20 	rsbcs	r2, r7, r0, lsr #26
     a6c:	6467672d 	strbtvs	r6, [r7], #-1837	; 0xfffff8d3
     a70:	4f2d2062 	svcmi	0x002d2062
     a74:	732d2073 			; <UNDEFINED> instruction: 0x732d2073
     a78:	673d6474 			; <UNDEFINED> instruction: 0x673d6474
     a7c:	3939756e 	ldmdbcc	r9!, {r1, r2, r3, r5, r6, r8, sl, ip, sp, lr}
     a80:	6e662d20 	cdpvs	13, 6, cr2, cr6, cr0, {1}
     a84:	74732d6f 	ldrbtvc	r2, [r3], #-3439	; 0xfffff291
     a88:	74636972 	strbtvc	r6, [r3], #-2418	; 0xfffff68e
     a8c:	696c612d 	stmdbvs	ip!, {r0, r2, r3, r5, r8, sp, lr}^
     a90:	6e697361 	cdpvs	3, 6, cr7, cr9, cr1, {3}
     a94:	662d2067 	strtvs	r2, [sp], -r7, rrx
     a98:	636e7566 	cmnvs	lr, #427819008	; 0x19800000
     a9c:	6e6f6974 			; <UNDEFINED> instruction: 0x6e6f6974
     aa0:	6365732d 	cmnvs	r5, #-1275068416	; 0xb4000000
     aa4:	6e6f6974 			; <UNDEFINED> instruction: 0x6e6f6974
     aa8:	662d2073 			; <UNDEFINED> instruction: 0x662d2073
     aac:	61746164 	cmnvs	r4, r4, ror #2
     ab0:	6365732d 	cmnvs	r5, #-1275068416	; 0xb4000000
     ab4:	6e6f6974 			; <UNDEFINED> instruction: 0x6e6f6974
     ab8:	662d2073 			; <UNDEFINED> instruction: 0x662d2073
     abc:	652d6f6e 	strvs	r6, [sp, #-3950]!	; 0xfffff092
     ac0:	70656378 	rsbvc	r6, r5, r8, ror r3
     ac4:	6e6f6974 			; <UNDEFINED> instruction: 0x6e6f6974
     ac8:	662d2073 			; <UNDEFINED> instruction: 0x662d2073
     acc:	642d6f6e 	strtvs	r6, [sp], #-3950	; 0xfffff092
     ad0:	74656c65 	strbtvc	r6, [r5], #-3173	; 0xfffff39b
     ad4:	756e2d65 	strbvc	r2, [lr, #-3429]!	; 0xfffff29b
     ad8:	702d6c6c 	eorvc	r6, sp, ip, ror #24
     adc:	746e696f 	strbtvc	r6, [lr], #-2415	; 0xfffff691
     ae0:	632d7265 			; <UNDEFINED> instruction: 0x632d7265
     ae4:	6b636568 	blvs	18da08c <__exidx_end+0x18d76d4>
     ae8:	662d2073 			; <UNDEFINED> instruction: 0x662d2073
     aec:	7373656d 	cmnvc	r3, #457179136	; 0x1b400000
     af0:	2d656761 	stclcs	7, cr6, [r5, #-388]!	; 0xfffffe7c
     af4:	676e656c 	strbvs	r6, [lr, -ip, ror #10]!
     af8:	303d6874 	eorscc	r6, sp, r4, ror r8
     afc:	6e662d20 	cdpvs	13, 6, cr2, cr6, cr0, {1}
     b00:	75622d6f 	strbvc	r2, [r2, #-3439]!	; 0xfffff291
     b04:	69746c69 	ldmdbvs	r4!, {r0, r3, r5, r6, sl, fp, sp, lr}^
     b08:	4f4d006e 	svcmi	0x004d006e
     b0c:	004d4544 	subeq	r4, sp, r4, asr #10
     b10:	6d6f682f 	stclvs	8, cr6, [pc, #-188]!	; a5c <updatePIDs+0x134>
     b14:	68632f65 	stmdavs	r3!, {r0, r2, r5, r6, r8, r9, sl, fp, sp}^
     b18:	2f736972 	svccs	0x00736972
     b1c:	65646f43 	strbvs	r6, [r4, #-3907]!	; 0xfffff0bd
     b20:	6469772f 	strbtvs	r7, [r9], #-1839	; 0xfffff8d1
     b24:	6e616265 	cdpvs	2, 6, cr6, cr1, cr5, {3}
     b28:	00324f64 	eorseq	r4, r2, r4, ror #30
     b2c:	49464354 	stmdbmi	r6, {r2, r4, r6, r8, r9, lr}^
     b30:	54004f46 	strpl	r4, [r0], #-3910	; 0xfffff0ba
     b34:	3138374c 	teqcc	r8, ip, asr #14
     b38:	43520036 	cmpmi	r2, #54	; 0x36
     b3c:	4f464946 	svcmi	0x00464946
     b40:	46575200 	ldrbmi	r5, [r7], -r0, lsl #4
     b44:	004f4649 	subeq	r4, pc, r9, asr #12
     b48:	64756162 	ldrbtvs	r6, [r5], #-354	; 0xfffffe9e
     b4c:	52415500 	subpl	r5, r1, #0, 10
     b50:	6f745f54 	svcvs	0x00745f54
     b54:	696e695f 	stmdbvs	lr!, {r0, r1, r2, r3, r4, r6, r8, fp, sp, lr}^
     b58:	72620074 	rsbvc	r0, r2, #116	; 0x74
     b5c:	55006166 	strpl	r6, [r0, #-358]	; 0xfffffe9a
     b60:	00545241 	subseq	r5, r4, r1, asr #4
     b64:	38375349 	ldmdacc	r7!, {r0, r3, r6, r8, r9, ip, lr}
     b68:	54003631 	strpl	r3, [r0], #-1585	; 0xfffff9cf
     b6c:	46494657 			; <UNDEFINED> instruction: 0x46494657
     b70:	4549004f 	strbmi	r0, [r9, #-79]	; 0xffffffb1
     b74:	36313837 			; <UNDEFINED> instruction: 0x36313837
     b78:	72617500 	rsbvc	r7, r1, #0, 10
     b7c:	696e4974 	stmdbvs	lr!, {r2, r4, r5, r6, r8, fp, lr}^
     b80:	37430074 	smlsldxcc	r0, r3, r4, r0
     b84:	00363138 	eorseq	r3, r6, r8, lsr r1
     b88:	74617473 	strbtvc	r7, [r1], #-1139	; 0xfffffb8d
     b8c:	75007375 	strvc	r7, [r0, #-885]	; 0xfffffc8b
     b90:	47747261 	ldrbmi	r7, [r4, -r1, ror #4]!
     b94:	68437465 	stmdavs	r3, {r0, r2, r5, r6, sl, ip, sp, lr}^
     b98:	6c427261 	sfmvs	f7, 2, [r2], {97}	; 0x61
     b9c:	006b636f 	rsbeq	r6, fp, pc, ror #6
     ba0:	38374e57 	ldmdacc	r7!, {r0, r1, r2, r4, r6, r9, sl, fp, lr}
     ba4:	75003631 	strvc	r3, [r0, #-1585]	; 0xfffff9cf
     ba8:	44747261 	ldrbtmi	r7, [r4], #-609	; 0xfffffd9f
     bac:	00617461 	rsbeq	r7, r1, r1, ror #8
     bb0:	72727563 	rsbsvc	r7, r2, #415236096	; 0x18c00000
     bb4:	49465000 	stmdbmi	r6, {ip, lr}^
     bb8:	75004f46 	strvc	r4, [r0, #-3910]	; 0xfffff0ba
     bbc:	30747261 	rsbscc	r7, r4, r1, ror #4
     bc0:	61746144 	cmnvs	r4, r4, asr #2
     bc4:	52415500 	subpl	r5, r1, #0, 10
     bc8:	79545f54 	ldmdbvc	r4, {r2, r4, r6, r8, r9, sl, fp, ip, lr}^
     bcc:	75006570 	strvc	r6, [r0, #-1392]	; 0xfffffa90
     bd0:	2e747261 	cdpcs	2, 7, cr7, cr4, cr1, {3}
     bd4:	50570063 	subspl	r0, r7, r3, rrx
     bd8:	36313837 			; <UNDEFINED> instruction: 0x36313837
     bdc:	545f545f 	ldrbpl	r5, [pc], #-1119	; be4 <main+0x178>
     be0:	30455059 	subcc	r5, r5, r9, asr r0
     be4:	37505700 	ldrbcc	r5, [r0, -r0, lsl #14]
     be8:	5f363138 	svcpl	0x00363138
     bec:	59545f54 	ldmdbpl	r4, {r2, r4, r6, r8, r9, sl, fp, ip, lr}^
     bf0:	00314550 	eorseq	r4, r1, r0, asr r5
     bf4:	46494653 			; <UNDEFINED> instruction: 0x46494653
     bf8:	6175004f 	cmnvs	r5, pc, asr #32
     bfc:	75507472 	ldrbvc	r7, [r0, #-1138]	; 0xfffffb8e
     c00:	61684374 	smcvs	33844	; 0x8434
     c04:	6f6c4272 	svcvs	0x006c4272
     c08:	75006b63 	strvc	r6, [r0, #-2915]	; 0xfffff49d
     c0c:	44747261 	ldrbtmi	r7, [r4], #-609	; 0xfffffd9f
     c10:	53617461 	cmnpl	r1, #1627389952	; 0x61000000
     c14:	63757274 	cmnvs	r5, #116, 4	; 0x40000007
     c18:	59530074 	ldmdbpl	r3, {r2, r4, r5, r6}^
     c1c:	4e4f434e 	cdpmi	3, 4, cr4, cr15, cr14, {2}
     c20:	54460046 	strbpl	r0, [r6], #-70	; 0xffffffba
     c24:	79545f4d 	ldmdbvc	r4, {r0, r2, r3, r6, r8, r9, sl, fp, ip, lr}^
     c28:	50006570 	andpl	r6, r0, r0, ror r5
     c2c:	69544d57 	ldmdbvs	r4, {r0, r1, r2, r4, r6, r8, sl, fp, lr}^
     c30:	70006b63 	andvc	r6, r0, r3, ror #22
     c34:	632e6d77 			; <UNDEFINED> instruction: 0x632e6d77
     c38:	696e4900 	stmdbvs	lr!, {r8, fp, lr}^
     c3c:	4d575074 	ldclmi	0, cr5, [r7, #-464]	; 0xfffffe30
     c40:	54460032 	strbpl	r0, [r6], #-50	; 0xffffffce
     c44:	495f304d 	ldmdbmi	pc, {r0, r2, r3, r6, ip, sp}^	; <UNPREDICTABLE>
     c48:	61485152 	cmpvs	r8, r2, asr r1
     c4c:	656c646e 	strbvs	r6, [ip, #-1134]!	; 0xfffffb92
     c50:	58450072 	stmdapl	r5, {r1, r4, r5, r6}^
     c54:	49525454 	ldmdbmi	r2, {r2, r4, r6, sl, ip, lr}^
     c58:	65530047 	ldrbvs	r0, [r3, #-71]	; 0xffffffb9
     c5c:	74754474 	ldrbtvc	r4, [r5], #-1140	; 0xfffffb8c
     c60:	63794379 	cmnvs	r9, #-469762047	; 0xe4000001
     c64:	0032656c 	eorseq	r6, r2, ip, ror #10
     c68:	4954554f 	ldmdbmi	r4, {r0, r1, r2, r3, r6, r8, sl, ip, lr}^
     c6c:	0054494e 	subseq	r4, r4, lr, asr #18
     c70:	434f5753 	movtmi	r5, #63315	; 0xf753
     c74:	004c5254 	subeq	r5, ip, r4, asr r2
     c78:	4c4d5750 	mcrrmi	7, 5, r5, sp, cr0
     c7c:	0044414f 	subeq	r4, r4, pc, asr #2
     c80:	43564e49 	cmpmi	r6, #1168	; 0x490
     c84:	004c5254 	subeq	r5, ip, r4, asr r2
     c88:	44414544 	strbmi	r4, [r1], #-1348	; 0xfffffabc
     c8c:	454d4954 	strbmi	r4, [sp, #-2388]	; 0xfffff6ac
     c90:	4d4f4300 	stclmi	3, cr4, [pc, #-0]	; c98 <main+0x22c>
     c94:	454e4942 	strbmi	r4, [lr, #-2370]	; 0xfffff6be
     c98:	61686300 	cmnvs	r8, r0, lsl #6
     c9c:	6f4d326e 	svcvs	0x004d326e
     ca0:	554f0064 	strbpl	r0, [pc, #-100]	; c44 <main+0x1d8>
     ca4:	53414d54 	movtpl	r4, #7508	; 0x1d54
     ca8:	4946004b 	stmdbmi	r6, {r0, r1, r3, r6}^
     cac:	5245544c 	subpl	r5, r5, #76, 8	; 0x4c000000
     cb0:	61686300 	cmnvs	r8, r0, lsl #6
     cb4:	7246326e 	subvc	r3, r6, #-536870906	; 0xe0000006
     cb8:	43007165 	movwmi	r7, #357	; 0x165
     cbc:	52544e4f 	subspl	r4, r4, #1264	; 0x4f0
     cc0:	00534c4f 	subseq	r4, r3, pc, asr #24
     cc4:	43536e43 	cmpmi	r3, #1072	; 0x430
     cc8:	544c4600 	strbpl	r4, [ip], #-1536	; 0xfffffa00
     ccc:	4c525443 	cfldrdmi	mvd5, [r2], {67}	; 0x43
     cd0:	756f6600 	strbvc	r6, [pc, #-1536]!	; 6d8 <PIDUpdate+0xac>
     cd4:	4300646e 	movwmi	r6, #1134	; 0x46e
     cd8:	4e49544e 	cdpmi	4, 4, cr5, cr9, cr14, {2}
     cdc:	65726600 	ldrbvs	r6, [r2, #-1536]!	; 0xfffffa00
     ce0:	6e657571 	mcrvs	5, 3, r7, cr5, cr1, {3}
     ce4:	46007963 	strmi	r7, [r0], -r3, ror #18
     ce8:	4f50544c 	svcmi	0x0050544c
     cec:	4f4d004c 	svcmi	0x004d004c
     cf0:	51004544 	tstpl	r0, r4, asr #10
     cf4:	52544344 	subspl	r4, r4, #68, 6	; 0x10000001
     cf8:	5453004c 	ldrbpl	r0, [r3], #-76	; 0xffffffb4
     cfc:	53555441 	cmppl	r5, #1090519040	; 0x41000000
     d00:	4e595300 	cdpmi	3, 5, cr5, cr9, cr0, {0}
     d04:	69640043 	stmdbvs	r4!, {r0, r1, r6}^
     d08:	65646976 	strbvs	r6, [r4, #-2422]!	; 0xfffff68a
     d0c:	5f5f0072 	svcpl	0x005f0072
     d10:	5f006673 	svcpl	0x00006673
     d14:	64616572 	strbtvs	r6, [r1], #-1394	; 0xfffffa8e
     d18:	61656800 	cmnvs	r5, r0, lsl #16
     d1c:	44726574 	ldrbtmi	r6, [r2], #-1396	; 0xfffffa8c
     d20:	43797475 	cmnmi	r9, #1962934272	; 0x75000000
     d24:	656c6379 	strbvs	r6, [ip, #-889]!	; 0xfffffc87
     d28:	4f545000 	svcmi	0x00545000
     d2c:	775f0052 			; <UNDEFINED> instruction: 0x775f0052
     d30:	65746972 	ldrbvs	r6, [r4, #-2418]!	; 0xfffff68e
     d34:	6d757000 	ldclvs	0, cr7, [r5, #-0]
     d38:	72754370 	rsbsvc	r4, r5, #112, 6	; 0xc0000001
     d3c:	746e6572 	strbtvc	r6, [lr], #-1394	; 0xfffffa8e
     d40:	7361654d 	cmnvc	r1, #322961408	; 0x13400000
     d44:	64657275 	strbtvs	r7, [r5], #-629	; 0xfffffd8b
     d48:	73615f00 	cmnvc	r1, #0, 30
     d4c:	6d697463 	cfstrdvs	mvd7, [r9, #-396]!	; 0xfffffe74
     d50:	75625f65 	strbvc	r5, [r2, #-3941]!	; 0xfffff09b
     d54:	635f0066 	cmpvs	pc, #102	; 0x66
     d58:	656c7476 	strbvs	r7, [ip, #-1142]!	; 0xfffffb8a
     d5c:	675f006e 	ldrbvs	r0, [pc, -lr, rrx]
     d60:	616d6d61 	cmnvs	sp, r1, ror #26
     d64:	6769735f 			; <UNDEFINED> instruction: 0x6769735f
     d68:	6d61676e 	stclvs	7, cr6, [r1, #-440]!	; 0xfffffe48
     d6c:	6e755f00 	cdpvs	15, 7, cr5, cr5, cr0, {0}
     d70:	64657375 	strbtvs	r7, [r5], #-885	; 0xfffffc8b
     d74:	745f5f00 	ldrbvc	r5, [pc], #-3840	; d7c <ADC1_IRQHandler+0x4c>
     d78:	775f006d 	ldrbvc	r0, [pc, -sp, rrx]
     d7c:	74727363 	ldrbtvc	r7, [r2], #-867	; 0xfffffc9d
     d80:	73626d6f 	cmnvc	r2, #7104	; 0x1bc0
     d84:	6174735f 	cmnvs	r4, pc, asr r3
     d88:	5f006574 	svcpl	0x00006574
     d8c:	6675626e 	ldrbtvs	r6, [r5], -lr, ror #4
     d90:	745f5f00 	ldrbvc	r5, [pc], #-3840	; d98 <Reset_Handler+0x10>
     d94:	65735f6d 	ldrbvs	r5, [r3, #-3949]!	; 0xfffff093
     d98:	6c5f0063 	mrrcvs	0, 6, r0, pc, cr3	; <UNPREDICTABLE>
     d9c:	5f613436 	svcpl	0x00613436
     da0:	00667562 	rsbeq	r7, r6, r2, ror #10
     da4:	636f6c5f 	cmnvs	pc, #24320	; 0x5f00
     da8:	6d5f006b 	ldclvs	0, cr0, [pc, #-428]	; c04 <main+0x198>
     dac:	00746c75 	rsbseq	r6, r4, r5, ror ip
     db0:	446e6973 	strbtmi	r6, [lr], #-2419	; 0xfffff68d
     db4:	36617461 	strbtcc	r7, [r1], -r1, ror #8
     db8:	5f5f0034 	svcpl	0x005f0034
     dbc:	00686377 	rsbeq	r6, r8, r7, ror r3
     dc0:	6c69665f 	stclvs	6, cr6, [r9], #-380	; 0xfffffe84
     dc4:	6f5f0065 	svcvs	0x005f0065
     dc8:	78655f6e 	stmdavc	r5!, {r1, r2, r3, r5, r6, r8, r9, sl, fp, ip, lr}^
     dcc:	615f7469 	cmpvs	pc, r9, ror #8
     dd0:	00736772 	rsbseq	r6, r3, r2, ror r7
     dd4:	6e61725f 	mcrvs	2, 3, r7, cr1, cr15, {2}
     dd8:	00383464 	eorseq	r3, r8, r4, ror #8
     ddc:	72626d5f 	rsbvc	r6, r2, #6080	; 0x17c0
     de0:	5f6e656c 	svcpl	0x006e656c
     de4:	74617473 	strbtvc	r7, [r1], #-1139	; 0xfffffb8d
     de8:	69700065 	ldmdbvs	r0!, {r0, r2, r5, r6}^
     dec:	76646c74 			; <UNDEFINED> instruction: 0x76646c74
     df0:	5f006c61 	svcpl	0x00006c61
     df4:	75736572 	ldrbvc	r6, [r3, #-1394]!	; 0xfffffa8e
     df8:	6b5f746c 	blvs	17ddfb0 <__exidx_end+0x17db5f8>
     dfc:	61656800 	cmnvs	r5, r0, lsl #16
     e00:	50726574 	rsbspl	r6, r2, r4, ror r5
     e04:	5f004449 	svcpl	0x00004449
     e08:	657a6973 	ldrbvs	r6, [sl, #-2419]!	; 0xfffff68d
     e0c:	6f6c5f00 	svcvs	0x006c5f00
     e10:	746c6163 	strbtvc	r6, [ip], #-355	; 0xfffffe9d
     e14:	5f656d69 	svcpl	0x00656d69
     e18:	00667562 	rsbeq	r7, r6, r2, ror #10
     e1c:	6e69616d 	powvsez	f6, f1, #5.0
     e20:	43444100 	movtmi	r4, #16640	; 0x4100
     e24:	756f5331 	strbvc	r5, [pc, #-817]!	; afb <main+0x8f>
     e28:	42656372 	rsbmi	r6, r5, #-939524095	; 0xc8000001
     e2c:	73657479 	cmnvc	r5, #2030043136	; 0x79000000
     e30:	745f5f00 	ldrbvc	r5, [pc], #-3840	; e38 <__adddf3+0x4c>
     e34:	6f6d5f6d 	svcvs	0x006d5f6d
     e38:	635f006e 	cmpvs	pc, #110	; 0x6e
     e3c:	65727275 	ldrbvs	r7, [r2, #-629]!	; 0xfffffd8b
     e40:	635f746e 	cmpvs	pc, #1845493760	; 0x6e000000
     e44:	67657461 	strbvs	r7, [r5, -r1, ror #8]!
     e48:	0079726f 	rsbseq	r7, r9, pc, ror #4
     e4c:	61765f5f 	cmnvs	r6, pc, asr pc
     e50:	0065756c 	rsbeq	r7, r5, ip, ror #10
     e54:	31434441 	cmpcc	r3, r1, asr #8
     e58:	75736552 	ldrbvc	r6, [r3, #-1362]!	; 0xfffffaae
     e5c:	6e49746c 	cdpvs	4, 4, cr7, cr9, cr12, {3}
     e60:	00786564 	rsbseq	r6, r8, r4, ror #10
     e64:	6565725f 	strbvs	r7, [r5, #-607]!	; 0xfffffda1
     e68:	5f00746e 	svcpl	0x0000746e
     e6c:	626f6c67 	rsbvs	r6, pc, #26368	; 0x6700
     e70:	695f6c61 	ldmdbvs	pc, {r0, r5, r6, sl, fp, sp, lr}^	; <UNPREDICTABLE>
     e74:	7275706d 	rsbsvc	r7, r5, #109	; 0x6d
     e78:	74705f65 	ldrbtvc	r5, [r0], #-3941	; 0xfffff09b
     e7c:	695f0072 	ldmdbvs	pc, {r1, r4, r5, r6}^	; <UNPREDICTABLE>
     e80:	5f00636e 	svcpl	0x0000636e
     e84:	00646e69 	rsbeq	r6, r4, r9, ror #28
     e88:	6e72656e 	cdpvs	5, 7, cr6, cr2, cr14, {3}
     e8c:	6f567473 	svcvs	0x00567473
     e90:	6761746c 	strbvs	r7, [r1, -ip, ror #8]!
     e94:	656e0065 	strbvs	r0, [lr, #-101]!	; 0xffffff9b
     e98:	74736e72 	ldrbtvc	r6, [r3], #-3698	; 0xfffff18e
     e9c:	746c6f56 	strbtvc	r6, [ip], #-3926	; 0xfffff0aa
     ea0:	50656761 	rsbpl	r6, r5, r1, ror #14
     ea4:	5f004449 	svcpl	0x00004449
     ea8:	00736e66 	rsbseq	r6, r3, r6, ror #28
     eac:	6f6c635f 	svcvs	0x006c635f
     eb0:	5f006573 	svcpl	0x00006573
     eb4:	69647473 	stmdbvs	r4!, {r0, r1, r4, r5, r6, sl, ip, sp, lr}^
     eb8:	7570006e 	ldrbvc	r0, [r0, #-110]!	; 0xffffff92
     ebc:	7543706d 	strbvc	r7, [r3, #-109]	; 0xffffff93
     ec0:	6e657272 	mcrvs	2, 3, r7, cr5, cr2, {3}
     ec4:	44495074 	strbmi	r5, [r9], #-116	; 0xffffff8c
     ec8:	6f635f00 	svcvs	0x00635f00
     ecc:	65696b6f 	strbvs	r6, [r9, #-2927]!	; 0xfffff491
     ed0:	64775f00 	ldrbtvs	r5, [r7], #-3840	; 0xfffff100
     ed4:	735f0073 	cmpvc	pc, #115	; 0x73
     ed8:	665f6769 	ldrbvs	r6, [pc], -r9, ror #14
     edc:	00636e75 	rsbeq	r6, r3, r5, ror lr
     ee0:	66666f5f 	uqsaxvs	r6, r6, pc	; <UNPREDICTABLE>
     ee4:	00746573 	rsbseq	r6, r4, r3, ror r5
     ee8:	7476635f 	ldrbtvc	r6, [r6], #-863	; 0xfffffca1
     eec:	00667562 	rsbeq	r7, r6, r2, ror #10
     ef0:	7335705f 	teqvc	r5, #95	; 0x5f
     ef4:	72656e00 	rsbvc	r6, r5, #0, 28
     ef8:	4f74736e 	svcmi	0x0074736e
     efc:	5f007475 	svcpl	0x00007475
     f00:	4946735f 	stmdbmi	r6, {r0, r1, r2, r3, r4, r6, r8, r9, ip, sp, lr}^
     f04:	5f00454c 	svcpl	0x0000454c
     f08:	6964735f 	stmdbvs	r4!, {r0, r1, r2, r3, r4, r6, r8, r9, ip, sp, lr}^
     f0c:	696e6964 	stmdbvs	lr!, {r2, r5, r6, r8, fp, sp, lr}^
     f10:	665f0074 			; <UNDEFINED> instruction: 0x665f0074
     f14:	7367616c 	cmnvc	r7, #108, 2
     f18:	4c5f0032 	mrrcmi	0, 3, r0, pc, cr2	; <UNPREDICTABLE>
     f1c:	5f4b434f 	svcpl	0x004b434f
     f20:	55434552 	strbpl	r4, [r3, #-1362]	; 0xfffffaae
     f24:	56495352 			; <UNDEFINED> instruction: 0x56495352
     f28:	00545f45 	subseq	r5, r4, r5, asr #30
     f2c:	52444450 	subpl	r4, r4, #80, 8	; 0x50000000
     f30:	69735f00 	ldmdbvs	r3!, {r8, r9, sl, fp, ip, lr}^
     f34:	6c616e67 	stclvs	14, cr6, [r1], #-412	; 0xfffffe64
     f38:	6675625f 			; <UNDEFINED> instruction: 0x6675625f
     f3c:	72707300 	rsbsvc	r7, r0, #0, 6
     f40:	66746e69 	ldrbtvs	r6, [r4], -r9, ror #28
     f44:	69425f00 	stmdbvs	r2, {r8, r9, sl, fp, ip, lr}^
     f48:	746e6967 	strbtvc	r6, [lr], #-2407	; 0xfffff699
     f4c:	616d5f00 	cmnvs	sp, r0, lsl #30
     f50:	73647778 	cmnvc	r4, #120, 14	; 0x1e00000
     f54:	635f5f00 	cmpvs	pc, #0, 30
     f58:	6e61656c 	cdpvs	5, 6, cr6, cr1, cr12, {3}
     f5c:	5f007075 	svcpl	0x00007075
     f60:	78657461 	stmdavc	r5!, {r0, r5, r6, sl, ip, sp, lr}^
     f64:	00307469 	eorseq	r7, r0, r9, ror #8
     f68:	656d655f 	strbvs	r6, [sp, #-1375]!	; 0xfffffaa1
     f6c:	6e656772 	mcrvs	7, 3, r6, cr5, cr2, {3}
     f70:	5f007963 	svcpl	0x00007963
     f74:	626f696e 	rsbvs	r6, pc, #1802240	; 0x1b8000
     f78:	5f5f0073 	svcpl	0x005f0073
     f7c:	756c6773 	strbvc	r6, [ip, #-1907]!	; 0xfffff88d
     f80:	6e5f0065 	cdpvs	0, 5, cr0, cr15, cr5, {3}
     f84:	6c6c616d 	stfvse	f6, [ip], #-436	; 0xfffffe4c
     f88:	6d00636f 	stcvs	3, cr6, [r0, #-444]	; 0xfffffe44
     f8c:	2e6e6961 	vnmulcs.f16	s13, s28, s3	; <UNPREDICTABLE>
     f90:	635f0063 	cmpvs	pc, #99	; 0x63
     f94:	65727275 	ldrbvs	r7, [r2, #-629]!	; 0xfffffd8b
     f98:	6c5f746e 	cfldrdvs	mvd7, [pc], {110}	; 0x6e
     f9c:	6c61636f 	stclvs	3, cr6, [r1], #-444	; 0xfffffe44
     fa0:	665f0065 	ldrbvs	r0, [pc], -r5, rrx
     fa4:	6c656572 	cfstr64vs	mvdx6, [r5], #-456	; 0xfffffe38
     fa8:	00747369 	rsbseq	r7, r4, r9, ror #6
     fac:	626f695f 	rsbvs	r6, pc, #1556480	; 0x17c000
     fb0:	675f0073 			; <UNDEFINED> instruction: 0x675f0073
     fb4:	0065756c 	rsbeq	r7, r5, ip, ror #10
     fb8:	6769735f 			; <UNDEFINED> instruction: 0x6769735f
     fbc:	6970006e 	ldmdbvs	r0!, {r1, r2, r3, r5, r6}^
     fc0:	6f6c4374 	svcvs	0x006c4374
     fc4:	5f006b63 	svcpl	0x00006b63
     fc8:	72655f68 	rsbvc	r5, r5, #104, 30	; 0x1a0
     fcc:	006f6e72 	rsbeq	r6, pc, r2, ror lr	; <UNPREDICTABLE>
     fd0:	7263775f 	rsbvc	r7, r3, #24903680	; 0x17c0000
     fd4:	626d6f74 	rsbvs	r6, sp, #116, 30	; 0x1d0
     fd8:	6174735f 	cmnvs	r4, pc, asr r3
     fdc:	5f006574 	svcpl	0x00006574
     fe0:	5f6d745f 	svcpl	0x006d745f
     fe4:	7961646d 	stmdbvc	r1!, {r0, r2, r3, r5, r6, sl, sp, lr}^
     fe8:	626d5f00 	rsbvs	r5, sp, #0, 30
     fec:	5f6e656c 	svcpl	0x006e656c
     ff0:	74617473 	strbtvc	r7, [r1], #-1139	; 0xfffffb8d
     ff4:	6e5f0065 	cdpvs	0, 5, cr0, cr15, cr5, {3}
     ff8:	5f007765 	svcpl	0x00007765
     ffc:	66756275 			; <UNDEFINED> instruction: 0x66756275
    1000:	63775f00 	cmnvs	r7, #0, 30
    1004:	626d6f74 	rsbvs	r6, sp, #116, 30	; 0x1d0
    1008:	6174735f 	cmnvs	r4, pc, asr r3
    100c:	5f006574 	svcpl	0x00006574
    1010:	7473626d 	ldrbtvc	r6, [r3], #-621	; 0xfffffd93
    1014:	00657461 	rsbeq	r7, r5, r1, ror #8
    1018:	6e61725f 	mcrvs	2, 3, r7, cr1, cr15, {2}
    101c:	656e5f64 	strbvs	r5, [lr, #-3940]!	; 0xfffff09c
    1020:	5f007478 	svcpl	0x00007478
    1024:	7478656e 	ldrbtvc	r6, [r8], #-1390	; 0xfffffa92
    1028:	665f0066 	ldrbvs	r0, [pc], -r6, rrx
    102c:	7367616c 	cmnvc	r7, #108, 2
    1030:	4f435000 	svcmi	0x00435000
    1034:	44500052 	ldrbmi	r0, [r0], #-82	; 0xffffffae
    1038:	5f005249 	svcpl	0x00005249
    103c:	78657461 	stmdavc	r5!, {r0, r5, r6, sl, ip, sp, lr}^
    1040:	5f007469 	svcpl	0x00007469
    1044:	756f635f 	strbvc	r6, [pc, #-863]!	; ced <ADC1_INIT+0x51>
    1048:	5f00746e 	svcpl	0x0000746e
    104c:	5f6d745f 	svcpl	0x006d745f
    1050:	79616477 	stmdbvc	r1!, {r0, r1, r2, r4, r5, r6, sl, sp, lr}^
    1054:	745f5f00 	ldrbvc	r5, [pc], #-3840	; 105c <__adddf3+0x270>
    1058:	64795f6d 	ldrbtvs	r5, [r9], #-3949	; 0xfffff093
    105c:	5f007961 	svcpl	0x00007961
    1060:	64656573 	strbtvs	r6, [r5], #-1395	; 0xfffffa8d
    1064:	65735f00 	ldrbvs	r5, [r3, #-3840]!	; 0xfffff100
    1068:	5f006b65 	svcpl	0x00006b65
    106c:	736f7066 	cmnvc	pc, #102	; 0x66
    1070:	5f00745f 	svcpl	0x0000745f
    1074:	6863775f 	stmdavs	r3!, {r0, r1, r2, r3, r4, r6, r8, r9, sl, ip, sp, lr}^
    1078:	50470062 	subpl	r0, r7, r2, rrx
    107c:	545f4f49 	ldrbpl	r4, [pc], #-3913	; 1084 <__aeabi_i2d>
    1080:	00657079 	rsbeq	r7, r5, r9, ror r0
    1084:	74626d5f 	strbtvc	r6, [r2], #-3423	; 0xfffff2a1
    1088:	5f63776f 	svcpl	0x0063776f
    108c:	74617473 	strbtvc	r7, [r1], #-1139	; 0xfffffb8d
    1090:	755f0065 	ldrbvc	r0, [pc, #-101]	; 1033 <__adddf3+0x247>
    1094:	6573756e 	ldrbvs	r7, [r3, #-1390]!	; 0xfffffa92
    1098:	61725f64 	cmnvs	r2, r4, ror #30
    109c:	5f00646e 	svcpl	0x0000646e
    10a0:	5f6f7364 	svcpl	0x006f7364
    10a4:	646e6168 	strbtvs	r6, [lr], #-360	; 0xfffffe98
    10a8:	5f00656c 	svcpl	0x0000656c
    10ac:	6f647473 	svcvs	0x00647473
    10b0:	5f007475 	svcpl	0x00007475
    10b4:	736b6c62 	cmnvc	fp, #25088	; 0x6200
    10b8:	00657a69 	rsbeq	r7, r5, r9, ror #20
    10bc:	7361625f 	cmnvc	r1, #-268435451	; 0xf0000005
    10c0:	735f0065 	cmpvc	pc, #101	; 0x65
    10c4:	6f747274 	svcvs	0x00747274
    10c8:	616c5f6b 	cmnvs	ip, fp, ror #30
    10cc:	5f007473 	svcpl	0x00007473
    10d0:	7472626d 	ldrbtvc	r6, [r2], #-621	; 0xfffffd93
    10d4:	5f63776f 	svcpl	0x0063776f
    10d8:	74617473 	strbtvc	r7, [r1], #-1139	; 0xfffffb8d
    10dc:	665f0065 	ldrbvs	r0, [pc], -r5, rrx
    10e0:	6b636f6c 	blvs	18dce98 <__exidx_end+0x18da4e0>
    10e4:	5f00745f 	svcpl	0x0000745f
    10e8:	4c49465f 	mcrrmi	6, 5, r4, r9, cr15
    10ec:	5f5f0045 	svcpl	0x005f0045
    10f0:	31746e69 	cmncc	r4, r9, ror #28
    10f4:	00745f36 	rsbseq	r5, r4, r6, lsr pc
    10f8:	73626d5f 	cmnvc	r2, #6080	; 0x17c0
    10fc:	65746174 	ldrbvs	r6, [r4, #-372]!	; 0xfffffe8c
    1100:	5f00745f 	svcpl	0x0000745f
    1104:	00383472 	eorseq	r3, r8, r2, ror r4
    1108:	746e6977 	strbtvc	r6, [lr], #-2423	; 0xfffff689
    110c:	5f00745f 	svcpl	0x0000745f
    1110:	61746164 	cmnvs	r4, r4, ror #2
    1114:	4d4c4300 	stclmi	3, cr4, [ip, #-0]
    1118:	4c430030 	mcrrmi	0, 3, r0, r3, cr0
    111c:	4300314d 	movwmi	r3, #333	; 0x14d
    1120:	00324d4c 	eorseq	r4, r2, ip, asr #26
    1124:	334d4c43 	movtcc	r4, #56387	; 0xdc43
    1128:	4d4c4300 	stclmi	3, cr4, [ip, #-0]
    112c:	74730034 	ldrbtvc	r0, [r3], #-52	; 0xffffffcc
    1130:	52747261 	rsbspl	r7, r4, #268435462	; 0x10000006
    1134:	73697365 	cmnvc	r9, #-1811939327	; 0x94000001
    1138:	636e6174 	cmnvs	lr, #116, 2
    113c:	61654d65 	cmnvs	r5, r5, ror #26
    1140:	65727573 	ldrbvs	r7, [r2, #-1395]!	; 0xfffffa8d
    1144:	746e656d 	strbtvc	r6, [lr], #-1389	; 0xfffffa93
    1148:	6d757000 	ldclvs	0, cr7, [r5, #-0]
    114c:	72754370 	rsbsvc	r4, r5, #112, 6	; 0xc0000001
    1150:	746e6572 	strbtvc	r6, [lr], #-1394	; 0xfffffa8e
    1154:	69736544 	ldmdbvs	r3!, {r2, r6, r8, sl, sp, lr}^
    1158:	00646572 	rsbeq	r6, r4, r2, ror r5
    115c:	444d4c43 	strbmi	r4, [sp], #-3139	; 0xfffff3bd
    1160:	4d4c4300 	stclmi	3, cr4, [ip, #-0]
    1164:	44500053 	ldrbmi	r0, [r0], #-83	; 0xffffffad
    1168:	7000524f 	andvc	r5, r0, pc, asr #4
    116c:	43706d75 	cmnmi	r0, #7488	; 0x1d40
    1170:	65727275 	ldrbvs	r7, [r2, #-629]!	; 0xfffffd8b
    1174:	5000746e 	andpl	r7, r0, lr, ror #8
    1178:	00524f53 	subseq	r4, r2, r3, asr pc
    117c:	61647075 	smcvs	18181	; 0x4705
    1180:	49506574 	ldmdbmi	r0, {r2, r4, r5, r6, r8, sl, sp, lr}^
    1184:	5f007344 	svcpl	0x00007344
    1188:	79746e66 	ldmdbvc	r4!, {r1, r2, r5, r6, r9, sl, fp, sp, lr}^
    118c:	00736570 	rsbseq	r6, r3, r0, ror r5
    1190:	5f434441 	svcpl	0x00434441
    1194:	65707954 	ldrbvs	r7, [r0, #-2388]!	; 0xfffff6ac
    1198:	745f5f00 	ldrbvc	r5, [pc], #-3840	; 11a0 <__aeabi_dmul+0x50>
    119c:	65795f6d 	ldrbvs	r5, [r9, #-3949]!	; 0xfffff093
    11a0:	41007261 	tstmi	r0, r1, ror #4
    11a4:	5f314344 	svcpl	0x00314344
    11a8:	54494e49 	strbpl	r4, [r9], #-3657	; 0xfffff1b7
    11ac:	626c5f00 	rsbvs	r5, ip, #0, 30
    11b0:	7a697366 	bvc	1a5df50 <__exidx_end+0x1a5b598>
    11b4:	4c430065 	mcrrmi	0, 6, r0, r3, cr5
    11b8:	43003050 	movwmi	r3, #80	; 0x50
    11bc:	0031504c 	eorseq	r5, r1, ip, asr #32
    11c0:	32504c43 	subscc	r4, r0, #17152	; 0x4300
    11c4:	504c4300 	subpl	r4, ip, r0, lsl #6
    11c8:	4c430033 	mcrrmi	0, 3, r0, r3, cr3
    11cc:	43003450 	movwmi	r3, #1104	; 0x450
    11d0:	0044504c 	subeq	r5, r4, ip, asr #32
    11d4:	62735f5f 	rsbsvs	r5, r3, #380	; 0x17c
    11d8:	5f006675 	svcpl	0x00006675
    11dc:	635f7369 	cmpvs	pc, #-1543503871	; 0xa4000001
    11e0:	6e006178 	mcrvs	1, 0, r6, cr0, cr8, {3}
    11e4:	736e7265 	cmnvc	lr, #1342177286	; 0x50000006
    11e8:	43005274 	movwmi	r5, #628	; 0x274
    11ec:	0053504c 	subseq	r5, r3, ip, asr #32
    11f0:	4c555f5f 	mrrcmi	15, 5, r5, r5, cr15	; <UNPREDICTABLE>
    11f4:	00676e6f 	rsbeq	r6, r7, pc, ror #28
    11f8:	7365725f 	cmnvc	r5, #-268435451	; 0xf0000005
    11fc:	00746c75 	rsbseq	r6, r4, r5, ror ip
    1200:	706d7570 	rsbvc	r7, sp, r0, ror r5
    1204:	72727543 	rsbsvc	r7, r2, #281018368	; 0x10c00000
    1208:	44746e65 	ldrbtmi	r6, [r4], #-3685	; 0xfffff19b
    120c:	43797475 	cmnmi	r9, #1962934272	; 0x75000000
    1210:	656c6379 	strbvs	r6, [ip, #-889]!	; 0xfffffc87
    1214:	666f5f00 	strbtvs	r5, [pc], -r0, lsl #30
    1218:	00745f66 	rsbseq	r5, r4, r6, ror #30
    121c:	6464615f 	strbtvs	r6, [r4], #-351	; 0xfffffea1
    1220:	745f5f00 	ldrbvc	r5, [pc], #-3840	; 1228 <__aeabi_dmul+0xd8>
    1224:	6f685f6d 	svcvs	0x00685f6d
    1228:	5f007275 	svcpl	0x00007275
    122c:	7273626d 	rsbsvc	r6, r3, #-805306362	; 0xd0000006
    1230:	63776f74 	cmnvs	r7, #116, 30	; 0x1d0
    1234:	74735f73 	ldrbtvc	r5, [r3], #-3955	; 0xfffff08d
    1238:	00657461 	rsbeq	r7, r5, r1, ror #8
    123c:	6474735f 	ldrbtvs	r7, [r4], #-863	; 0xfffffca1
    1240:	00727265 	rsbseq	r7, r2, r5, ror #4
    1244:	616e665f 	cmnvs	lr, pc, asr r6
    1248:	00736772 	rsbseq	r6, r3, r2, ror r7
    124c:	31434441 	cmpcc	r3, r1, asr #8
    1250:	75736552 	ldrbvc	r6, [r3, #-1362]!	; 0xfffffaae
    1254:	0073746c 	rsbseq	r7, r3, ip, ror #8
    1258:	6d745f5f 	ldclvs	15, cr5, [r4, #-380]!	; 0xfffffe84
    125c:	6473695f 	ldrbtvs	r6, [r3], #-2399	; 0xfffff6a1
    1260:	5f007473 	svcpl	0x00007473
    1264:	5f6d745f 	svcpl	0x006d745f
    1268:	006e696d 	rsbeq	r6, lr, sp, ror #18
    126c:	7465675f 	strbtvc	r6, [r5], #-1887	; 0xfffff8a1
    1270:	65746164 	ldrbvs	r6, [r4, #-356]!	; 0xfffffe9c
    1274:	7272655f 	rsbsvc	r6, r2, #398458880	; 0x17c00000
    1278:	63646100 	cmnvs	r4, #0, 2
    127c:	4400632e 	strmi	r6, [r0], #-814	; 0xfffffcd2
    1280:	5f304341 	svcpl	0x00304341
    1284:	54494e49 	strbpl	r4, [r9], #-3657	; 0xfffff1b7
    1288:	454f5000 	strbmi	r5, [pc, #-0]	; 1290 <__aeabi_dmul+0x140>
    128c:	4144004e 	cmpmi	r4, lr, asr #32
    1290:	44004854 	strmi	r4, [r0], #-2132	; 0xfffff7ac
    1294:	004c5441 	subeq	r5, ip, r1, asr #8
    1298:	31434441 	cmpcc	r3, r1, asr #8
    129c:	5152495f 	cmppl	r2, pc, asr r9
    12a0:	646e6148 	strbtvs	r6, [lr], #-328	; 0xfffffeb8
    12a4:	0072656c 	rsbseq	r6, r2, ip, ror #10
    12a8:	696c6163 	stmdbvs	ip!, {r0, r1, r5, r6, r8, sp, lr}^
    12ac:	44500062 	ldrbmi	r0, [r0], #-98	; 0xffffff9e
    12b0:	4e495f42 	cdpmi	15, 4, cr5, cr9, cr2, {2}
    12b4:	50005449 	andpl	r5, r0, r9, asr #8
    12b8:	545f4244 	ldrbpl	r4, [pc], #-580	; 12c0 <__aeabi_dmul+0x170>
    12bc:	00657079 	rsbeq	r7, r5, r9, ror r0
    12c0:	5f434144 	svcpl	0x00434144
    12c4:	65707954 	ldrbvs	r7, [r0, #-2388]!	; 0xfffff6ac
    12c8:	444f5000 	strbmi	r5, [pc], #-0	; 12d0 <__aeabi_dmul+0x180>
    12cc:	4900594c 	stmdbmi	r0, {r2, r3, r6, r8, fp, ip, lr}
    12d0:	0043544e 	subeq	r5, r3, lr, asr #8
    12d4:	594c4449 	stmdbpl	ip, {r0, r3, r6, sl, lr}^
	...

Disassembly of section .debug_frame:

00000000 <.debug_frame>:
   0:	0000000c 	andeq	r0, r0, ip
   4:	ffffffff 			; <UNDEFINED> instruction: 0xffffffff
   8:	7c020001 	stcvc	0, cr0, [r2], {1}
   c:	000d0c0e 	andeq	r0, sp, lr, lsl #24
  10:	0000000c 	andeq	r0, r0, ip
  14:	00000000 	andeq	r0, r0, r0
  18:	000004d0 	ldrdeq	r0, [r0], -r0	; <UNPREDICTABLE>
  1c:	000000e8 	andeq	r0, r0, r8, ror #1
  20:	0000000c 	andeq	r0, r0, ip
	...
  2c:	00000128 	andeq	r0, r0, r8, lsr #2
  30:	0000000c 	andeq	r0, r0, ip
  34:	ffffffff 			; <UNDEFINED> instruction: 0xffffffff
  38:	7c020001 	stcvc	0, cr0, [r2], {1}
  3c:	000d0c0e 	andeq	r0, sp, lr, lsl #24
  40:	0000001c 	andeq	r0, r0, ip, lsl r0
  44:	00000030 	andeq	r0, r0, r0, lsr r0
  48:	000005b8 			; <UNDEFINED> instruction: 0x000005b8
  4c:	00000074 	andeq	r0, r0, r4, ror r0
  50:	84180e42 	ldrhi	r0, [r8], #-3650	; 0xfffff1be
  54:	86058506 	strhi	r8, [r5], -r6, lsl #10
  58:	88038704 	stmdahi	r3, {r2, r8, r9, sl, pc}
  5c:	00018e02 	andeq	r8, r1, r2, lsl #28
  60:	00000020 	andeq	r0, r0, r0, lsr #32
  64:	00000030 	andeq	r0, r0, r0, lsr r0
  68:	0000062c 	andeq	r0, r0, ip, lsr #12
  6c:	000000ce 	andeq	r0, r0, lr, asr #1
  70:	83200e42 			; <UNDEFINED> instruction: 0x83200e42
  74:	85078408 	strhi	r8, [r7, #-1032]	; 0xfffffbf8
  78:	87058606 	strhi	r8, [r5, -r6, lsl #12]
  7c:	89038804 	stmdbhi	r3, {r2, fp, pc}
  80:	00018e02 	andeq	r8, r1, r2, lsl #28
  84:	00000018 	andeq	r0, r0, r8, lsl r0
  88:	00000030 	andeq	r0, r0, r0, lsr r0
  8c:	00000000 	andeq	r0, r0, r0
  90:	0000003e 	andeq	r0, r0, lr, lsr r0
  94:	83100e41 	tsthi	r0, #1040	; 0x410
  98:	85038404 	strhi	r8, [r3, #-1028]	; 0xfffffbfc
  9c:	00018e02 	andeq	r8, r1, r2, lsl #28
  a0:	0000000c 	andeq	r0, r0, ip
  a4:	ffffffff 			; <UNDEFINED> instruction: 0xffffffff
  a8:	7c020001 	stcvc	0, cr0, [r2], {1}
  ac:	000d0c0e 	andeq	r0, sp, lr, lsl #24
  b0:	0000000c 	andeq	r0, r0, ip
  b4:	000000a0 	andeq	r0, r0, r0, lsr #1
  b8:	000006fc 	strdeq	r0, [r0], -ip
  bc:	00000050 	andeq	r0, r0, r0, asr r0
  c0:	0000000c 	andeq	r0, r0, ip
  c4:	000000a0 	andeq	r0, r0, r0, lsr #1
  c8:	00000000 	andeq	r0, r0, r0
  cc:	00000050 	andeq	r0, r0, r0, asr r0
  d0:	0000000c 	andeq	r0, r0, ip
  d4:	000000a0 	andeq	r0, r0, r0, lsr #1
  d8:	00000000 	andeq	r0, r0, r0
  dc:	00000010 	andeq	r0, r0, r0, lsl r0
  e0:	0000000c 	andeq	r0, r0, ip
  e4:	000000a0 	andeq	r0, r0, r0, lsr #1
  e8:	00000000 	andeq	r0, r0, r0
  ec:	00000010 	andeq	r0, r0, r0, lsl r0
  f0:	00000014 	andeq	r0, r0, r4, lsl r0
  f4:	000000a0 	andeq	r0, r0, r0, lsr #1
  f8:	0000074c 	andeq	r0, r0, ip, asr #14
  fc:	00000020 	andeq	r0, r0, r0, lsr #32
 100:	83080e41 	movwhi	r0, #36417	; 0x8e41
 104:	00018e02 	andeq	r8, r1, r2, lsl #28
 108:	00000014 	andeq	r0, r0, r4, lsl r0
 10c:	000000a0 	andeq	r0, r0, r0, lsr #1
 110:	0000076c 	andeq	r0, r0, ip, ror #14
 114:	00000020 	andeq	r0, r0, r0, lsr #32
 118:	83080e41 	movwhi	r0, #36417	; 0x8e41
 11c:	00018e02 	andeq	r8, r1, r2, lsl #28
 120:	0000000c 	andeq	r0, r0, ip
 124:	ffffffff 			; <UNDEFINED> instruction: 0xffffffff
 128:	7c020001 	stcvc	0, cr0, [r2], {1}
 12c:	000d0c0e 	andeq	r0, sp, lr, lsl #24
 130:	00000018 	andeq	r0, r0, r8, lsl r0
 134:	00000120 	andeq	r0, r0, r0, lsr #2
 138:	0000078c 	andeq	r0, r0, ip, lsl #15
 13c:	00000078 	andeq	r0, r0, r8, ror r0
 140:	840c0e43 	strhi	r0, [ip], #-3651	; 0xfffff1bd
 144:	8e028503 	cfsh32hi	mvfx8, mvfx2, #3
 148:	00000001 	andeq	r0, r0, r1
 14c:	0000000c 	andeq	r0, r0, ip
 150:	00000120 	andeq	r0, r0, r0, lsr #2
 154:	00000804 	andeq	r0, r0, r4, lsl #16
 158:	00000012 	andeq	r0, r0, r2, lsl r0
 15c:	00000014 	andeq	r0, r0, r4, lsl r0
 160:	00000120 	andeq	r0, r0, r0, lsr #2
 164:	00000816 	andeq	r0, r0, r6, lsl r8
 168:	00000018 	andeq	r0, r0, r8, lsl r0
 16c:	84080e41 	strhi	r0, [r8], #-3649	; 0xfffff1bf
 170:	00018e02 	andeq	r8, r1, r2, lsl #28
 174:	0000000c 	andeq	r0, r0, ip
 178:	00000120 	andeq	r0, r0, r0, lsr #2
 17c:	00000000 	andeq	r0, r0, r0
 180:	00000014 	andeq	r0, r0, r4, lsl r0
 184:	0000000c 	andeq	r0, r0, ip
 188:	ffffffff 			; <UNDEFINED> instruction: 0xffffffff
 18c:	7c020001 	stcvc	0, cr0, [r2], {1}
 190:	000d0c0e 	andeq	r0, sp, lr, lsl #24
 194:	0000000c 	andeq	r0, r0, ip
 198:	00000184 	andeq	r0, r0, r4, lsl #3
 19c:	00000830 	andeq	r0, r0, r0, lsr r8
 1a0:	00000028 	andeq	r0, r0, r8, lsr #32
 1a4:	00000018 	andeq	r0, r0, r8, lsl r0
 1a8:	00000184 	andeq	r0, r0, r4, lsl #3
 1ac:	00000858 	andeq	r0, r0, r8, asr r8
 1b0:	000000ac 	andeq	r0, r0, ip, lsr #1
 1b4:	84100e41 	ldrhi	r0, [r0], #-3649	; 0xfffff1bf
 1b8:	86038504 	strhi	r8, [r3], -r4, lsl #10
 1bc:	00018e02 	andeq	r8, r1, r2, lsl #28
 1c0:	0000000c 	andeq	r0, r0, ip
 1c4:	00000184 	andeq	r0, r0, r4, lsl #3
 1c8:	00000904 	andeq	r0, r0, r4, lsl #18
 1cc:	00000024 	andeq	r0, r0, r4, lsr #32
 1d0:	0000000c 	andeq	r0, r0, ip
 1d4:	ffffffff 			; <UNDEFINED> instruction: 0xffffffff
 1d8:	7c020001 	stcvc	0, cr0, [r2], {1}
 1dc:	000d0c0e 	andeq	r0, sp, lr, lsl #24
 1e0:	00000018 	andeq	r0, r0, r8, lsl r0
 1e4:	000001d0 	ldrdeq	r0, [r0], -r0	; <UNPREDICTABLE>
 1e8:	00000928 	andeq	r0, r0, r8, lsr #18
 1ec:	00000144 	andeq	r0, r0, r4, asr #2
 1f0:	83100e41 	tsthi	r0, #1040	; 0x410
 1f4:	85038404 	strhi	r8, [r3, #-1028]	; 0xfffffbfc
 1f8:	00018e02 	andeq	r8, r1, r2, lsl #28
 1fc:	00000028 	andeq	r0, r0, r8, lsr #32
 200:	000001d0 	ldrdeq	r0, [r0], -r0	; <UNPREDICTABLE>
 204:	00000a6c 	andeq	r0, r0, ip, ror #20
 208:	00000230 	andeq	r0, r0, r0, lsr r2
 20c:	84240e42 	strthi	r0, [r4], #-3650	; 0xfffff1be
 210:	86088509 	strhi	r8, [r8], -r9, lsl #10
 214:	88068707 	stmdahi	r6, {r0, r1, r2, r8, r9, sl, pc}
 218:	8a048905 	bhi	122634 <__exidx_end+0x11fc7c>
 21c:	8e028b03 	vmlahi.f64	d8, d2, d3
 220:	a80e4a01 	stmdage	lr, {r0, r9, fp, lr}
 224:	00000008 	andeq	r0, r0, r8
 228:	0000000c 	andeq	r0, r0, ip
 22c:	000001d0 	ldrdeq	r0, [r0], -r0	; <UNPREDICTABLE>
 230:	00000000 	andeq	r0, r0, r0
 234:	00000002 	andeq	r0, r0, r2
 238:	0000000c 	andeq	r0, r0, ip
 23c:	ffffffff 			; <UNDEFINED> instruction: 0xffffffff
 240:	7c020001 	stcvc	0, cr0, [r2], {1}
 244:	000d0c0e 	andeq	r0, sp, lr, lsl #24
 248:	0000000c 	andeq	r0, r0, ip
 24c:	00000238 	andeq	r0, r0, r8, lsr r2
 250:	00000000 	andeq	r0, r0, r0
 254:	00000028 	andeq	r0, r0, r8, lsr #32
 258:	0000000c 	andeq	r0, r0, ip
 25c:	00000238 	andeq	r0, r0, r8, lsr r2
 260:	00000000 	andeq	r0, r0, r0
 264:	0000002c 	andeq	r0, r0, ip, lsr #32
 268:	00000014 	andeq	r0, r0, r4, lsl r0
 26c:	00000238 	andeq	r0, r0, r8, lsr r2
 270:	00000c9c 	muleq	r0, ip, ip
 274:	00000094 	muleq	r0, r4, r0
 278:	84080e41 	strhi	r0, [r8], #-3649	; 0xfffff1bf
 27c:	00018e02 	andeq	r8, r1, r2, lsl #28
 280:	00000018 	andeq	r0, r0, r8, lsl r0
 284:	00000238 	andeq	r0, r0, r8, lsr r2
 288:	00000d30 	andeq	r0, r0, r0, lsr sp
 28c:	00000058 	andeq	r0, r0, r8, asr r0
 290:	840c0e41 	strhi	r0, [ip], #-3649	; 0xfffff1bf
 294:	8e028503 	cfsh32hi	mvfx8, mvfx2, #3
 298:	00000001 	andeq	r0, r0, r1
 29c:	0000000c 	andeq	r0, r0, ip
 2a0:	ffffffff 			; <UNDEFINED> instruction: 0xffffffff
 2a4:	7c020001 	stcvc	0, cr0, [r2], {1}
 2a8:	000d0c0e 	andeq	r0, sp, lr, lsl #24
 2ac:	0000001c 	andeq	r0, r0, ip, lsl r0
 2b0:	0000029c 	muleq	r0, ip, r2
 2b4:	00000de0 	andeq	r0, r0, r0, ror #27
 2b8:	00000282 	andeq	r0, r0, r2, lsl #5
 2bc:	0c0e470a 	stceq	7, cr4, [lr], {10}
 2c0:	02850384 	addeq	r0, r5, #132, 6	; 0x10000002
 2c4:	3a03018e 	bcc	c0904 <__exidx_end+0xbdf4c>
 2c8:	00000b01 	andeq	r0, r0, r1, lsl #22
 2cc:	00000018 	andeq	r0, r0, r8, lsl r0
 2d0:	0000029c 	muleq	r0, ip, r2
 2d4:	00001064 	andeq	r1, r0, r4, rrx
 2d8:	0000001e 	andeq	r0, r0, lr, lsl r0
 2dc:	0c0e460a 	stceq	6, cr4, [lr], {10}
 2e0:	02850384 	addeq	r0, r5, #132, 6	; 0x10000002
 2e4:	0b49018e 	bleq	1240924 <__exidx_end+0x123df6c>
 2e8:	00000018 	andeq	r0, r0, r8, lsl r0
 2ec:	0000029c 	muleq	r0, ip, r2
 2f0:	00001084 	andeq	r1, r0, r4, lsl #1
 2f4:	00000022 	andeq	r0, r0, r2, lsr #32
 2f8:	0c0e460a 	stceq	6, cr4, [lr], {10}
 2fc:	02850384 	addeq	r0, r5, #132, 6	; 0x10000002
 300:	0b4b018e 	bleq	12c0940 <__exidx_end+0x12bdf88>
 304:	00000018 	andeq	r0, r0, r8, lsl r0
 308:	0000029c 	muleq	r0, ip, r2
 30c:	000010a8 	andeq	r1, r0, r8, lsr #1
 310:	0000003a 	andeq	r0, r0, sl, lsr r0
 314:	0c0e560a 	stceq	6, cr5, [lr], {10}
 318:	02850384 	addeq	r0, r5, #132, 6	; 0x10000002
 31c:	0b47018e 	bleq	11c095c <__exidx_end+0x11bdfa4>
 320:	00000024 	andeq	r0, r0, r4, lsr #32
 324:	0000029c 	muleq	r0, ip, r2
 328:	000010e4 	andeq	r1, r0, r4, ror #1
 32c:	0000006a 	andeq	r0, r0, sl, rrx
 330:	0e450a0a 	vmlaeq.f32	s1, s10, s20
 334:	8503840c 	strhi	r8, [r3, #-1036]	; 0xfffffbf4
 338:	43018e02 	movwmi	r8, #7682	; 0x1e02
 33c:	0c0e450b 	cfstr32eq	mvfx4, [lr], {11}
 340:	02850384 	addeq	r0, r5, #132, 6	; 0x10000002
 344:	0b68018e 	bleq	1a00984 <__exidx_end+0x19fdfcc>
 348:	0000000c 	andeq	r0, r0, ip
 34c:	ffffffff 			; <UNDEFINED> instruction: 0xffffffff
 350:	7c020001 	stcvc	0, cr0, [r2], {1}
 354:	000d0c0e 	andeq	r0, sp, lr, lsl #24
 358:	0000001c 	andeq	r0, r0, ip, lsl r0
 35c:	00000348 	andeq	r0, r0, r8, asr #6
 360:	00001150 	andeq	r1, r0, r0, asr r1
 364:	00000254 	andeq	r0, r0, r4, asr r2
 368:	100e410a 	andne	r4, lr, sl, lsl #2
 36c:	03850484 	orreq	r0, r5, #132, 8	; 0x84000000
 370:	018e0286 	orreq	r0, lr, r6, lsl #5
 374:	0b012903 	bleq	4a788 <__exidx_end+0x47dd0>
 378:	0000001c 	andeq	r0, r0, ip, lsl r0
 37c:	00000348 	andeq	r0, r0, r8, asr #6
 380:	000013a4 	andeq	r1, r0, r4, lsr #7
 384:	000001d0 	ldrdeq	r0, [r0], -r0	; <UNPREDICTABLE>
 388:	100e410a 	andne	r4, lr, sl, lsl #2
 38c:	03850484 	orreq	r0, r5, #132, 8	; 0x84000000
 390:	018e0286 	orreq	r0, lr, r6, lsl #5
 394:	000be702 	andeq	lr, fp, r2, lsl #14
 398:	0000000c 	andeq	r0, r0, ip
 39c:	ffffffff 			; <UNDEFINED> instruction: 0xffffffff
 3a0:	7c020001 	stcvc	0, cr0, [r2], {1}
 3a4:	000d0c0e 	andeq	r0, sp, lr, lsl #24
 3a8:	0000001c 	andeq	r0, r0, ip, lsl r0
 3ac:	00000398 	muleq	r0, r8, r3
 3b0:	00001574 	andeq	r1, r0, r4, ror r5
 3b4:	0000008a 	andeq	r0, r0, sl, lsl #1
 3b8:	040e4c0a 	streq	r4, [lr], #-3082	; 0xfffff3f6
 3bc:	0e410a4a 	vmlseq.f32	s1, s2, s20
 3c0:	520b5b00 	andpl	r5, fp, #0, 22
 3c4:	0b41000e 	bleq	1040404 <__exidx_end+0x103da4c>
 3c8:	00000018 	andeq	r0, r0, r8, lsl r0
 3cc:	00000398 	muleq	r0, r8, r3
 3d0:	00001600 	andeq	r1, r0, r0, lsl #12
 3d4:	00000020 	andeq	r0, r0, r0, lsr #32
 3d8:	080e490a 	stmdaeq	lr, {r1, r3, r8, fp, lr}
 3dc:	018e0280 	orreq	r0, lr, r0, lsl #5
 3e0:	00000b47 	andeq	r0, r0, r7, asr #22
 3e4:	00000014 	andeq	r0, r0, r4, lsl r0
 3e8:	00000398 	muleq	r0, r8, r3
 3ec:	00001620 	andeq	r1, r0, r0, lsr #12
 3f0:	00000012 	andeq	r0, r0, r2, lsl r0
 3f4:	080e420a 	stmdaeq	lr, {r1, r3, r9, lr}
 3f8:	0b47028e 	bleq	11c0e38 <__exidx_end+0x11be480>
 3fc:	00000014 	andeq	r0, r0, r4, lsl r0
 400:	00000398 	muleq	r0, r8, r3
 404:	00001634 	andeq	r1, r0, r4, lsr r6
 408:	00000012 	andeq	r0, r0, r2, lsl r0
 40c:	080e420a 	stmdaeq	lr, {r1, r3, r9, lr}
 410:	0b47028e 	bleq	11c0e50 <__exidx_end+0x11be498>
 414:	00000014 	andeq	r0, r0, r4, lsl r0
 418:	00000398 	muleq	r0, r8, r3
 41c:	00001648 	andeq	r1, r0, r8, asr #12
 420:	00000012 	andeq	r0, r0, r2, lsl r0
 424:	080e420a 	stmdaeq	lr, {r1, r3, r9, lr}
 428:	0b47028e 	bleq	11c0e68 <__exidx_end+0x11be4b0>
 42c:	00000014 	andeq	r0, r0, r4, lsl r0
 430:	00000398 	muleq	r0, r8, r3
 434:	0000165c 	andeq	r1, r0, ip, asr r6
 438:	00000012 	andeq	r0, r0, r2, lsl r0
 43c:	080e420a 	stmdaeq	lr, {r1, r3, r9, lr}
 440:	0b47028e 	bleq	11c0e80 <__exidx_end+0x11be4c8>
 444:	00000014 	andeq	r0, r0, r4, lsl r0
 448:	00000398 	muleq	r0, r8, r3
 44c:	00001670 	andeq	r1, r0, r0, ror r6
 450:	00000012 	andeq	r0, r0, r2, lsl r0
 454:	080e420a 	stmdaeq	lr, {r1, r3, r9, lr}
 458:	0b47028e 	bleq	11c0e98 <__exidx_end+0x11be4e0>
 45c:	0000000c 	andeq	r0, r0, ip
 460:	ffffffff 			; <UNDEFINED> instruction: 0xffffffff
 464:	7c020001 	stcvc	0, cr0, [r2], {1}
 468:	000d0c0e 	andeq	r0, sp, lr, lsl #24
 46c:	00000010 	andeq	r0, r0, r0, lsl r0
 470:	0000045c 	andeq	r0, r0, ip, asr r4
 474:	00001684 	andeq	r1, r0, r4, lsl #13
 478:	0000004e 	andeq	r0, r0, lr, asr #32
 47c:	000b670a 	andeq	r6, fp, sl, lsl #14
 480:	0000000c 	andeq	r0, r0, ip
 484:	ffffffff 			; <UNDEFINED> instruction: 0xffffffff
 488:	7c020001 	stcvc	0, cr0, [r2], {1}
 48c:	000d0c0e 	andeq	r0, sp, lr, lsl #24
 490:	00000010 	andeq	r0, r0, r0, lsl r0
 494:	00000480 	andeq	r0, r0, r0, lsl #9
 498:	000016d4 	ldrdeq	r1, [r0], -r4
 49c:	0000009e 	muleq	r0, lr, r0
 4a0:	0b4f020a 	bleq	13c0cd0 <__exidx_end+0x13be318>
 4a4:	0000000c 	andeq	r0, r0, ip
 4a8:	ffffffff 			; <UNDEFINED> instruction: 0xffffffff
 4ac:	7c020001 	stcvc	0, cr0, [r2], {1}
 4b0:	000d0c0e 	andeq	r0, sp, lr, lsl #24
 4b4:	00000010 	andeq	r0, r0, r0, lsl r0
 4b8:	000004a4 	andeq	r0, r0, r4, lsr #9
 4bc:	00001774 	andeq	r1, r0, r4, ror r7
 4c0:	0000016c 	andeq	r0, r0, ip, ror #2
 4c4:	0bb6020a 	bleq	fed80cf4 <__stack+0xded50cf4>
 4c8:	00000010 	andeq	r0, r0, r0, lsl r0
 4cc:	000004a4 	andeq	r0, r0, r4, lsr #9
 4d0:	000018e0 	andeq	r1, r0, r0, ror #17
 4d4:	00000024 	andeq	r0, r0, r4, lsr #32
 4d8:	000b520a 	andeq	r5, fp, sl, lsl #4
 4dc:	00000010 	andeq	r0, r0, r0, lsl r0
 4e0:	000004a4 	andeq	r0, r0, r4, lsr #9
 4e4:	00001904 	andeq	r1, r0, r4, lsl #18
 4e8:	0000008c 	andeq	r0, r0, ip, lsl #1
 4ec:	0b46020a 	bleq	1180d1c <__exidx_end+0x117e364>
 4f0:	0000000c 	andeq	r0, r0, ip
 4f4:	ffffffff 			; <UNDEFINED> instruction: 0xffffffff
 4f8:	7c020001 	stcvc	0, cr0, [r2], {1}
 4fc:	000d0c0e 	andeq	r0, sp, lr, lsl #24
 500:	00000010 	andeq	r0, r0, r0, lsl r0
 504:	000004f0 	strdeq	r0, [r0], -r0	; <UNPREDICTABLE>
 508:	00001990 	muleq	r0, r0, r9
 50c:	00000168 	andeq	r0, r0, r8, ror #2
 510:	0bb4020a 	bleq	fed00d40 <__stack+0xdecd0d40>
 514:	00000010 	andeq	r0, r0, r0, lsl r0
 518:	000004f0 	strdeq	r0, [r0], -r0	; <UNPREDICTABLE>
 51c:	00001af8 	strdeq	r1, [r0], -r8
 520:	00000136 	andeq	r0, r0, r6, lsr r1
 524:	0b9b020a 	bleq	fe6c0d54 <__stack+0xde690d54>
 528:	0000000c 	andeq	r0, r0, ip
 52c:	ffffffff 			; <UNDEFINED> instruction: 0xffffffff
 530:	7c020001 	stcvc	0, cr0, [r2], {1}
 534:	000d0c0e 	andeq	r0, sp, lr, lsl #24
 538:	0000001c 	andeq	r0, r0, ip, lsl r0
 53c:	00000528 	andeq	r0, r0, r8, lsr #10
 540:	00001c30 	andeq	r1, r0, r0, lsr ip
 544:	0000006e 	andeq	r0, r0, lr, rrx
 548:	040e4c0a 	streq	r4, [lr], #-3082	; 0xfffff3f6
 54c:	0e410a4a 	vmlseq.f32	s1, s2, s20
 550:	4e0b5100 	adfmie	f5, f3, f0
 554:	0b41000e 	bleq	1040594 <__exidx_end+0x103dbdc>
 558:	0000001c 	andeq	r0, r0, ip, lsl r0
 55c:	00000528 	andeq	r0, r0, r8, lsr #10
 560:	00001ca0 	andeq	r1, r0, r0, lsr #25
 564:	00000018 	andeq	r0, r0, r8, lsl r0
 568:	140e450a 	strne	r4, [lr], #-1290	; 0xfffffaf6
 56c:	04810580 	streq	r0, [r1], #1408	; 0x580
 570:	02830382 	addeq	r0, r3, #134217730	; 0x8000002
 574:	0b47018e 	bleq	11c0bb4 <__exidx_end+0x11be1fc>
 578:	00000014 	andeq	r0, r0, r4, lsl r0
 57c:	00000528 	andeq	r0, r0, r8, lsr #10
 580:	00001cb8 			; <UNDEFINED> instruction: 0x00001cb8
 584:	00000012 	andeq	r0, r0, r2, lsl r0
 588:	080e420a 	stmdaeq	lr, {r1, r3, r9, lr}
 58c:	0b47028e 	bleq	11c0fcc <__exidx_end+0x11be614>
 590:	00000014 	andeq	r0, r0, r4, lsl r0
 594:	00000528 	andeq	r0, r0, r8, lsr #10
 598:	00001ccc 	andeq	r1, r0, ip, asr #25
 59c:	00000012 	andeq	r0, r0, r2, lsl r0
 5a0:	080e420a 	stmdaeq	lr, {r1, r3, r9, lr}
 5a4:	0b47028e 	bleq	11c0fe4 <__exidx_end+0x11be62c>
 5a8:	00000014 	andeq	r0, r0, r4, lsl r0
 5ac:	00000528 	andeq	r0, r0, r8, lsr #10
 5b0:	00001ce0 	andeq	r1, r0, r0, ror #25
 5b4:	00000012 	andeq	r0, r0, r2, lsl r0
 5b8:	080e420a 	stmdaeq	lr, {r1, r3, r9, lr}
 5bc:	0b47028e 	bleq	11c0ffc <__exidx_end+0x11be644>
 5c0:	00000014 	andeq	r0, r0, r4, lsl r0
 5c4:	00000528 	andeq	r0, r0, r8, lsr #10
 5c8:	00001cf4 	strdeq	r1, [r0], -r4
 5cc:	00000012 	andeq	r0, r0, r2, lsl r0
 5d0:	080e420a 	stmdaeq	lr, {r1, r3, r9, lr}
 5d4:	0b47028e 	bleq	11c1014 <__exidx_end+0x11be65c>
 5d8:	00000014 	andeq	r0, r0, r4, lsl r0
 5dc:	00000528 	andeq	r0, r0, r8, lsr #10
 5e0:	00001d08 	andeq	r1, r0, r8, lsl #26
 5e4:	00000012 	andeq	r0, r0, r2, lsl r0
 5e8:	080e420a 	stmdaeq	lr, {r1, r3, r9, lr}
 5ec:	0b47028e 	bleq	11c102c <__exidx_end+0x11be674>
 5f0:	0000000c 	andeq	r0, r0, ip
 5f4:	ffffffff 			; <UNDEFINED> instruction: 0xffffffff
 5f8:	7c020001 	stcvc	0, cr0, [r2], {1}
 5fc:	000d0c0e 	andeq	r0, sp, lr, lsl #24
 600:	0000000c 	andeq	r0, r0, ip
 604:	000005f0 	strdeq	r0, [r0], -r0	; <UNPREDICTABLE>
 608:	00001d1c 	andeq	r1, r0, ip, lsl sp
 60c:	0000000c 	andeq	r0, r0, ip
 610:	0000000c 	andeq	r0, r0, ip
 614:	ffffffff 			; <UNDEFINED> instruction: 0xffffffff
 618:	7c020001 	stcvc	0, cr0, [r2], {1}
 61c:	000d0c0e 	andeq	r0, sp, lr, lsl #24
 620:	00000014 	andeq	r0, r0, r4, lsl r0
 624:	00000610 	andeq	r0, r0, r0, lsl r6
 628:	00001d28 	andeq	r1, r0, r8, lsr #26
 62c:	00000028 	andeq	r0, r0, r8, lsr #32
 630:	83080e41 	movwhi	r0, #36417	; 0x8e41
 634:	00018e02 	andeq	r8, r1, r2, lsl #28
 638:	0000000c 	andeq	r0, r0, ip
 63c:	ffffffff 			; <UNDEFINED> instruction: 0xffffffff
 640:	7c020001 	stcvc	0, cr0, [r2], {1}
 644:	000d0c0e 	andeq	r0, sp, lr, lsl #24
 648:	00000024 	andeq	r0, r0, r4, lsr #32
 64c:	00000638 	andeq	r0, r0, r8, lsr r6
 650:	00001d50 	andeq	r1, r0, r0, asr sp
 654:	00000028 	andeq	r0, r0, r8, lsr #32
 658:	83100e41 	tsthi	r0, #1040	; 0x410
 65c:	85038404 	strhi	r8, [r3, #-1028]	; 0xfffffbfc
 660:	47018e02 	strmi	r8, [r1, -r2, lsl #28]
 664:	c4c5ce0a 	strbgt	ip, [r5], #3594	; 0xe0a
 668:	42000ec3 	andmi	r0, r0, #3120	; 0xc30
 66c:	0000000b 	andeq	r0, r0, fp
 670:	0000000c 	andeq	r0, r0, ip
 674:	ffffffff 			; <UNDEFINED> instruction: 0xffffffff
 678:	7c020001 	stcvc	0, cr0, [r2], {1}
 67c:	000d0c0e 	andeq	r0, sp, lr, lsl #24
 680:	00000018 	andeq	r0, r0, r8, lsl r0
 684:	00000670 	andeq	r0, r0, r0, ror r6
 688:	00001d78 	andeq	r1, r0, r8, ror sp
 68c:	00000048 	andeq	r0, r0, r8, asr #32
 690:	84100e41 	ldrhi	r0, [r0], #-3649	; 0xfffff1bf
 694:	86038504 	strhi	r8, [r3], -r4, lsl #10
 698:	00018e02 	andeq	r8, r1, r2, lsl #28
 69c:	0000000c 	andeq	r0, r0, ip
 6a0:	ffffffff 			; <UNDEFINED> instruction: 0xffffffff
 6a4:	7c020001 	stcvc	0, cr0, [r2], {1}
 6a8:	000d0c0e 	andeq	r0, sp, lr, lsl #24
 6ac:	0000000c 	andeq	r0, r0, ip
 6b0:	0000069c 	muleq	r0, ip, r6
 6b4:	00001dc0 	andeq	r1, r0, r0, asr #27
 6b8:	00000010 	andeq	r0, r0, r0, lsl r0
 6bc:	0000000c 	andeq	r0, r0, ip
 6c0:	0000069c 	muleq	r0, ip, r6
 6c4:	00001dd0 	ldrdeq	r1, [r0], -r0
 6c8:	00000010 	andeq	r0, r0, r0, lsl r0
 6cc:	0000000c 	andeq	r0, r0, ip
 6d0:	ffffffff 			; <UNDEFINED> instruction: 0xffffffff
 6d4:	7c020001 	stcvc	0, cr0, [r2], {1}
 6d8:	000d0c0e 	andeq	r0, sp, lr, lsl #24
 6dc:	0000000c 	andeq	r0, r0, ip
 6e0:	000006cc 	andeq	r0, r0, ip, asr #13
 6e4:	00001de0 	andeq	r1, r0, r0, ror #27
 6e8:	00000010 	andeq	r0, r0, r0, lsl r0
 6ec:	0000000c 	andeq	r0, r0, ip
 6f0:	ffffffff 			; <UNDEFINED> instruction: 0xffffffff
 6f4:	7c020001 	stcvc	0, cr0, [r2], {1}
 6f8:	000d0c0e 	andeq	r0, sp, lr, lsl #24
 6fc:	00000018 	andeq	r0, r0, r8, lsl r0
 700:	000006ec 	andeq	r0, r0, ip, ror #13
 704:	00001df0 	strdeq	r1, [r0], -r0
 708:	00000088 	andeq	r0, r0, r8, lsl #1
 70c:	840c0e41 	strhi	r0, [ip], #-3649	; 0xfffff1bf
 710:	8e028503 	cfsh32hi	mvfx8, mvfx2, #3
 714:	00000001 	andeq	r0, r0, r1
 718:	0000000c 	andeq	r0, r0, ip
 71c:	ffffffff 			; <UNDEFINED> instruction: 0xffffffff
 720:	7c020001 	stcvc	0, cr0, [r2], {1}
 724:	000d0c0e 	andeq	r0, sp, lr, lsl #24
 728:	00000018 	andeq	r0, r0, r8, lsl r0
 72c:	00000718 	andeq	r0, r0, r8, lsl r7
 730:	00001e78 	andeq	r1, r0, r8, ror lr
 734:	000000a4 	andeq	r0, r0, r4, lsr #1
 738:	84100e41 	ldrhi	r0, [r0], #-3649	; 0xfffff1bf
 73c:	86038504 	strhi	r8, [r3], -r4, lsl #10
 740:	00018e02 	andeq	r8, r1, r2, lsl #28
 744:	0000000c 	andeq	r0, r0, ip
 748:	ffffffff 			; <UNDEFINED> instruction: 0xffffffff
 74c:	7c020001 	stcvc	0, cr0, [r2], {1}
 750:	000d0c0e 	andeq	r0, sp, lr, lsl #24
 754:	00000018 	andeq	r0, r0, r8, lsl r0
 758:	00000744 	andeq	r0, r0, r4, asr #14
 75c:	00001f1c 	andeq	r1, r0, ip, lsl pc
 760:	00000020 	andeq	r0, r0, r0, lsr #32
 764:	83100e41 	tsthi	r0, #1040	; 0x410
 768:	85038404 	strhi	r8, [r3, #-1028]	; 0xfffffbfc
 76c:	00018e02 	andeq	r8, r1, r2, lsl #28
 770:	0000000c 	andeq	r0, r0, ip
 774:	ffffffff 			; <UNDEFINED> instruction: 0xffffffff
 778:	7c020001 	stcvc	0, cr0, [r2], {1}
 77c:	000d0c0e 	andeq	r0, sp, lr, lsl #24
 780:	0000002c 	andeq	r0, r0, ip, lsr #32
 784:	00000770 	andeq	r0, r0, r0, ror r7
 788:	00000000 	andeq	r0, r0, r0
 78c:	00000040 	andeq	r0, r0, r0, asr #32
 790:	82080e41 	andhi	r0, r8, #1040	; 0x410
 794:	41018302 	tstmi	r1, r2, lsl #6
 798:	0484100e 	streq	r1, [r4], #14
 79c:	0e41038e 	cdpeq	3, 4, cr0, cr1, cr14, {4}
 7a0:	0e590180 	rdfeq<illegal precision>	f0, f1, f0
 7a4:	c4ce4210 	strbgt	r4, [lr], #528	; 0x210
 7a8:	c341080e 	movtgt	r0, #6158	; 0x180e
 7ac:	00000ec2 	andeq	r0, r0, r2, asr #29
 7b0:	0000002c 	andeq	r0, r0, ip, lsr #32
 7b4:	00000770 	andeq	r0, r0, r0, ror r7
 7b8:	00001f3c 	andeq	r1, r0, ip, lsr pc
 7bc:	00000048 	andeq	r0, r0, r8, asr #32
 7c0:	810c0e41 	tsthi	ip, r1, asr #28
 7c4:	83028203 	movwhi	r8, #8707	; 0x2203
 7c8:	100e4101 	andne	r4, lr, r1, lsl #2
 7cc:	0e41048e 	cdpeq	4, 4, cr0, cr1, cr14, {4}
 7d0:	0e5b0180 	rdfeq<illegal precision>	f0, f3, f0
 7d4:	0ece4210 	mcreq	2, 6, r4, cr14, cr0, {0}
 7d8:	c2c3410c 	sbcgt	r4, r3, #12, 2
 7dc:	00000ec1 	andeq	r0, r0, r1, asr #29
 7e0:	0000000c 	andeq	r0, r0, ip
 7e4:	ffffffff 			; <UNDEFINED> instruction: 0xffffffff
 7e8:	7c020001 	stcvc	0, cr0, [r2], {1}
 7ec:	000d0c0e 	andeq	r0, sp, lr, lsl #24
 7f0:	00000020 	andeq	r0, r0, r0, lsr #32
 7f4:	000007e0 	andeq	r0, r0, r0, ror #15
 7f8:	00001f84 	andeq	r1, r0, r4, lsl #31
 7fc:	000000c8 	andeq	r0, r0, r8, asr #1
 800:	83200e42 			; <UNDEFINED> instruction: 0x83200e42
 804:	85078408 	strhi	r8, [r7, #-1032]	; 0xfffffbf8
 808:	87058606 	strhi	r8, [r5, -r6, lsl #12]
 80c:	89038804 	stmdbhi	r3, {r2, fp, pc}
 810:	00018e02 	andeq	r8, r1, r2, lsl #28
 814:	0000000c 	andeq	r0, r0, ip
 818:	ffffffff 			; <UNDEFINED> instruction: 0xffffffff
 81c:	7c020001 	stcvc	0, cr0, [r2], {1}
 820:	000d0c0e 	andeq	r0, sp, lr, lsl #24
 824:	00000028 	andeq	r0, r0, r8, lsr #32
 828:	00000814 	andeq	r0, r0, r4, lsl r8
 82c:	0000204c 	andeq	r2, r0, ip, asr #32
 830:	000000dc 	ldrdeq	r0, [r0], -ip
 834:	84300e42 	ldrthi	r0, [r0], #-3650	; 0xfffff1be
 838:	86088509 	strhi	r8, [r8], -r9, lsl #10
 83c:	88068707 	stmdahi	r6, {r0, r1, r2, r8, r9, sl, pc}
 840:	8a048905 	bhi	122c5c <__exidx_end+0x1202a4>
 844:	8e028b03 	vmlahi.f64	d8, d2, d3
 848:	0e0a4a01 	vmlaeq.f32	s8, s20, s2
 84c:	000b4224 	andeq	r4, fp, r4, lsr #4
 850:	0000000c 	andeq	r0, r0, ip
 854:	ffffffff 			; <UNDEFINED> instruction: 0xffffffff
 858:	7c020001 	stcvc	0, cr0, [r2], {1}
 85c:	000d0c0e 	andeq	r0, sp, lr, lsl #24
 860:	00000020 	andeq	r0, r0, r0, lsr #32
 864:	00000850 	andeq	r0, r0, r0, asr r8
 868:	00002128 	andeq	r2, r0, r8, lsr #2
 86c:	000000b6 	strheq	r0, [r0], -r6
 870:	84200e42 	strthi	r0, [r0], #-3650	; 0xfffff1be
 874:	86078508 	strhi	r8, [r7], -r8, lsl #10
 878:	88058706 	stmdahi	r5, {r1, r2, r8, r9, sl, pc}
 87c:	8a038904 	bhi	e2c94 <__exidx_end+0xe02dc>
 880:	00018e02 	andeq	r8, r1, r2, lsl #28
 884:	00000028 	andeq	r0, r0, r8, lsr #32
 888:	00000850 	andeq	r0, r0, r0, asr r8
 88c:	00000000 	andeq	r0, r0, r0
 890:	000000f4 	strdeq	r0, [r0], -r4
 894:	84300e43 	ldrthi	r0, [r0], #-3651	; 0xfffff1bd
 898:	86088509 	strhi	r8, [r8], -r9, lsl #10
 89c:	88068707 	stmdahi	r6, {r0, r1, r2, r8, r9, sl, pc}
 8a0:	8a048905 	bhi	122cbc <__exidx_end+0x120304>
 8a4:	8e028b03 	vmlahi.f64	d8, d2, d3
 8a8:	0a690201 	beq	1a410b4 <__exidx_end+0x1a3e6fc>
 8ac:	0b42240e 	bleq	10898ec <__exidx_end+0x1086f34>
 8b0:	0000002c 	andeq	r0, r0, ip, lsr #32
 8b4:	00000850 	andeq	r0, r0, r0, asr r8
 8b8:	000021e0 	andeq	r2, r0, r0, ror #3
 8bc:	000001e8 	andeq	r0, r0, r8, ror #3
 8c0:	84240e42 	strthi	r0, [r4], #-3650	; 0xfffff1be
 8c4:	86088509 	strhi	r8, [r8], -r9, lsl #10
 8c8:	88068707 	stmdahi	r6, {r0, r1, r2, r8, r9, sl, pc}
 8cc:	8a048905 	bhi	122ce8 <__exidx_end+0x120330>
 8d0:	8e028b03 	vmlahi.f64	d8, d2, d3
 8d4:	980e4101 	stmdals	lr, {r0, r8, lr}
 8d8:	0adc0201 	beq	ff7010e4 <__stack+0xdf6d10e4>
 8dc:	0b42240e 	bleq	108991c <__exidx_end+0x1086f64>
 8e0:	0000000c 	andeq	r0, r0, ip
 8e4:	ffffffff 			; <UNDEFINED> instruction: 0xffffffff
 8e8:	7c020001 	stcvc	0, cr0, [r2], {1}
 8ec:	000d0c0e 	andeq	r0, sp, lr, lsl #24
 8f0:	00000020 	andeq	r0, r0, r0, lsr #32
 8f4:	000008e0 	andeq	r0, r0, r0, ror #17
 8f8:	000023c8 	andeq	r2, r0, r8, asr #7
 8fc:	000000ec 	andeq	r0, r0, ip, ror #1
 900:	84200e42 	strthi	r0, [r0], #-3650	; 0xfffff1be
 904:	86078508 	strhi	r8, [r7], -r8, lsl #10
 908:	88058706 	stmdahi	r5, {r1, r2, r8, r9, sl, pc}
 90c:	8a038904 	bhi	e2d24 <__exidx_end+0xe036c>
 910:	00018e02 	andeq	r8, r1, r2, lsl #28
 914:	00000028 	andeq	r0, r0, r8, lsr #32
 918:	000008e0 	andeq	r0, r0, r0, ror #17
 91c:	000024b4 			; <UNDEFINED> instruction: 0x000024b4
 920:	00000240 	andeq	r0, r0, r0, asr #4
 924:	841c0e42 	ldrhi	r0, [ip], #-3650	; 0xfffff1be
 928:	86068507 	strhi	r8, [r6], -r7, lsl #10
 92c:	88048705 	stmdahi	r4, {r0, r2, r8, r9, sl, pc}
 930:	8e028903 	vmlahi.f16	s16, s4, s6	; <UNPREDICTABLE>
 934:	300e4301 	andcc	r4, lr, r1, lsl #6
 938:	0e0a9b02 	vmlaeq.f64	d9, d10, d2
 93c:	000b421c 	andeq	r4, fp, ip, lsl r2
 940:	0000000c 	andeq	r0, r0, ip
 944:	ffffffff 			; <UNDEFINED> instruction: 0xffffffff
 948:	7c020001 	stcvc	0, cr0, [r2], {1}
 94c:	000d0c0e 	andeq	r0, sp, lr, lsl #24
 950:	00000020 	andeq	r0, r0, r0, lsr #32
 954:	00000940 	andeq	r0, r0, r0, asr #18
 958:	00000000 	andeq	r0, r0, r0
 95c:	0000001a 	andeq	r0, r0, sl, lsl r0
 960:	83100e41 	tsthi	r0, #1040	; 0x410
 964:	85038404 	strhi	r8, [r3, #-1028]	; 0xfffffbfc
 968:	4a018e02 	bmi	64178 <__exidx_end+0x617c0>
 96c:	c3c4c5ce 	bicgt	ip, r4, #864026624	; 0x33800000
 970:	0000000e 	andeq	r0, r0, lr
 974:	00000024 	andeq	r0, r0, r4, lsr #32
 978:	00000940 	andeq	r0, r0, r0, asr #18
 97c:	00000000 	andeq	r0, r0, r0
 980:	000000b8 	strheq	r0, [r0], -r8
 984:	84100e44 	ldrhi	r0, [r0], #-3652	; 0xfffff1bc
 988:	86038504 	strhi	r8, [r3], -r4, lsl #10
 98c:	02018e02 	andeq	r8, r1, #2, 28
 990:	c6ce0a4c 	strbgt	r0, [lr], ip, asr #20
 994:	000ec4c5 	andeq	ip, lr, r5, asr #9
 998:	00000b42 	andeq	r0, r0, r2, asr #22
 99c:	0000000c 	andeq	r0, r0, ip
 9a0:	ffffffff 			; <UNDEFINED> instruction: 0xffffffff
 9a4:	7c020001 	stcvc	0, cr0, [r2], {1}
 9a8:	000d0c0e 	andeq	r0, sp, lr, lsl #24
 9ac:	00000014 	andeq	r0, r0, r4, lsl r0
 9b0:	0000099c 	muleq	r0, ip, r9
 9b4:	000027a0 	andeq	r2, r0, r0, lsr #15
 9b8:	00000016 	andeq	r0, r0, r6, lsl r0
 9bc:	84080e41 	strhi	r0, [r8], #-3649	; 0xfffff1bf
 9c0:	00018e02 	andeq	r8, r1, r2, lsl #28
 9c4:	0000000c 	andeq	r0, r0, ip
 9c8:	ffffffff 			; <UNDEFINED> instruction: 0xffffffff
 9cc:	7c020001 	stcvc	0, cr0, [r2], {1}
 9d0:	000d0c0e 	andeq	r0, sp, lr, lsl #24
 9d4:	00000014 	andeq	r0, r0, r4, lsl r0
 9d8:	000009c4 	andeq	r0, r0, r4, asr #19
 9dc:	000027b6 			; <UNDEFINED> instruction: 0x000027b6
 9e0:	00000034 	andeq	r0, r0, r4, lsr r0
 9e4:	84080e42 	strhi	r0, [r8], #-3650	; 0xfffff1be
 9e8:	00018e02 	andeq	r8, r1, r2, lsl #28
 9ec:	0000000c 	andeq	r0, r0, ip
 9f0:	ffffffff 			; <UNDEFINED> instruction: 0xffffffff
 9f4:	7c020001 	stcvc	0, cr0, [r2], {1}
 9f8:	000d0c0e 	andeq	r0, sp, lr, lsl #24
 9fc:	00000028 	andeq	r0, r0, r8, lsr #32
 a00:	000009ec 	andeq	r0, r0, ip, ror #19
 a04:	000027ea 	andeq	r2, r0, sl, ror #15
 a08:	0000004c 	andeq	r0, r0, ip, asr #32
 a0c:	83180e41 	tsthi	r8, #1040	; 0x410
 a10:	85058406 	strhi	r8, [r5, #-1030]	; 0xfffffbfa
 a14:	87038604 	strhi	r8, [r3, -r4, lsl #12]
 a18:	47018e02 	strmi	r8, [r1, -r2, lsl #28]
 a1c:	c6c7ce0a 	strbgt	ip, [r7], sl, lsl #28
 a20:	0ec3c4c5 	cdpeq	4, 12, cr12, cr3, cr5, {6}
 a24:	000b4200 	andeq	r4, fp, r0, lsl #4
 a28:	0000000c 	andeq	r0, r0, ip
 a2c:	ffffffff 			; <UNDEFINED> instruction: 0xffffffff
 a30:	7c020001 	stcvc	0, cr0, [r2], {1}
 a34:	000d0c0e 	andeq	r0, sp, lr, lsl #24
 a38:	0000000c 	andeq	r0, r0, ip
 a3c:	00000a28 	andeq	r0, r0, r8, lsr #20
 a40:	00002836 	andeq	r2, r0, r6, lsr r8
 a44:	00000012 	andeq	r0, r0, r2, lsl r0
 a48:	0000000c 	andeq	r0, r0, ip
 a4c:	ffffffff 			; <UNDEFINED> instruction: 0xffffffff
 a50:	7c020001 	stcvc	0, cr0, [r2], {1}
 a54:	000d0c0e 	andeq	r0, sp, lr, lsl #24
 a58:	0000000c 	andeq	r0, r0, ip
 a5c:	00000a48 	andeq	r0, r0, r8, asr #20
 a60:	00002848 	andeq	r2, r0, r8, asr #16
 a64:	0000001c 	andeq	r0, r0, ip, lsl r0
 a68:	0000000c 	andeq	r0, r0, ip
 a6c:	ffffffff 			; <UNDEFINED> instruction: 0xffffffff
 a70:	7c020001 	stcvc	0, cr0, [r2], {1}
 a74:	000d0c0e 	andeq	r0, sp, lr, lsl #24
 a78:	0000000c 	andeq	r0, r0, ip
 a7c:	00000a68 	andeq	r0, r0, r8, ror #20
 a80:	00002864 	andeq	r2, r0, r4, ror #16
 a84:	00000002 	andeq	r0, r0, r2
